; Listing generated by Microsoft (R) Optimizing Compiler Version 19.28.29335.0 

	TITLE	C:\Users\tim23\Documents\Visual Studio 2019\Projects\Project2D\Project2D\MemoryManager\MemoryManager.cpp
	.686P
	.XMM
	include listing.inc
	.model	flat

INCLUDELIB MSVCRTD
INCLUDELIB OLDNAMES

msvcjmc	SEGMENT
__B2D2BA86_ctype@h DB 01H
__79C7FC57_basetsd@h DB 01H
__1FEB9909_corecrt_memcpy_s@h DB 01H
__A751F051_corecrt_memory@h DB 01H
__9200769A_corecrt_wstring@h DB 01H
__32E5F013_string@h DB 01H
__D545DD43_guiddef@h DB 01H
__D5DDFBF3_winnt@h DB 01H
__439612F0_processthreadsapi@h DB 01H
__5733279A_memoryapi@h DB 01H
__D4435474_winerror@h DB 01H
__B3ED30D4_winbase@h DB 01H
__DB057BA3_winuser@h DB 01H
__A7113148_winioctl@h DB 01H
__B49664B7_stdlib@h DB 01H
__EC5BC72C_propidl@h DB 01H
__6DA674A0_oleauto@h DB 01H
__A118E6DC_stralign@h DB 01H
__1E01F8EA_Heap@h DB 01H
__6208E33B_MemoryManager@h DB 01H
__76DED9D9_MemoryManager@cpp DB 01H
msvcjmc	ENDS
PUBLIC	??0Heap@@QAE@PAX@Z				; Heap::Heap
PUBLIC	??0MemoryManager@@AAE@XZ			; MemoryManager::MemoryManager
PUBLIC	?get@MemoryManager@@SAAAV1@XZ			; MemoryManager::get
PUBLIC	?__autoclassinit2@MemoryManager@@QAEXI@Z	; MemoryManager::__autoclassinit2
PUBLIC	__JustMyCode_Default
EXTRN	__Init_thread_header:PROC
EXTRN	__Init_thread_abort:PROC
EXTRN	__Init_thread_footer:PROC
EXTRN	__imp__GetProcessHeap@0:PROC
EXTRN	@__CheckForDebuggerJustMyCode@4:PROC
EXTRN	@__security_check_cookie@4:PROC
EXTRN	__RTC_CheckEsp:PROC
EXTRN	__RTC_InitBase:PROC
EXTRN	__RTC_Shutdown:PROC
EXTRN	___CxxFrameHandler3:PROC
EXTRN	_memset:PROC
EXTRN	__Init_thread_epoch:DWORD
EXTRN	___security_cookie:DWORD
EXTRN	__tls_array:DWORD
EXTRN	__tls_index:DWORD
_BSS	SEGMENT
?uniqueMemoryManager@?1??get@MemoryManager@@SAAAV2@XZ@4V2@A DD 01H DUP (?) ; `MemoryManager::get'::`2'::uniqueMemoryManager
?$TSS0@?1??get@MemoryManager@@SAAAV2@XZ@4HA DD 01H DUP (?) ; `MemoryManager::get'::`2'::$TSS0
_BSS	ENDS
;	COMDAT rtc$TMZ
rtc$TMZ	SEGMENT
__RTC_Shutdown.rtc$TMZ DD FLAT:__RTC_Shutdown
rtc$TMZ	ENDS
;	COMDAT rtc$IMZ
rtc$IMZ	SEGMENT
__RTC_InitBase.rtc$IMZ DD FLAT:__RTC_InitBase
rtc$IMZ	ENDS
;	COMDAT xdata$x
xdata$x	SEGMENT
__unwindtable$?get@MemoryManager@@SAAAV1@XZ DD 0ffffffffH
	DD	FLAT:__unwindfunclet$?get@MemoryManager@@SAAAV1@XZ$0
__ehfuncinfo$?get@MemoryManager@@SAAAV1@XZ DD 019930522H
	DD	01H
	DD	FLAT:__unwindtable$?get@MemoryManager@@SAAAV1@XZ
	DD	2 DUP(00H)
	DD	2 DUP(00H)
	DD	00H
	DD	01H
xdata$x	ENDS
; Function compile flags: /Odt
;	COMDAT __JustMyCode_Default
_TEXT	SEGMENT
__JustMyCode_Default PROC				; COMDAT
	push	ebp
	mov	ebp, esp
	pop	ebp
	ret	0
__JustMyCode_Default ENDP
_TEXT	ENDS
; Function compile flags: /Odtp /RTCsu /ZI
;	COMDAT ?__autoclassinit2@MemoryManager@@QAEXI@Z
_TEXT	SEGMENT
_this$ = -8						; size = 4
_classSize$ = 8						; size = 4
?__autoclassinit2@MemoryManager@@QAEXI@Z PROC		; MemoryManager::__autoclassinit2, COMDAT
; _this$ = ecx
	push	ebp
	mov	ebp, esp
	sub	esp, 204				; 000000ccH
	push	ebx
	push	esi
	push	edi
	push	ecx
	lea	edi, DWORD PTR [ebp-204]
	mov	ecx, 51					; 00000033H
	mov	eax, -858993460				; ccccccccH
	rep stosd
	pop	ecx
	mov	DWORD PTR _this$[ebp], ecx
	mov	eax, DWORD PTR _classSize$[ebp]
	push	eax
	push	0
	mov	ecx, DWORD PTR _this$[ebp]
	push	ecx
	call	_memset
	add	esp, 12					; 0000000cH
	pop	edi
	pop	esi
	pop	ebx
	add	esp, 204				; 000000ccH
	cmp	ebp, esp
	call	__RTC_CheckEsp
	mov	esp, ebp
	pop	ebp
	ret	4
?__autoclassinit2@MemoryManager@@QAEXI@Z ENDP		; MemoryManager::__autoclassinit2
_TEXT	ENDS
; Function compile flags: /Odtp /RTCsu /ZI
; File C:\Users\tim23\Documents\Visual Studio 2019\Projects\Project2D\Project2D\MemoryManager\MemoryManager.cpp
;	COMDAT ?get@MemoryManager@@SAAAV1@XZ
_TEXT	SEGMENT
__$EHRec$ = -12						; size = 12
?get@MemoryManager@@SAAAV1@XZ PROC			; MemoryManager::get, COMDAT

; 8    : MemoryManager& MemoryManager::get() {

	push	ebp
	mov	ebp, esp
	push	-1
	push	__ehhandler$?get@MemoryManager@@SAAAV1@XZ
	mov	eax, DWORD PTR fs:0
	push	eax
	sub	esp, 192				; 000000c0H
	push	ebx
	push	esi
	push	edi
	lea	edi, DWORD PTR [ebp-204]
	mov	ecx, 48					; 00000030H
	mov	eax, -858993460				; ccccccccH
	rep stosd
	mov	eax, DWORD PTR ___security_cookie
	xor	eax, ebp
	push	eax
	lea	eax, DWORD PTR __$EHRec$[ebp]
	mov	DWORD PTR fs:0, eax
	mov	ecx, OFFSET __76DED9D9_MemoryManager@cpp
	call	@__CheckForDebuggerJustMyCode@4

; 9    : 	static MemoryManager uniqueMemoryManager;

	mov	eax, DWORD PTR __tls_index
	mov	ecx, DWORD PTR fs:__tls_array
	mov	edx, DWORD PTR [ecx+eax*4]
	mov	eax, DWORD PTR ?$TSS0@?1??get@MemoryManager@@SAAAV2@XZ@4HA
	cmp	eax, DWORD PTR __Init_thread_epoch[edx]
	jle	SHORT $LN2@get
	push	OFFSET ?$TSS0@?1??get@MemoryManager@@SAAAV2@XZ@4HA
	call	__Init_thread_header
	add	esp, 4
	cmp	DWORD PTR ?$TSS0@?1??get@MemoryManager@@SAAAV2@XZ@4HA, -1
	jne	SHORT $LN2@get
	mov	DWORD PTR __$EHRec$[ebp+8], 0
	push	4
	mov	ecx, OFFSET ?uniqueMemoryManager@?1??get@MemoryManager@@SAAAV2@XZ@4V2@A
	call	?__autoclassinit2@MemoryManager@@QAEXI@Z
	mov	ecx, OFFSET ?uniqueMemoryManager@?1??get@MemoryManager@@SAAAV2@XZ@4V2@A
	call	??0MemoryManager@@AAE@XZ		; MemoryManager::MemoryManager
	mov	DWORD PTR __$EHRec$[ebp+8], -1
	push	OFFSET ?$TSS0@?1??get@MemoryManager@@SAAAV2@XZ@4HA
	call	__Init_thread_footer
	add	esp, 4
$LN2@get:

; 10   : 	return uniqueMemoryManager;

	mov	eax, OFFSET ?uniqueMemoryManager@?1??get@MemoryManager@@SAAAV2@XZ@4V2@A

; 11   : }

	mov	ecx, DWORD PTR __$EHRec$[ebp]
	mov	DWORD PTR fs:0, ecx
	pop	ecx
	pop	edi
	pop	esi
	pop	ebx
	add	esp, 204				; 000000ccH
	cmp	ebp, esp
	call	__RTC_CheckEsp
	mov	esp, ebp
	pop	ebp
	ret	0
_TEXT	ENDS
;	COMDAT text$x
text$x	SEGMENT
__unwindfunclet$?get@MemoryManager@@SAAAV1@XZ$0:
	push	OFFSET ?$TSS0@?1??get@MemoryManager@@SAAAV2@XZ@4HA
	call	__Init_thread_abort
	pop	ecx
	ret	0
	int	3
	int	3
	int	3
	int	3
	int	3
__ehhandler$?get@MemoryManager@@SAAAV1@XZ:
	npad	1
	npad	1
	mov	edx, DWORD PTR [esp+8]
	lea	eax, DWORD PTR [edx+12]
	mov	ecx, DWORD PTR [edx-208]
	xor	ecx, eax
	call	@__security_check_cookie@4
	mov	eax, OFFSET __ehfuncinfo$?get@MemoryManager@@SAAAV1@XZ
	jmp	___CxxFrameHandler3
text$x	ENDS
?get@MemoryManager@@SAAAV1@XZ ENDP			; MemoryManager::get
; Function compile flags: /Odtp /RTCsu /ZI
; File C:\Users\tim23\Documents\Visual Studio 2019\Projects\Project2D\Project2D\MemoryManager\MemoryManager.cpp
;	COMDAT ??0MemoryManager@@AAE@XZ
_TEXT	SEGMENT
tv70 = -208						; size = 4
_this$ = -8						; size = 4
??0MemoryManager@@AAE@XZ PROC				; MemoryManager::MemoryManager, COMDAT
; _this$ = ecx

; 5    : MemoryManager::MemoryManager() : defaultHeap(GetProcessHeap()) {

	push	ebp
	mov	ebp, esp
	sub	esp, 208				; 000000d0H
	push	ebx
	push	esi
	push	edi
	push	ecx
	lea	edi, DWORD PTR [ebp-208]
	mov	ecx, 52					; 00000034H
	mov	eax, -858993460				; ccccccccH
	rep stosd
	pop	ecx
	mov	DWORD PTR _this$[ebp], ecx
	mov	ecx, OFFSET __76DED9D9_MemoryManager@cpp
	call	@__CheckForDebuggerJustMyCode@4
	mov	eax, DWORD PTR _this$[ebp]
	mov	DWORD PTR tv70[ebp], eax
	mov	esi, esp
	call	DWORD PTR __imp__GetProcessHeap@0
	cmp	esi, esp
	call	__RTC_CheckEsp
	push	eax
	mov	ecx, DWORD PTR tv70[ebp]
	call	??0Heap@@QAE@PAX@Z			; Heap::Heap

; 6    : }

	mov	eax, DWORD PTR _this$[ebp]
	pop	edi
	pop	esi
	pop	ebx
	add	esp, 208				; 000000d0H
	cmp	ebp, esp
	call	__RTC_CheckEsp
	mov	esp, ebp
	pop	ebp
	ret	0
??0MemoryManager@@AAE@XZ ENDP				; MemoryManager::MemoryManager
_TEXT	ENDS
; Function compile flags: /Odtp /RTCsu /ZI
; File C:\Users\tim23\Documents\Visual Studio 2019\Projects\Project2D\Project2D\MemoryManager\Heap.h
;	COMDAT ??0Heap@@QAE@PAX@Z
_TEXT	SEGMENT
_this$ = -8						; size = 4
_heapHandle$ = 8					; size = 4
??0Heap@@QAE@PAX@Z PROC					; Heap::Heap, COMDAT
; _this$ = ecx

; 15   : 	Heap(HANDLE heapHandle) : handle(heapHandle) {}

	push	ebp
	mov	ebp, esp
	sub	esp, 204				; 000000ccH
	push	ebx
	push	esi
	push	edi
	push	ecx
	lea	edi, DWORD PTR [ebp-204]
	mov	ecx, 51					; 00000033H
	mov	eax, -858993460				; ccccccccH
	rep stosd
	pop	ecx
	mov	DWORD PTR _this$[ebp], ecx
	mov	ecx, OFFSET __1E01F8EA_Heap@h
	call	@__CheckForDebuggerJustMyCode@4
	mov	eax, DWORD PTR _this$[ebp]
	mov	ecx, DWORD PTR _heapHandle$[ebp]
	mov	DWORD PTR [eax], ecx
	mov	eax, DWORD PTR _this$[ebp]
	pop	edi
	pop	esi
	pop	ebx
	add	esp, 204				; 000000ccH
	cmp	ebp, esp
	call	__RTC_CheckEsp
	mov	esp, ebp
	pop	ebp
	ret	4
??0Heap@@QAE@PAX@Z ENDP					; Heap::Heap
_TEXT	ENDS
END
