; Listing generated by Microsoft (R) Optimizing Compiler Version 19.28.29335.0 

	TITLE	C:\Users\tim23\Documents\Visual Studio 2019\Projects\Project2D\Project2D\ResourceManager\NativeFileSystem.cpp
	.686P
	.XMM
	include listing.inc
	.model	flat

INCLUDELIB MSVCRTD
INCLUDELIB OLDNAMES

msvcjmc	SEGMENT
__8B404B8B_vcruntime_new@h DB 01H
__3C2D1DF9_Resource@h DB 01H
__810F60AC_FileSystem@h DB 01H
__741AE07E_corecrt_math@h DB 01H
__B49664B7_stdlib@h DB 01H
__E9466C31_cstdlib DB 01H
__A2143F22_corecrt_stdio_config@h DB 01H
__829E1958_corecrt_wstdio@h DB 01H
__6DFAE8B8_stdio@h DB 01H
__1FEB9909_corecrt_memcpy_s@h DB 01H
__C6E16F6F_corecrt_wconio@h DB 01H
__6D390390_corecrt_wio@h DB 01H
__9200769A_corecrt_wstring@h DB 01H
__1157D6BA_corecrt_wtime@h DB 01H
__1DC1E279_stat@h DB 01H
__93DC0B45_wchar@h DB 01H
__4C8DB69C_cstddef DB 01H
__A47FD3F7_limits DB 01H
__77E6CA79_type_traits DB 01H
__20BB4341_malloc@h DB 01H
__604808BE_vcruntime_exception@h DB 01H
__8655F6A9_exception DB 01H
__A751F051_corecrt_memory@h DB 01H
__32E5F013_string@h DB 01H
__DEE7E6EF_xutility DB 01H
__B4DE8A79_xmemory DB 01H
__6C99B47D_algorithm DB 01H
__2DE1CA0A_ratio DB 01H
__A0B61CF9_time@h DB 01H
__C092D57D_chrono DB 01H
__415253A4_cmath DB 01H
__E7714AE5_tuple DB 01H
__EA01D114_xpolymorphic_allocator@h DB 01H
__C00D0CE5_xstring DB 01H
__0F1BCCF4_stdexcept DB 01H
__C1F7FE2D_xcall_once@h DB 01H
__CBA6A69C_xthreads@h DB 01H
__CF4A8F35_atomic DB 01H
__7EAAEC0D_system_error DB 01H
__EC89C42C_vcruntime_typeinfo@h DB 01H
__AE3815F6_typeinfo DB 01H
__18D1DF79_memory DB 01H
__34948876_xfacet DB 01H
__B2D2BA86_ctype@h DB 01H
__B1B1F63E_xlocinfo DB 01H
__1F3378D4_xlocale DB 01H
__8854812D_xiosbase DB 01H
__81B41EC3_xlocnum DB 01H
__5618765D_ios DB 01H
__AAD60BFB_xlocmon DB 01H
__15AC5F2C_xloctime DB 01H
__333F8FA8_xlocmes DB 01H
__18C7867E_xfilesystem_abi@h DB 01H
__71B70C9A_list DB 01H
__A704387C_filesystem DB 01H
__D426F35F_NativeFileSystem@h DB 01H
__2A0FE41E_ResourceName@h DB 01H
__99BBE7C3_fstream DB 01H
__6AF8D130_NativeFileSystem@cpp DB 01H
__DE4BE9BA_utility DB 01H
__E9D2A317_vector DB 01H
__B33C2DD4_locale DB 01H
__6FF3972A_istream DB 01H
__0C23A210_ostream DB 01H
__0DBB7448_streambuf DB 01H
__CF4B51AF_iterator DB 01H
__68960671_iosfwd DB 01H
__29547EA8_xstddef DB 01H
__8C597A7F_xatomic@h DB 01H
msvcjmc	ENDS
PUBLIC	?__empty_global_delete@@YAXPAX@Z		; __empty_global_delete
PUBLIC	?__empty_global_delete@@YAXPAXI@Z		; __empty_global_delete
PUBLIC	?__empty_global_delete@@YAXPAXW4align_val_t@std@@@Z ; __empty_global_delete
PUBLIC	?__empty_global_delete@@YAXPAXIW4align_val_t@std@@@Z ; __empty_global_delete
PUBLIC	??2@YAPAXIPAX@Z					; operator new
PUBLIC	_wmemcpy
PUBLIC	_wmemset
PUBLIC	?max@?$numeric_limits@H@std@@SAHXZ		; std::numeric_limits<int>::max
PUBLIC	??0exception@std@@QAE@QBD@Z			; std::exception::exception
PUBLIC	??0exception@std@@QAE@QBDH@Z			; std::exception::exception
PUBLIC	??0exception@std@@QAE@ABV01@@Z			; std::exception::exception
PUBLIC	??1exception@std@@UAE@XZ			; std::exception::~exception
PUBLIC	?what@exception@std@@UBEPBDXZ			; std::exception::what
PUBLIC	??_Gexception@std@@UAEPAXI@Z			; std::exception::`scalar deleting destructor'
PUBLIC	??0bad_alloc@std@@AAE@QBD@Z			; std::bad_alloc::bad_alloc
PUBLIC	??1bad_alloc@std@@UAE@XZ			; std::bad_alloc::~bad_alloc
PUBLIC	??0bad_alloc@std@@QAE@ABV01@@Z			; std::bad_alloc::bad_alloc
PUBLIC	??_Gbad_alloc@std@@UAEPAXI@Z			; std::bad_alloc::`scalar deleting destructor'
PUBLIC	??0bad_array_new_length@std@@QAE@XZ		; std::bad_array_new_length::bad_array_new_length
PUBLIC	??1bad_array_new_length@std@@UAE@XZ		; std::bad_array_new_length::~bad_array_new_length
PUBLIC	??0bad_array_new_length@std@@QAE@ABV01@@Z	; std::bad_array_new_length::bad_array_new_length
PUBLIC	??_Gbad_array_new_length@std@@UAEPAXI@Z		; std::bad_array_new_length::`scalar deleting destructor'
PUBLIC	?_Throw_bad_array_new_length@std@@YAXXZ		; std::_Throw_bad_array_new_length
PUBLIC	?_Allocate@_Default_allocate_traits@std@@SAPAXI@Z ; std::_Default_allocate_traits::_Allocate
PUBLIC	?_Adjust_manually_vector_aligned@std@@YAXAAPAXAAI@Z ; std::_Adjust_manually_vector_aligned
PUBLIC	??$_Convert_size@I@std@@YAII@Z			; std::_Convert_size<unsigned int>
PUBLIC	??0_Container_proxy@std@@QAE@PAU_Container_base12@1@@Z ; std::_Container_proxy::_Container_proxy
PUBLIC	??0_Container_base12@std@@QAE@XZ		; std::_Container_base12::_Container_base12
PUBLIC	?_Orphan_all@_Container_base12@std@@QAEXXZ	; std::_Container_base12::_Orphan_all
PUBLIC	?_Swap_proxy_and_iterators@_Container_base12@std@@QAEXAAU12@@Z ; std::_Container_base12::_Swap_proxy_and_iterators
PUBLIC	?_Release@_Basic_container_proxy_ptr12@std@@QAEXXZ ; std::_Basic_container_proxy_ptr12::_Release
PUBLIC	??$addressof@U_Container_base12@std@@@std@@YAPAU_Container_base12@0@AAU10@@Z ; std::addressof<std::_Container_base12>
PUBLIC	??$_Construct_in_place@U_Container_proxy@std@@PAU_Container_base12@2@@std@@YAXAAU_Container_proxy@0@$$QAPAU_Container_base12@0@@Z ; std::_Construct_in_place<std::_Container_proxy,std::_Container_base12 *>
PUBLIC	??0?$allocator@D@std@@QAE@XZ			; std::allocator<char>::allocator<char>
PUBLIC	?deallocate@?$allocator@D@std@@QAEXQADI@Z	; std::allocator<char>::deallocate
PUBLIC	?allocate@?$allocator@D@std@@QAEPADI@Z		; std::allocator<char>::allocate
PUBLIC	?copy@?$_Char_traits@_WG@std@@SAPA_WQA_WQB_WI@Z	; std::_Char_traits<wchar_t,unsigned short>::copy
PUBLIC	?assign@?$_WChar_traits@_W@std@@SAPA_WQA_WI_W@Z	; std::_WChar_traits<wchar_t>::assign
PUBLIC	?assign@?$_WChar_traits@_W@std@@SAXAA_WAB_W@Z	; std::_WChar_traits<wchar_t>::assign
PUBLIC	?copy@?$_Char_traits@DH@std@@SAPADQADQBDI@Z	; std::_Char_traits<char,int>::copy
PUBLIC	?move@?$_Char_traits@DH@std@@SAPADQADQBDI@Z	; std::_Char_traits<char,int>::move
PUBLIC	?length@?$_Narrow_char_traits@DH@std@@SAIQBD@Z	; std::_Narrow_char_traits<char,int>::length
PUBLIC	?assign@?$_Narrow_char_traits@DH@std@@SAPADQADID@Z ; std::_Narrow_char_traits<char,int>::assign
PUBLIC	?assign@?$_Narrow_char_traits@DH@std@@SAXAADABD@Z ; std::_Narrow_char_traits<char,int>::assign
PUBLIC	?to_char_type@?$_Narrow_char_traits@DH@std@@SADABH@Z ; std::_Narrow_char_traits<char,int>::to_char_type
PUBLIC	?to_int_type@?$_Narrow_char_traits@DH@std@@SAHABD@Z ; std::_Narrow_char_traits<char,int>::to_int_type
PUBLIC	?eq_int_type@?$_Narrow_char_traits@DH@std@@SA_NABH0@Z ; std::_Narrow_char_traits<char,int>::eq_int_type
PUBLIC	?not_eof@?$_Narrow_char_traits@DH@std@@SAHABH@Z	; std::_Narrow_char_traits<char,int>::not_eof
PUBLIC	?eof@?$_Narrow_char_traits@DH@std@@SAHXZ	; std::_Narrow_char_traits<char,int>::eof
PUBLIC	??__Ksv@string_view_literals@literals@std@@YA?AV?$basic_string_view@DU?$char_traits@D@std@@@3@PBDI@Z ; std::literals::string_view_literals::operator "" sv
PUBLIC	??0?$basic_string_view@DU?$char_traits@D@std@@@std@@QAE@QBD@Z ; std::basic_string_view<char,std::char_traits<char> >::basic_string_view<char,std::char_traits<char> >
PUBLIC	??0?$basic_string_view@DU?$char_traits@D@std@@@std@@QAE@QBDI@Z ; std::basic_string_view<char,std::char_traits<char> >::basic_string_view<char,std::char_traits<char> >
PUBLIC	?size@?$basic_string_view@DU?$char_traits@D@std@@@std@@QBEIXZ ; std::basic_string_view<char,std::char_traits<char> >::size
PUBLIC	?empty@?$basic_string_view@DU?$char_traits@D@std@@@std@@QBE_NXZ ; std::basic_string_view<char,std::char_traits<char> >::empty
PUBLIC	?data@?$basic_string_view@DU?$char_traits@D@std@@@std@@QBEPBDXZ ; std::basic_string_view<char,std::char_traits<char> >::data
PUBLIC	?__autoclassinit2@?$basic_string_view@DU?$char_traits@D@std@@@std@@QAEXI@Z ; std::basic_string_view<char,std::char_traits<char> >::__autoclassinit2
PUBLIC	??0?$basic_string_view@_WU?$char_traits@_W@std@@@std@@QAE@QB_WI@Z ; std::basic_string_view<wchar_t,std::char_traits<wchar_t> >::basic_string_view<wchar_t,std::char_traits<wchar_t> >
PUBLIC	?size@?$basic_string_view@_WU?$char_traits@_W@std@@@std@@QBEIXZ ; std::basic_string_view<wchar_t,std::char_traits<wchar_t> >::size
PUBLIC	?empty@?$basic_string_view@_WU?$char_traits@_W@std@@@std@@QBE_NXZ ; std::basic_string_view<wchar_t,std::char_traits<wchar_t> >::empty
PUBLIC	?data@?$basic_string_view@_WU?$char_traits@_W@std@@@std@@QBEPB_WXZ ; std::basic_string_view<wchar_t,std::char_traits<wchar_t> >::data
PUBLIC	?_Xlen_string@std@@YAXXZ			; std::_Xlen_string
PUBLIC	?max_size@?$_Default_allocator_traits@V?$allocator@D@std@@@std@@SAIABV?$allocator@D@2@@Z ; std::_Default_allocator_traits<std::allocator<char> >::max_size
PUBLIC	?select_on_container_copy_construction@?$_Default_allocator_traits@V?$allocator@D@std@@@std@@SA?AV?$allocator@D@2@ABV32@@Z ; std::_Default_allocator_traits<std::allocator<char> >::select_on_container_copy_construction
PUBLIC	??0?$_String_val@U?$_Simple_types@D@std@@@std@@QAE@XZ ; std::_String_val<std::_Simple_types<char> >::_String_val<std::_Simple_types<char> >
PUBLIC	?_Myptr@?$_String_val@U?$_Simple_types@D@std@@@std@@QAEPADXZ ; std::_String_val<std::_Simple_types<char> >::_Myptr
PUBLIC	?_Myptr@?$_String_val@U?$_Simple_types@D@std@@@std@@QBEPBDXZ ; std::_String_val<std::_Simple_types<char> >::_Myptr
PUBLIC	?_Large_string_engaged@?$_String_val@U?$_Simple_types@D@std@@@std@@QBE_NXZ ; std::_String_val<std::_Simple_types<char> >::_Large_string_engaged
PUBLIC	?_Check_offset@?$_String_val@U?$_Simple_types@D@std@@@std@@QBEXI@Z ; std::_String_val<std::_Simple_types<char> >::_Check_offset
PUBLIC	?_Xran@?$_String_val@U?$_Simple_types@D@std@@@std@@SAXXZ ; std::_String_val<std::_Simple_types<char> >::_Xran
PUBLIC	?_Clamp_suffix_size@?$_String_val@U?$_Simple_types@D@std@@@std@@QBEIII@Z ; std::_String_val<std::_Simple_types<char> >::_Clamp_suffix_size
PUBLIC	??0_Bxty@?$_String_val@U?$_Simple_types@D@std@@@std@@QAE@XZ ; std::_String_val<std::_Simple_types<char> >::_Bxty::_Bxty
PUBLIC	??1_Bxty@?$_String_val@U?$_Simple_types@D@std@@@std@@QAE@XZ ; std::_String_val<std::_Simple_types<char> >::_Bxty::~_Bxty
PUBLIC	??1?$_String_val@U?$_Simple_types@D@std@@@std@@QAE@XZ ; std::_String_val<std::_Simple_types<char> >::~_String_val<std::_Simple_types<char> >
PUBLIC	??0?$basic_string@DU?$char_traits@D@std@@V?$allocator@D@2@@std@@QAE@ABV01@@Z ; std::basic_string<char,std::char_traits<char>,std::allocator<char> >::basic_string<char,std::char_traits<char>,std::allocator<char> >
PUBLIC	??0?$basic_string@DU?$char_traits@D@std@@V?$allocator@D@2@@std@@QAE@XZ ; std::basic_string<char,std::char_traits<char>,std::allocator<char> >::basic_string<char,std::char_traits<char>,std::allocator<char> >
PUBLIC	??0?$basic_string@DU?$char_traits@D@std@@V?$allocator@D@2@@std@@QAE@ABV?$allocator@D@1@@Z ; std::basic_string<char,std::char_traits<char>,std::allocator<char> >::basic_string<char,std::char_traits<char>,std::allocator<char> >
PUBLIC	??0?$basic_string@DU?$char_traits@D@std@@V?$allocator@D@2@@std@@QAE@QBDI@Z ; std::basic_string<char,std::char_traits<char>,std::allocator<char> >::basic_string<char,std::char_traits<char>,std::allocator<char> >
PUBLIC	??0?$basic_string@DU?$char_traits@D@std@@V?$allocator@D@2@@std@@QAE@QBD@Z ; std::basic_string<char,std::char_traits<char>,std::allocator<char> >::basic_string<char,std::char_traits<char>,std::allocator<char> >
PUBLIC	??0?$basic_string@DU?$char_traits@D@std@@V?$allocator@D@2@@std@@QAE@$$QAV01@@Z ; std::basic_string<char,std::char_traits<char>,std::allocator<char> >::basic_string<char,std::char_traits<char>,std::allocator<char> >
PUBLIC	?_Memcpy_val_from@?$basic_string@DU?$char_traits@D@std@@V?$allocator@D@2@@std@@AAEXABV12@@Z ; std::basic_string<char,std::char_traits<char>,std::allocator<char> >::_Memcpy_val_from
PUBLIC	?_Take_contents@?$basic_string@DU?$char_traits@D@std@@V?$allocator@D@2@@std@@AAEXAAV12@U?$integral_constant@_N$00@2@@Z ; std::basic_string<char,std::char_traits<char>,std::allocator<char> >::_Take_contents
PUBLIC	?_Construct_lv_contents@?$basic_string@DU?$char_traits@D@std@@V?$allocator@D@2@@std@@AAEXABV12@@Z ; std::basic_string<char,std::char_traits<char>,std::allocator<char> >::_Construct_lv_contents
PUBLIC	??1?$basic_string@DU?$char_traits@D@std@@V?$allocator@D@2@@std@@QAE@XZ ; std::basic_string<char,std::char_traits<char>,std::allocator<char> >::~basic_string<char,std::char_traits<char>,std::allocator<char> >
PUBLIC	??Y?$basic_string@DU?$char_traits@D@std@@V?$allocator@D@2@@std@@QAEAAV01@ABV01@@Z ; std::basic_string<char,std::char_traits<char>,std::allocator<char> >::operator+=
PUBLIC	??Y?$basic_string@DU?$char_traits@D@std@@V?$allocator@D@2@@std@@QAEAAV01@D@Z ; std::basic_string<char,std::char_traits<char>,std::allocator<char> >::operator+=
PUBLIC	?append@?$basic_string@DU?$char_traits@D@std@@V?$allocator@D@2@@std@@QAEAAV12@ABV12@@Z ; std::basic_string<char,std::char_traits<char>,std::allocator<char> >::append
PUBLIC	?append@?$basic_string@DU?$char_traits@D@std@@V?$allocator@D@2@@std@@QAEAAV12@QBDI@Z ; std::basic_string<char,std::char_traits<char>,std::allocator<char> >::append
PUBLIC	?append@?$basic_string@DU?$char_traits@D@std@@V?$allocator@D@2@@std@@QAEAAV12@QBD@Z ; std::basic_string<char,std::char_traits<char>,std::allocator<char> >::append
PUBLIC	?append@?$basic_string@DU?$char_traits@D@std@@V?$allocator@D@2@@std@@QAEAAV12@ID@Z ; std::basic_string<char,std::char_traits<char>,std::allocator<char> >::append
PUBLIC	?assign@?$basic_string@DU?$char_traits@D@std@@V?$allocator@D@2@@std@@QAEAAV12@QBDI@Z ; std::basic_string<char,std::char_traits<char>,std::allocator<char> >::assign
PUBLIC	?assign@?$basic_string@DU?$char_traits@D@std@@V?$allocator@D@2@@std@@QAEAAV12@QBD@Z ; std::basic_string<char,std::char_traits<char>,std::allocator<char> >::assign
PUBLIC	?_Erase_noexcept@?$basic_string@DU?$char_traits@D@std@@V?$allocator@D@2@@std@@AAEAAV12@II@Z ; std::basic_string<char,std::char_traits<char>,std::allocator<char> >::_Erase_noexcept
PUBLIC	?erase@?$basic_string@DU?$char_traits@D@std@@V?$allocator@D@2@@std@@QAEAAV12@II@Z ; std::basic_string<char,std::char_traits<char>,std::allocator<char> >::erase
PUBLIC	?push_back@?$basic_string@DU?$char_traits@D@std@@V?$allocator@D@2@@std@@QAEXD@Z ; std::basic_string<char,std::char_traits<char>,std::allocator<char> >::push_back
PUBLIC	?front@?$basic_string@DU?$char_traits@D@std@@V?$allocator@D@2@@std@@QAEAADXZ ; std::basic_string<char,std::char_traits<char>,std::allocator<char> >::front
PUBLIC	?c_str@?$basic_string@DU?$char_traits@D@std@@V?$allocator@D@2@@std@@QBEPBDXZ ; std::basic_string<char,std::char_traits<char>,std::allocator<char> >::c_str
PUBLIC	?data@?$basic_string@DU?$char_traits@D@std@@V?$allocator@D@2@@std@@QAEPADXZ ; std::basic_string<char,std::char_traits<char>,std::allocator<char> >::data
PUBLIC	?size@?$basic_string@DU?$char_traits@D@std@@V?$allocator@D@2@@std@@QBEIXZ ; std::basic_string<char,std::char_traits<char>,std::allocator<char> >::size
PUBLIC	?max_size@?$basic_string@DU?$char_traits@D@std@@V?$allocator@D@2@@std@@QBEIXZ ; std::basic_string<char,std::char_traits<char>,std::allocator<char> >::max_size
PUBLIC	?resize@?$basic_string@DU?$char_traits@D@std@@V?$allocator@D@2@@std@@QAEXID@Z ; std::basic_string<char,std::char_traits<char>,std::allocator<char> >::resize
PUBLIC	?reserve@?$basic_string@DU?$char_traits@D@std@@V?$allocator@D@2@@std@@QAEXI@Z ; std::basic_string<char,std::char_traits<char>,std::allocator<char> >::reserve
PUBLIC	?empty@?$basic_string@DU?$char_traits@D@std@@V?$allocator@D@2@@std@@QBE_NXZ ; std::basic_string<char,std::char_traits<char>,std::allocator<char> >::empty
PUBLIC	?_Calculate_growth@?$basic_string@DU?$char_traits@D@std@@V?$allocator@D@2@@std@@CAIIII@Z ; std::basic_string<char,std::char_traits<char>,std::allocator<char> >::_Calculate_growth
PUBLIC	?_Calculate_growth@?$basic_string@DU?$char_traits@D@std@@V?$allocator@D@2@@std@@ABEII@Z ; std::basic_string<char,std::char_traits<char>,std::allocator<char> >::_Calculate_growth
PUBLIC	?_Become_small@?$basic_string@DU?$char_traits@D@std@@V?$allocator@D@2@@std@@AAEXXZ ; std::basic_string<char,std::char_traits<char>,std::allocator<char> >::_Become_small
PUBLIC	?_Eos@?$basic_string@DU?$char_traits@D@std@@V?$allocator@D@2@@std@@AAEXI@Z ; std::basic_string<char,std::char_traits<char>,std::allocator<char> >::_Eos
PUBLIC	?_Tidy_init@?$basic_string@DU?$char_traits@D@std@@V?$allocator@D@2@@std@@AAEXXZ ; std::basic_string<char,std::char_traits<char>,std::allocator<char> >::_Tidy_init
PUBLIC	?_Tidy_deallocate@?$basic_string@DU?$char_traits@D@std@@V?$allocator@D@2@@std@@AAEXXZ ; std::basic_string<char,std::char_traits<char>,std::allocator<char> >::_Tidy_deallocate
PUBLIC	?_Swap_proxy_and_iterators@?$basic_string@DU?$char_traits@D@std@@V?$allocator@D@2@@std@@AAEXAAV12@@Z ; std::basic_string<char,std::char_traits<char>,std::allocator<char> >::_Swap_proxy_and_iterators
PUBLIC	?_Getal@?$basic_string@DU?$char_traits@D@std@@V?$allocator@D@2@@std@@AAEAAV?$allocator@D@2@XZ ; std::basic_string<char,std::char_traits<char>,std::allocator<char> >::_Getal
PUBLIC	?_Getal@?$basic_string@DU?$char_traits@D@std@@V?$allocator@D@2@@std@@ABEABV?$allocator@D@2@XZ ; std::basic_string<char,std::char_traits<char>,std::allocator<char> >::_Getal
PUBLIC	?_Get_first@?$_Compressed_pair@V?$allocator@D@std@@V?$_String_val@U?$_Simple_types@D@std@@@2@$00@std@@QAEAAV?$allocator@D@2@XZ ; std::_Compressed_pair<std::allocator<char>,std::_String_val<std::_Simple_types<char> >,1>::_Get_first
PUBLIC	?_Get_first@?$_Compressed_pair@V?$allocator@D@std@@V?$_String_val@U?$_Simple_types@D@std@@@2@$00@std@@QBEABV?$allocator@D@2@XZ ; std::_Compressed_pair<std::allocator<char>,std::_String_val<std::_Simple_types<char> >,1>::_Get_first
PUBLIC	??1?$_Compressed_pair@V?$allocator@D@std@@V?$_String_val@U?$_Simple_types@D@std@@@2@$00@std@@QAE@XZ ; std::_Compressed_pair<std::allocator<char>,std::_String_val<std::_Simple_types<char> >,1>::~_Compressed_pair<std::allocator<char>,std::_String_val<std::_Simple_types<char> >,1>
PUBLIC	??0?$allocator@_W@std@@QAE@XZ			; std::allocator<wchar_t>::allocator<wchar_t>
PUBLIC	?deallocate@?$allocator@_W@std@@QAEXQA_WI@Z	; std::allocator<wchar_t>::deallocate
PUBLIC	?allocate@?$allocator@_W@std@@QAEPA_WI@Z	; std::allocator<wchar_t>::allocate
PUBLIC	?max_size@?$_Default_allocator_traits@V?$allocator@_W@std@@@std@@SAIABV?$allocator@_W@2@@Z ; std::_Default_allocator_traits<std::allocator<wchar_t> >::max_size
PUBLIC	?select_on_container_copy_construction@?$_Default_allocator_traits@V?$allocator@_W@std@@@std@@SA?AV?$allocator@_W@2@ABV32@@Z ; std::_Default_allocator_traits<std::allocator<wchar_t> >::select_on_container_copy_construction
PUBLIC	??0?$_String_val@U?$_Simple_types@_W@std@@@std@@QAE@XZ ; std::_String_val<std::_Simple_types<wchar_t> >::_String_val<std::_Simple_types<wchar_t> >
PUBLIC	?_Myptr@?$_String_val@U?$_Simple_types@_W@std@@@std@@QAEPA_WXZ ; std::_String_val<std::_Simple_types<wchar_t> >::_Myptr
PUBLIC	?_Myptr@?$_String_val@U?$_Simple_types@_W@std@@@std@@QBEPB_WXZ ; std::_String_val<std::_Simple_types<wchar_t> >::_Myptr
PUBLIC	?_Large_string_engaged@?$_String_val@U?$_Simple_types@_W@std@@@std@@QBE_NXZ ; std::_String_val<std::_Simple_types<wchar_t> >::_Large_string_engaged
PUBLIC	??0_Bxty@?$_String_val@U?$_Simple_types@_W@std@@@std@@QAE@XZ ; std::_String_val<std::_Simple_types<wchar_t> >::_Bxty::_Bxty
PUBLIC	??1_Bxty@?$_String_val@U?$_Simple_types@_W@std@@@std@@QAE@XZ ; std::_String_val<std::_Simple_types<wchar_t> >::_Bxty::~_Bxty
PUBLIC	??1?$_String_val@U?$_Simple_types@_W@std@@@std@@QAE@XZ ; std::_String_val<std::_Simple_types<wchar_t> >::~_String_val<std::_Simple_types<wchar_t> >
PUBLIC	??0?$basic_string@_WU?$char_traits@_W@std@@V?$allocator@_W@2@@std@@QAE@ABV01@@Z ; std::basic_string<wchar_t,std::char_traits<wchar_t>,std::allocator<wchar_t> >::basic_string<wchar_t,std::char_traits<wchar_t>,std::allocator<wchar_t> >
PUBLIC	??0?$basic_string@_WU?$char_traits@_W@std@@V?$allocator@_W@2@@std@@QAE@XZ ; std::basic_string<wchar_t,std::char_traits<wchar_t>,std::allocator<wchar_t> >::basic_string<wchar_t,std::char_traits<wchar_t>,std::allocator<wchar_t> >
PUBLIC	??0?$basic_string@_WU?$char_traits@_W@std@@V?$allocator@_W@2@@std@@QAE@$$QAV01@@Z ; std::basic_string<wchar_t,std::char_traits<wchar_t>,std::allocator<wchar_t> >::basic_string<wchar_t,std::char_traits<wchar_t>,std::allocator<wchar_t> >
PUBLIC	?_Memcpy_val_from@?$basic_string@_WU?$char_traits@_W@std@@V?$allocator@_W@2@@std@@AAEXABV12@@Z ; std::basic_string<wchar_t,std::char_traits<wchar_t>,std::allocator<wchar_t> >::_Memcpy_val_from
PUBLIC	?_Take_contents@?$basic_string@_WU?$char_traits@_W@std@@V?$allocator@_W@2@@std@@AAEXAAV12@U?$integral_constant@_N$00@2@@Z ; std::basic_string<wchar_t,std::char_traits<wchar_t>,std::allocator<wchar_t> >::_Take_contents
PUBLIC	?_Construct_lv_contents@?$basic_string@_WU?$char_traits@_W@std@@V?$allocator@_W@2@@std@@AAEXABV12@@Z ; std::basic_string<wchar_t,std::char_traits<wchar_t>,std::allocator<wchar_t> >::_Construct_lv_contents
PUBLIC	??1?$basic_string@_WU?$char_traits@_W@std@@V?$allocator@_W@2@@std@@QAE@XZ ; std::basic_string<wchar_t,std::char_traits<wchar_t>,std::allocator<wchar_t> >::~basic_string<wchar_t,std::char_traits<wchar_t>,std::allocator<wchar_t> >
PUBLIC	?append@?$basic_string@_WU?$char_traits@_W@std@@V?$allocator@_W@2@@std@@QAEAAV12@I_W@Z ; std::basic_string<wchar_t,std::char_traits<wchar_t>,std::allocator<wchar_t> >::append
PUBLIC	??B?$basic_string@_WU?$char_traits@_W@std@@V?$allocator@_W@2@@std@@QBE?AV?$basic_string_view@_WU?$char_traits@_W@std@@@1@XZ ; std::basic_string<wchar_t,std::char_traits<wchar_t>,std::allocator<wchar_t> >::operator std::basic_string_view<wchar_t,std::char_traits<wchar_t> >
PUBLIC	?c_str@?$basic_string@_WU?$char_traits@_W@std@@V?$allocator@_W@2@@std@@QBEPB_WXZ ; std::basic_string<wchar_t,std::char_traits<wchar_t>,std::allocator<wchar_t> >::c_str
PUBLIC	?data@?$basic_string@_WU?$char_traits@_W@std@@V?$allocator@_W@2@@std@@QAEPA_WXZ ; std::basic_string<wchar_t,std::char_traits<wchar_t>,std::allocator<wchar_t> >::data
PUBLIC	?size@?$basic_string@_WU?$char_traits@_W@std@@V?$allocator@_W@2@@std@@QBEIXZ ; std::basic_string<wchar_t,std::char_traits<wchar_t>,std::allocator<wchar_t> >::size
PUBLIC	?max_size@?$basic_string@_WU?$char_traits@_W@std@@V?$allocator@_W@2@@std@@QBEIXZ ; std::basic_string<wchar_t,std::char_traits<wchar_t>,std::allocator<wchar_t> >::max_size
PUBLIC	?resize@?$basic_string@_WU?$char_traits@_W@std@@V?$allocator@_W@2@@std@@QAEXI_W@Z ; std::basic_string<wchar_t,std::char_traits<wchar_t>,std::allocator<wchar_t> >::resize
PUBLIC	?_Calculate_growth@?$basic_string@_WU?$char_traits@_W@std@@V?$allocator@_W@2@@std@@CAIIII@Z ; std::basic_string<wchar_t,std::char_traits<wchar_t>,std::allocator<wchar_t> >::_Calculate_growth
PUBLIC	?_Calculate_growth@?$basic_string@_WU?$char_traits@_W@std@@V?$allocator@_W@2@@std@@ABEII@Z ; std::basic_string<wchar_t,std::char_traits<wchar_t>,std::allocator<wchar_t> >::_Calculate_growth
PUBLIC	?_Eos@?$basic_string@_WU?$char_traits@_W@std@@V?$allocator@_W@2@@std@@AAEXI@Z ; std::basic_string<wchar_t,std::char_traits<wchar_t>,std::allocator<wchar_t> >::_Eos
PUBLIC	?_Tidy_init@?$basic_string@_WU?$char_traits@_W@std@@V?$allocator@_W@2@@std@@AAEXXZ ; std::basic_string<wchar_t,std::char_traits<wchar_t>,std::allocator<wchar_t> >::_Tidy_init
PUBLIC	?_Tidy_deallocate@?$basic_string@_WU?$char_traits@_W@std@@V?$allocator@_W@2@@std@@AAEXXZ ; std::basic_string<wchar_t,std::char_traits<wchar_t>,std::allocator<wchar_t> >::_Tidy_deallocate
PUBLIC	?_Swap_proxy_and_iterators@?$basic_string@_WU?$char_traits@_W@std@@V?$allocator@_W@2@@std@@AAEXAAV12@@Z ; std::basic_string<wchar_t,std::char_traits<wchar_t>,std::allocator<wchar_t> >::_Swap_proxy_and_iterators
PUBLIC	?_Getal@?$basic_string@_WU?$char_traits@_W@std@@V?$allocator@_W@2@@std@@AAEAAV?$allocator@_W@2@XZ ; std::basic_string<wchar_t,std::char_traits<wchar_t>,std::allocator<wchar_t> >::_Getal
PUBLIC	?_Getal@?$basic_string@_WU?$char_traits@_W@std@@V?$allocator@_W@2@@std@@ABEABV?$allocator@_W@2@XZ ; std::basic_string<wchar_t,std::char_traits<wchar_t>,std::allocator<wchar_t> >::_Getal
PUBLIC	?_Get_first@?$_Compressed_pair@V?$allocator@_W@std@@V?$_String_val@U?$_Simple_types@_W@std@@@2@$00@std@@QAEAAV?$allocator@_W@2@XZ ; std::_Compressed_pair<std::allocator<wchar_t>,std::_String_val<std::_Simple_types<wchar_t> >,1>::_Get_first
PUBLIC	?_Get_first@?$_Compressed_pair@V?$allocator@_W@std@@V?$_String_val@U?$_Simple_types@_W@std@@@2@$00@std@@QBEABV?$allocator@_W@2@XZ ; std::_Compressed_pair<std::allocator<wchar_t>,std::_String_val<std::_Simple_types<wchar_t> >,1>::_Get_first
PUBLIC	??1?$_Compressed_pair@V?$allocator@_W@std@@V?$_String_val@U?$_Simple_types@_W@std@@@2@$00@std@@QAE@XZ ; std::_Compressed_pair<std::allocator<wchar_t>,std::_String_val<std::_Simple_types<wchar_t> >,1>::~_Compressed_pair<std::allocator<wchar_t>,std::_String_val<std::_Simple_types<wchar_t> >,1>
PUBLIC	??0runtime_error@std@@QAE@ABV?$basic_string@DU?$char_traits@D@std@@V?$allocator@D@2@@1@@Z ; std::runtime_error::runtime_error
PUBLIC	??1runtime_error@std@@UAE@XZ			; std::runtime_error::~runtime_error
PUBLIC	??0runtime_error@std@@QAE@ABV01@@Z		; std::runtime_error::runtime_error
PUBLIC	??_Gruntime_error@std@@UAEPAXI@Z		; std::runtime_error::`scalar deleting destructor'
PUBLIC	?make_error_code@std@@YA?AVerror_code@1@W4errc@1@@Z ; std::make_error_code
PUBLIC	?generic_category@std@@YAABVerror_category@1@XZ	; std::generic_category
PUBLIC	?system_category@std@@YAABVerror_category@1@XZ	; std::system_category
PUBLIC	??1error_category@std@@UAE@XZ			; std::error_category::~error_category
PUBLIC	?default_error_condition@error_category@std@@UBE?AVerror_condition@2@H@Z ; std::error_category::default_error_condition
PUBLIC	?equivalent@error_category@std@@UBE_NHABVerror_condition@2@@Z ; std::error_category::equivalent
PUBLIC	?equivalent@error_category@std@@UBE_NABVerror_code@2@H@Z ; std::error_category::equivalent
PUBLIC	??8error_category@std@@QBE_NABV01@@Z		; std::error_category::operator==
PUBLIC	??0error_code@std@@QAE@HABVerror_category@1@@Z	; std::error_code::error_code
PUBLIC	?value@error_code@std@@QBEHXZ			; std::error_code::value
PUBLIC	?category@error_code@std@@QBEABVerror_category@2@XZ ; std::error_code::category
PUBLIC	?message@error_code@std@@QBE?AV?$basic_string@DU?$char_traits@D@std@@V?$allocator@D@2@@2@XZ ; std::error_code::message
PUBLIC	??0error_condition@std@@QAE@HABVerror_category@1@@Z ; std::error_condition::error_condition
PUBLIC	?value@error_condition@std@@QBEHXZ		; std::error_condition::value
PUBLIC	?category@error_condition@std@@QBEABVerror_category@2@XZ ; std::error_condition::category
PUBLIC	??8std@@YA_NABVerror_condition@0@0@Z		; std::operator==
PUBLIC	?_Makestr@_System_error@std@@CA?AV?$basic_string@DU?$char_traits@D@std@@V?$allocator@D@2@@2@Verror_code@2@V32@@Z ; std::_System_error::_Makestr
PUBLIC	??0_System_error@std@@IAE@Verror_code@1@ABV?$basic_string@DU?$char_traits@D@std@@V?$allocator@D@2@@1@@Z ; std::_System_error::_System_error
PUBLIC	??1_System_error@std@@UAE@XZ			; std::_System_error::~_System_error
PUBLIC	??0_System_error@std@@QAE@ABV01@@Z		; std::_System_error::_System_error
PUBLIC	??_G_System_error@std@@UAEPAXI@Z		; std::_System_error::`scalar deleting destructor'
PUBLIC	??0system_error@std@@QAE@Verror_code@1@@Z	; std::system_error::system_error
PUBLIC	??0system_error@std@@QAE@Verror_code@1@ABV?$basic_string@DU?$char_traits@D@std@@V?$allocator@D@2@@1@@Z ; std::system_error::system_error
PUBLIC	??1system_error@std@@UAE@XZ			; std::system_error::~system_error
PUBLIC	??0system_error@std@@QAE@ABV01@@Z		; std::system_error::system_error
PUBLIC	??_Gsystem_error@std@@UAEPAXI@Z			; std::system_error::`scalar deleting destructor'
PUBLIC	?_Throw_system_error@std@@YAXW4errc@1@@Z	; std::_Throw_system_error
PUBLIC	??0_System_error_message@std@@QAE@K@Z		; std::_System_error_message::_System_error_message
PUBLIC	??1_System_error_message@std@@QAE@XZ		; std::_System_error_message::~_System_error_message
PUBLIC	?name@_Generic_error_category@std@@UBEPBDXZ	; std::_Generic_error_category::name
PUBLIC	?message@_Generic_error_category@std@@UBE?AV?$basic_string@DU?$char_traits@D@std@@V?$allocator@D@2@@2@H@Z ; std::_Generic_error_category::message
PUBLIC	??1_Generic_error_category@std@@UAE@XZ		; std::_Generic_error_category::~_Generic_error_category
PUBLIC	??_G_Generic_error_category@std@@UAEPAXI@Z	; std::_Generic_error_category::`scalar deleting destructor'
PUBLIC	?name@_System_error_category@std@@UBEPBDXZ	; std::_System_error_category::name
PUBLIC	?message@_System_error_category@std@@UBE?AV?$basic_string@DU?$char_traits@D@std@@V?$allocator@D@2@@2@H@Z ; std::_System_error_category::message
PUBLIC	?default_error_condition@_System_error_category@std@@UBE?AVerror_condition@2@H@Z ; std::_System_error_category::default_error_condition
PUBLIC	??1_System_error_category@std@@UAE@XZ		; std::_System_error_category::~_System_error_category
PUBLIC	??_G_System_error_category@std@@UAEPAXI@Z	; std::_System_error_category::`scalar deleting destructor'
PUBLIC	??$_Immortalize_memcpy_image@V_Generic_error_category@std@@@std@@YAABV_Generic_error_category@0@XZ ; std::_Immortalize_memcpy_image<std::_Generic_error_category>
PUBLIC	??$_Immortalize_memcpy_image@V_System_error_category@std@@@std@@YAABV_System_error_category@0@XZ ; std::_Immortalize_memcpy_image<std::_System_error_category>
PUBLIC	??0bad_cast@std@@QAE@XZ				; std::bad_cast::bad_cast
PUBLIC	??1bad_cast@std@@UAE@XZ				; std::bad_cast::~bad_cast
PUBLIC	??0bad_cast@std@@QAE@ABV01@@Z			; std::bad_cast::bad_cast
PUBLIC	??_Gbad_cast@std@@UAEPAXI@Z			; std::bad_cast::`scalar deleting destructor'
PUBLIC	?_Throw_bad_cast@std@@YAXXZ			; std::_Throw_bad_cast
PUBLIC	??1locale@std@@QAE@XZ				; std::locale::~locale
PUBLIC	?_Getfacet@locale@std@@QBEPBVfacet@12@I@Z	; std::locale::_Getfacet
PUBLIC	??$_Maklocstr@_W@std@@YAPA_WPBDPA_WABU_Cvtvec@@@Z ; std::_Maklocstr<wchar_t>
PUBLIC	??0?$fpos@U_Mbstatet@@@std@@QAE@_J@Z		; std::fpos<_Mbstatet>::fpos<_Mbstatet>
PUBLIC	??0?$fpos@U_Mbstatet@@@std@@QAE@U_Mbstatet@@_J@Z ; std::fpos<_Mbstatet>::fpos<_Mbstatet>
PUBLIC	?state@?$fpos@U_Mbstatet@@@std@@QBE?AU_Mbstatet@@XZ ; std::fpos<_Mbstatet>::state
PUBLIC	??B?$fpos@U_Mbstatet@@@std@@QBE_JXZ		; std::fpos<_Mbstatet>::operator __int64
PUBLIC	?_Maklocwcs@std@@YAPA_WPB_W@Z			; std::_Maklocwcs
PUBLIC	??$_Maklocstr@D@std@@YAPADPBDPADABU_Cvtvec@@@Z	; std::_Maklocstr<char>
PUBLIC	??$_Getvals@_W@?$time_get@DV?$istreambuf_iterator@DU?$char_traits@D@std@@@std@@@std@@IAEX_WABV_Locinfo@1@@Z ; std::time_get<char,std::istreambuf_iterator<char,std::char_traits<char> > >::_Getvals<wchar_t>
PUBLIC	??$_Getvals@_W@?$time_get@_WV?$istreambuf_iterator@_WU?$char_traits@_W@std@@@std@@@std@@IAEX_WABV_Locinfo@1@@Z ; std::time_get<wchar_t,std::istreambuf_iterator<wchar_t,std::char_traits<wchar_t> > >::_Getvals<wchar_t>
PUBLIC	??U@YA?AW4__std_fs_stats_flags@@W40@0@Z		; operator|
PUBLIC	?_Make_ec@filesystem@std@@YA?AVerror_code@2@W4__std_win_error@@@Z ; std::filesystem::_Make_ec
PUBLIC	?_Throw_system_error_from_std_win_error@filesystem@std@@YAXW4__std_win_error@@@Z ; std::filesystem::_Throw_system_error_from_std_win_error
PUBLIC	?_Check_convert_result@filesystem@std@@YAHU__std_fs_convert_result@@@Z ; std::filesystem::_Check_convert_result
PUBLIC	?_Convert_narrow_to_wide@filesystem@std@@YA?AV?$basic_string@_WU?$char_traits@_W@std@@V?$allocator@_W@2@@2@W4__std_code_page@@V?$basic_string_view@DU?$char_traits@D@std@@@2@@Z ; std::filesystem::_Convert_narrow_to_wide
PUBLIC	??0path@filesystem@std@@QAE@XZ			; std::filesystem::path::path
PUBLIC	??0path@filesystem@std@@QAE@ABV012@@Z		; std::filesystem::path::path
PUBLIC	??1path@filesystem@std@@QAE@XZ			; std::filesystem::path::~path
PUBLIC	?native@path@filesystem@std@@QBEABV?$basic_string@_WU?$char_traits@_W@std@@V?$allocator@_W@2@@3@XZ ; std::filesystem::path::native
PUBLIC	?c_str@path@filesystem@std@@QBEPB_WXZ		; std::filesystem::path::c_str
PUBLIC	??0filesystem_error@filesystem@std@@QAE@ABV?$basic_string@DU?$char_traits@D@std@@V?$allocator@D@2@@2@ABVpath@12@Verror_code@2@@Z ; std::filesystem::filesystem_error::filesystem_error
PUBLIC	?what@filesystem_error@filesystem@std@@UBEPBDXZ	; std::filesystem::filesystem_error::what
PUBLIC	?_Pretty_message@filesystem_error@filesystem@std@@CA?AV?$basic_string@DU?$char_traits@D@std@@V?$allocator@D@2@@3@V?$basic_string_view@DU?$char_traits@D@std@@@3@ABVpath@23@1@Z ; std::filesystem::filesystem_error::_Pretty_message
PUBLIC	??1filesystem_error@filesystem@std@@UAE@XZ	; std::filesystem::filesystem_error::~filesystem_error
PUBLIC	??0filesystem_error@filesystem@std@@QAE@ABV012@@Z ; std::filesystem::filesystem_error::filesystem_error
PUBLIC	??_Gfilesystem_error@filesystem@std@@UAEPAXI@Z	; std::filesystem::filesystem_error::`scalar deleting destructor'
PUBLIC	??$_Convert_wide_to_narrow_replace_chars@U?$char_traits@D@std@@V?$allocator@D@2@@filesystem@std@@YA?AV?$basic_string@DU?$char_traits@D@std@@V?$allocator@D@2@@1@W4__std_code_page@@V?$basic_string_view@_WU?$char_traits@_W@std@@@1@ABV?$allocator@D@1@@Z ; std::filesystem::_Convert_wide_to_narrow_replace_chars<std::char_traits<char>,std::allocator<char> >
PUBLIC	??$?YV?$basic_string_view@DU?$char_traits@D@std@@@std@@$0A@@?$basic_string@DU?$char_traits@D@std@@V?$allocator@D@2@@std@@QAEAAV01@ABV?$basic_string_view@DU?$char_traits@D@std@@@1@@Z ; std::basic_string<char,std::char_traits<char>,std::allocator<char> >::operator+=<std::basic_string_view<char,std::char_traits<char> >,0>
PUBLIC	?_Throw_fs_error@filesystem@std@@YAXPBDW4__std_win_error@@ABVpath@12@@Z ; std::filesystem::_Throw_fs_error
PUBLIC	?_File_size@filesystem@std@@YA?AW4__std_win_error@@ABVpath@12@AA_K@Z ; std::filesystem::_File_size
PUBLIC	?file_size@filesystem@std@@YA_KABVpath@12@@Z	; std::filesystem::file_size
PUBLIC	?loadRawDataBase@NativeFileSystem@@AAE_NABVResourceName@@PAXIH@Z ; NativeFileSystem::loadRawDataBase
PUBLIC	?getResourceSize@NativeFileSystem@@UAE_NABVResourceName@@AAI@Z ; NativeFileSystem::getResourceSize
PUBLIC	?getResourceData@NativeFileSystem@@UAE_NABVResourceName@@PAXI@Z ; NativeFileSystem::getResourceData
PUBLIC	?getResourceBinaryData@NativeFileSystem@@UAE_NABVResourceName@@PAXI@Z ; NativeFileSystem::getResourceBinaryData
PUBLIC	?c_str@ResourceName@@QBEPBDXZ			; ResourceName::c_str
PUBLIC	??$_Fgetc@D@std@@YA_NAADPAU_iobuf@@@Z		; std::_Fgetc<char>
PUBLIC	??$_Fputc@D@std@@YA_NDPAU_iobuf@@@Z		; std::_Fputc<char>
PUBLIC	??$_Ungetc@D@std@@YA_NABDPAU_iobuf@@@Z		; std::_Ungetc<char>
PUBLIC	??0?$basic_fstream@DU?$char_traits@D@std@@@std@@QAE@PBDHH@Z ; std::basic_fstream<char,std::char_traits<char> >::basic_fstream<char,std::char_traits<char> >
PUBLIC	??1?$basic_fstream@DU?$char_traits@D@std@@@std@@UAE@XZ ; std::basic_fstream<char,std::char_traits<char> >::~basic_fstream<char,std::char_traits<char> >
PUBLIC	?is_open@?$basic_fstream@DU?$char_traits@D@std@@@std@@QBE_NXZ ; std::basic_fstream<char,std::char_traits<char> >::is_open
PUBLIC	?close@?$basic_fstream@DU?$char_traits@D@std@@@std@@QAEXXZ ; std::basic_fstream<char,std::char_traits<char> >::close
PUBLIC	??0?$basic_filebuf@DU?$char_traits@D@std@@@std@@QAE@XZ ; std::basic_filebuf<char,std::char_traits<char> >::basic_filebuf<char,std::char_traits<char> >
PUBLIC	??1?$basic_filebuf@DU?$char_traits@D@std@@@std@@UAE@XZ ; std::basic_filebuf<char,std::char_traits<char> >::~basic_filebuf<char,std::char_traits<char> >
PUBLIC	?is_open@?$basic_filebuf@DU?$char_traits@D@std@@@std@@QBE_NXZ ; std::basic_filebuf<char,std::char_traits<char> >::is_open
PUBLIC	?open@?$basic_filebuf@DU?$char_traits@D@std@@@std@@QAEPAV12@PBDHH@Z ; std::basic_filebuf<char,std::char_traits<char> >::open
PUBLIC	?close@?$basic_filebuf@DU?$char_traits@D@std@@@std@@QAEPAV12@XZ ; std::basic_filebuf<char,std::char_traits<char> >::close
PUBLIC	?_Lock@?$basic_filebuf@DU?$char_traits@D@std@@@std@@UAEXXZ ; std::basic_filebuf<char,std::char_traits<char> >::_Lock
PUBLIC	?_Unlock@?$basic_filebuf@DU?$char_traits@D@std@@@std@@UAEXXZ ; std::basic_filebuf<char,std::char_traits<char> >::_Unlock
PUBLIC	?overflow@?$basic_filebuf@DU?$char_traits@D@std@@@std@@MAEHH@Z ; std::basic_filebuf<char,std::char_traits<char> >::overflow
PUBLIC	?pbackfail@?$basic_filebuf@DU?$char_traits@D@std@@@std@@MAEHH@Z ; std::basic_filebuf<char,std::char_traits<char> >::pbackfail
PUBLIC	?underflow@?$basic_filebuf@DU?$char_traits@D@std@@@std@@MAEHXZ ; std::basic_filebuf<char,std::char_traits<char> >::underflow
PUBLIC	?uflow@?$basic_filebuf@DU?$char_traits@D@std@@@std@@MAEHXZ ; std::basic_filebuf<char,std::char_traits<char> >::uflow
PUBLIC	?xsgetn@?$basic_filebuf@DU?$char_traits@D@std@@@std@@MAE_JPAD_J@Z ; std::basic_filebuf<char,std::char_traits<char> >::xsgetn
PUBLIC	?xsputn@?$basic_filebuf@DU?$char_traits@D@std@@@std@@MAE_JPBD_J@Z ; std::basic_filebuf<char,std::char_traits<char> >::xsputn
PUBLIC	?seekoff@?$basic_filebuf@DU?$char_traits@D@std@@@std@@MAE?AV?$fpos@U_Mbstatet@@@2@_JHH@Z ; std::basic_filebuf<char,std::char_traits<char> >::seekoff
PUBLIC	?seekpos@?$basic_filebuf@DU?$char_traits@D@std@@@std@@MAE?AV?$fpos@U_Mbstatet@@@2@V32@H@Z ; std::basic_filebuf<char,std::char_traits<char> >::seekpos
PUBLIC	?setbuf@?$basic_filebuf@DU?$char_traits@D@std@@@std@@MAEPAV?$basic_streambuf@DU?$char_traits@D@std@@@2@PAD_J@Z ; std::basic_filebuf<char,std::char_traits<char> >::setbuf
PUBLIC	?sync@?$basic_filebuf@DU?$char_traits@D@std@@@std@@MAEHXZ ; std::basic_filebuf<char,std::char_traits<char> >::sync
PUBLIC	?imbue@?$basic_filebuf@DU?$char_traits@D@std@@@std@@MAEXABVlocale@2@@Z ; std::basic_filebuf<char,std::char_traits<char> >::imbue
PUBLIC	?_Init@?$basic_filebuf@DU?$char_traits@D@std@@@std@@IAEXPAU_iobuf@@W4_Initfl@12@@Z ; std::basic_filebuf<char,std::char_traits<char> >::_Init
PUBLIC	?_Endwrite@?$basic_filebuf@DU?$char_traits@D@std@@@std@@IAE_NXZ ; std::basic_filebuf<char,std::char_traits<char> >::_Endwrite
PUBLIC	?_Initcvt@?$basic_filebuf@DU?$char_traits@D@std@@@std@@IAEXABV?$codecvt@DDU_Mbstatet@@@2@@Z ; std::basic_filebuf<char,std::char_traits<char> >::_Initcvt
PUBLIC	?_Reset_back@?$basic_filebuf@DU?$char_traits@D@std@@@std@@AAEXXZ ; std::basic_filebuf<char,std::char_traits<char> >::_Reset_back
PUBLIC	?_Set_back@?$basic_filebuf@DU?$char_traits@D@std@@@std@@AAEXXZ ; std::basic_filebuf<char,std::char_traits<char> >::_Set_back
PUBLIC	??_G?$basic_filebuf@DU?$char_traits@D@std@@@std@@UAEPAXI@Z ; std::basic_filebuf<char,std::char_traits<char> >::`scalar deleting destructor'
PUBLIC	?__autoclassinit2@?$basic_fstream@DU?$char_traits@D@std@@@std@@QAEXI@Z ; std::basic_fstream<char,std::char_traits<char> >::__autoclassinit2
PUBLIC	??_G?$basic_fstream@DU?$char_traits@D@std@@@std@@UAEPAXI@Z ; std::basic_fstream<char,std::char_traits<char> >::`scalar deleting destructor'
PUBLIC	??_D?$basic_fstream@DU?$char_traits@D@std@@@std@@QAEXXZ ; std::basic_fstream<char,std::char_traits<char> >::`vbase destructor'
PUBLIC	??$?0PBD$0A@@path@filesystem@std@@QAE@ABQBDW4format@012@@Z ; std::filesystem::path::path<char const *,0>
PUBLIC	??$use_facet@V?$codecvt@DDU_Mbstatet@@@std@@@std@@YAABV?$codecvt@DDU_Mbstatet@@@0@ABVlocale@0@@Z ; std::use_facet<std::codecvt<char,char,_Mbstatet> >
PUBLIC	??$min@I@std@@YAABIABI0@Z			; std::min<unsigned int>
PUBLIC	??$addressof@V?$basic_filebuf@DU?$char_traits@D@std@@@std@@@std@@YAPAV?$basic_filebuf@DU?$char_traits@D@std@@@0@AAV10@@Z ; std::addressof<std::basic_filebuf<char,std::char_traits<char> > >
PUBLIC	?allocate@?$allocator@U_Container_proxy@std@@@std@@QAEPAU_Container_proxy@2@I@Z ; std::allocator<std::_Container_proxy>::allocate
PUBLIC	??$_Delete_plain_internal@V?$allocator@U_Container_proxy@std@@@std@@@std@@YAXAAV?$allocator@U_Container_proxy@std@@@0@QAU_Container_proxy@0@@Z ; std::_Delete_plain_internal<std::allocator<std::_Container_proxy> >
PUBLIC	??$_Alloc_proxy@V?$allocator@U_Container_proxy@std@@@std@@@_Container_base12@std@@QAEX$$QAV?$allocator@U_Container_proxy@std@@@1@@Z ; std::_Container_base12::_Alloc_proxy<std::allocator<std::_Container_proxy> >
PUBLIC	??0?$_Container_proxy_ptr12@V?$allocator@U_Container_proxy@std@@@std@@@std@@QAE@AAV?$allocator@U_Container_proxy@std@@@1@AAU_Container_base12@1@@Z ; std::_Container_proxy_ptr12<std::allocator<std::_Container_proxy> >::_Container_proxy_ptr12<std::allocator<std::_Container_proxy> >
PUBLIC	??1?$_Container_proxy_ptr12@V?$allocator@U_Container_proxy@std@@@std@@@std@@QAE@XZ ; std::_Container_proxy_ptr12<std::allocator<std::_Container_proxy> >::~_Container_proxy_ptr12<std::allocator<std::_Container_proxy> >
PUBLIC	??$max@I@std@@YAABIABI0@Z			; std::max<unsigned int>
PUBLIC	??$addressof@$$CBV?$_String_val@U?$_Simple_types@_W@std@@@std@@@std@@YAPBV?$_String_val@U?$_Simple_types@_W@std@@@0@ABV10@@Z ; std::addressof<std::_String_val<std::_Simple_types<wchar_t> > const >
PUBLIC	??$addressof@V?$_String_val@U?$_Simple_types@_W@std@@@std@@@std@@YAPAV?$_String_val@U?$_Simple_types@_W@std@@@0@AAV10@@Z ; std::addressof<std::_String_val<std::_Simple_types<wchar_t> > >
PUBLIC	??$?0_W@?$allocator@U_Container_proxy@std@@@std@@QAE@ABV?$allocator@_W@1@@Z ; std::allocator<std::_Container_proxy>::allocator<std::_Container_proxy><wchar_t>
PUBLIC	??$move@AAV?$allocator@_W@std@@@std@@YA$$QAV?$allocator@_W@0@AAV10@@Z ; std::move<std::allocator<wchar_t> &>
PUBLIC	??$?0V?$allocator@_W@std@@$$V@?$_Compressed_pair@V?$allocator@_W@std@@V?$_String_val@U?$_Simple_types@_W@std@@@2@$00@std@@QAE@U_One_then_variadic_args_t@1@$$QAV?$allocator@_W@1@@Z ; std::_Compressed_pair<std::allocator<wchar_t>,std::_String_val<std::_Simple_types<wchar_t> >,1>::_Compressed_pair<std::allocator<wchar_t>,std::_String_val<std::_Simple_types<wchar_t> >,1><std::allocator<wchar_t> >
PUBLIC	??$?0$$V@?$_Compressed_pair@V?$allocator@_W@std@@V?$_String_val@U?$_Simple_types@_W@std@@@2@$00@std@@QAE@U_Zero_then_variadic_args_t@1@@Z ; std::_Compressed_pair<std::allocator<wchar_t>,std::_String_val<std::_Simple_types<wchar_t> >,1>::_Compressed_pair<std::allocator<wchar_t>,std::_String_val<std::_Simple_types<wchar_t> >,1><>
PUBLIC	??R<lambda_67d87d4aa1269033985980465fd1d824>@@QBEXQADQBDI@Z ; <lambda_67d87d4aa1269033985980465fd1d824>::operator()
PUBLIC	??$_Reallocate_grow_by@V<lambda_67d87d4aa1269033985980465fd1d824>@@$$V@?$basic_string@DU?$char_traits@D@std@@V?$allocator@D@2@@std@@AAEAAV01@IV<lambda_67d87d4aa1269033985980465fd1d824>@@@Z ; std::basic_string<char,std::char_traits<char>,std::allocator<char> >::_Reallocate_grow_by<<lambda_67d87d4aa1269033985980465fd1d824> >
PUBLIC	??$addressof@V?$_String_val@U?$_Simple_types@D@std@@@std@@@std@@YAPAV?$_String_val@U?$_Simple_types@D@std@@@0@AAV10@@Z ; std::addressof<std::_String_val<std::_Simple_types<char> > >
PUBLIC	??$?0D@?$allocator@U_Container_proxy@std@@@std@@QAE@ABV?$allocator@D@1@@Z ; std::allocator<std::_Container_proxy>::allocator<std::_Container_proxy><char>
PUBLIC	??$move@AAV?$allocator@D@std@@@std@@YA$$QAV?$allocator@D@0@AAV10@@Z ; std::move<std::allocator<char> &>
PUBLIC	??$?0V?$allocator@D@std@@$$V@?$_Compressed_pair@V?$allocator@D@std@@V?$_String_val@U?$_Simple_types@D@std@@@2@$00@std@@QAE@U_One_then_variadic_args_t@1@$$QAV?$allocator@D@1@@Z ; std::_Compressed_pair<std::allocator<char>,std::_String_val<std::_Simple_types<char> >,1>::_Compressed_pair<std::allocator<char>,std::_String_val<std::_Simple_types<char> >,1><std::allocator<char> >
PUBLIC	??$?0$$V@?$_Compressed_pair@V?$allocator@D@std@@V?$_String_val@U?$_Simple_types@D@std@@@2@$00@std@@QAE@U_Zero_then_variadic_args_t@1@@Z ; std::_Compressed_pair<std::allocator<char>,std::_String_val<std::_Simple_types<char> >,1>::_Compressed_pair<std::allocator<char>,std::_String_val<std::_Simple_types<char> >,1><>
PUBLIC	??$_Unfancy@U_Container_proxy@std@@@std@@YAPAU_Container_proxy@0@PAU10@@Z ; std::_Unfancy<std::_Container_proxy>
PUBLIC	??$addressof@$$CBV?$codecvt@DDU_Mbstatet@@@std@@@std@@YAPBV?$codecvt@DDU_Mbstatet@@@0@ABV10@@Z ; std::addressof<std::codecvt<char,char,_Mbstatet> const >
PUBLIC	??$_Destroy_in_place@PA_W@std@@YAXAAPA_W@Z	; std::_Destroy_in_place<wchar_t *>
PUBLIC	??$_Unfancy@_W@std@@YAPA_WPA_W@Z		; std::_Unfancy<wchar_t>
PUBLIC	??R<lambda_c3135ae829aeedc0a8af1bd1e887c66a>@@QBEXQA_WQB_WII_W@Z ; <lambda_c3135ae829aeedc0a8af1bd1e887c66a>::operator()
PUBLIC	??$_Reallocate_grow_by@V<lambda_c3135ae829aeedc0a8af1bd1e887c66a>@@I_W@?$basic_string@_WU?$char_traits@_W@std@@V?$allocator@_W@2@@std@@AAEAAV01@IV<lambda_c3135ae829aeedc0a8af1bd1e887c66a>@@I_W@Z ; std::basic_string<wchar_t,std::char_traits<wchar_t>,std::allocator<wchar_t> >::_Reallocate_grow_by<<lambda_c3135ae829aeedc0a8af1bd1e887c66a>,unsigned int,wchar_t>
PUBLIC	??$_Construct_in_place@PA_WABQA_W@std@@YAXAAPA_WABQA_W@Z ; std::_Construct_in_place<wchar_t *,wchar_t * const &>
PUBLIC	??$_Destroy_in_place@PAD@std@@YAXAAPAD@Z	; std::_Destroy_in_place<char *>
PUBLIC	??$_Unfancy@D@std@@YAPADPAD@Z			; std::_Unfancy<char>
PUBLIC	??R<lambda_15711c68e099a15a58f4d77303cb286d>@@QBEXQADQBDID@Z ; <lambda_15711c68e099a15a58f4d77303cb286d>::operator()
PUBLIC	??$_Reallocate_grow_by@V<lambda_15711c68e099a15a58f4d77303cb286d>@@D@?$basic_string@DU?$char_traits@D@std@@V?$allocator@D@2@@std@@AAEAAV01@IV<lambda_15711c68e099a15a58f4d77303cb286d>@@D@Z ; std::basic_string<char,std::char_traits<char>,std::allocator<char> >::_Reallocate_grow_by<<lambda_15711c68e099a15a58f4d77303cb286d>,char>
PUBLIC	??R<lambda_9366063389c5f42a00a5088cf24e69de>@@QBEXQADIQBD@Z ; <lambda_9366063389c5f42a00a5088cf24e69de>::operator()
PUBLIC	??$_Reallocate_for@V<lambda_9366063389c5f42a00a5088cf24e69de>@@PBD@?$basic_string@DU?$char_traits@D@std@@V?$allocator@D@2@@std@@AAEAAV01@IV<lambda_9366063389c5f42a00a5088cf24e69de>@@PBD@Z ; std::basic_string<char,std::char_traits<char>,std::allocator<char> >::_Reallocate_for<<lambda_9366063389c5f42a00a5088cf24e69de>,char const *>
PUBLIC	??R<lambda_c1b8c41cb4019640539cfd828748c4d4>@@QBEXQADQBDIID@Z ; <lambda_c1b8c41cb4019640539cfd828748c4d4>::operator()
PUBLIC	??$_Reallocate_grow_by@V<lambda_c1b8c41cb4019640539cfd828748c4d4>@@ID@?$basic_string@DU?$char_traits@D@std@@V?$allocator@D@2@@std@@AAEAAV01@IV<lambda_c1b8c41cb4019640539cfd828748c4d4>@@ID@Z ; std::basic_string<char,std::char_traits<char>,std::allocator<char> >::_Reallocate_grow_by<<lambda_c1b8c41cb4019640539cfd828748c4d4>,unsigned int,char>
PUBLIC	??R<lambda_ab246b20b9526e2ef7792587e4298a77>@@QBEXQADQBDI1I@Z ; <lambda_ab246b20b9526e2ef7792587e4298a77>::operator()
PUBLIC	??$_Reallocate_grow_by@V<lambda_ab246b20b9526e2ef7792587e4298a77>@@PBDI@?$basic_string@DU?$char_traits@D@std@@V?$allocator@D@2@@std@@AAEAAV01@IV<lambda_ab246b20b9526e2ef7792587e4298a77>@@PBDI@Z ; std::basic_string<char,std::char_traits<char>,std::allocator<char> >::_Reallocate_grow_by<<lambda_ab246b20b9526e2ef7792587e4298a77>,char const *,unsigned int>
PUBLIC	??$_Construct_in_place@PADABQAD@std@@YAXAAPADABQAD@Z ; std::_Construct_in_place<char *,char * const &>
PUBLIC	??$_Get_size_of_n@$07@std@@YAII@Z		; std::_Get_size_of_n<8>
PUBLIC	??$_Allocate@$07U_Default_allocate_traits@std@@$0A@@std@@YAPAXI@Z ; std::_Allocate<8,std::_Default_allocate_traits,0>
PUBLIC	??$_Deallocate@$07$0A@@std@@YAXPAXI@Z		; std::_Deallocate<8,0>
PUBLIC	??$_Get_size_of_n@$01@std@@YAII@Z		; std::_Get_size_of_n<2>
PUBLIC	??$addressof@$$CBV?$_String_val@U?$_Simple_types@D@std@@@std@@@std@@YAPBV?$_String_val@U?$_Simple_types@D@std@@@0@ABV10@@Z ; std::addressof<std::_String_val<std::_Simple_types<char> > const >
PUBLIC	??$_Get_size_of_n@$00@std@@YAII@Z		; std::_Get_size_of_n<1>
PUBLIC	??$addressof@U_Container_proxy@std@@@std@@YAPAU_Container_proxy@0@AAU10@@Z ; std::addressof<std::_Container_proxy>
PUBLIC	??$forward@PAU_Container_base12@std@@@std@@YA$$QAPAU_Container_base12@0@AAPAU10@@Z ; std::forward<std::_Container_base12 *>
PUBLIC	??R?$default_delete@V_Facet_base@std@@@std@@QBEXPAV_Facet_base@1@@Z ; std::default_delete<std::_Facet_base>::operator()
PUBLIC	??1?$unique_ptr@V_Facet_base@std@@U?$default_delete@V_Facet_base@std@@@2@@std@@QAE@XZ ; std::unique_ptr<std::_Facet_base,std::default_delete<std::_Facet_base> >::~unique_ptr<std::_Facet_base,std::default_delete<std::_Facet_base> >
PUBLIC	?release@?$unique_ptr@V_Facet_base@std@@U?$default_delete@V_Facet_base@std@@@2@@std@@QAEPAV_Facet_base@2@XZ ; std::unique_ptr<std::_Facet_base,std::default_delete<std::_Facet_base> >::release
PUBLIC	?_Get_first@?$_Compressed_pair@U?$default_delete@V_Facet_base@std@@@std@@PAV_Facet_base@2@$00@std@@QAEAAU?$default_delete@V_Facet_base@std@@@2@XZ ; std::_Compressed_pair<std::default_delete<std::_Facet_base>,std::_Facet_base *,1>::_Get_first
PUBLIC	?__autoclassinit2@?$unique_ptr@V_Facet_base@std@@U?$default_delete@V_Facet_base@std@@@2@@std@@QAEXI@Z ; std::unique_ptr<std::_Facet_base,std::default_delete<std::_Facet_base> >::__autoclassinit2
PUBLIC	??$?0U?$default_delete@V_Facet_base@std@@@std@@$0A@@?$unique_ptr@V_Facet_base@std@@U?$default_delete@V_Facet_base@std@@@2@@std@@QAE@PAV_Facet_base@1@@Z ; std::unique_ptr<std::_Facet_base,std::default_delete<std::_Facet_base> >::unique_ptr<std::_Facet_base,std::default_delete<std::_Facet_base> ><std::default_delete<std::_Facet_base>,0>
PUBLIC	??$append@V?$basic_string_view@DU?$char_traits@D@std@@@std@@$0A@@?$basic_string@DU?$char_traits@D@std@@V?$allocator@D@2@@std@@QAEAAV01@ABV?$basic_string_view@DU?$char_traits@D@std@@@1@@Z ; std::basic_string<char,std::char_traits<char>,std::allocator<char> >::append<std::basic_string_view<char,std::char_traits<char> >,0>
PUBLIC	??$_Convert_Source_to_wide@PBDU_Normal_conversion@filesystem@std@@@filesystem@std@@YA?AV?$basic_string@_WU?$char_traits@_W@std@@V?$allocator@_W@2@@1@ABQBDU_Normal_conversion@01@@Z ; std::filesystem::_Convert_Source_to_wide<char const *,std::filesystem::_Normal_conversion>
PUBLIC	??$_Deallocate_plain@V?$allocator@U_Container_proxy@std@@@std@@@std@@YAXAAV?$allocator@U_Container_proxy@std@@@0@QAU_Container_proxy@0@@Z ; std::_Deallocate_plain<std::allocator<std::_Container_proxy> >
PUBLIC	??$forward@V?$allocator@_W@std@@@std@@YA$$QAV?$allocator@_W@0@AAV10@@Z ; std::forward<std::allocator<wchar_t> >
PUBLIC	??$forward@V?$allocator@D@std@@@std@@YA$$QAV?$allocator@D@0@AAV10@@Z ; std::forward<std::allocator<char> >
PUBLIC	??$addressof@PA_W@std@@YAPAPA_WAAPA_W@Z		; std::addressof<wchar_t *>
PUBLIC	??$forward@ABQA_W@std@@YAABQA_WABQA_W@Z		; std::forward<wchar_t * const &>
PUBLIC	??$addressof@PAD@std@@YAPAPADAAPAD@Z		; std::addressof<char *>
PUBLIC	??$forward@ABQAD@std@@YAABQADABQAD@Z		; std::forward<char * const &>
PUBLIC	??$_Allocate_manually_vector_aligned@U_Default_allocate_traits@std@@@std@@YAPAXI@Z ; std::_Allocate_manually_vector_aligned<std::_Default_allocate_traits>
PUBLIC	??$exchange@PAV_Facet_base@std@@PAV12@@std@@YAPAV_Facet_base@0@AAPAV10@$$QAPAV10@@Z ; std::exchange<std::_Facet_base *,std::_Facet_base *>
PUBLIC	??$?0ABV?$allocator@D@std@@$$V@?$_Compressed_pair@V?$allocator@D@std@@V?$_String_val@U?$_Simple_types@D@std@@@2@$00@std@@QAE@U_One_then_variadic_args_t@1@ABV?$allocator@D@1@@Z ; std::_Compressed_pair<std::allocator<char>,std::_String_val<std::_Simple_types<char> >,1>::_Compressed_pair<std::allocator<char>,std::_String_val<std::_Simple_types<char> >,1><std::allocator<char> const &>
PUBLIC	??$?0AAPAV_Facet_base@std@@@?$_Compressed_pair@U?$default_delete@V_Facet_base@std@@@std@@PAV_Facet_base@2@$00@std@@QAE@U_Zero_then_variadic_args_t@1@AAPAV_Facet_base@1@@Z ; std::_Compressed_pair<std::default_delete<std::_Facet_base>,std::_Facet_base *,1>::_Compressed_pair<std::default_delete<std::_Facet_base>,std::_Facet_base *,1><std::_Facet_base * &>
PUBLIC	??$_Stringoid_from_Source@PBD@filesystem@std@@YA@ABQBD@Z ; std::filesystem::_Stringoid_from_Source<char const *>
PUBLIC	??$_Get_unwrapped_unverified@ABQBD@std@@YA@ABQBD@Z ; std::_Get_unwrapped_unverified<char const * const &>
PUBLIC	??$_Convert_stringoid_to_wide@U_Normal_conversion@filesystem@std@@@filesystem@std@@YA?AV?$basic_string@_WU?$char_traits@_W@std@@V?$allocator@_W@2@@1@V?$basic_string_view@DU?$char_traits@D@std@@@1@U_Normal_conversion@01@@Z ; std::filesystem::_Convert_stringoid_to_wide<std::filesystem::_Normal_conversion>
PUBLIC	?deallocate@?$_Default_allocator_traits@V?$allocator@U_Container_proxy@std@@@std@@@std@@SAXAAV?$allocator@U_Container_proxy@std@@@2@QAU_Container_proxy@2@I@Z ; std::_Default_allocator_traits<std::allocator<std::_Container_proxy> >::deallocate
PUBLIC	??$forward@ABV?$allocator@D@std@@@std@@YAABV?$allocator@D@0@ABV10@@Z ; std::forward<std::allocator<char> const &>
PUBLIC	??$forward@AAPAV_Facet_base@std@@@std@@YAAAPAV_Facet_base@0@AAPAV10@@Z ; std::forward<std::_Facet_base * &>
PUBLIC	??_E?$basic_fstream@DU?$char_traits@D@std@@@std@@$4PPPPPPPM@A@AEPAXI@Z ; std::basic_fstream<char,std::char_traits<char> >::`vector deleting destructor'
PUBLIC	__JustMyCode_Default
PUBLIC	??_7exception@std@@6B@				; std::exception::`vftable'
PUBLIC	??_C@_0BC@EOODALEL@Unknown?5exception@		; `string'
PUBLIC	??_7bad_alloc@std@@6B@				; std::bad_alloc::`vftable'
PUBLIC	??_7bad_array_new_length@std@@6B@		; std::bad_array_new_length::`vftable'
PUBLIC	??_C@_0BF@KINCDENJ@bad?5array?5new?5length@	; `string'
PUBLIC	__TI3?AVbad_array_new_length@std@@
PUBLIC	__CTA3?AVbad_array_new_length@std@@
PUBLIC	??_R0?AVbad_array_new_length@std@@@8		; std::bad_array_new_length `RTTI Type Descriptor'
PUBLIC	__CT??_R0?AVbad_array_new_length@std@@@8??0bad_array_new_length@std@@QAE@ABV01@@Z12
PUBLIC	??_R0?AVbad_alloc@std@@@8			; std::bad_alloc `RTTI Type Descriptor'
PUBLIC	__CT??_R0?AVbad_alloc@std@@@8??0bad_alloc@std@@QAE@ABV01@@Z12
PUBLIC	??_R0?AVexception@std@@@8			; std::exception `RTTI Type Descriptor'
PUBLIC	__CT??_R0?AVexception@std@@@8??0exception@std@@QAE@ABV01@@Z12
PUBLIC	?__LINE__Var@?0??_Adjust_manually_vector_aligned@std@@YAXAAPAXAAI@Z@4JA ; `std::_Adjust_manually_vector_aligned'::`1'::__LINE__Var
PUBLIC	??_C@_0BB@FCMFBGOM@invalid?5argument@		; `string'
PUBLIC	??_C@_02DKCKIIND@?$CFs@				; `string'
PUBLIC	??_C@_0GL@KFPMFPIC@C?3?2Program?5Files?5?$CIx86?$CJ?2Microsof@ ; `string'
PUBLIC	??_C@_1NG@FKHEBIAG@?$AAC?$AA?3?$AA?2?$AAP?$AAr?$AAo?$AAg?$AAr?$AAa?$AAm?$AA?5?$AAF?$AAi?$AAl?$AAe@ ; `string'
PUBLIC	??_C@_1EK@NIFDJFDG@?$AAs?$AAt?$AAd?$AA?3?$AA?3?$AA_?$AAA?$AAd?$AAj?$AAu?$AAs?$AAt?$AA_?$AAm?$AAa@ ; `string'
PUBLIC	??_C@_1CG@JNLFBNGN@?$AA?$CC?$AAi?$AAn?$AAv?$AAa?$AAl?$AAi?$AAd?$AA?5?$AAa?$AAr?$AAg?$AAu?$AAm?$AAe@ ; `string'
PUBLIC	??_C@_0BA@JFNIOLAK@string?5too?5long@		; `string'
PUBLIC	??_7runtime_error@std@@6B@			; std::runtime_error::`vftable'
PUBLIC	??_R0?AVruntime_error@std@@@8			; std::runtime_error `RTTI Type Descriptor'
PUBLIC	__CT??_R0?AVruntime_error@std@@@8??0runtime_error@std@@QAE@ABV01@@Z12
PUBLIC	??_7_System_error@std@@6B@			; std::_System_error::`vftable'
PUBLIC	??_C@_02LMMGGCAJ@?3?5@				; `string'
PUBLIC	??_7system_error@std@@6B@			; std::system_error::`vftable'
PUBLIC	??_C@_00CNPNBAHC@@				; `string'
PUBLIC	__TI4?AVsystem_error@std@@
PUBLIC	__CTA4?AVsystem_error@std@@
PUBLIC	??_R0?AVsystem_error@std@@@8			; std::system_error `RTTI Type Descriptor'
PUBLIC	__CT??_R0?AVsystem_error@std@@@8??0system_error@std@@QAE@ABV01@@Z20
PUBLIC	??_R0?AV_System_error@std@@@8			; std::_System_error `RTTI Type Descriptor'
PUBLIC	__CT??_R0?AV_System_error@std@@@8??0_System_error@std@@QAE@ABV01@@Z20
PUBLIC	??_7_Generic_error_category@std@@6B@		; std::_Generic_error_category::`vftable'
PUBLIC	??_C@_07DCLBNMLN@generic@			; `string'
PUBLIC	??_7_System_error_category@std@@6B@		; std::_System_error_category::`vftable'
PUBLIC	??_C@_06FHFOAHML@system@			; `string'
PUBLIC	?_Unknown_error@?4??message@_System_error_category@std@@UBE?AV?$basic_string@DU?$char_traits@D@std@@V?$allocator@D@2@@3@H@Z@4QBDB ; `std::_System_error_category::message'::`5'::_Unknown_error
PUBLIC	??_7bad_cast@std@@6B@				; std::bad_cast::`vftable'
PUBLIC	??_C@_08EPJLHIJG@bad?5cast@			; `string'
PUBLIC	__TI2?AVbad_cast@std@@
PUBLIC	__CTA2?AVbad_cast@std@@
PUBLIC	??_R0?AVbad_cast@std@@@8			; std::bad_cast `RTTI Type Descriptor'
PUBLIC	__CT??_R0?AVbad_cast@std@@@8??0bad_cast@std@@QAE@ABV01@@Z12
PUBLIC	??_C@_0GL@NDAGNCF@C?3?2Program?5Files?5?$CIx86?$CJ?2Microsof@ ; `string'
PUBLIC	?__LINE__Var@?0??_Maklocwcs@std@@YAPA_WPB_W@Z@4JA ; `std::_Maklocwcs'::`1'::__LINE__Var
PUBLIC	??_C@_0GL@IOHNGPIE@C?3?2Program?5Files?5?$CIx86?$CJ?2Microsof@ ; `string'
PUBLIC	??_C@_0BP@FCPKDACH@non?9zero?5size?5null?5string_view@ ; `string'
PUBLIC	??_C@_0GL@FMDBFDGL@C?3?2Program?5Files?5?$CIx86?$CJ?2Microsof@ ; `string'
PUBLIC	??_C@_1NG@LEPIOBNH@?$AAC?$AA?3?$AA?2?$AAP?$AAr?$AAo?$AAg?$AAr?$AAa?$AAm?$AA?5?$AAF?$AAi?$AAl?$AAe@ ; `string'
PUBLIC	??_C@_1KK@IKKHLFNC@?$AAs?$AAt?$AAd?$AA?3?$AA?3?$AAb?$AAa?$AAs?$AAi?$AAc?$AA_?$AAs?$AAt?$AAr?$AAi@ ; `string'
PUBLIC	??_C@_1EC@EBKHCANC@?$AA?$CC?$AAn?$AAo?$AAn?$AA?9?$AAz?$AAe?$AAr?$AAo?$AA?5?$AAs?$AAi?$AAz?$AAe?$AA?5@ ; `string'
PUBLIC	??_7filesystem_error@filesystem@std@@6B@	; std::filesystem::filesystem_error::`vftable'
PUBLIC	??_C@_03NONCDIOG@?3?5?$CC@			; `string'
PUBLIC	??_C@_04PHMHGEMA@?$CC?0?5?$CC@			; `string'
PUBLIC	__TI5?AVfilesystem_error@filesystem@std@@
PUBLIC	__CTA5?AVfilesystem_error@filesystem@std@@
PUBLIC	??_R0?AVfilesystem_error@filesystem@std@@@8	; std::filesystem::filesystem_error `RTTI Type Descriptor'
PUBLIC	__CT??_R0?AVfilesystem_error@filesystem@std@@@8??0filesystem_error@filesystem@std@@QAE@ABV012@@Z104
PUBLIC	??_C@_09CKOOOICH@file_size@			; `string'
PUBLIC	?__LINE__Var@?0??loadRawDataBase@NativeFileSystem@@AAE_NABVResourceName@@PAXIH@Z@4JA ; `NativeFileSystem::loadRawDataBase'::`1'::__LINE__Var
PUBLIC	??_7?$basic_filebuf@DU?$char_traits@D@std@@@std@@6B@ ; std::basic_filebuf<char,std::char_traits<char> >::`vftable'
PUBLIC	??_7?$basic_fstream@DU?$char_traits@D@std@@@std@@6B@ ; std::basic_fstream<char,std::char_traits<char> >::`vftable'
PUBLIC	??_8?$basic_fstream@DU?$char_traits@D@std@@@std@@7B?$basic_istream@DU?$char_traits@D@std@@@1@@ ; std::basic_fstream<char,std::char_traits<char> >::`vbtable'
PUBLIC	??_8?$basic_fstream@DU?$char_traits@D@std@@@std@@7B?$basic_ostream@DU?$char_traits@D@std@@@1@@ ; std::basic_fstream<char,std::char_traits<char> >::`vbtable'
PUBLIC	??_C@_1NM@CJLEFO@?$AAC?$AA?3?$AA?2?$AAU?$AAs?$AAe?$AAr?$AAs?$AA?2?$AAt?$AAi?$AAm?$AA2?$AA3?$AA?2@ ; `string'
PUBLIC	??_C@_1CK@DGOAEMHM@?$AAf?$AAi?$AAl?$AAe?$AAS?$AAt?$AAr?$AAe?$AAa?$AAm?$AA?4?$AAi?$AAs?$AA_?$AAo@ ; `string'
PUBLIC	??_C@_0N@LPFKKEBD@?3AM?3am?3PM?3pm@		; `string'
PUBLIC	??_C@_1JO@CKCICMOO@?$AAs?$AAt?$AAd?$AA?3?$AA?3?$AAb?$AAa?$AAs?$AAi?$AAc?$AA_?$AAs?$AAt?$AAr?$AAi@ ; `string'
PUBLIC	?_Stinit@?1??_Init@?$basic_filebuf@DU?$char_traits@D@std@@@std@@IAEXPAU_iobuf@@W4_Initfl@23@@Z@4U_Mbstatet@@A ; `std::basic_filebuf<char,std::char_traits<char> >::_Init'::`2'::_Stinit
PUBLIC	??_C@_0BP@PFIPNLNI@front?$CI?$CJ?5called?5on?5empty?5string@ ; `string'
PUBLIC	??_C@_1LC@BJDDPGPA@?$AAs?$AAt?$AAd?$AA?3?$AA?3?$AAb?$AAa?$AAs?$AAi?$AAc?$AA_?$AAs?$AAt?$AAr?$AAi@ ; `string'
PUBLIC	??_C@_1EC@DINNLDHA@?$AA?$CC?$AAf?$AAr?$AAo?$AAn?$AAt?$AA?$CI?$AA?$CJ?$AA?5?$AAc?$AAa?$AAl?$AAl?$AAe?$AAd@ ; `string'
PUBLIC	??_C@_0BI@CFPLBAOH@invalid?5string?5position@	; `string'
PUBLIC	?_Static@?1???$_Immortalize_memcpy_image@V_Generic_error_category@std@@@std@@YAABV_Generic_error_category@1@XZ@4U?$_Constexpr_immortalize_impl@V_Generic_error_category@std@@@1@A ; `std::_Immortalize_memcpy_image<std::_Generic_error_category>'::`2'::_Static
PUBLIC	?_Static@?1???$_Immortalize_memcpy_image@V_System_error_category@std@@@std@@YAABV_System_error_category@1@XZ@4U?$_Constexpr_immortalize_impl@V_System_error_category@std@@@1@A ; `std::_Immortalize_memcpy_image<std::_System_error_category>'::`2'::_Static
PUBLIC	??_C@_1BK@MHIKGOKE@?$AA?3?$AAA?$AAM?$AA?3?$AAa?$AAm?$AA?3?$AAP?$AAM?$AA?3?$AAp?$AAm@ ; `string'
PUBLIC	?_Psave@?$_Facetptr@V?$codecvt@DDU_Mbstatet@@@std@@@std@@2PBVfacet@locale@2@B ; std::_Facetptr<std::codecvt<char,char,_Mbstatet> >::_Psave
PUBLIC	??_C@_1EO@GFNCMDLA@?$AAs?$AAt?$AAd?$AA?3?$AA?3?$AA_?$AAA?$AAl?$AAl?$AAo?$AAc?$AAa?$AAt?$AAe?$AA_@ ; `string'
PUBLIC	??_R4exception@std@@6B@				; std::exception::`RTTI Complete Object Locator'
PUBLIC	??_R3exception@std@@8				; std::exception::`RTTI Class Hierarchy Descriptor'
PUBLIC	??_R2exception@std@@8				; std::exception::`RTTI Base Class Array'
PUBLIC	??_R1A@?0A@EA@exception@std@@8			; std::exception::`RTTI Base Class Descriptor at (0,-1,0,64)'
PUBLIC	??_R4bad_alloc@std@@6B@				; std::bad_alloc::`RTTI Complete Object Locator'
PUBLIC	??_R3bad_alloc@std@@8				; std::bad_alloc::`RTTI Class Hierarchy Descriptor'
PUBLIC	??_R2bad_alloc@std@@8				; std::bad_alloc::`RTTI Base Class Array'
PUBLIC	??_R1A@?0A@EA@bad_alloc@std@@8			; std::bad_alloc::`RTTI Base Class Descriptor at (0,-1,0,64)'
PUBLIC	??_R4bad_array_new_length@std@@6B@		; std::bad_array_new_length::`RTTI Complete Object Locator'
PUBLIC	??_R3bad_array_new_length@std@@8		; std::bad_array_new_length::`RTTI Class Hierarchy Descriptor'
PUBLIC	??_R2bad_array_new_length@std@@8		; std::bad_array_new_length::`RTTI Base Class Array'
PUBLIC	??_R1A@?0A@EA@bad_array_new_length@std@@8	; std::bad_array_new_length::`RTTI Base Class Descriptor at (0,-1,0,64)'
PUBLIC	??_R4?$basic_filebuf@DU?$char_traits@D@std@@@std@@6B@ ; std::basic_filebuf<char,std::char_traits<char> >::`RTTI Complete Object Locator'
PUBLIC	??_R0?AV?$basic_filebuf@DU?$char_traits@D@std@@@std@@@8 ; std::basic_filebuf<char,std::char_traits<char> > `RTTI Type Descriptor'
PUBLIC	??_R3?$basic_filebuf@DU?$char_traits@D@std@@@std@@8 ; std::basic_filebuf<char,std::char_traits<char> >::`RTTI Class Hierarchy Descriptor'
PUBLIC	??_R2?$basic_filebuf@DU?$char_traits@D@std@@@std@@8 ; std::basic_filebuf<char,std::char_traits<char> >::`RTTI Base Class Array'
PUBLIC	??_R1A@?0A@EA@?$basic_filebuf@DU?$char_traits@D@std@@@std@@8 ; std::basic_filebuf<char,std::char_traits<char> >::`RTTI Base Class Descriptor at (0,-1,0,64)'
PUBLIC	??_R1A@?0A@EA@?$basic_streambuf@DU?$char_traits@D@std@@@std@@8 ; std::basic_streambuf<char,std::char_traits<char> >::`RTTI Base Class Descriptor at (0,-1,0,64)'
PUBLIC	??_R0?AV?$basic_streambuf@DU?$char_traits@D@std@@@std@@@8 ; std::basic_streambuf<char,std::char_traits<char> > `RTTI Type Descriptor'
PUBLIC	??_R3?$basic_streambuf@DU?$char_traits@D@std@@@std@@8 ; std::basic_streambuf<char,std::char_traits<char> >::`RTTI Class Hierarchy Descriptor'
PUBLIC	??_R2?$basic_streambuf@DU?$char_traits@D@std@@@std@@8 ; std::basic_streambuf<char,std::char_traits<char> >::`RTTI Base Class Array'
PUBLIC	??_R4?$basic_fstream@DU?$char_traits@D@std@@@std@@6B@ ; std::basic_fstream<char,std::char_traits<char> >::`RTTI Complete Object Locator'
PUBLIC	??_R0?AV?$basic_fstream@DU?$char_traits@D@std@@@std@@@8 ; std::basic_fstream<char,std::char_traits<char> > `RTTI Type Descriptor'
PUBLIC	??_R3?$basic_fstream@DU?$char_traits@D@std@@@std@@8 ; std::basic_fstream<char,std::char_traits<char> >::`RTTI Class Hierarchy Descriptor'
PUBLIC	??_R2?$basic_fstream@DU?$char_traits@D@std@@@std@@8 ; std::basic_fstream<char,std::char_traits<char> >::`RTTI Base Class Array'
PUBLIC	??_R1A@?0A@EA@?$basic_fstream@DU?$char_traits@D@std@@@std@@8 ; std::basic_fstream<char,std::char_traits<char> >::`RTTI Base Class Descriptor at (0,-1,0,64)'
PUBLIC	??_R1A@?0A@EA@?$basic_iostream@DU?$char_traits@D@std@@@std@@8 ; std::basic_iostream<char,std::char_traits<char> >::`RTTI Base Class Descriptor at (0,-1,0,64)'
PUBLIC	??_R0?AV?$basic_iostream@DU?$char_traits@D@std@@@std@@@8 ; std::basic_iostream<char,std::char_traits<char> > `RTTI Type Descriptor'
PUBLIC	??_R3?$basic_iostream@DU?$char_traits@D@std@@@std@@8 ; std::basic_iostream<char,std::char_traits<char> >::`RTTI Class Hierarchy Descriptor'
PUBLIC	??_R2?$basic_iostream@DU?$char_traits@D@std@@@std@@8 ; std::basic_iostream<char,std::char_traits<char> >::`RTTI Base Class Array'
PUBLIC	??_R1A@?0A@EA@?$basic_istream@DU?$char_traits@D@std@@@std@@8 ; std::basic_istream<char,std::char_traits<char> >::`RTTI Base Class Descriptor at (0,-1,0,64)'
PUBLIC	??_R0?AV?$basic_istream@DU?$char_traits@D@std@@@std@@@8 ; std::basic_istream<char,std::char_traits<char> > `RTTI Type Descriptor'
PUBLIC	??_R3?$basic_istream@DU?$char_traits@D@std@@@std@@8 ; std::basic_istream<char,std::char_traits<char> >::`RTTI Class Hierarchy Descriptor'
PUBLIC	??_R2?$basic_istream@DU?$char_traits@D@std@@@std@@8 ; std::basic_istream<char,std::char_traits<char> >::`RTTI Base Class Array'
PUBLIC	??_R1A@A@3FA@?$basic_ios@DU?$char_traits@D@std@@@std@@8 ; std::basic_ios<char,std::char_traits<char> >::`RTTI Base Class Descriptor at (0,0,4,80)'
PUBLIC	??_R0?AV?$basic_ios@DU?$char_traits@D@std@@@std@@@8 ; std::basic_ios<char,std::char_traits<char> > `RTTI Type Descriptor'
PUBLIC	??_R3?$basic_ios@DU?$char_traits@D@std@@@std@@8	; std::basic_ios<char,std::char_traits<char> >::`RTTI Class Hierarchy Descriptor'
PUBLIC	??_R2?$basic_ios@DU?$char_traits@D@std@@@std@@8	; std::basic_ios<char,std::char_traits<char> >::`RTTI Base Class Array'
PUBLIC	??_R1A@?0A@EA@?$basic_ios@DU?$char_traits@D@std@@@std@@8 ; std::basic_ios<char,std::char_traits<char> >::`RTTI Base Class Descriptor at (0,-1,0,64)'
PUBLIC	??_R1A@?0A@EA@ios_base@std@@8			; std::ios_base::`RTTI Base Class Descriptor at (0,-1,0,64)'
PUBLIC	??_R0?AVios_base@std@@@8			; std::ios_base `RTTI Type Descriptor'
PUBLIC	??_R3ios_base@std@@8				; std::ios_base::`RTTI Class Hierarchy Descriptor'
PUBLIC	??_R2ios_base@std@@8				; std::ios_base::`RTTI Base Class Array'
PUBLIC	??_R17?0A@EA@?$_Iosb@H@std@@8			; std::_Iosb<int>::`RTTI Base Class Descriptor at (8,-1,0,64)'
PUBLIC	??_R0?AV?$_Iosb@H@std@@@8			; std::_Iosb<int> `RTTI Type Descriptor'
PUBLIC	??_R3?$_Iosb@H@std@@8				; std::_Iosb<int>::`RTTI Class Hierarchy Descriptor'
PUBLIC	??_R2?$_Iosb@H@std@@8				; std::_Iosb<int>::`RTTI Base Class Array'
PUBLIC	??_R1A@?0A@EA@?$_Iosb@H@std@@8			; std::_Iosb<int>::`RTTI Base Class Descriptor at (0,-1,0,64)'
PUBLIC	??_R1A@A@3EA@ios_base@std@@8			; std::ios_base::`RTTI Base Class Descriptor at (0,0,4,64)'
PUBLIC	??_R17A@3EA@?$_Iosb@H@std@@8			; std::_Iosb<int>::`RTTI Base Class Descriptor at (8,0,4,64)'
PUBLIC	??_R1BA@?0A@EA@?$basic_ostream@DU?$char_traits@D@std@@@std@@8 ; std::basic_ostream<char,std::char_traits<char> >::`RTTI Base Class Descriptor at (16,-1,0,64)'
PUBLIC	??_R0?AV?$basic_ostream@DU?$char_traits@D@std@@@std@@@8 ; std::basic_ostream<char,std::char_traits<char> > `RTTI Type Descriptor'
PUBLIC	??_R3?$basic_ostream@DU?$char_traits@D@std@@@std@@8 ; std::basic_ostream<char,std::char_traits<char> >::`RTTI Class Hierarchy Descriptor'
PUBLIC	??_R2?$basic_ostream@DU?$char_traits@D@std@@@std@@8 ; std::basic_ostream<char,std::char_traits<char> >::`RTTI Base Class Array'
PUBLIC	??_R1A@?0A@EA@?$basic_ostream@DU?$char_traits@D@std@@@std@@8 ; std::basic_ostream<char,std::char_traits<char> >::`RTTI Base Class Descriptor at (0,-1,0,64)'
PUBLIC	??_R4runtime_error@std@@6B@			; std::runtime_error::`RTTI Complete Object Locator'
PUBLIC	??_R3runtime_error@std@@8			; std::runtime_error::`RTTI Class Hierarchy Descriptor'
PUBLIC	??_R2runtime_error@std@@8			; std::runtime_error::`RTTI Base Class Array'
PUBLIC	??_R1A@?0A@EA@runtime_error@std@@8		; std::runtime_error::`RTTI Base Class Descriptor at (0,-1,0,64)'
PUBLIC	??_R0?AVerror_category@std@@@8			; std::error_category `RTTI Type Descriptor'
PUBLIC	??_R3error_category@std@@8			; std::error_category::`RTTI Class Hierarchy Descriptor'
PUBLIC	??_R2error_category@std@@8			; std::error_category::`RTTI Base Class Array'
PUBLIC	??_R1A@?0A@EA@error_category@std@@8		; std::error_category::`RTTI Base Class Descriptor at (0,-1,0,64)'
PUBLIC	??_R4_System_error@std@@6B@			; std::_System_error::`RTTI Complete Object Locator'
PUBLIC	??_R3_System_error@std@@8			; std::_System_error::`RTTI Class Hierarchy Descriptor'
PUBLIC	??_R2_System_error@std@@8			; std::_System_error::`RTTI Base Class Array'
PUBLIC	??_R1A@?0A@EA@_System_error@std@@8		; std::_System_error::`RTTI Base Class Descriptor at (0,-1,0,64)'
PUBLIC	??_R4system_error@std@@6B@			; std::system_error::`RTTI Complete Object Locator'
PUBLIC	??_R3system_error@std@@8			; std::system_error::`RTTI Class Hierarchy Descriptor'
PUBLIC	??_R2system_error@std@@8			; std::system_error::`RTTI Base Class Array'
PUBLIC	??_R1A@?0A@EA@system_error@std@@8		; std::system_error::`RTTI Base Class Descriptor at (0,-1,0,64)'
PUBLIC	??_R4_Generic_error_category@std@@6B@		; std::_Generic_error_category::`RTTI Complete Object Locator'
PUBLIC	??_R0?AV_Generic_error_category@std@@@8		; std::_Generic_error_category `RTTI Type Descriptor'
PUBLIC	??_R3_Generic_error_category@std@@8		; std::_Generic_error_category::`RTTI Class Hierarchy Descriptor'
PUBLIC	??_R2_Generic_error_category@std@@8		; std::_Generic_error_category::`RTTI Base Class Array'
PUBLIC	??_R1A@?0A@EA@_Generic_error_category@std@@8	; std::_Generic_error_category::`RTTI Base Class Descriptor at (0,-1,0,64)'
PUBLIC	??_R4_System_error_category@std@@6B@		; std::_System_error_category::`RTTI Complete Object Locator'
PUBLIC	??_R0?AV_System_error_category@std@@@8		; std::_System_error_category `RTTI Type Descriptor'
PUBLIC	??_R3_System_error_category@std@@8		; std::_System_error_category::`RTTI Class Hierarchy Descriptor'
PUBLIC	??_R2_System_error_category@std@@8		; std::_System_error_category::`RTTI Base Class Array'
PUBLIC	??_R1A@?0A@EA@_System_error_category@std@@8	; std::_System_error_category::`RTTI Base Class Descriptor at (0,-1,0,64)'
PUBLIC	??_R4bad_cast@std@@6B@				; std::bad_cast::`RTTI Complete Object Locator'
PUBLIC	??_R3bad_cast@std@@8				; std::bad_cast::`RTTI Class Hierarchy Descriptor'
PUBLIC	??_R2bad_cast@std@@8				; std::bad_cast::`RTTI Base Class Array'
PUBLIC	??_R1A@?0A@EA@bad_cast@std@@8			; std::bad_cast::`RTTI Base Class Descriptor at (0,-1,0,64)'
PUBLIC	??_R4filesystem_error@filesystem@std@@6B@	; std::filesystem::filesystem_error::`RTTI Complete Object Locator'
PUBLIC	??_R3filesystem_error@filesystem@std@@8		; std::filesystem::filesystem_error::`RTTI Class Hierarchy Descriptor'
PUBLIC	??_R2filesystem_error@filesystem@std@@8		; std::filesystem::filesystem_error::`RTTI Base Class Array'
PUBLIC	??_R1A@?0A@EA@filesystem_error@filesystem@std@@8 ; std::filesystem::filesystem_error::`RTTI Base Class Descriptor at (0,-1,0,64)'
EXTRN	??2@YAPAXI@Z:PROC				; operator new
EXTRN	??3@YAXPAXI@Z:PROC				; operator delete
EXTRN	__imp___invalid_parameter:PROC
EXTRN	__imp___calloc_dbg:PROC
EXTRN	__imp___CrtDbgReport:PROC
EXTRN	__imp_??0_Lockit@std@@QAE@H@Z:PROC
EXTRN	__imp_??1_Lockit@std@@QAE@XZ:PROC
EXTRN	__imp___get_stream_buffer_pointers:PROC
EXTRN	__imp__fclose:PROC
EXTRN	__imp__fflush:PROC
EXTRN	__imp__fgetc:PROC
EXTRN	__imp__fgetpos:PROC
EXTRN	__imp__fputc:PROC
EXTRN	__imp__fread:PROC
EXTRN	__imp__fsetpos:PROC
EXTRN	__imp___fseeki64:PROC
EXTRN	__imp__fwrite:PROC
EXTRN	__imp__setvbuf:PROC
EXTRN	__imp__ungetc:PROC
EXTRN	__imp___lock_file:PROC
EXTRN	__imp___unlock_file:PROC
EXTRN	_memcpy:PROC
EXTRN	_memmove:PROC
EXTRN	_memset:PROC
EXTRN	__imp__wcslen:PROC
EXTRN	___std_exception_copy:PROC
EXTRN	___std_exception_destroy:PROC
EXTRN	??_Eexception@std@@UAEPAXI@Z:PROC		; std::exception::`vector deleting destructor'
EXTRN	??_Ebad_alloc@std@@UAEPAXI@Z:PROC		; std::bad_alloc::`vector deleting destructor'
EXTRN	??_Ebad_array_new_length@std@@UAEPAXI@Z:PROC	; std::bad_array_new_length::`vector deleting destructor'
EXTRN	_strlen:PROC
EXTRN	?_Xbad_alloc@std@@YAXXZ:PROC			; std::_Xbad_alloc
EXTRN	?_Xlength_error@std@@YAXPBD@Z:PROC		; std::_Xlength_error
EXTRN	?_Xout_of_range@std@@YAXPBD@Z:PROC		; std::_Xout_of_range
EXTRN	___std_system_error_allocate_message@8:PROC
EXTRN	___std_system_error_deallocate_message@4:PROC
EXTRN	??_Eruntime_error@std@@UAEPAXI@Z:PROC		; std::runtime_error::`vector deleting destructor'
EXTRN	??_E_System_error@std@@UAEPAXI@Z:PROC		; std::_System_error::`vector deleting destructor'
EXTRN	??_Esystem_error@std@@UAEPAXI@Z:PROC		; std::system_error::`vector deleting destructor'
EXTRN	?_Syserror_map@std@@YAPBDH@Z:PROC		; std::_Syserror_map
EXTRN	?_Winerror_map@std@@YAHH@Z:PROC			; std::_Winerror_map
EXTRN	??_E_Generic_error_category@std@@UAEPAXI@Z:PROC	; std::_Generic_error_category::`vector deleting destructor'
EXTRN	??_E_System_error_category@std@@UAEPAXI@Z:PROC	; std::_System_error_category::`vector deleting destructor'
EXTRN	??_Ebad_cast@std@@UAEPAXI@Z:PROC		; std::bad_cast::`vector deleting destructor'
EXTRN	?_Facet_Register@std@@YAXPAV_Facet_base@1@@Z:PROC ; std::_Facet_Register
EXTRN	__Mbrtowc:PROC
EXTRN	__imp_?_Getcvt@_Locinfo@std@@QBE?AU_Cvtvec@@XZ:PROC
EXTRN	__imp_?_Getdays@_Locinfo@std@@QBEPBDXZ:PROC
EXTRN	__imp_?_Getmonths@_Locinfo@std@@QBEPBDXZ:PROC
EXTRN	__imp_?_W_Getdays@_Locinfo@std@@QBEPBGXZ:PROC
EXTRN	__imp_?_W_Getmonths@_Locinfo@std@@QBEPBGXZ:PROC
EXTRN	__imp_??Bid@locale@std@@QAEIXZ:PROC
EXTRN	?_Getgloballocale@locale@std@@CAPAV_Locimp@12@XZ:PROC ; std::locale::_Getgloballocale
EXTRN	__imp_?always_noconv@codecvt_base@std@@QBE_NXZ:PROC
EXTRN	__imp_?in@?$codecvt@DDU_Mbstatet@@@std@@QBEHAAU_Mbstatet@@PBD1AAPBDPAD3AAPAD@Z:PROC
EXTRN	__imp_?out@?$codecvt@DDU_Mbstatet@@@std@@QBEHAAU_Mbstatet@@PBD1AAPBDPAD3AAPAD@Z:PROC
EXTRN	__imp_?unshift@?$codecvt@DDU_Mbstatet@@@std@@QBEHAAU_Mbstatet@@PAD1AAPAD@Z:PROC
EXTRN	__imp_?_Getcat@?$codecvt@DDU_Mbstatet@@@std@@SAIPAPBVfacet@locale@2@PBV42@@Z:PROC
EXTRN	__imp_??0?$basic_streambuf@DU?$char_traits@D@std@@@std@@IAE@XZ:PROC
EXTRN	__imp_??1?$basic_streambuf@DU?$char_traits@D@std@@@std@@UAE@XZ:PROC
EXTRN	__imp_?getloc@?$basic_streambuf@DU?$char_traits@D@std@@@std@@QBE?AVlocale@2@XZ:PROC
EXTRN	__imp_?eback@?$basic_streambuf@DU?$char_traits@D@std@@@std@@IBEPADXZ:PROC
EXTRN	__imp_?gptr@?$basic_streambuf@DU?$char_traits@D@std@@@std@@IBEPADXZ:PROC
EXTRN	__imp_?pptr@?$basic_streambuf@DU?$char_traits@D@std@@@std@@IBEPADXZ:PROC
EXTRN	__imp_?egptr@?$basic_streambuf@DU?$char_traits@D@std@@@std@@IBEPADXZ:PROC
EXTRN	__imp_?gbump@?$basic_streambuf@DU?$char_traits@D@std@@@std@@IAEXH@Z:PROC
EXTRN	__imp_?setg@?$basic_streambuf@DU?$char_traits@D@std@@@std@@IAEXPAD00@Z:PROC
EXTRN	__imp_?epptr@?$basic_streambuf@DU?$char_traits@D@std@@@std@@IBEPADXZ:PROC
EXTRN	__imp_?_Gndec@?$basic_streambuf@DU?$char_traits@D@std@@@std@@IAEPADXZ:PROC
EXTRN	__imp_?_Gninc@?$basic_streambuf@DU?$char_traits@D@std@@@std@@IAEPADXZ:PROC
EXTRN	__imp_?_Gnavail@?$basic_streambuf@DU?$char_traits@D@std@@@std@@IBE_JXZ:PROC
EXTRN	__imp_?pbump@?$basic_streambuf@DU?$char_traits@D@std@@@std@@IAEXH@Z:PROC
EXTRN	__imp_?_Pninc@?$basic_streambuf@DU?$char_traits@D@std@@@std@@IAEPADXZ:PROC
EXTRN	__imp_?_Pnavail@?$basic_streambuf@DU?$char_traits@D@std@@@std@@IBE_JXZ:PROC
EXTRN	__imp_?_Init@?$basic_streambuf@DU?$char_traits@D@std@@@std@@IAEXXZ:PROC
EXTRN	__imp_?_Init@?$basic_streambuf@DU?$char_traits@D@std@@@std@@IAEXPAPAD0PAH001@Z:PROC
EXTRN	__imp_?xsgetn@?$basic_streambuf@DU?$char_traits@D@std@@@std@@MAE_JPAD_J@Z:PROC
EXTRN	__imp_?xsputn@?$basic_streambuf@DU?$char_traits@D@std@@@std@@MAE_JPBD_J@Z:PROC
EXTRN	__imp_??1?$basic_ios@DU?$char_traits@D@std@@@std@@UAE@XZ:PROC
EXTRN	__imp_?setstate@?$basic_ios@DU?$char_traits@D@std@@@std@@QAEXH_N@Z:PROC
EXTRN	__imp_??0?$basic_ios@DU?$char_traits@D@std@@@std@@IAE@XZ:PROC
EXTRN	__imp_?read@?$basic_istream@DU?$char_traits@D@std@@@std@@QAEAAV12@PAD_J@Z:PROC
EXTRN	__imp_??0?$basic_iostream@DU?$char_traits@D@std@@@std@@QAE@PAV?$basic_streambuf@DU?$char_traits@D@std@@@1@@Z:PROC
EXTRN	__imp_??1?$basic_iostream@DU?$char_traits@D@std@@@std@@UAE@XZ:PROC
EXTRN	___std_fs_get_stats@16:PROC
EXTRN	___std_fs_code_page@0:PROC
EXTRN	___std_fs_convert_narrow_to_wide@20:PROC
EXTRN	___std_fs_convert_wide_to_narrow_replace_chars@20:PROC
EXTRN	??_Efilesystem_error@filesystem@std@@UAEPAXI@Z:PROC ; std::filesystem::filesystem_error::`vector deleting destructor'
EXTRN	?_Fiopen@std@@YAPAU_iobuf@@PBDHH@Z:PROC		; std::_Fiopen
EXTRN	__imp___wassert:PROC
EXTRN	??_E?$basic_filebuf@DU?$char_traits@D@std@@@std@@UAEPAXI@Z:PROC ; std::basic_filebuf<char,std::char_traits<char> >::`vector deleting destructor'
EXTRN	??_E?$basic_fstream@DU?$char_traits@D@std@@@std@@UAEPAXI@Z:PROC ; std::basic_fstream<char,std::char_traits<char> >::`vector deleting destructor'
EXTRN	?showmanyc@?$basic_streambuf@DU?$char_traits@D@std@@@std@@MAE_JXZ:PROC ; std::basic_streambuf<char,std::char_traits<char> >::showmanyc
EXTRN	@_RTC_CheckStackVars@8:PROC
EXTRN	@__CheckForDebuggerJustMyCode@4:PROC
EXTRN	@__security_check_cookie@4:PROC
EXTRN	__CxxThrowException@8:PROC
EXTRN	__RTC_CheckEsp:PROC
EXTRN	__RTC_InitBase:PROC
EXTRN	__RTC_Shutdown:PROC
EXTRN	___CxxFrameHandler3:PROC
EXTRN	_memset:PROC
EXTRN	??_7type_info@@6B@:QWORD			; type_info::`vftable'
EXTRN	__imp_?id@?$codecvt@DDU_Mbstatet@@@std@@2V0locale@2@A:DWORD
EXTRN	___security_cookie:DWORD
;	COMDAT ?_Stinit@?1??_Init@?$basic_filebuf@DU?$char_traits@D@std@@@std@@IAEXPAU_iobuf@@W4_Initfl@23@@Z@4U_Mbstatet@@A
_BSS	SEGMENT
?_Stinit@?1??_Init@?$basic_filebuf@DU?$char_traits@D@std@@@std@@IAEXPAU_iobuf@@W4_Initfl@23@@Z@4U_Mbstatet@@A DQ 01H DUP (?) ; `std::basic_filebuf<char,std::char_traits<char> >::_Init'::`2'::_Stinit
_BSS	ENDS
;	COMDAT ?_Psave@?$_Facetptr@V?$codecvt@DDU_Mbstatet@@@std@@@std@@2PBVfacet@locale@2@B
_BSS	SEGMENT
?_Psave@?$_Facetptr@V?$codecvt@DDU_Mbstatet@@@std@@@std@@2PBVfacet@locale@2@B DD 01H DUP (?) ; std::_Facetptr<std::codecvt<char,char,_Mbstatet> >::_Psave
_BSS	ENDS
;	COMDAT rtc$TMZ
rtc$TMZ	SEGMENT
__RTC_Shutdown.rtc$TMZ DD FLAT:__RTC_Shutdown
rtc$TMZ	ENDS
;	COMDAT rtc$IMZ
rtc$IMZ	SEGMENT
__RTC_InitBase.rtc$IMZ DD FLAT:__RTC_InitBase
rtc$IMZ	ENDS
;	COMDAT ??_R1A@?0A@EA@filesystem_error@filesystem@std@@8
rdata$r	SEGMENT
??_R1A@?0A@EA@filesystem_error@filesystem@std@@8 DD FLAT:??_R0?AVfilesystem_error@filesystem@std@@@8 ; std::filesystem::filesystem_error::`RTTI Base Class Descriptor at (0,-1,0,64)'
	DD	04H
	DD	00H
	DD	0ffffffffH
	DD	00H
	DD	040H
	DD	FLAT:??_R3filesystem_error@filesystem@std@@8
rdata$r	ENDS
;	COMDAT ??_R2filesystem_error@filesystem@std@@8
rdata$r	SEGMENT
??_R2filesystem_error@filesystem@std@@8 DD FLAT:??_R1A@?0A@EA@filesystem_error@filesystem@std@@8 ; std::filesystem::filesystem_error::`RTTI Base Class Array'
	DD	FLAT:??_R1A@?0A@EA@system_error@std@@8
	DD	FLAT:??_R1A@?0A@EA@_System_error@std@@8
	DD	FLAT:??_R1A@?0A@EA@runtime_error@std@@8
	DD	FLAT:??_R1A@?0A@EA@exception@std@@8
rdata$r	ENDS
;	COMDAT ??_R3filesystem_error@filesystem@std@@8
rdata$r	SEGMENT
??_R3filesystem_error@filesystem@std@@8 DD 00H		; std::filesystem::filesystem_error::`RTTI Class Hierarchy Descriptor'
	DD	00H
	DD	05H
	DD	FLAT:??_R2filesystem_error@filesystem@std@@8
rdata$r	ENDS
;	COMDAT ??_R4filesystem_error@filesystem@std@@6B@
rdata$r	SEGMENT
??_R4filesystem_error@filesystem@std@@6B@ DD 00H	; std::filesystem::filesystem_error::`RTTI Complete Object Locator'
	DD	00H
	DD	00H
	DD	FLAT:??_R0?AVfilesystem_error@filesystem@std@@@8
	DD	FLAT:??_R3filesystem_error@filesystem@std@@8
rdata$r	ENDS
;	COMDAT ??_R1A@?0A@EA@bad_cast@std@@8
rdata$r	SEGMENT
??_R1A@?0A@EA@bad_cast@std@@8 DD FLAT:??_R0?AVbad_cast@std@@@8 ; std::bad_cast::`RTTI Base Class Descriptor at (0,-1,0,64)'
	DD	01H
	DD	00H
	DD	0ffffffffH
	DD	00H
	DD	040H
	DD	FLAT:??_R3bad_cast@std@@8
rdata$r	ENDS
;	COMDAT ??_R2bad_cast@std@@8
rdata$r	SEGMENT
??_R2bad_cast@std@@8 DD FLAT:??_R1A@?0A@EA@bad_cast@std@@8 ; std::bad_cast::`RTTI Base Class Array'
	DD	FLAT:??_R1A@?0A@EA@exception@std@@8
rdata$r	ENDS
;	COMDAT ??_R3bad_cast@std@@8
rdata$r	SEGMENT
??_R3bad_cast@std@@8 DD 00H				; std::bad_cast::`RTTI Class Hierarchy Descriptor'
	DD	00H
	DD	02H
	DD	FLAT:??_R2bad_cast@std@@8
rdata$r	ENDS
;	COMDAT ??_R4bad_cast@std@@6B@
rdata$r	SEGMENT
??_R4bad_cast@std@@6B@ DD 00H				; std::bad_cast::`RTTI Complete Object Locator'
	DD	00H
	DD	00H
	DD	FLAT:??_R0?AVbad_cast@std@@@8
	DD	FLAT:??_R3bad_cast@std@@8
rdata$r	ENDS
;	COMDAT ??_R1A@?0A@EA@_System_error_category@std@@8
rdata$r	SEGMENT
??_R1A@?0A@EA@_System_error_category@std@@8 DD FLAT:??_R0?AV_System_error_category@std@@@8 ; std::_System_error_category::`RTTI Base Class Descriptor at (0,-1,0,64)'
	DD	01H
	DD	00H
	DD	0ffffffffH
	DD	00H
	DD	040H
	DD	FLAT:??_R3_System_error_category@std@@8
rdata$r	ENDS
;	COMDAT ??_R2_System_error_category@std@@8
rdata$r	SEGMENT
??_R2_System_error_category@std@@8 DD FLAT:??_R1A@?0A@EA@_System_error_category@std@@8 ; std::_System_error_category::`RTTI Base Class Array'
	DD	FLAT:??_R1A@?0A@EA@error_category@std@@8
rdata$r	ENDS
;	COMDAT ??_R3_System_error_category@std@@8
rdata$r	SEGMENT
??_R3_System_error_category@std@@8 DD 00H		; std::_System_error_category::`RTTI Class Hierarchy Descriptor'
	DD	00H
	DD	02H
	DD	FLAT:??_R2_System_error_category@std@@8
rdata$r	ENDS
;	COMDAT ??_R0?AV_System_error_category@std@@@8
data$rs	SEGMENT
??_R0?AV_System_error_category@std@@@8 DD FLAT:??_7type_info@@6B@ ; std::_System_error_category `RTTI Type Descriptor'
	DD	00H
	DB	'.?AV_System_error_category@std@@', 00H
data$rs	ENDS
;	COMDAT ??_R4_System_error_category@std@@6B@
rdata$r	SEGMENT
??_R4_System_error_category@std@@6B@ DD 00H		; std::_System_error_category::`RTTI Complete Object Locator'
	DD	00H
	DD	00H
	DD	FLAT:??_R0?AV_System_error_category@std@@@8
	DD	FLAT:??_R3_System_error_category@std@@8
rdata$r	ENDS
;	COMDAT ??_R1A@?0A@EA@_Generic_error_category@std@@8
rdata$r	SEGMENT
??_R1A@?0A@EA@_Generic_error_category@std@@8 DD FLAT:??_R0?AV_Generic_error_category@std@@@8 ; std::_Generic_error_category::`RTTI Base Class Descriptor at (0,-1,0,64)'
	DD	01H
	DD	00H
	DD	0ffffffffH
	DD	00H
	DD	040H
	DD	FLAT:??_R3_Generic_error_category@std@@8
rdata$r	ENDS
;	COMDAT ??_R2_Generic_error_category@std@@8
rdata$r	SEGMENT
??_R2_Generic_error_category@std@@8 DD FLAT:??_R1A@?0A@EA@_Generic_error_category@std@@8 ; std::_Generic_error_category::`RTTI Base Class Array'
	DD	FLAT:??_R1A@?0A@EA@error_category@std@@8
rdata$r	ENDS
;	COMDAT ??_R3_Generic_error_category@std@@8
rdata$r	SEGMENT
??_R3_Generic_error_category@std@@8 DD 00H		; std::_Generic_error_category::`RTTI Class Hierarchy Descriptor'
	DD	00H
	DD	02H
	DD	FLAT:??_R2_Generic_error_category@std@@8
rdata$r	ENDS
;	COMDAT ??_R0?AV_Generic_error_category@std@@@8
data$rs	SEGMENT
??_R0?AV_Generic_error_category@std@@@8 DD FLAT:??_7type_info@@6B@ ; std::_Generic_error_category `RTTI Type Descriptor'
	DD	00H
	DB	'.?AV_Generic_error_category@std@@', 00H
data$rs	ENDS
;	COMDAT ??_R4_Generic_error_category@std@@6B@
rdata$r	SEGMENT
??_R4_Generic_error_category@std@@6B@ DD 00H		; std::_Generic_error_category::`RTTI Complete Object Locator'
	DD	00H
	DD	00H
	DD	FLAT:??_R0?AV_Generic_error_category@std@@@8
	DD	FLAT:??_R3_Generic_error_category@std@@8
rdata$r	ENDS
;	COMDAT ??_R1A@?0A@EA@system_error@std@@8
rdata$r	SEGMENT
??_R1A@?0A@EA@system_error@std@@8 DD FLAT:??_R0?AVsystem_error@std@@@8 ; std::system_error::`RTTI Base Class Descriptor at (0,-1,0,64)'
	DD	03H
	DD	00H
	DD	0ffffffffH
	DD	00H
	DD	040H
	DD	FLAT:??_R3system_error@std@@8
rdata$r	ENDS
;	COMDAT ??_R2system_error@std@@8
rdata$r	SEGMENT
??_R2system_error@std@@8 DD FLAT:??_R1A@?0A@EA@system_error@std@@8 ; std::system_error::`RTTI Base Class Array'
	DD	FLAT:??_R1A@?0A@EA@_System_error@std@@8
	DD	FLAT:??_R1A@?0A@EA@runtime_error@std@@8
	DD	FLAT:??_R1A@?0A@EA@exception@std@@8
rdata$r	ENDS
;	COMDAT ??_R3system_error@std@@8
rdata$r	SEGMENT
??_R3system_error@std@@8 DD 00H				; std::system_error::`RTTI Class Hierarchy Descriptor'
	DD	00H
	DD	04H
	DD	FLAT:??_R2system_error@std@@8
rdata$r	ENDS
;	COMDAT ??_R4system_error@std@@6B@
rdata$r	SEGMENT
??_R4system_error@std@@6B@ DD 00H			; std::system_error::`RTTI Complete Object Locator'
	DD	00H
	DD	00H
	DD	FLAT:??_R0?AVsystem_error@std@@@8
	DD	FLAT:??_R3system_error@std@@8
rdata$r	ENDS
;	COMDAT ??_R1A@?0A@EA@_System_error@std@@8
rdata$r	SEGMENT
??_R1A@?0A@EA@_System_error@std@@8 DD FLAT:??_R0?AV_System_error@std@@@8 ; std::_System_error::`RTTI Base Class Descriptor at (0,-1,0,64)'
	DD	02H
	DD	00H
	DD	0ffffffffH
	DD	00H
	DD	040H
	DD	FLAT:??_R3_System_error@std@@8
rdata$r	ENDS
;	COMDAT ??_R2_System_error@std@@8
rdata$r	SEGMENT
??_R2_System_error@std@@8 DD FLAT:??_R1A@?0A@EA@_System_error@std@@8 ; std::_System_error::`RTTI Base Class Array'
	DD	FLAT:??_R1A@?0A@EA@runtime_error@std@@8
	DD	FLAT:??_R1A@?0A@EA@exception@std@@8
rdata$r	ENDS
;	COMDAT ??_R3_System_error@std@@8
rdata$r	SEGMENT
??_R3_System_error@std@@8 DD 00H			; std::_System_error::`RTTI Class Hierarchy Descriptor'
	DD	00H
	DD	03H
	DD	FLAT:??_R2_System_error@std@@8
rdata$r	ENDS
;	COMDAT ??_R4_System_error@std@@6B@
rdata$r	SEGMENT
??_R4_System_error@std@@6B@ DD 00H			; std::_System_error::`RTTI Complete Object Locator'
	DD	00H
	DD	00H
	DD	FLAT:??_R0?AV_System_error@std@@@8
	DD	FLAT:??_R3_System_error@std@@8
rdata$r	ENDS
;	COMDAT ??_R1A@?0A@EA@error_category@std@@8
rdata$r	SEGMENT
??_R1A@?0A@EA@error_category@std@@8 DD FLAT:??_R0?AVerror_category@std@@@8 ; std::error_category::`RTTI Base Class Descriptor at (0,-1,0,64)'
	DD	00H
	DD	00H
	DD	0ffffffffH
	DD	00H
	DD	040H
	DD	FLAT:??_R3error_category@std@@8
rdata$r	ENDS
;	COMDAT ??_R2error_category@std@@8
rdata$r	SEGMENT
??_R2error_category@std@@8 DD FLAT:??_R1A@?0A@EA@error_category@std@@8 ; std::error_category::`RTTI Base Class Array'
rdata$r	ENDS
;	COMDAT ??_R3error_category@std@@8
rdata$r	SEGMENT
??_R3error_category@std@@8 DD 00H			; std::error_category::`RTTI Class Hierarchy Descriptor'
	DD	00H
	DD	01H
	DD	FLAT:??_R2error_category@std@@8
rdata$r	ENDS
;	COMDAT ??_R0?AVerror_category@std@@@8
data$rs	SEGMENT
??_R0?AVerror_category@std@@@8 DD FLAT:??_7type_info@@6B@ ; std::error_category `RTTI Type Descriptor'
	DD	00H
	DB	'.?AVerror_category@std@@', 00H
data$rs	ENDS
;	COMDAT ??_R1A@?0A@EA@runtime_error@std@@8
rdata$r	SEGMENT
??_R1A@?0A@EA@runtime_error@std@@8 DD FLAT:??_R0?AVruntime_error@std@@@8 ; std::runtime_error::`RTTI Base Class Descriptor at (0,-1,0,64)'
	DD	01H
	DD	00H
	DD	0ffffffffH
	DD	00H
	DD	040H
	DD	FLAT:??_R3runtime_error@std@@8
rdata$r	ENDS
;	COMDAT ??_R2runtime_error@std@@8
rdata$r	SEGMENT
??_R2runtime_error@std@@8 DD FLAT:??_R1A@?0A@EA@runtime_error@std@@8 ; std::runtime_error::`RTTI Base Class Array'
	DD	FLAT:??_R1A@?0A@EA@exception@std@@8
rdata$r	ENDS
;	COMDAT ??_R3runtime_error@std@@8
rdata$r	SEGMENT
??_R3runtime_error@std@@8 DD 00H			; std::runtime_error::`RTTI Class Hierarchy Descriptor'
	DD	00H
	DD	02H
	DD	FLAT:??_R2runtime_error@std@@8
rdata$r	ENDS
;	COMDAT ??_R4runtime_error@std@@6B@
rdata$r	SEGMENT
??_R4runtime_error@std@@6B@ DD 00H			; std::runtime_error::`RTTI Complete Object Locator'
	DD	00H
	DD	00H
	DD	FLAT:??_R0?AVruntime_error@std@@@8
	DD	FLAT:??_R3runtime_error@std@@8
rdata$r	ENDS
;	COMDAT ??_R1A@?0A@EA@?$basic_ostream@DU?$char_traits@D@std@@@std@@8
rdata$r	SEGMENT
??_R1A@?0A@EA@?$basic_ostream@DU?$char_traits@D@std@@@std@@8 DD FLAT:??_R0?AV?$basic_ostream@DU?$char_traits@D@std@@@std@@@8 ; std::basic_ostream<char,std::char_traits<char> >::`RTTI Base Class Descriptor at (0,-1,0,64)'
	DD	03H
	DD	00H
	DD	0ffffffffH
	DD	00H
	DD	040H
	DD	FLAT:??_R3?$basic_ostream@DU?$char_traits@D@std@@@std@@8
rdata$r	ENDS
;	COMDAT ??_R2?$basic_ostream@DU?$char_traits@D@std@@@std@@8
rdata$r	SEGMENT
??_R2?$basic_ostream@DU?$char_traits@D@std@@@std@@8 DD FLAT:??_R1A@?0A@EA@?$basic_ostream@DU?$char_traits@D@std@@@std@@8 ; std::basic_ostream<char,std::char_traits<char> >::`RTTI Base Class Array'
	DD	FLAT:??_R1A@A@3FA@?$basic_ios@DU?$char_traits@D@std@@@std@@8
	DD	FLAT:??_R1A@A@3EA@ios_base@std@@8
	DD	FLAT:??_R17A@3EA@?$_Iosb@H@std@@8
rdata$r	ENDS
;	COMDAT ??_R3?$basic_ostream@DU?$char_traits@D@std@@@std@@8
rdata$r	SEGMENT
??_R3?$basic_ostream@DU?$char_traits@D@std@@@std@@8 DD 00H ; std::basic_ostream<char,std::char_traits<char> >::`RTTI Class Hierarchy Descriptor'
	DD	00H
	DD	04H
	DD	FLAT:??_R2?$basic_ostream@DU?$char_traits@D@std@@@std@@8
rdata$r	ENDS
;	COMDAT ??_R0?AV?$basic_ostream@DU?$char_traits@D@std@@@std@@@8
data$rs	SEGMENT
??_R0?AV?$basic_ostream@DU?$char_traits@D@std@@@std@@@8 DD FLAT:??_7type_info@@6B@ ; std::basic_ostream<char,std::char_traits<char> > `RTTI Type Descriptor'
	DD	00H
	DB	'.?AV?$basic_ostream@DU?$char_traits@D@std@@@std@@', 00H
data$rs	ENDS
;	COMDAT ??_R1BA@?0A@EA@?$basic_ostream@DU?$char_traits@D@std@@@std@@8
rdata$r	SEGMENT
??_R1BA@?0A@EA@?$basic_ostream@DU?$char_traits@D@std@@@std@@8 DD FLAT:??_R0?AV?$basic_ostream@DU?$char_traits@D@std@@@std@@@8 ; std::basic_ostream<char,std::char_traits<char> >::`RTTI Base Class Descriptor at (16,-1,0,64)'
	DD	03H
	DD	010H
	DD	0ffffffffH
	DD	00H
	DD	040H
	DD	FLAT:??_R3?$basic_ostream@DU?$char_traits@D@std@@@std@@8
rdata$r	ENDS
;	COMDAT ??_R17A@3EA@?$_Iosb@H@std@@8
rdata$r	SEGMENT
??_R17A@3EA@?$_Iosb@H@std@@8 DD FLAT:??_R0?AV?$_Iosb@H@std@@@8 ; std::_Iosb<int>::`RTTI Base Class Descriptor at (8,0,4,64)'
	DD	00H
	DD	08H
	DD	00H
	DD	04H
	DD	040H
	DD	FLAT:??_R3?$_Iosb@H@std@@8
rdata$r	ENDS
;	COMDAT ??_R1A@A@3EA@ios_base@std@@8
rdata$r	SEGMENT
??_R1A@A@3EA@ios_base@std@@8 DD FLAT:??_R0?AVios_base@std@@@8 ; std::ios_base::`RTTI Base Class Descriptor at (0,0,4,64)'
	DD	01H
	DD	00H
	DD	00H
	DD	04H
	DD	040H
	DD	FLAT:??_R3ios_base@std@@8
rdata$r	ENDS
;	COMDAT ??_R1A@?0A@EA@?$_Iosb@H@std@@8
rdata$r	SEGMENT
??_R1A@?0A@EA@?$_Iosb@H@std@@8 DD FLAT:??_R0?AV?$_Iosb@H@std@@@8 ; std::_Iosb<int>::`RTTI Base Class Descriptor at (0,-1,0,64)'
	DD	00H
	DD	00H
	DD	0ffffffffH
	DD	00H
	DD	040H
	DD	FLAT:??_R3?$_Iosb@H@std@@8
rdata$r	ENDS
;	COMDAT ??_R2?$_Iosb@H@std@@8
rdata$r	SEGMENT
??_R2?$_Iosb@H@std@@8 DD FLAT:??_R1A@?0A@EA@?$_Iosb@H@std@@8 ; std::_Iosb<int>::`RTTI Base Class Array'
rdata$r	ENDS
;	COMDAT ??_R3?$_Iosb@H@std@@8
rdata$r	SEGMENT
??_R3?$_Iosb@H@std@@8 DD 00H				; std::_Iosb<int>::`RTTI Class Hierarchy Descriptor'
	DD	00H
	DD	01H
	DD	FLAT:??_R2?$_Iosb@H@std@@8
rdata$r	ENDS
;	COMDAT ??_R0?AV?$_Iosb@H@std@@@8
data$rs	SEGMENT
??_R0?AV?$_Iosb@H@std@@@8 DD FLAT:??_7type_info@@6B@	; std::_Iosb<int> `RTTI Type Descriptor'
	DD	00H
	DB	'.?AV?$_Iosb@H@std@@', 00H
data$rs	ENDS
;	COMDAT ??_R17?0A@EA@?$_Iosb@H@std@@8
rdata$r	SEGMENT
??_R17?0A@EA@?$_Iosb@H@std@@8 DD FLAT:??_R0?AV?$_Iosb@H@std@@@8 ; std::_Iosb<int>::`RTTI Base Class Descriptor at (8,-1,0,64)'
	DD	00H
	DD	08H
	DD	0ffffffffH
	DD	00H
	DD	040H
	DD	FLAT:??_R3?$_Iosb@H@std@@8
rdata$r	ENDS
;	COMDAT ??_R2ios_base@std@@8
rdata$r	SEGMENT
??_R2ios_base@std@@8 DD FLAT:??_R1A@?0A@EA@ios_base@std@@8 ; std::ios_base::`RTTI Base Class Array'
	DD	FLAT:??_R17?0A@EA@?$_Iosb@H@std@@8
rdata$r	ENDS
;	COMDAT ??_R3ios_base@std@@8
rdata$r	SEGMENT
??_R3ios_base@std@@8 DD 00H				; std::ios_base::`RTTI Class Hierarchy Descriptor'
	DD	00H
	DD	02H
	DD	FLAT:??_R2ios_base@std@@8
rdata$r	ENDS
;	COMDAT ??_R0?AVios_base@std@@@8
data$rs	SEGMENT
??_R0?AVios_base@std@@@8 DD FLAT:??_7type_info@@6B@	; std::ios_base `RTTI Type Descriptor'
	DD	00H
	DB	'.?AVios_base@std@@', 00H
data$rs	ENDS
;	COMDAT ??_R1A@?0A@EA@ios_base@std@@8
rdata$r	SEGMENT
??_R1A@?0A@EA@ios_base@std@@8 DD FLAT:??_R0?AVios_base@std@@@8 ; std::ios_base::`RTTI Base Class Descriptor at (0,-1,0,64)'
	DD	01H
	DD	00H
	DD	0ffffffffH
	DD	00H
	DD	040H
	DD	FLAT:??_R3ios_base@std@@8
rdata$r	ENDS
;	COMDAT ??_R1A@?0A@EA@?$basic_ios@DU?$char_traits@D@std@@@std@@8
rdata$r	SEGMENT
??_R1A@?0A@EA@?$basic_ios@DU?$char_traits@D@std@@@std@@8 DD FLAT:??_R0?AV?$basic_ios@DU?$char_traits@D@std@@@std@@@8 ; std::basic_ios<char,std::char_traits<char> >::`RTTI Base Class Descriptor at (0,-1,0,64)'
	DD	02H
	DD	00H
	DD	0ffffffffH
	DD	00H
	DD	040H
	DD	FLAT:??_R3?$basic_ios@DU?$char_traits@D@std@@@std@@8
rdata$r	ENDS
;	COMDAT ??_R2?$basic_ios@DU?$char_traits@D@std@@@std@@8
rdata$r	SEGMENT
??_R2?$basic_ios@DU?$char_traits@D@std@@@std@@8 DD FLAT:??_R1A@?0A@EA@?$basic_ios@DU?$char_traits@D@std@@@std@@8 ; std::basic_ios<char,std::char_traits<char> >::`RTTI Base Class Array'
	DD	FLAT:??_R1A@?0A@EA@ios_base@std@@8
	DD	FLAT:??_R17?0A@EA@?$_Iosb@H@std@@8
rdata$r	ENDS
;	COMDAT ??_R3?$basic_ios@DU?$char_traits@D@std@@@std@@8
rdata$r	SEGMENT
??_R3?$basic_ios@DU?$char_traits@D@std@@@std@@8 DD 00H	; std::basic_ios<char,std::char_traits<char> >::`RTTI Class Hierarchy Descriptor'
	DD	00H
	DD	03H
	DD	FLAT:??_R2?$basic_ios@DU?$char_traits@D@std@@@std@@8
rdata$r	ENDS
;	COMDAT ??_R0?AV?$basic_ios@DU?$char_traits@D@std@@@std@@@8
data$rs	SEGMENT
??_R0?AV?$basic_ios@DU?$char_traits@D@std@@@std@@@8 DD FLAT:??_7type_info@@6B@ ; std::basic_ios<char,std::char_traits<char> > `RTTI Type Descriptor'
	DD	00H
	DB	'.?AV?$basic_ios@DU?$char_traits@D@std@@@std@@', 00H
data$rs	ENDS
;	COMDAT ??_R1A@A@3FA@?$basic_ios@DU?$char_traits@D@std@@@std@@8
rdata$r	SEGMENT
??_R1A@A@3FA@?$basic_ios@DU?$char_traits@D@std@@@std@@8 DD FLAT:??_R0?AV?$basic_ios@DU?$char_traits@D@std@@@std@@@8 ; std::basic_ios<char,std::char_traits<char> >::`RTTI Base Class Descriptor at (0,0,4,80)'
	DD	02H
	DD	00H
	DD	00H
	DD	04H
	DD	050H
	DD	FLAT:??_R3?$basic_ios@DU?$char_traits@D@std@@@std@@8
rdata$r	ENDS
;	COMDAT ??_R2?$basic_istream@DU?$char_traits@D@std@@@std@@8
rdata$r	SEGMENT
??_R2?$basic_istream@DU?$char_traits@D@std@@@std@@8 DD FLAT:??_R1A@?0A@EA@?$basic_istream@DU?$char_traits@D@std@@@std@@8 ; std::basic_istream<char,std::char_traits<char> >::`RTTI Base Class Array'
	DD	FLAT:??_R1A@A@3FA@?$basic_ios@DU?$char_traits@D@std@@@std@@8
	DD	FLAT:??_R1A@A@3EA@ios_base@std@@8
	DD	FLAT:??_R17A@3EA@?$_Iosb@H@std@@8
rdata$r	ENDS
;	COMDAT ??_R3?$basic_istream@DU?$char_traits@D@std@@@std@@8
rdata$r	SEGMENT
??_R3?$basic_istream@DU?$char_traits@D@std@@@std@@8 DD 00H ; std::basic_istream<char,std::char_traits<char> >::`RTTI Class Hierarchy Descriptor'
	DD	00H
	DD	04H
	DD	FLAT:??_R2?$basic_istream@DU?$char_traits@D@std@@@std@@8
rdata$r	ENDS
;	COMDAT ??_R0?AV?$basic_istream@DU?$char_traits@D@std@@@std@@@8
data$rs	SEGMENT
??_R0?AV?$basic_istream@DU?$char_traits@D@std@@@std@@@8 DD FLAT:??_7type_info@@6B@ ; std::basic_istream<char,std::char_traits<char> > `RTTI Type Descriptor'
	DD	00H
	DB	'.?AV?$basic_istream@DU?$char_traits@D@std@@@std@@', 00H
data$rs	ENDS
;	COMDAT ??_R1A@?0A@EA@?$basic_istream@DU?$char_traits@D@std@@@std@@8
rdata$r	SEGMENT
??_R1A@?0A@EA@?$basic_istream@DU?$char_traits@D@std@@@std@@8 DD FLAT:??_R0?AV?$basic_istream@DU?$char_traits@D@std@@@std@@@8 ; std::basic_istream<char,std::char_traits<char> >::`RTTI Base Class Descriptor at (0,-1,0,64)'
	DD	03H
	DD	00H
	DD	0ffffffffH
	DD	00H
	DD	040H
	DD	FLAT:??_R3?$basic_istream@DU?$char_traits@D@std@@@std@@8
rdata$r	ENDS
;	COMDAT ??_R2?$basic_iostream@DU?$char_traits@D@std@@@std@@8
rdata$r	SEGMENT
??_R2?$basic_iostream@DU?$char_traits@D@std@@@std@@8 DD FLAT:??_R1A@?0A@EA@?$basic_iostream@DU?$char_traits@D@std@@@std@@8 ; std::basic_iostream<char,std::char_traits<char> >::`RTTI Base Class Array'
	DD	FLAT:??_R1A@?0A@EA@?$basic_istream@DU?$char_traits@D@std@@@std@@8
	DD	FLAT:??_R1A@A@3FA@?$basic_ios@DU?$char_traits@D@std@@@std@@8
	DD	FLAT:??_R1A@A@3EA@ios_base@std@@8
	DD	FLAT:??_R17A@3EA@?$_Iosb@H@std@@8
	DD	FLAT:??_R1BA@?0A@EA@?$basic_ostream@DU?$char_traits@D@std@@@std@@8
	DD	FLAT:??_R1A@A@3FA@?$basic_ios@DU?$char_traits@D@std@@@std@@8
	DD	FLAT:??_R1A@A@3EA@ios_base@std@@8
	DD	FLAT:??_R17A@3EA@?$_Iosb@H@std@@8
rdata$r	ENDS
;	COMDAT ??_R3?$basic_iostream@DU?$char_traits@D@std@@@std@@8
rdata$r	SEGMENT
??_R3?$basic_iostream@DU?$char_traits@D@std@@@std@@8 DD 00H ; std::basic_iostream<char,std::char_traits<char> >::`RTTI Class Hierarchy Descriptor'
	DD	03H
	DD	09H
	DD	FLAT:??_R2?$basic_iostream@DU?$char_traits@D@std@@@std@@8
rdata$r	ENDS
;	COMDAT ??_R0?AV?$basic_iostream@DU?$char_traits@D@std@@@std@@@8
data$rs	SEGMENT
??_R0?AV?$basic_iostream@DU?$char_traits@D@std@@@std@@@8 DD FLAT:??_7type_info@@6B@ ; std::basic_iostream<char,std::char_traits<char> > `RTTI Type Descriptor'
	DD	00H
	DB	'.?AV?$basic_iostream@DU?$char_traits@D@std@@@std@@', 00H
data$rs	ENDS
;	COMDAT ??_R1A@?0A@EA@?$basic_iostream@DU?$char_traits@D@std@@@std@@8
rdata$r	SEGMENT
??_R1A@?0A@EA@?$basic_iostream@DU?$char_traits@D@std@@@std@@8 DD FLAT:??_R0?AV?$basic_iostream@DU?$char_traits@D@std@@@std@@@8 ; std::basic_iostream<char,std::char_traits<char> >::`RTTI Base Class Descriptor at (0,-1,0,64)'
	DD	08H
	DD	00H
	DD	0ffffffffH
	DD	00H
	DD	040H
	DD	FLAT:??_R3?$basic_iostream@DU?$char_traits@D@std@@@std@@8
rdata$r	ENDS
;	COMDAT ??_R1A@?0A@EA@?$basic_fstream@DU?$char_traits@D@std@@@std@@8
rdata$r	SEGMENT
??_R1A@?0A@EA@?$basic_fstream@DU?$char_traits@D@std@@@std@@8 DD FLAT:??_R0?AV?$basic_fstream@DU?$char_traits@D@std@@@std@@@8 ; std::basic_fstream<char,std::char_traits<char> >::`RTTI Base Class Descriptor at (0,-1,0,64)'
	DD	09H
	DD	00H
	DD	0ffffffffH
	DD	00H
	DD	040H
	DD	FLAT:??_R3?$basic_fstream@DU?$char_traits@D@std@@@std@@8
rdata$r	ENDS
;	COMDAT ??_R2?$basic_fstream@DU?$char_traits@D@std@@@std@@8
rdata$r	SEGMENT
??_R2?$basic_fstream@DU?$char_traits@D@std@@@std@@8 DD FLAT:??_R1A@?0A@EA@?$basic_fstream@DU?$char_traits@D@std@@@std@@8 ; std::basic_fstream<char,std::char_traits<char> >::`RTTI Base Class Array'
	DD	FLAT:??_R1A@?0A@EA@?$basic_iostream@DU?$char_traits@D@std@@@std@@8
	DD	FLAT:??_R1A@?0A@EA@?$basic_istream@DU?$char_traits@D@std@@@std@@8
	DD	FLAT:??_R1A@A@3FA@?$basic_ios@DU?$char_traits@D@std@@@std@@8
	DD	FLAT:??_R1A@A@3EA@ios_base@std@@8
	DD	FLAT:??_R17A@3EA@?$_Iosb@H@std@@8
	DD	FLAT:??_R1BA@?0A@EA@?$basic_ostream@DU?$char_traits@D@std@@@std@@8
	DD	FLAT:??_R1A@A@3FA@?$basic_ios@DU?$char_traits@D@std@@@std@@8
	DD	FLAT:??_R1A@A@3EA@ios_base@std@@8
	DD	FLAT:??_R17A@3EA@?$_Iosb@H@std@@8
rdata$r	ENDS
;	COMDAT ??_R3?$basic_fstream@DU?$char_traits@D@std@@@std@@8
rdata$r	SEGMENT
??_R3?$basic_fstream@DU?$char_traits@D@std@@@std@@8 DD 00H ; std::basic_fstream<char,std::char_traits<char> >::`RTTI Class Hierarchy Descriptor'
	DD	03H
	DD	0aH
	DD	FLAT:??_R2?$basic_fstream@DU?$char_traits@D@std@@@std@@8
rdata$r	ENDS
;	COMDAT ??_R0?AV?$basic_fstream@DU?$char_traits@D@std@@@std@@@8
data$rs	SEGMENT
??_R0?AV?$basic_fstream@DU?$char_traits@D@std@@@std@@@8 DD FLAT:??_7type_info@@6B@ ; std::basic_fstream<char,std::char_traits<char> > `RTTI Type Descriptor'
	DD	00H
	DB	'.?AV?$basic_fstream@DU?$char_traits@D@std@@@std@@', 00H
data$rs	ENDS
;	COMDAT ??_R4?$basic_fstream@DU?$char_traits@D@std@@@std@@6B@
rdata$r	SEGMENT
??_R4?$basic_fstream@DU?$char_traits@D@std@@@std@@6B@ DD 00H ; std::basic_fstream<char,std::char_traits<char> >::`RTTI Complete Object Locator'
	DD	078H
	DD	04H
	DD	FLAT:??_R0?AV?$basic_fstream@DU?$char_traits@D@std@@@std@@@8
	DD	FLAT:??_R3?$basic_fstream@DU?$char_traits@D@std@@@std@@8
rdata$r	ENDS
;	COMDAT ??_R2?$basic_streambuf@DU?$char_traits@D@std@@@std@@8
rdata$r	SEGMENT
??_R2?$basic_streambuf@DU?$char_traits@D@std@@@std@@8 DD FLAT:??_R1A@?0A@EA@?$basic_streambuf@DU?$char_traits@D@std@@@std@@8 ; std::basic_streambuf<char,std::char_traits<char> >::`RTTI Base Class Array'
rdata$r	ENDS
;	COMDAT ??_R3?$basic_streambuf@DU?$char_traits@D@std@@@std@@8
rdata$r	SEGMENT
??_R3?$basic_streambuf@DU?$char_traits@D@std@@@std@@8 DD 00H ; std::basic_streambuf<char,std::char_traits<char> >::`RTTI Class Hierarchy Descriptor'
	DD	00H
	DD	01H
	DD	FLAT:??_R2?$basic_streambuf@DU?$char_traits@D@std@@@std@@8
rdata$r	ENDS
;	COMDAT ??_R0?AV?$basic_streambuf@DU?$char_traits@D@std@@@std@@@8
data$rs	SEGMENT
??_R0?AV?$basic_streambuf@DU?$char_traits@D@std@@@std@@@8 DD FLAT:??_7type_info@@6B@ ; std::basic_streambuf<char,std::char_traits<char> > `RTTI Type Descriptor'
	DD	00H
	DB	'.?AV?$basic_streambuf@DU?$char_traits@D@std@@@std@@', 00H
data$rs	ENDS
;	COMDAT ??_R1A@?0A@EA@?$basic_streambuf@DU?$char_traits@D@std@@@std@@8
rdata$r	SEGMENT
??_R1A@?0A@EA@?$basic_streambuf@DU?$char_traits@D@std@@@std@@8 DD FLAT:??_R0?AV?$basic_streambuf@DU?$char_traits@D@std@@@std@@@8 ; std::basic_streambuf<char,std::char_traits<char> >::`RTTI Base Class Descriptor at (0,-1,0,64)'
	DD	00H
	DD	00H
	DD	0ffffffffH
	DD	00H
	DD	040H
	DD	FLAT:??_R3?$basic_streambuf@DU?$char_traits@D@std@@@std@@8
rdata$r	ENDS
;	COMDAT ??_R1A@?0A@EA@?$basic_filebuf@DU?$char_traits@D@std@@@std@@8
rdata$r	SEGMENT
??_R1A@?0A@EA@?$basic_filebuf@DU?$char_traits@D@std@@@std@@8 DD FLAT:??_R0?AV?$basic_filebuf@DU?$char_traits@D@std@@@std@@@8 ; std::basic_filebuf<char,std::char_traits<char> >::`RTTI Base Class Descriptor at (0,-1,0,64)'
	DD	01H
	DD	00H
	DD	0ffffffffH
	DD	00H
	DD	040H
	DD	FLAT:??_R3?$basic_filebuf@DU?$char_traits@D@std@@@std@@8
rdata$r	ENDS
;	COMDAT ??_R2?$basic_filebuf@DU?$char_traits@D@std@@@std@@8
rdata$r	SEGMENT
??_R2?$basic_filebuf@DU?$char_traits@D@std@@@std@@8 DD FLAT:??_R1A@?0A@EA@?$basic_filebuf@DU?$char_traits@D@std@@@std@@8 ; std::basic_filebuf<char,std::char_traits<char> >::`RTTI Base Class Array'
	DD	FLAT:??_R1A@?0A@EA@?$basic_streambuf@DU?$char_traits@D@std@@@std@@8
rdata$r	ENDS
;	COMDAT ??_R3?$basic_filebuf@DU?$char_traits@D@std@@@std@@8
rdata$r	SEGMENT
??_R3?$basic_filebuf@DU?$char_traits@D@std@@@std@@8 DD 00H ; std::basic_filebuf<char,std::char_traits<char> >::`RTTI Class Hierarchy Descriptor'
	DD	00H
	DD	02H
	DD	FLAT:??_R2?$basic_filebuf@DU?$char_traits@D@std@@@std@@8
rdata$r	ENDS
;	COMDAT ??_R0?AV?$basic_filebuf@DU?$char_traits@D@std@@@std@@@8
data$rs	SEGMENT
??_R0?AV?$basic_filebuf@DU?$char_traits@D@std@@@std@@@8 DD FLAT:??_7type_info@@6B@ ; std::basic_filebuf<char,std::char_traits<char> > `RTTI Type Descriptor'
	DD	00H
	DB	'.?AV?$basic_filebuf@DU?$char_traits@D@std@@@std@@', 00H
data$rs	ENDS
;	COMDAT ??_R4?$basic_filebuf@DU?$char_traits@D@std@@@std@@6B@
rdata$r	SEGMENT
??_R4?$basic_filebuf@DU?$char_traits@D@std@@@std@@6B@ DD 00H ; std::basic_filebuf<char,std::char_traits<char> >::`RTTI Complete Object Locator'
	DD	00H
	DD	00H
	DD	FLAT:??_R0?AV?$basic_filebuf@DU?$char_traits@D@std@@@std@@@8
	DD	FLAT:??_R3?$basic_filebuf@DU?$char_traits@D@std@@@std@@8
rdata$r	ENDS
;	COMDAT ??_R1A@?0A@EA@bad_array_new_length@std@@8
rdata$r	SEGMENT
??_R1A@?0A@EA@bad_array_new_length@std@@8 DD FLAT:??_R0?AVbad_array_new_length@std@@@8 ; std::bad_array_new_length::`RTTI Base Class Descriptor at (0,-1,0,64)'
	DD	02H
	DD	00H
	DD	0ffffffffH
	DD	00H
	DD	040H
	DD	FLAT:??_R3bad_array_new_length@std@@8
rdata$r	ENDS
;	COMDAT ??_R2bad_array_new_length@std@@8
rdata$r	SEGMENT
??_R2bad_array_new_length@std@@8 DD FLAT:??_R1A@?0A@EA@bad_array_new_length@std@@8 ; std::bad_array_new_length::`RTTI Base Class Array'
	DD	FLAT:??_R1A@?0A@EA@bad_alloc@std@@8
	DD	FLAT:??_R1A@?0A@EA@exception@std@@8
rdata$r	ENDS
;	COMDAT ??_R3bad_array_new_length@std@@8
rdata$r	SEGMENT
??_R3bad_array_new_length@std@@8 DD 00H			; std::bad_array_new_length::`RTTI Class Hierarchy Descriptor'
	DD	00H
	DD	03H
	DD	FLAT:??_R2bad_array_new_length@std@@8
rdata$r	ENDS
;	COMDAT ??_R4bad_array_new_length@std@@6B@
rdata$r	SEGMENT
??_R4bad_array_new_length@std@@6B@ DD 00H		; std::bad_array_new_length::`RTTI Complete Object Locator'
	DD	00H
	DD	00H
	DD	FLAT:??_R0?AVbad_array_new_length@std@@@8
	DD	FLAT:??_R3bad_array_new_length@std@@8
rdata$r	ENDS
;	COMDAT ??_R1A@?0A@EA@bad_alloc@std@@8
rdata$r	SEGMENT
??_R1A@?0A@EA@bad_alloc@std@@8 DD FLAT:??_R0?AVbad_alloc@std@@@8 ; std::bad_alloc::`RTTI Base Class Descriptor at (0,-1,0,64)'
	DD	01H
	DD	00H
	DD	0ffffffffH
	DD	00H
	DD	040H
	DD	FLAT:??_R3bad_alloc@std@@8
rdata$r	ENDS
;	COMDAT ??_R2bad_alloc@std@@8
rdata$r	SEGMENT
??_R2bad_alloc@std@@8 DD FLAT:??_R1A@?0A@EA@bad_alloc@std@@8 ; std::bad_alloc::`RTTI Base Class Array'
	DD	FLAT:??_R1A@?0A@EA@exception@std@@8
rdata$r	ENDS
;	COMDAT ??_R3bad_alloc@std@@8
rdata$r	SEGMENT
??_R3bad_alloc@std@@8 DD 00H				; std::bad_alloc::`RTTI Class Hierarchy Descriptor'
	DD	00H
	DD	02H
	DD	FLAT:??_R2bad_alloc@std@@8
rdata$r	ENDS
;	COMDAT ??_R4bad_alloc@std@@6B@
rdata$r	SEGMENT
??_R4bad_alloc@std@@6B@ DD 00H				; std::bad_alloc::`RTTI Complete Object Locator'
	DD	00H
	DD	00H
	DD	FLAT:??_R0?AVbad_alloc@std@@@8
	DD	FLAT:??_R3bad_alloc@std@@8
rdata$r	ENDS
;	COMDAT ??_R1A@?0A@EA@exception@std@@8
rdata$r	SEGMENT
??_R1A@?0A@EA@exception@std@@8 DD FLAT:??_R0?AVexception@std@@@8 ; std::exception::`RTTI Base Class Descriptor at (0,-1,0,64)'
	DD	00H
	DD	00H
	DD	0ffffffffH
	DD	00H
	DD	040H
	DD	FLAT:??_R3exception@std@@8
rdata$r	ENDS
;	COMDAT ??_R2exception@std@@8
rdata$r	SEGMENT
??_R2exception@std@@8 DD FLAT:??_R1A@?0A@EA@exception@std@@8 ; std::exception::`RTTI Base Class Array'
rdata$r	ENDS
;	COMDAT ??_R3exception@std@@8
rdata$r	SEGMENT
??_R3exception@std@@8 DD 00H				; std::exception::`RTTI Class Hierarchy Descriptor'
	DD	00H
	DD	01H
	DD	FLAT:??_R2exception@std@@8
rdata$r	ENDS
;	COMDAT ??_R4exception@std@@6B@
rdata$r	SEGMENT
??_R4exception@std@@6B@ DD 00H				; std::exception::`RTTI Complete Object Locator'
	DD	00H
	DD	00H
	DD	FLAT:??_R0?AVexception@std@@@8
	DD	FLAT:??_R3exception@std@@8
rdata$r	ENDS
;	COMDAT ??_C@_1EO@GFNCMDLA@?$AAs?$AAt?$AAd?$AA?3?$AA?3?$AA_?$AAA?$AAl?$AAl?$AAo?$AAc?$AAa?$AAt?$AAe?$AA_@
CONST	SEGMENT
??_C@_1EO@GFNCMDLA@?$AAs?$AAt?$AAd?$AA?3?$AA?3?$AA_?$AAA?$AAl?$AAl?$AAo?$AAc?$AAa?$AAt?$AAe?$AA_@ DB 's'
	DB	00H, 't', 00H, 'd', 00H, ':', 00H, ':', 00H, '_', 00H, 'A', 00H
	DB	'l', 00H, 'l', 00H, 'o', 00H, 'c', 00H, 'a', 00H, 't', 00H, 'e'
	DB	00H, '_', 00H, 'm', 00H, 'a', 00H, 'n', 00H, 'u', 00H, 'a', 00H
	DB	'l', 00H, 'l', 00H, 'y', 00H, '_', 00H, 'v', 00H, 'e', 00H, 'c'
	DB	00H, 't', 00H, 'o', 00H, 'r', 00H, '_', 00H, 'a', 00H, 'l', 00H
	DB	'i', 00H, 'g', 00H, 'n', 00H, 'e', 00H, 'd', 00H, 00H, 00H ; `string'
CONST	ENDS
;	COMDAT ??_C@_1BK@MHIKGOKE@?$AA?3?$AAA?$AAM?$AA?3?$AAa?$AAm?$AA?3?$AAP?$AAM?$AA?3?$AAp?$AAm@
CONST	SEGMENT
??_C@_1BK@MHIKGOKE@?$AA?3?$AAA?$AAM?$AA?3?$AAa?$AAm?$AA?3?$AAP?$AAM?$AA?3?$AAp?$AAm@ DB ':'
	DB	00H, 'A', 00H, 'M', 00H, ':', 00H, 'a', 00H, 'm', 00H, ':', 00H
	DB	'P', 00H, 'M', 00H, ':', 00H, 'p', 00H, 'm', 00H, 00H, 00H ; `string'
CONST	ENDS
;	COMDAT ?_Static@?1???$_Immortalize_memcpy_image@V_System_error_category@std@@@std@@YAABV_System_error_category@1@XZ@4U?$_Constexpr_immortalize_impl@V_System_error_category@std@@@1@A
_DATA	SEGMENT
?_Static@?1???$_Immortalize_memcpy_image@V_System_error_category@std@@@std@@YAABV_System_error_category@1@XZ@4U?$_Constexpr_immortalize_impl@V_System_error_category@std@@@1@A DD FLAT:??_7_System_error_category@std@@6B@ ; `std::_Immortalize_memcpy_image<std::_System_error_category>'::`2'::_Static
	DD	07H
_DATA	ENDS
;	COMDAT ?_Static@?1???$_Immortalize_memcpy_image@V_Generic_error_category@std@@@std@@YAABV_Generic_error_category@1@XZ@4U?$_Constexpr_immortalize_impl@V_Generic_error_category@std@@@1@A
_DATA	SEGMENT
?_Static@?1???$_Immortalize_memcpy_image@V_Generic_error_category@std@@@std@@YAABV_Generic_error_category@1@XZ@4U?$_Constexpr_immortalize_impl@V_Generic_error_category@std@@@1@A DD FLAT:??_7_Generic_error_category@std@@6B@ ; `std::_Immortalize_memcpy_image<std::_Generic_error_category>'::`2'::_Static
	DD	03H
_DATA	ENDS
;	COMDAT ??_C@_0BI@CFPLBAOH@invalid?5string?5position@
CONST	SEGMENT
??_C@_0BI@CFPLBAOH@invalid?5string?5position@ DB 'invalid string position'
	DB	00H						; `string'
CONST	ENDS
;	COMDAT ??_C@_1EC@DINNLDHA@?$AA?$CC?$AAf?$AAr?$AAo?$AAn?$AAt?$AA?$CI?$AA?$CJ?$AA?5?$AAc?$AAa?$AAl?$AAl?$AAe?$AAd@
CONST	SEGMENT
??_C@_1EC@DINNLDHA@?$AA?$CC?$AAf?$AAr?$AAo?$AAn?$AAt?$AA?$CI?$AA?$CJ?$AA?5?$AAc?$AAa?$AAl?$AAl?$AAe?$AAd@ DB '"'
	DB	00H, 'f', 00H, 'r', 00H, 'o', 00H, 'n', 00H, 't', 00H, '(', 00H
	DB	')', 00H, ' ', 00H, 'c', 00H, 'a', 00H, 'l', 00H, 'l', 00H, 'e'
	DB	00H, 'd', 00H, ' ', 00H, 'o', 00H, 'n', 00H, ' ', 00H, 'e', 00H
	DB	'm', 00H, 'p', 00H, 't', 00H, 'y', 00H, ' ', 00H, 's', 00H, 't'
	DB	00H, 'r', 00H, 'i', 00H, 'n', 00H, 'g', 00H, '"', 00H, 00H, 00H ; `string'
CONST	ENDS
;	COMDAT ??_C@_1LC@BJDDPGPA@?$AAs?$AAt?$AAd?$AA?3?$AA?3?$AAb?$AAa?$AAs?$AAi?$AAc?$AA_?$AAs?$AAt?$AAr?$AAi@
CONST	SEGMENT
??_C@_1LC@BJDDPGPA@?$AAs?$AAt?$AAd?$AA?3?$AA?3?$AAb?$AAa?$AAs?$AAi?$AAc?$AA_?$AAs?$AAt?$AAr?$AAi@ DB 's'
	DB	00H, 't', 00H, 'd', 00H, ':', 00H, ':', 00H, 'b', 00H, 'a', 00H
	DB	's', 00H, 'i', 00H, 'c', 00H, '_', 00H, 's', 00H, 't', 00H, 'r'
	DB	00H, 'i', 00H, 'n', 00H, 'g', 00H, '<', 00H, 'c', 00H, 'h', 00H
	DB	'a', 00H, 'r', 00H, ',', 00H, 's', 00H, 't', 00H, 'r', 00H, 'u'
	DB	00H, 'c', 00H, 't', 00H, ' ', 00H, 's', 00H, 't', 00H, 'd', 00H
	DB	':', 00H, ':', 00H, 'c', 00H, 'h', 00H, 'a', 00H, 'r', 00H, '_'
	DB	00H, 't', 00H, 'r', 00H, 'a', 00H, 'i', 00H, 't', 00H, 's', 00H
	DB	'<', 00H, 'c', 00H, 'h', 00H, 'a', 00H, 'r', 00H, '>', 00H, ','
	DB	00H, 'c', 00H, 'l', 00H, 'a', 00H, 's', 00H, 's', 00H, ' ', 00H
	DB	's', 00H, 't', 00H, 'd', 00H, ':', 00H, ':', 00H, 'a', 00H, 'l'
	DB	00H, 'l', 00H, 'o', 00H, 'c', 00H, 'a', 00H, 't', 00H, 'o', 00H
	DB	'r', 00H, '<', 00H, 'c', 00H, 'h', 00H, 'a', 00H, 'r', 00H, '>'
	DB	00H, ' ', 00H, '>', 00H, ':', 00H, ':', 00H, 'f', 00H, 'r', 00H
	DB	'o', 00H, 'n', 00H, 't', 00H, 00H, 00H	; `string'
CONST	ENDS
;	COMDAT ??_C@_0BP@PFIPNLNI@front?$CI?$CJ?5called?5on?5empty?5string@
CONST	SEGMENT
??_C@_0BP@PFIPNLNI@front?$CI?$CJ?5called?5on?5empty?5string@ DB 'front() '
	DB	'called on empty string', 00H		; `string'
CONST	ENDS
;	COMDAT ??_C@_1JO@CKCICMOO@?$AAs?$AAt?$AAd?$AA?3?$AA?3?$AAb?$AAa?$AAs?$AAi?$AAc?$AA_?$AAs?$AAt?$AAr?$AAi@
CONST	SEGMENT
??_C@_1JO@CKCICMOO@?$AAs?$AAt?$AAd?$AA?3?$AA?3?$AAb?$AAa?$AAs?$AAi?$AAc?$AA_?$AAs?$AAt?$AAr?$AAi@ DB 's'
	DB	00H, 't', 00H, 'd', 00H, ':', 00H, ':', 00H, 'b', 00H, 'a', 00H
	DB	's', 00H, 'i', 00H, 'c', 00H, '_', 00H, 's', 00H, 't', 00H, 'r'
	DB	00H, 'i', 00H, 'n', 00H, 'g', 00H, '_', 00H, 'v', 00H, 'i', 00H
	DB	'e', 00H, 'w', 00H, '<', 00H, 'c', 00H, 'h', 00H, 'a', 00H, 'r'
	DB	00H, ',', 00H, 's', 00H, 't', 00H, 'r', 00H, 'u', 00H, 'c', 00H
	DB	't', 00H, ' ', 00H, 's', 00H, 't', 00H, 'd', 00H, ':', 00H, ':'
	DB	00H, 'c', 00H, 'h', 00H, 'a', 00H, 'r', 00H, '_', 00H, 't', 00H
	DB	'r', 00H, 'a', 00H, 'i', 00H, 't', 00H, 's', 00H, '<', 00H, 'c'
	DB	00H, 'h', 00H, 'a', 00H, 'r', 00H, '>', 00H, ' ', 00H, '>', 00H
	DB	':', 00H, ':', 00H, 'b', 00H, 'a', 00H, 's', 00H, 'i', 00H, 'c'
	DB	00H, '_', 00H, 's', 00H, 't', 00H, 'r', 00H, 'i', 00H, 'n', 00H
	DB	'g', 00H, '_', 00H, 'v', 00H, 'i', 00H, 'e', 00H, 'w', 00H, 00H
	DB	00H						; `string'
CONST	ENDS
;	COMDAT ??_C@_0N@LPFKKEBD@?3AM?3am?3PM?3pm@
CONST	SEGMENT
??_C@_0N@LPFKKEBD@?3AM?3am?3PM?3pm@ DB ':AM:am:PM:pm', 00H ; `string'
CONST	ENDS
;	COMDAT ??_C@_1CK@DGOAEMHM@?$AAf?$AAi?$AAl?$AAe?$AAS?$AAt?$AAr?$AAe?$AAa?$AAm?$AA?4?$AAi?$AAs?$AA_?$AAo@
CONST	SEGMENT
??_C@_1CK@DGOAEMHM@?$AAf?$AAi?$AAl?$AAe?$AAS?$AAt?$AAr?$AAe?$AAa?$AAm?$AA?4?$AAi?$AAs?$AA_?$AAo@ DB 'f'
	DB	00H, 'i', 00H, 'l', 00H, 'e', 00H, 'S', 00H, 't', 00H, 'r', 00H
	DB	'e', 00H, 'a', 00H, 'm', 00H, '.', 00H, 'i', 00H, 's', 00H, '_'
	DB	00H, 'o', 00H, 'p', 00H, 'e', 00H, 'n', 00H, '(', 00H, ')', 00H
	DB	00H, 00H					; `string'
CONST	ENDS
;	COMDAT ??_C@_1NM@CJLEFO@?$AAC?$AA?3?$AA?2?$AAU?$AAs?$AAe?$AAr?$AAs?$AA?2?$AAt?$AAi?$AAm?$AA2?$AA3?$AA?2@
CONST	SEGMENT
??_C@_1NM@CJLEFO@?$AAC?$AA?3?$AA?2?$AAU?$AAs?$AAe?$AAr?$AAs?$AA?2?$AAt?$AAi?$AAm?$AA2?$AA3?$AA?2@ DB 'C'
	DB	00H, ':', 00H, '\', 00H, 'U', 00H, 's', 00H, 'e', 00H, 'r', 00H
	DB	's', 00H, '\', 00H, 't', 00H, 'i', 00H, 'm', 00H, '2', 00H, '3'
	DB	00H, '\', 00H, 'D', 00H, 'o', 00H, 'c', 00H, 'u', 00H, 'm', 00H
	DB	'e', 00H, 'n', 00H, 't', 00H, 's', 00H, '\', 00H, 'V', 00H, 'i'
	DB	00H, 's', 00H, 'u', 00H, 'a', 00H, 'l', 00H, ' ', 00H, 'S', 00H
	DB	't', 00H, 'u', 00H, 'd', 00H, 'i', 00H, 'o', 00H, ' ', 00H, '2'
	DB	00H, '0', 00H, '1', 00H, '9', 00H, '\', 00H, 'P', 00H, 'r', 00H
	DB	'o', 00H, 'j', 00H, 'e', 00H, 'c', 00H, 't', 00H, 's', 00H, '\'
	DB	00H, 'P', 00H, 'r', 00H, 'o', 00H, 'j', 00H, 'e', 00H, 'c', 00H
	DB	't', 00H, '2', 00H, 'D', 00H, '\', 00H, 'P', 00H, 'r', 00H, 'o'
	DB	00H, 'j', 00H, 'e', 00H, 'c', 00H, 't', 00H, '2', 00H, 'D', 00H
	DB	'\', 00H, 'R', 00H, 'e', 00H, 's', 00H, 'o', 00H, 'u', 00H, 'r'
	DB	00H, 'c', 00H, 'e', 00H, 'M', 00H, 'a', 00H, 'n', 00H, 'a', 00H
	DB	'g', 00H, 'e', 00H, 'r', 00H, '\', 00H, 'N', 00H, 'a', 00H, 't'
	DB	00H, 'i', 00H, 'v', 00H, 'e', 00H, 'F', 00H, 'i', 00H, 'l', 00H
	DB	'e', 00H, 'S', 00H, 'y', 00H, 's', 00H, 't', 00H, 'e', 00H, 'm'
	DB	00H, '.', 00H, 'c', 00H, 'p', 00H, 'p', 00H, 00H, 00H ; `string'
CONST	ENDS
;	COMDAT ??_8?$basic_fstream@DU?$char_traits@D@std@@@std@@7B?$basic_ostream@DU?$char_traits@D@std@@@1@@
CONST	SEGMENT
??_8?$basic_fstream@DU?$char_traits@D@std@@@std@@7B?$basic_ostream@DU?$char_traits@D@std@@@1@@ DD 00H ; std::basic_fstream<char,std::char_traits<char> >::`vbtable'
	DD	068H
CONST	ENDS
;	COMDAT ??_8?$basic_fstream@DU?$char_traits@D@std@@@std@@7B?$basic_istream@DU?$char_traits@D@std@@@1@@
CONST	SEGMENT
??_8?$basic_fstream@DU?$char_traits@D@std@@@std@@7B?$basic_istream@DU?$char_traits@D@std@@@1@@ DD 00H ; std::basic_fstream<char,std::char_traits<char> >::`vbtable'
	DD	078H
CONST	ENDS
;	COMDAT ??_7?$basic_fstream@DU?$char_traits@D@std@@@std@@6B@
CONST	SEGMENT
??_7?$basic_fstream@DU?$char_traits@D@std@@@std@@6B@ DD FLAT:??_R4?$basic_fstream@DU?$char_traits@D@std@@@std@@6B@ ; std::basic_fstream<char,std::char_traits<char> >::`vftable'
	DD	FLAT:??_E?$basic_fstream@DU?$char_traits@D@std@@@std@@$4PPPPPPPM@A@AEPAXI@Z
CONST	ENDS
;	COMDAT ??_7?$basic_filebuf@DU?$char_traits@D@std@@@std@@6B@
CONST	SEGMENT
??_7?$basic_filebuf@DU?$char_traits@D@std@@@std@@6B@ DD FLAT:??_R4?$basic_filebuf@DU?$char_traits@D@std@@@std@@6B@ ; std::basic_filebuf<char,std::char_traits<char> >::`vftable'
	DD	FLAT:??_E?$basic_filebuf@DU?$char_traits@D@std@@@std@@UAEPAXI@Z
	DD	FLAT:?_Lock@?$basic_filebuf@DU?$char_traits@D@std@@@std@@UAEXXZ
	DD	FLAT:?_Unlock@?$basic_filebuf@DU?$char_traits@D@std@@@std@@UAEXXZ
	DD	FLAT:?overflow@?$basic_filebuf@DU?$char_traits@D@std@@@std@@MAEHH@Z
	DD	FLAT:?pbackfail@?$basic_filebuf@DU?$char_traits@D@std@@@std@@MAEHH@Z
	DD	FLAT:?showmanyc@?$basic_streambuf@DU?$char_traits@D@std@@@std@@MAE_JXZ
	DD	FLAT:?underflow@?$basic_filebuf@DU?$char_traits@D@std@@@std@@MAEHXZ
	DD	FLAT:?uflow@?$basic_filebuf@DU?$char_traits@D@std@@@std@@MAEHXZ
	DD	FLAT:?xsgetn@?$basic_filebuf@DU?$char_traits@D@std@@@std@@MAE_JPAD_J@Z
	DD	FLAT:?xsputn@?$basic_filebuf@DU?$char_traits@D@std@@@std@@MAE_JPBD_J@Z
	DD	FLAT:?seekoff@?$basic_filebuf@DU?$char_traits@D@std@@@std@@MAE?AV?$fpos@U_Mbstatet@@@2@_JHH@Z
	DD	FLAT:?seekpos@?$basic_filebuf@DU?$char_traits@D@std@@@std@@MAE?AV?$fpos@U_Mbstatet@@@2@V32@H@Z
	DD	FLAT:?setbuf@?$basic_filebuf@DU?$char_traits@D@std@@@std@@MAEPAV?$basic_streambuf@DU?$char_traits@D@std@@@2@PAD_J@Z
	DD	FLAT:?sync@?$basic_filebuf@DU?$char_traits@D@std@@@std@@MAEHXZ
	DD	FLAT:?imbue@?$basic_filebuf@DU?$char_traits@D@std@@@std@@MAEXABVlocale@2@@Z
CONST	ENDS
;	COMDAT ?__LINE__Var@?0??loadRawDataBase@NativeFileSystem@@AAE_NABVResourceName@@PAXIH@Z@4JA
_DATA	SEGMENT
?__LINE__Var@?0??loadRawDataBase@NativeFileSystem@@AAE_NABVResourceName@@PAXIH@Z@4JA DD 08H ; `NativeFileSystem::loadRawDataBase'::`1'::__LINE__Var
_DATA	ENDS
;	COMDAT ??_C@_09CKOOOICH@file_size@
CONST	SEGMENT
??_C@_09CKOOOICH@file_size@ DB 'file_size', 00H		; `string'
CONST	ENDS
;	COMDAT __CT??_R0?AVfilesystem_error@filesystem@std@@@8??0filesystem_error@filesystem@std@@QAE@ABV012@@Z104
xdata$x	SEGMENT
__CT??_R0?AVfilesystem_error@filesystem@std@@@8??0filesystem_error@filesystem@std@@QAE@ABV012@@Z104 DD 00H
	DD	FLAT:??_R0?AVfilesystem_error@filesystem@std@@@8
	DD	00H
	DD	0ffffffffH
	ORG $+4
	DD	068H
	DD	FLAT:??0filesystem_error@filesystem@std@@QAE@ABV012@@Z
xdata$x	ENDS
;	COMDAT ??_R0?AVfilesystem_error@filesystem@std@@@8
data$r	SEGMENT
??_R0?AVfilesystem_error@filesystem@std@@@8 DD FLAT:??_7type_info@@6B@ ; std::filesystem::filesystem_error `RTTI Type Descriptor'
	DD	00H
	DB	'.?AVfilesystem_error@filesystem@std@@', 00H
data$r	ENDS
;	COMDAT __CTA5?AVfilesystem_error@filesystem@std@@
xdata$x	SEGMENT
__CTA5?AVfilesystem_error@filesystem@std@@ DD 05H
	DD	FLAT:__CT??_R0?AVfilesystem_error@filesystem@std@@@8??0filesystem_error@filesystem@std@@QAE@ABV012@@Z104
	DD	FLAT:__CT??_R0?AVsystem_error@std@@@8??0system_error@std@@QAE@ABV01@@Z20
	DD	FLAT:__CT??_R0?AV_System_error@std@@@8??0_System_error@std@@QAE@ABV01@@Z20
	DD	FLAT:__CT??_R0?AVruntime_error@std@@@8??0runtime_error@std@@QAE@ABV01@@Z12
	DD	FLAT:__CT??_R0?AVexception@std@@@8??0exception@std@@QAE@ABV01@@Z12
xdata$x	ENDS
;	COMDAT __TI5?AVfilesystem_error@filesystem@std@@
xdata$x	SEGMENT
__TI5?AVfilesystem_error@filesystem@std@@ DD 00H
	DD	FLAT:??1filesystem_error@filesystem@std@@UAE@XZ
	DD	00H
	DD	FLAT:__CTA5?AVfilesystem_error@filesystem@std@@
xdata$x	ENDS
;	COMDAT ??_C@_04PHMHGEMA@?$CC?0?5?$CC@
CONST	SEGMENT
??_C@_04PHMHGEMA@?$CC?0?5?$CC@ DB '", "', 00H		; `string'
CONST	ENDS
;	COMDAT ??_C@_03NONCDIOG@?3?5?$CC@
CONST	SEGMENT
??_C@_03NONCDIOG@?3?5?$CC@ DB ': "', 00H		; `string'
CONST	ENDS
;	COMDAT ??_7filesystem_error@filesystem@std@@6B@
CONST	SEGMENT
??_7filesystem_error@filesystem@std@@6B@ DD FLAT:??_R4filesystem_error@filesystem@std@@6B@ ; std::filesystem::filesystem_error::`vftable'
	DD	FLAT:??_Efilesystem_error@filesystem@std@@UAEPAXI@Z
	DD	FLAT:?what@filesystem_error@filesystem@std@@UBEPBDXZ
CONST	ENDS
;	COMDAT ??_C@_1EC@EBKHCANC@?$AA?$CC?$AAn?$AAo?$AAn?$AA?9?$AAz?$AAe?$AAr?$AAo?$AA?5?$AAs?$AAi?$AAz?$AAe?$AA?5@
CONST	SEGMENT
??_C@_1EC@EBKHCANC@?$AA?$CC?$AAn?$AAo?$AAn?$AA?9?$AAz?$AAe?$AAr?$AAo?$AA?5?$AAs?$AAi?$AAz?$AAe?$AA?5@ DB '"'
	DB	00H, 'n', 00H, 'o', 00H, 'n', 00H, '-', 00H, 'z', 00H, 'e', 00H
	DB	'r', 00H, 'o', 00H, ' ', 00H, 's', 00H, 'i', 00H, 'z', 00H, 'e'
	DB	00H, ' ', 00H, 'n', 00H, 'u', 00H, 'l', 00H, 'l', 00H, ' ', 00H
	DB	's', 00H, 't', 00H, 'r', 00H, 'i', 00H, 'n', 00H, 'g', 00H, '_'
	DB	00H, 'v', 00H, 'i', 00H, 'e', 00H, 'w', 00H, '"', 00H, 00H, 00H ; `string'
CONST	ENDS
;	COMDAT ??_C@_1KK@IKKHLFNC@?$AAs?$AAt?$AAd?$AA?3?$AA?3?$AAb?$AAa?$AAs?$AAi?$AAc?$AA_?$AAs?$AAt?$AAr?$AAi@
CONST	SEGMENT
??_C@_1KK@IKKHLFNC@?$AAs?$AAt?$AAd?$AA?3?$AA?3?$AAb?$AAa?$AAs?$AAi?$AAc?$AA_?$AAs?$AAt?$AAr?$AAi@ DB 's'
	DB	00H, 't', 00H, 'd', 00H, ':', 00H, ':', 00H, 'b', 00H, 'a', 00H
	DB	's', 00H, 'i', 00H, 'c', 00H, '_', 00H, 's', 00H, 't', 00H, 'r'
	DB	00H, 'i', 00H, 'n', 00H, 'g', 00H, '_', 00H, 'v', 00H, 'i', 00H
	DB	'e', 00H, 'w', 00H, '<', 00H, 'w', 00H, 'c', 00H, 'h', 00H, 'a'
	DB	00H, 'r', 00H, '_', 00H, 't', 00H, ',', 00H, 's', 00H, 't', 00H
	DB	'r', 00H, 'u', 00H, 'c', 00H, 't', 00H, ' ', 00H, 's', 00H, 't'
	DB	00H, 'd', 00H, ':', 00H, ':', 00H, 'c', 00H, 'h', 00H, 'a', 00H
	DB	'r', 00H, '_', 00H, 't', 00H, 'r', 00H, 'a', 00H, 'i', 00H, 't'
	DB	00H, 's', 00H, '<', 00H, 'w', 00H, 'c', 00H, 'h', 00H, 'a', 00H
	DB	'r', 00H, '_', 00H, 't', 00H, '>', 00H, ' ', 00H, '>', 00H, ':'
	DB	00H, ':', 00H, 'b', 00H, 'a', 00H, 's', 00H, 'i', 00H, 'c', 00H
	DB	'_', 00H, 's', 00H, 't', 00H, 'r', 00H, 'i', 00H, 'n', 00H, 'g'
	DB	00H, '_', 00H, 'v', 00H, 'i', 00H, 'e', 00H, 'w', 00H, 00H, 00H ; `string'
CONST	ENDS
;	COMDAT ??_C@_1NG@LEPIOBNH@?$AAC?$AA?3?$AA?2?$AAP?$AAr?$AAo?$AAg?$AAr?$AAa?$AAm?$AA?5?$AAF?$AAi?$AAl?$AAe@
CONST	SEGMENT
??_C@_1NG@LEPIOBNH@?$AAC?$AA?3?$AA?2?$AAP?$AAr?$AAo?$AAg?$AAr?$AAa?$AAm?$AA?5?$AAF?$AAi?$AAl?$AAe@ DB 'C'
	DB	00H, ':', 00H, '\', 00H, 'P', 00H, 'r', 00H, 'o', 00H, 'g', 00H
	DB	'r', 00H, 'a', 00H, 'm', 00H, ' ', 00H, 'F', 00H, 'i', 00H, 'l'
	DB	00H, 'e', 00H, 's', 00H, ' ', 00H, '(', 00H, 'x', 00H, '8', 00H
	DB	'6', 00H, ')', 00H, '\', 00H, 'M', 00H, 'i', 00H, 'c', 00H, 'r'
	DB	00H, 'o', 00H, 's', 00H, 'o', 00H, 'f', 00H, 't', 00H, ' ', 00H
	DB	'V', 00H, 'i', 00H, 's', 00H, 'u', 00H, 'a', 00H, 'l', 00H, ' '
	DB	00H, 'S', 00H, 't', 00H, 'u', 00H, 'd', 00H, 'i', 00H, 'o', 00H
	DB	'\', 00H, '2', 00H, '0', 00H, '1', 00H, '9', 00H, '\', 00H, 'P'
	DB	00H, 'r', 00H, 'o', 00H, 'f', 00H, 'e', 00H, 's', 00H, 's', 00H
	DB	'i', 00H, 'o', 00H, 'n', 00H, 'a', 00H, 'l', 00H, '\', 00H, 'V'
	DB	00H, 'C', 00H, '\', 00H, 'T', 00H, 'o', 00H, 'o', 00H, 'l', 00H
	DB	's', 00H, '\', 00H, 'M', 00H, 'S', 00H, 'V', 00H, 'C', 00H, '\'
	DB	00H, '1', 00H, '4', 00H, '.', 00H, '2', 00H, '8', 00H, '.', 00H
	DB	'2', 00H, '9', 00H, '3', 00H, '3', 00H, '3', 00H, '\', 00H, 'i'
	DB	00H, 'n', 00H, 'c', 00H, 'l', 00H, 'u', 00H, 'd', 00H, 'e', 00H
	DB	'\', 00H, 'x', 00H, 's', 00H, 't', 00H, 'r', 00H, 'i', 00H, 'n'
	DB	00H, 'g', 00H, 00H, 00H			; `string'
CONST	ENDS
;	COMDAT ??_C@_0GL@FMDBFDGL@C?3?2Program?5Files?5?$CIx86?$CJ?2Microsof@
CONST	SEGMENT
??_C@_0GL@FMDBFDGL@C?3?2Program?5Files?5?$CIx86?$CJ?2Microsof@ DB 'C:\Pro'
	DB	'gram Files (x86)\Microsoft Visual Studio\2019\Professional\VC'
	DB	'\Tools\MSVC\14.28.29333\include\xstring', 00H ; `string'
CONST	ENDS
;	COMDAT ??_C@_0BP@FCPKDACH@non?9zero?5size?5null?5string_view@
CONST	SEGMENT
??_C@_0BP@FCPKDACH@non?9zero?5size?5null?5string_view@ DB 'non-zero size '
	DB	'null string_view', 00H			; `string'
CONST	ENDS
;	COMDAT ??_C@_0GL@IOHNGPIE@C?3?2Program?5Files?5?$CIx86?$CJ?2Microsof@
CONST	SEGMENT
??_C@_0GL@IOHNGPIE@C?3?2Program?5Files?5?$CIx86?$CJ?2Microsof@ DB 'C:\Pro'
	DB	'gram Files (x86)\Microsoft Visual Studio\2019\Professional\VC'
	DB	'\Tools\MSVC\14.28.29333\include\xlocnum', 00H ; `string'
CONST	ENDS
;	COMDAT ?__LINE__Var@?0??_Maklocwcs@std@@YAPA_WPB_W@Z@4JA
_DATA	SEGMENT
?__LINE__Var@?0??_Maklocwcs@std@@YAPA_WPB_W@Z@4JA DD 05aH ; `std::_Maklocwcs'::`1'::__LINE__Var
_DATA	ENDS
;	COMDAT ??_C@_0GL@NDAGNCF@C?3?2Program?5Files?5?$CIx86?$CJ?2Microsof@
CONST	SEGMENT
??_C@_0GL@NDAGNCF@C?3?2Program?5Files?5?$CIx86?$CJ?2Microsof@ DB 'C:\Prog'
	DB	'ram Files (x86)\Microsoft Visual Studio\2019\Professional\VC\'
	DB	'Tools\MSVC\14.28.29333\include\xlocale', 00H ; `string'
CONST	ENDS
;	COMDAT __CT??_R0?AVbad_cast@std@@@8??0bad_cast@std@@QAE@ABV01@@Z12
xdata$x	SEGMENT
__CT??_R0?AVbad_cast@std@@@8??0bad_cast@std@@QAE@ABV01@@Z12 DD 00H
	DD	FLAT:??_R0?AVbad_cast@std@@@8
	DD	00H
	DD	0ffffffffH
	ORG $+4
	DD	0cH
	DD	FLAT:??0bad_cast@std@@QAE@ABV01@@Z
xdata$x	ENDS
;	COMDAT ??_R0?AVbad_cast@std@@@8
data$r	SEGMENT
??_R0?AVbad_cast@std@@@8 DD FLAT:??_7type_info@@6B@	; std::bad_cast `RTTI Type Descriptor'
	DD	00H
	DB	'.?AVbad_cast@std@@', 00H
data$r	ENDS
;	COMDAT __CTA2?AVbad_cast@std@@
xdata$x	SEGMENT
__CTA2?AVbad_cast@std@@ DD 02H
	DD	FLAT:__CT??_R0?AVbad_cast@std@@@8??0bad_cast@std@@QAE@ABV01@@Z12
	DD	FLAT:__CT??_R0?AVexception@std@@@8??0exception@std@@QAE@ABV01@@Z12
xdata$x	ENDS
;	COMDAT __TI2?AVbad_cast@std@@
xdata$x	SEGMENT
__TI2?AVbad_cast@std@@ DD 00H
	DD	FLAT:??1bad_cast@std@@UAE@XZ
	DD	00H
	DD	FLAT:__CTA2?AVbad_cast@std@@
xdata$x	ENDS
;	COMDAT ??_C@_08EPJLHIJG@bad?5cast@
CONST	SEGMENT
??_C@_08EPJLHIJG@bad?5cast@ DB 'bad cast', 00H		; `string'
CONST	ENDS
;	COMDAT ??_7bad_cast@std@@6B@
CONST	SEGMENT
??_7bad_cast@std@@6B@ DD FLAT:??_R4bad_cast@std@@6B@	; std::bad_cast::`vftable'
	DD	FLAT:??_Ebad_cast@std@@UAEPAXI@Z
	DD	FLAT:?what@exception@std@@UBEPBDXZ
CONST	ENDS
;	COMDAT ?_Unknown_error@?4??message@_System_error_category@std@@UBE?AV?$basic_string@DU?$char_traits@D@std@@V?$allocator@D@2@@3@H@Z@4QBDB
CONST	SEGMENT
?_Unknown_error@?4??message@_System_error_category@std@@UBE?AV?$basic_string@DU?$char_traits@D@std@@V?$allocator@D@2@@3@H@Z@4QBDB DB 075H ; `std::_System_error_category::message'::`5'::_Unknown_error
	DB	06eH
	DB	06bH
	DB	06eH
	DB	06fH
	DB	077H
	DB	06eH
	DB	020H
	DB	065H
	DB	072H
	DB	072H
	DB	06fH
	DB	072H
	DB	00H
CONST	ENDS
;	COMDAT ??_C@_06FHFOAHML@system@
CONST	SEGMENT
??_C@_06FHFOAHML@system@ DB 'system', 00H		; `string'
CONST	ENDS
;	COMDAT ??_7_System_error_category@std@@6B@
CONST	SEGMENT
??_7_System_error_category@std@@6B@ DD FLAT:??_R4_System_error_category@std@@6B@ ; std::_System_error_category::`vftable'
	DD	FLAT:??_E_System_error_category@std@@UAEPAXI@Z
	DD	FLAT:?name@_System_error_category@std@@UBEPBDXZ
	DD	FLAT:?message@_System_error_category@std@@UBE?AV?$basic_string@DU?$char_traits@D@std@@V?$allocator@D@2@@2@H@Z
	DD	FLAT:?default_error_condition@_System_error_category@std@@UBE?AVerror_condition@2@H@Z
	DD	FLAT:?equivalent@error_category@std@@UBE_NABVerror_code@2@H@Z
	DD	FLAT:?equivalent@error_category@std@@UBE_NHABVerror_condition@2@@Z
CONST	ENDS
;	COMDAT ??_C@_07DCLBNMLN@generic@
CONST	SEGMENT
??_C@_07DCLBNMLN@generic@ DB 'generic', 00H		; `string'
CONST	ENDS
;	COMDAT ??_7_Generic_error_category@std@@6B@
CONST	SEGMENT
??_7_Generic_error_category@std@@6B@ DD FLAT:??_R4_Generic_error_category@std@@6B@ ; std::_Generic_error_category::`vftable'
	DD	FLAT:??_E_Generic_error_category@std@@UAEPAXI@Z
	DD	FLAT:?name@_Generic_error_category@std@@UBEPBDXZ
	DD	FLAT:?message@_Generic_error_category@std@@UBE?AV?$basic_string@DU?$char_traits@D@std@@V?$allocator@D@2@@2@H@Z
	DD	FLAT:?default_error_condition@error_category@std@@UBE?AVerror_condition@2@H@Z
	DD	FLAT:?equivalent@error_category@std@@UBE_NABVerror_code@2@H@Z
	DD	FLAT:?equivalent@error_category@std@@UBE_NHABVerror_condition@2@@Z
CONST	ENDS
;	COMDAT __CT??_R0?AV_System_error@std@@@8??0_System_error@std@@QAE@ABV01@@Z20
xdata$x	SEGMENT
__CT??_R0?AV_System_error@std@@@8??0_System_error@std@@QAE@ABV01@@Z20 DD 00H
	DD	FLAT:??_R0?AV_System_error@std@@@8
	DD	00H
	DD	0ffffffffH
	ORG $+4
	DD	014H
	DD	FLAT:??0_System_error@std@@QAE@ABV01@@Z
xdata$x	ENDS
;	COMDAT ??_R0?AV_System_error@std@@@8
data$r	SEGMENT
??_R0?AV_System_error@std@@@8 DD FLAT:??_7type_info@@6B@ ; std::_System_error `RTTI Type Descriptor'
	DD	00H
	DB	'.?AV_System_error@std@@', 00H
data$r	ENDS
;	COMDAT __CT??_R0?AVsystem_error@std@@@8??0system_error@std@@QAE@ABV01@@Z20
xdata$x	SEGMENT
__CT??_R0?AVsystem_error@std@@@8??0system_error@std@@QAE@ABV01@@Z20 DD 00H
	DD	FLAT:??_R0?AVsystem_error@std@@@8
	DD	00H
	DD	0ffffffffH
	ORG $+4
	DD	014H
	DD	FLAT:??0system_error@std@@QAE@ABV01@@Z
xdata$x	ENDS
;	COMDAT ??_R0?AVsystem_error@std@@@8
data$r	SEGMENT
??_R0?AVsystem_error@std@@@8 DD FLAT:??_7type_info@@6B@	; std::system_error `RTTI Type Descriptor'
	DD	00H
	DB	'.?AVsystem_error@std@@', 00H
data$r	ENDS
;	COMDAT __CTA4?AVsystem_error@std@@
xdata$x	SEGMENT
__CTA4?AVsystem_error@std@@ DD 04H
	DD	FLAT:__CT??_R0?AVsystem_error@std@@@8??0system_error@std@@QAE@ABV01@@Z20
	DD	FLAT:__CT??_R0?AV_System_error@std@@@8??0_System_error@std@@QAE@ABV01@@Z20
	DD	FLAT:__CT??_R0?AVruntime_error@std@@@8??0runtime_error@std@@QAE@ABV01@@Z12
	DD	FLAT:__CT??_R0?AVexception@std@@@8??0exception@std@@QAE@ABV01@@Z12
xdata$x	ENDS
;	COMDAT __TI4?AVsystem_error@std@@
xdata$x	SEGMENT
__TI4?AVsystem_error@std@@ DD 00H
	DD	FLAT:??1system_error@std@@UAE@XZ
	DD	00H
	DD	FLAT:__CTA4?AVsystem_error@std@@
xdata$x	ENDS
;	COMDAT ??_C@_00CNPNBAHC@@
CONST	SEGMENT
??_C@_00CNPNBAHC@@ DB 00H				; `string'
CONST	ENDS
;	COMDAT ??_7system_error@std@@6B@
CONST	SEGMENT
??_7system_error@std@@6B@ DD FLAT:??_R4system_error@std@@6B@ ; std::system_error::`vftable'
	DD	FLAT:??_Esystem_error@std@@UAEPAXI@Z
	DD	FLAT:?what@exception@std@@UBEPBDXZ
CONST	ENDS
;	COMDAT ??_C@_02LMMGGCAJ@?3?5@
CONST	SEGMENT
??_C@_02LMMGGCAJ@?3?5@ DB ': ', 00H			; `string'
CONST	ENDS
;	COMDAT ??_7_System_error@std@@6B@
CONST	SEGMENT
??_7_System_error@std@@6B@ DD FLAT:??_R4_System_error@std@@6B@ ; std::_System_error::`vftable'
	DD	FLAT:??_E_System_error@std@@UAEPAXI@Z
	DD	FLAT:?what@exception@std@@UBEPBDXZ
CONST	ENDS
;	COMDAT __CT??_R0?AVruntime_error@std@@@8??0runtime_error@std@@QAE@ABV01@@Z12
xdata$x	SEGMENT
__CT??_R0?AVruntime_error@std@@@8??0runtime_error@std@@QAE@ABV01@@Z12 DD 00H
	DD	FLAT:??_R0?AVruntime_error@std@@@8
	DD	00H
	DD	0ffffffffH
	ORG $+4
	DD	0cH
	DD	FLAT:??0runtime_error@std@@QAE@ABV01@@Z
xdata$x	ENDS
;	COMDAT ??_R0?AVruntime_error@std@@@8
data$r	SEGMENT
??_R0?AVruntime_error@std@@@8 DD FLAT:??_7type_info@@6B@ ; std::runtime_error `RTTI Type Descriptor'
	DD	00H
	DB	'.?AVruntime_error@std@@', 00H
data$r	ENDS
;	COMDAT ??_7runtime_error@std@@6B@
CONST	SEGMENT
??_7runtime_error@std@@6B@ DD FLAT:??_R4runtime_error@std@@6B@ ; std::runtime_error::`vftable'
	DD	FLAT:??_Eruntime_error@std@@UAEPAXI@Z
	DD	FLAT:?what@exception@std@@UBEPBDXZ
CONST	ENDS
;	COMDAT ??_C@_0BA@JFNIOLAK@string?5too?5long@
CONST	SEGMENT
??_C@_0BA@JFNIOLAK@string?5too?5long@ DB 'string too long', 00H ; `string'
CONST	ENDS
;	COMDAT ??_C@_1CG@JNLFBNGN@?$AA?$CC?$AAi?$AAn?$AAv?$AAa?$AAl?$AAi?$AAd?$AA?5?$AAa?$AAr?$AAg?$AAu?$AAm?$AAe@
CONST	SEGMENT
??_C@_1CG@JNLFBNGN@?$AA?$CC?$AAi?$AAn?$AAv?$AAa?$AAl?$AAi?$AAd?$AA?5?$AAa?$AAr?$AAg?$AAu?$AAm?$AAe@ DB '"'
	DB	00H, 'i', 00H, 'n', 00H, 'v', 00H, 'a', 00H, 'l', 00H, 'i', 00H
	DB	'd', 00H, ' ', 00H, 'a', 00H, 'r', 00H, 'g', 00H, 'u', 00H, 'm'
	DB	00H, 'e', 00H, 'n', 00H, 't', 00H, '"', 00H, 00H, 00H ; `string'
CONST	ENDS
;	COMDAT ??_C@_1EK@NIFDJFDG@?$AAs?$AAt?$AAd?$AA?3?$AA?3?$AA_?$AAA?$AAd?$AAj?$AAu?$AAs?$AAt?$AA_?$AAm?$AAa@
CONST	SEGMENT
??_C@_1EK@NIFDJFDG@?$AAs?$AAt?$AAd?$AA?3?$AA?3?$AA_?$AAA?$AAd?$AAj?$AAu?$AAs?$AAt?$AA_?$AAm?$AAa@ DB 's'
	DB	00H, 't', 00H, 'd', 00H, ':', 00H, ':', 00H, '_', 00H, 'A', 00H
	DB	'd', 00H, 'j', 00H, 'u', 00H, 's', 00H, 't', 00H, '_', 00H, 'm'
	DB	00H, 'a', 00H, 'n', 00H, 'u', 00H, 'a', 00H, 'l', 00H, 'l', 00H
	DB	'y', 00H, '_', 00H, 'v', 00H, 'e', 00H, 'c', 00H, 't', 00H, 'o'
	DB	00H, 'r', 00H, '_', 00H, 'a', 00H, 'l', 00H, 'i', 00H, 'g', 00H
	DB	'n', 00H, 'e', 00H, 'd', 00H, 00H, 00H	; `string'
CONST	ENDS
;	COMDAT ??_C@_1NG@FKHEBIAG@?$AAC?$AA?3?$AA?2?$AAP?$AAr?$AAo?$AAg?$AAr?$AAa?$AAm?$AA?5?$AAF?$AAi?$AAl?$AAe@
CONST	SEGMENT
??_C@_1NG@FKHEBIAG@?$AAC?$AA?3?$AA?2?$AAP?$AAr?$AAo?$AAg?$AAr?$AAa?$AAm?$AA?5?$AAF?$AAi?$AAl?$AAe@ DB 'C'
	DB	00H, ':', 00H, '\', 00H, 'P', 00H, 'r', 00H, 'o', 00H, 'g', 00H
	DB	'r', 00H, 'a', 00H, 'm', 00H, ' ', 00H, 'F', 00H, 'i', 00H, 'l'
	DB	00H, 'e', 00H, 's', 00H, ' ', 00H, '(', 00H, 'x', 00H, '8', 00H
	DB	'6', 00H, ')', 00H, '\', 00H, 'M', 00H, 'i', 00H, 'c', 00H, 'r'
	DB	00H, 'o', 00H, 's', 00H, 'o', 00H, 'f', 00H, 't', 00H, ' ', 00H
	DB	'V', 00H, 'i', 00H, 's', 00H, 'u', 00H, 'a', 00H, 'l', 00H, ' '
	DB	00H, 'S', 00H, 't', 00H, 'u', 00H, 'd', 00H, 'i', 00H, 'o', 00H
	DB	'\', 00H, '2', 00H, '0', 00H, '1', 00H, '9', 00H, '\', 00H, 'P'
	DB	00H, 'r', 00H, 'o', 00H, 'f', 00H, 'e', 00H, 's', 00H, 's', 00H
	DB	'i', 00H, 'o', 00H, 'n', 00H, 'a', 00H, 'l', 00H, '\', 00H, 'V'
	DB	00H, 'C', 00H, '\', 00H, 'T', 00H, 'o', 00H, 'o', 00H, 'l', 00H
	DB	's', 00H, '\', 00H, 'M', 00H, 'S', 00H, 'V', 00H, 'C', 00H, '\'
	DB	00H, '1', 00H, '4', 00H, '.', 00H, '2', 00H, '8', 00H, '.', 00H
	DB	'2', 00H, '9', 00H, '3', 00H, '3', 00H, '3', 00H, '\', 00H, 'i'
	DB	00H, 'n', 00H, 'c', 00H, 'l', 00H, 'u', 00H, 'd', 00H, 'e', 00H
	DB	'\', 00H, 'x', 00H, 'm', 00H, 'e', 00H, 'm', 00H, 'o', 00H, 'r'
	DB	00H, 'y', 00H, 00H, 00H			; `string'
CONST	ENDS
;	COMDAT ??_C@_0GL@KFPMFPIC@C?3?2Program?5Files?5?$CIx86?$CJ?2Microsof@
CONST	SEGMENT
??_C@_0GL@KFPMFPIC@C?3?2Program?5Files?5?$CIx86?$CJ?2Microsof@ DB 'C:\Pro'
	DB	'gram Files (x86)\Microsoft Visual Studio\2019\Professional\VC'
	DB	'\Tools\MSVC\14.28.29333\include\xmemory', 00H ; `string'
CONST	ENDS
;	COMDAT ??_C@_02DKCKIIND@?$CFs@
CONST	SEGMENT
??_C@_02DKCKIIND@?$CFs@ DB '%s', 00H			; `string'
CONST	ENDS
;	COMDAT ??_C@_0BB@FCMFBGOM@invalid?5argument@
CONST	SEGMENT
??_C@_0BB@FCMFBGOM@invalid?5argument@ DB 'invalid argument', 00H ; `string'
CONST	ENDS
;	COMDAT ?__LINE__Var@?0??_Adjust_manually_vector_aligned@std@@YAXAAPAXAAI@Z@4JA
_DATA	SEGMENT
?__LINE__Var@?0??_Adjust_manually_vector_aligned@std@@YAXAAPAXAAI@Z@4JA DD 084H ; `std::_Adjust_manually_vector_aligned'::`1'::__LINE__Var
_DATA	ENDS
;	COMDAT __CT??_R0?AVexception@std@@@8??0exception@std@@QAE@ABV01@@Z12
xdata$x	SEGMENT
__CT??_R0?AVexception@std@@@8??0exception@std@@QAE@ABV01@@Z12 DD 00H
	DD	FLAT:??_R0?AVexception@std@@@8
	DD	00H
	DD	0ffffffffH
	ORG $+4
	DD	0cH
	DD	FLAT:??0exception@std@@QAE@ABV01@@Z
xdata$x	ENDS
;	COMDAT ??_R0?AVexception@std@@@8
data$r	SEGMENT
??_R0?AVexception@std@@@8 DD FLAT:??_7type_info@@6B@	; std::exception `RTTI Type Descriptor'
	DD	00H
	DB	'.?AVexception@std@@', 00H
data$r	ENDS
;	COMDAT __CT??_R0?AVbad_alloc@std@@@8??0bad_alloc@std@@QAE@ABV01@@Z12
xdata$x	SEGMENT
__CT??_R0?AVbad_alloc@std@@@8??0bad_alloc@std@@QAE@ABV01@@Z12 DD 010H
	DD	FLAT:??_R0?AVbad_alloc@std@@@8
	DD	00H
	DD	0ffffffffH
	ORG $+4
	DD	0cH
	DD	FLAT:??0bad_alloc@std@@QAE@ABV01@@Z
xdata$x	ENDS
;	COMDAT ??_R0?AVbad_alloc@std@@@8
data$r	SEGMENT
??_R0?AVbad_alloc@std@@@8 DD FLAT:??_7type_info@@6B@	; std::bad_alloc `RTTI Type Descriptor'
	DD	00H
	DB	'.?AVbad_alloc@std@@', 00H
data$r	ENDS
;	COMDAT __CT??_R0?AVbad_array_new_length@std@@@8??0bad_array_new_length@std@@QAE@ABV01@@Z12
xdata$x	SEGMENT
__CT??_R0?AVbad_array_new_length@std@@@8??0bad_array_new_length@std@@QAE@ABV01@@Z12 DD 00H
	DD	FLAT:??_R0?AVbad_array_new_length@std@@@8
	DD	00H
	DD	0ffffffffH
	ORG $+4
	DD	0cH
	DD	FLAT:??0bad_array_new_length@std@@QAE@ABV01@@Z
xdata$x	ENDS
;	COMDAT ??_R0?AVbad_array_new_length@std@@@8
data$r	SEGMENT
??_R0?AVbad_array_new_length@std@@@8 DD FLAT:??_7type_info@@6B@ ; std::bad_array_new_length `RTTI Type Descriptor'
	DD	00H
	DB	'.?AVbad_array_new_length@std@@', 00H
data$r	ENDS
;	COMDAT __CTA3?AVbad_array_new_length@std@@
xdata$x	SEGMENT
__CTA3?AVbad_array_new_length@std@@ DD 03H
	DD	FLAT:__CT??_R0?AVbad_array_new_length@std@@@8??0bad_array_new_length@std@@QAE@ABV01@@Z12
	DD	FLAT:__CT??_R0?AVbad_alloc@std@@@8??0bad_alloc@std@@QAE@ABV01@@Z12
	DD	FLAT:__CT??_R0?AVexception@std@@@8??0exception@std@@QAE@ABV01@@Z12
xdata$x	ENDS
;	COMDAT __TI3?AVbad_array_new_length@std@@
xdata$x	SEGMENT
__TI3?AVbad_array_new_length@std@@ DD 00H
	DD	FLAT:??1bad_array_new_length@std@@UAE@XZ
	DD	00H
	DD	FLAT:__CTA3?AVbad_array_new_length@std@@
xdata$x	ENDS
;	COMDAT ??_C@_0BF@KINCDENJ@bad?5array?5new?5length@
CONST	SEGMENT
??_C@_0BF@KINCDENJ@bad?5array?5new?5length@ DB 'bad array new length', 00H ; `string'
CONST	ENDS
;	COMDAT ??_7bad_array_new_length@std@@6B@
CONST	SEGMENT
??_7bad_array_new_length@std@@6B@ DD FLAT:??_R4bad_array_new_length@std@@6B@ ; std::bad_array_new_length::`vftable'
	DD	FLAT:??_Ebad_array_new_length@std@@UAEPAXI@Z
	DD	FLAT:?what@exception@std@@UBEPBDXZ
CONST	ENDS
;	COMDAT ??_7bad_alloc@std@@6B@
CONST	SEGMENT
??_7bad_alloc@std@@6B@ DD FLAT:??_R4bad_alloc@std@@6B@	; std::bad_alloc::`vftable'
	DD	FLAT:??_Ebad_alloc@std@@UAEPAXI@Z
	DD	FLAT:?what@exception@std@@UBEPBDXZ
CONST	ENDS
;	COMDAT ??_C@_0BC@EOODALEL@Unknown?5exception@
CONST	SEGMENT
??_C@_0BC@EOODALEL@Unknown?5exception@ DB 'Unknown exception', 00H ; `string'
CONST	ENDS
;	COMDAT ??_7exception@std@@6B@
CONST	SEGMENT
??_7exception@std@@6B@ DD FLAT:??_R4exception@std@@6B@	; std::exception::`vftable'
	DD	FLAT:??_Eexception@std@@UAEPAXI@Z
	DD	FLAT:?what@exception@std@@UBEPBDXZ
CONST	ENDS
;	COMDAT xdata$x
xdata$x	SEGMENT
__ehfuncinfo$??$_Deallocate_plain@V?$allocator@U_Container_proxy@std@@@std@@@std@@YAXAAV?$allocator@U_Container_proxy@std@@@0@QAU_Container_proxy@0@@Z DD 019930522H
	DD	00H
	DD	00H
	DD	2 DUP(00H)
	DD	2 DUP(00H)
	DD	00H
	DD	05H
xdata$x	ENDS
;	COMDAT xdata$x
xdata$x	SEGMENT
__ehfuncinfo$??$_Deallocate@$07$0A@@std@@YAXPAXI@Z DD 019930522H
	DD	00H
	DD	00H
	DD	2 DUP(00H)
	DD	2 DUP(00H)
	DD	00H
	DD	05H
xdata$x	ENDS
;	COMDAT xdata$x
xdata$x	SEGMENT
__unwindtable$??$use_facet@V?$codecvt@DDU_Mbstatet@@@std@@@std@@YAABV?$codecvt@DDU_Mbstatet@@@0@ABVlocale@0@@Z DD 0ffffffffH
	DD	FLAT:__unwindfunclet$??$use_facet@V?$codecvt@DDU_Mbstatet@@@std@@@std@@YAABV?$codecvt@DDU_Mbstatet@@@0@ABVlocale@0@@Z$0
	DD	00H
	DD	FLAT:__unwindfunclet$??$use_facet@V?$codecvt@DDU_Mbstatet@@@std@@@std@@YAABV?$codecvt@DDU_Mbstatet@@@0@ABVlocale@0@@Z$1
__ehfuncinfo$??$use_facet@V?$codecvt@DDU_Mbstatet@@@std@@@std@@YAABV?$codecvt@DDU_Mbstatet@@@0@ABVlocale@0@@Z DD 019930522H
	DD	02H
	DD	FLAT:__unwindtable$??$use_facet@V?$codecvt@DDU_Mbstatet@@@std@@@std@@YAABV?$codecvt@DDU_Mbstatet@@@0@ABVlocale@0@@Z
	DD	2 DUP(00H)
	DD	2 DUP(00H)
	DD	00H
	DD	01H
xdata$x	ENDS
;	COMDAT xdata$x
xdata$x	SEGMENT
__unwindtable$?uflow@?$basic_filebuf@DU?$char_traits@D@std@@@std@@MAEHXZ DD 0ffffffffH
	DD	FLAT:__unwindfunclet$?uflow@?$basic_filebuf@DU?$char_traits@D@std@@@std@@MAEHXZ$0
__ehfuncinfo$?uflow@?$basic_filebuf@DU?$char_traits@D@std@@@std@@MAEHXZ DD 019930522H
	DD	01H
	DD	FLAT:__unwindtable$?uflow@?$basic_filebuf@DU?$char_traits@D@std@@@std@@MAEHXZ
	DD	2 DUP(00H)
	DD	2 DUP(00H)
	DD	00H
	DD	01H
xdata$x	ENDS
;	COMDAT xdata$x
xdata$x	SEGMENT
__unwindtable$?open@?$basic_filebuf@DU?$char_traits@D@std@@@std@@QAEPAV12@PBDHH@Z DD 0ffffffffH
	DD	FLAT:__unwindfunclet$?open@?$basic_filebuf@DU?$char_traits@D@std@@@std@@QAEPAV12@PBDHH@Z$0
__ehfuncinfo$?open@?$basic_filebuf@DU?$char_traits@D@std@@@std@@QAEPAV12@PBDHH@Z DD 019930522H
	DD	01H
	DD	FLAT:__unwindtable$?open@?$basic_filebuf@DU?$char_traits@D@std@@@std@@QAEPAV12@PBDHH@Z
	DD	2 DUP(00H)
	DD	2 DUP(00H)
	DD	00H
	DD	01H
xdata$x	ENDS
;	COMDAT xdata$x
xdata$x	SEGMENT
__ehfuncinfo$??1?$basic_filebuf@DU?$char_traits@D@std@@@std@@UAE@XZ DD 019930522H
	DD	00H
	DD	00H
	DD	2 DUP(00H)
	DD	2 DUP(00H)
	DD	00H
	DD	05H
xdata$x	ENDS
;	COMDAT xdata$x
xdata$x	SEGMENT
__unwindtable$??0?$basic_filebuf@DU?$char_traits@D@std@@@std@@QAE@XZ DD 0ffffffffH
	DD	FLAT:__unwindfunclet$??0?$basic_filebuf@DU?$char_traits@D@std@@@std@@QAE@XZ$0
__ehfuncinfo$??0?$basic_filebuf@DU?$char_traits@D@std@@@std@@QAE@XZ DD 019930522H
	DD	01H
	DD	FLAT:__unwindtable$??0?$basic_filebuf@DU?$char_traits@D@std@@@std@@QAE@XZ
	DD	2 DUP(00H)
	DD	2 DUP(00H)
	DD	00H
	DD	01H
xdata$x	ENDS
;	COMDAT xdata$x
xdata$x	SEGMENT
__unwindtable$??0?$basic_fstream@DU?$char_traits@D@std@@@std@@QAE@PBDHH@Z DD 0ffffffffH
	DD	FLAT:__unwindfunclet$??0?$basic_fstream@DU?$char_traits@D@std@@@std@@QAE@PBDHH@Z$0
	DD	00H
	DD	FLAT:__unwindfunclet$??0?$basic_fstream@DU?$char_traits@D@std@@@std@@QAE@PBDHH@Z$1
	DD	01H
	DD	FLAT:__unwindfunclet$??0?$basic_fstream@DU?$char_traits@D@std@@@std@@QAE@PBDHH@Z$2
__ehfuncinfo$??0?$basic_fstream@DU?$char_traits@D@std@@@std@@QAE@PBDHH@Z DD 019930522H
	DD	03H
	DD	FLAT:__unwindtable$??0?$basic_fstream@DU?$char_traits@D@std@@@std@@QAE@PBDHH@Z
	DD	2 DUP(00H)
	DD	2 DUP(00H)
	DD	00H
	DD	01H
xdata$x	ENDS
;	COMDAT xdata$x
xdata$x	SEGMENT
__unwindtable$?getResourceSize@NativeFileSystem@@UAE_NABVResourceName@@AAI@Z DD 0ffffffffH
	DD	FLAT:__unwindfunclet$?getResourceSize@NativeFileSystem@@UAE_NABVResourceName@@AAI@Z$0
__ehfuncinfo$?getResourceSize@NativeFileSystem@@UAE_NABVResourceName@@AAI@Z DD 019930522H
	DD	01H
	DD	FLAT:__unwindtable$?getResourceSize@NativeFileSystem@@UAE_NABVResourceName@@AAI@Z
	DD	2 DUP(00H)
	DD	2 DUP(00H)
	DD	00H
	DD	01H
xdata$x	ENDS
;	COMDAT xdata$x
xdata$x	SEGMENT
__unwindtable$?loadRawDataBase@NativeFileSystem@@AAE_NABVResourceName@@PAXIH@Z DD 0ffffffffH
	DD	FLAT:__unwindfunclet$?loadRawDataBase@NativeFileSystem@@AAE_NABVResourceName@@PAXIH@Z$0
__ehfuncinfo$?loadRawDataBase@NativeFileSystem@@AAE_NABVResourceName@@PAXIH@Z DD 019930522H
	DD	01H
	DD	FLAT:__unwindtable$?loadRawDataBase@NativeFileSystem@@AAE_NABVResourceName@@PAXIH@Z
	DD	2 DUP(00H)
	DD	2 DUP(00H)
	DD	00H
	DD	01H
xdata$x	ENDS
;	COMDAT xdata$x
xdata$x	SEGMENT
__unwindtable$?_Throw_fs_error@filesystem@std@@YAXPBDW4__std_win_error@@ABVpath@12@@Z DD 0ffffffffH
	DD	FLAT:__unwindfunclet$?_Throw_fs_error@filesystem@std@@YAXPBDW4__std_win_error@@ABVpath@12@@Z$0
__ehfuncinfo$?_Throw_fs_error@filesystem@std@@YAXPBDW4__std_win_error@@ABVpath@12@@Z DD 019930522H
	DD	01H
	DD	FLAT:__unwindtable$?_Throw_fs_error@filesystem@std@@YAXPBDW4__std_win_error@@ABVpath@12@@Z
	DD	2 DUP(00H)
	DD	2 DUP(00H)
	DD	00H
	DD	01H
xdata$x	ENDS
;	COMDAT xdata$x
xdata$x	SEGMENT
__unwindtable$??$_Convert_wide_to_narrow_replace_chars@U?$char_traits@D@std@@V?$allocator@D@2@@filesystem@std@@YA?AV?$basic_string@DU?$char_traits@D@std@@V?$allocator@D@2@@1@W4__std_code_page@@V?$basic_string_view@_WU?$char_traits@_W@std@@@1@ABV?$allocator@D@1@@Z DD 0ffffffffH
	DD	FLAT:__unwindfunclet$??$_Convert_wide_to_narrow_replace_chars@U?$char_traits@D@std@@V?$allocator@D@2@@filesystem@std@@YA?AV?$basic_string@DU?$char_traits@D@std@@V?$allocator@D@2@@1@W4__std_code_page@@V?$basic_string_view@_WU?$char_traits@_W@std@@@1@ABV?$allocator@D@1@@Z$0
__ehfuncinfo$??$_Convert_wide_to_narrow_replace_chars@U?$char_traits@D@std@@V?$allocator@D@2@@filesystem@std@@YA?AV?$basic_string@DU?$char_traits@D@std@@V?$allocator@D@2@@1@W4__std_code_page@@V?$basic_string_view@_WU?$char_traits@_W@std@@@1@ABV?$allocator@D@1@@Z DD 019930522H
	DD	01H
	DD	FLAT:__unwindtable$??$_Convert_wide_to_narrow_replace_chars@U?$char_traits@D@std@@V?$allocator@D@2@@filesystem@std@@YA?AV?$basic_string@DU?$char_traits@D@std@@V?$allocator@D@2@@1@W4__std_code_page@@V?$basic_string_view@_WU?$char_traits@_W@std@@@1@ABV?$allocator@D@1@@Z
	DD	2 DUP(00H)
	DD	2 DUP(00H)
	DD	00H
	DD	01H
xdata$x	ENDS
;	COMDAT xdata$x
xdata$x	SEGMENT
__unwindtable$??0filesystem_error@filesystem@std@@QAE@ABV012@@Z DD 0ffffffffH
	DD	FLAT:__unwindfunclet$??0filesystem_error@filesystem@std@@QAE@ABV012@@Z$0
	DD	00H
	DD	FLAT:__unwindfunclet$??0filesystem_error@filesystem@std@@QAE@ABV012@@Z$1
	DD	01H
	DD	FLAT:__unwindfunclet$??0filesystem_error@filesystem@std@@QAE@ABV012@@Z$2
__ehfuncinfo$??0filesystem_error@filesystem@std@@QAE@ABV012@@Z DD 019930522H
	DD	03H
	DD	FLAT:__unwindtable$??0filesystem_error@filesystem@std@@QAE@ABV012@@Z
	DD	2 DUP(00H)
	DD	2 DUP(00H)
	DD	00H
	DD	01H
xdata$x	ENDS
;	COMDAT xdata$x
xdata$x	SEGMENT
__unwindtable$?_Pretty_message@filesystem_error@filesystem@std@@CA?AV?$basic_string@DU?$char_traits@D@std@@V?$allocator@D@2@@3@V?$basic_string_view@DU?$char_traits@D@std@@@3@ABVpath@23@1@Z DD 0ffffffffH
	DD	FLAT:__unwindfunclet$?_Pretty_message@filesystem_error@filesystem@std@@CA?AV?$basic_string@DU?$char_traits@D@std@@V?$allocator@D@2@@3@V?$basic_string_view@DU?$char_traits@D@std@@@3@ABVpath@23@1@Z$0
	DD	00H
	DD	FLAT:__unwindfunclet$?_Pretty_message@filesystem_error@filesystem@std@@CA?AV?$basic_string@DU?$char_traits@D@std@@V?$allocator@D@2@@3@V?$basic_string_view@DU?$char_traits@D@std@@@3@ABVpath@23@1@Z$1
	DD	01H
	DD	FLAT:__unwindfunclet$?_Pretty_message@filesystem_error@filesystem@std@@CA?AV?$basic_string@DU?$char_traits@D@std@@V?$allocator@D@2@@3@V?$basic_string_view@DU?$char_traits@D@std@@@3@ABVpath@23@1@Z$2
__ehfuncinfo$?_Pretty_message@filesystem_error@filesystem@std@@CA?AV?$basic_string@DU?$char_traits@D@std@@V?$allocator@D@2@@3@V?$basic_string_view@DU?$char_traits@D@std@@@3@ABVpath@23@1@Z DD 019930522H
	DD	03H
	DD	FLAT:__unwindtable$?_Pretty_message@filesystem_error@filesystem@std@@CA?AV?$basic_string@DU?$char_traits@D@std@@V?$allocator@D@2@@3@V?$basic_string_view@DU?$char_traits@D@std@@@3@ABVpath@23@1@Z
	DD	2 DUP(00H)
	DD	2 DUP(00H)
	DD	00H
	DD	01H
xdata$x	ENDS
;	COMDAT xdata$x
xdata$x	SEGMENT
__unwindtable$??0filesystem_error@filesystem@std@@QAE@ABV?$basic_string@DU?$char_traits@D@std@@V?$allocator@D@2@@2@ABVpath@12@Verror_code@2@@Z DD 0ffffffffH
	DD	FLAT:__unwindfunclet$??0filesystem_error@filesystem@std@@QAE@ABV?$basic_string@DU?$char_traits@D@std@@V?$allocator@D@2@@2@ABVpath@12@Verror_code@2@@Z$0
	DD	00H
	DD	FLAT:__unwindfunclet$??0filesystem_error@filesystem@std@@QAE@ABV?$basic_string@DU?$char_traits@D@std@@V?$allocator@D@2@@2@ABVpath@12@Verror_code@2@@Z$1
	DD	01H
	DD	FLAT:__unwindfunclet$??0filesystem_error@filesystem@std@@QAE@ABV?$basic_string@DU?$char_traits@D@std@@V?$allocator@D@2@@2@ABVpath@12@Verror_code@2@@Z$2
	DD	02H
	DD	FLAT:__unwindfunclet$??0filesystem_error@filesystem@std@@QAE@ABV?$basic_string@DU?$char_traits@D@std@@V?$allocator@D@2@@2@ABVpath@12@Verror_code@2@@Z$3
__ehfuncinfo$??0filesystem_error@filesystem@std@@QAE@ABV?$basic_string@DU?$char_traits@D@std@@V?$allocator@D@2@@2@ABVpath@12@Verror_code@2@@Z DD 019930522H
	DD	04H
	DD	FLAT:__unwindtable$??0filesystem_error@filesystem@std@@QAE@ABV?$basic_string@DU?$char_traits@D@std@@V?$allocator@D@2@@2@ABVpath@12@Verror_code@2@@Z
	DD	2 DUP(00H)
	DD	2 DUP(00H)
	DD	00H
	DD	01H
xdata$x	ENDS
;	COMDAT xdata$x
xdata$x	SEGMENT
__unwindtable$?_Convert_narrow_to_wide@filesystem@std@@YA?AV?$basic_string@_WU?$char_traits@_W@std@@V?$allocator@_W@2@@2@W4__std_code_page@@V?$basic_string_view@DU?$char_traits@D@std@@@2@@Z DD 0ffffffffH
	DD	FLAT:__unwindfunclet$?_Convert_narrow_to_wide@filesystem@std@@YA?AV?$basic_string@_WU?$char_traits@_W@std@@V?$allocator@_W@2@@2@W4__std_code_page@@V?$basic_string_view@DU?$char_traits@D@std@@@2@@Z$0
__ehfuncinfo$?_Convert_narrow_to_wide@filesystem@std@@YA?AV?$basic_string@_WU?$char_traits@_W@std@@V?$allocator@_W@2@@2@W4__std_code_page@@V?$basic_string_view@DU?$char_traits@D@std@@@2@@Z DD 019930522H
	DD	01H
	DD	FLAT:__unwindtable$?_Convert_narrow_to_wide@filesystem@std@@YA?AV?$basic_string@_WU?$char_traits@_W@std@@V?$allocator@_W@2@@2@W4__std_code_page@@V?$basic_string_view@DU?$char_traits@D@std@@@2@@Z
	DD	2 DUP(00H)
	DD	2 DUP(00H)
	DD	00H
	DD	01H
xdata$x	ENDS
;	COMDAT xdata$x
xdata$x	SEGMENT
__ehfuncinfo$?default_error_condition@_System_error_category@std@@UBE?AVerror_condition@2@H@Z DD 019930522H
	DD	00H
	DD	00H
	DD	2 DUP(00H)
	DD	2 DUP(00H)
	DD	00H
	DD	05H
xdata$x	ENDS
;	COMDAT xdata$x
xdata$x	SEGMENT
__unwindtable$?message@_System_error_category@std@@UBE?AV?$basic_string@DU?$char_traits@D@std@@V?$allocator@D@2@@2@H@Z DD 0ffffffffH
	DD	FLAT:__unwindfunclet$?message@_System_error_category@std@@UBE?AV?$basic_string@DU?$char_traits@D@std@@V?$allocator@D@2@@2@H@Z$0
__ehfuncinfo$?message@_System_error_category@std@@UBE?AV?$basic_string@DU?$char_traits@D@std@@V?$allocator@D@2@@2@H@Z DD 019930522H
	DD	01H
	DD	FLAT:__unwindtable$?message@_System_error_category@std@@UBE?AV?$basic_string@DU?$char_traits@D@std@@V?$allocator@D@2@@2@H@Z
	DD	2 DUP(00H)
	DD	2 DUP(00H)
	DD	00H
	DD	01H
xdata$x	ENDS
;	COMDAT xdata$x
xdata$x	SEGMENT
__unwindtable$??0system_error@std@@QAE@Verror_code@1@@Z DD 0ffffffffH
	DD	FLAT:__unwindfunclet$??0system_error@std@@QAE@Verror_code@1@@Z$0
__ehfuncinfo$??0system_error@std@@QAE@Verror_code@1@@Z DD 019930522H
	DD	01H
	DD	FLAT:__unwindtable$??0system_error@std@@QAE@Verror_code@1@@Z
	DD	2 DUP(00H)
	DD	2 DUP(00H)
	DD	00H
	DD	01H
xdata$x	ENDS
;	COMDAT xdata$x
xdata$x	SEGMENT
__unwindtable$??0_System_error@std@@IAE@Verror_code@1@ABV?$basic_string@DU?$char_traits@D@std@@V?$allocator@D@2@@1@@Z DD 0ffffffffH
	DD	FLAT:__unwindfunclet$??0_System_error@std@@IAE@Verror_code@1@ABV?$basic_string@DU?$char_traits@D@std@@V?$allocator@D@2@@1@@Z$1
__ehfuncinfo$??0_System_error@std@@IAE@Verror_code@1@ABV?$basic_string@DU?$char_traits@D@std@@V?$allocator@D@2@@1@@Z DD 019930522H
	DD	01H
	DD	FLAT:__unwindtable$??0_System_error@std@@IAE@Verror_code@1@ABV?$basic_string@DU?$char_traits@D@std@@V?$allocator@D@2@@1@@Z
	DD	2 DUP(00H)
	DD	2 DUP(00H)
	DD	00H
	DD	01H
xdata$x	ENDS
;	COMDAT xdata$x
xdata$x	SEGMENT
__unwindtable$?_Makestr@_System_error@std@@CA?AV?$basic_string@DU?$char_traits@D@std@@V?$allocator@D@2@@2@Verror_code@2@V32@@Z DD 0ffffffffH
	DD	FLAT:__unwindfunclet$?_Makestr@_System_error@std@@CA?AV?$basic_string@DU?$char_traits@D@std@@V?$allocator@D@2@@2@Verror_code@2@V32@@Z$0
	DD	00H
	DD	FLAT:__unwindfunclet$?_Makestr@_System_error@std@@CA?AV?$basic_string@DU?$char_traits@D@std@@V?$allocator@D@2@@2@Verror_code@2@V32@@Z$1
__ehfuncinfo$?_Makestr@_System_error@std@@CA?AV?$basic_string@DU?$char_traits@D@std@@V?$allocator@D@2@@2@Verror_code@2@V32@@Z DD 019930522H
	DD	02H
	DD	FLAT:__unwindtable$?_Makestr@_System_error@std@@CA?AV?$basic_string@DU?$char_traits@D@std@@V?$allocator@D@2@@2@Verror_code@2@V32@@Z
	DD	2 DUP(00H)
	DD	2 DUP(00H)
	DD	00H
	DD	01H
xdata$x	ENDS
;	COMDAT xdata$x
xdata$x	SEGMENT
__ehfuncinfo$?_Tidy_deallocate@?$basic_string@_WU?$char_traits@_W@std@@V?$allocator@_W@2@@std@@AAEXXZ DD 019930522H
	DD	00H
	DD	00H
	DD	2 DUP(00H)
	DD	2 DUP(00H)
	DD	00H
	DD	05H
xdata$x	ENDS
;	COMDAT xdata$x
xdata$x	SEGMENT
__ehfuncinfo$?_Take_contents@?$basic_string@_WU?$char_traits@_W@std@@V?$allocator@_W@2@@std@@AAEXAAV12@U?$integral_constant@_N$00@2@@Z DD 019930522H
	DD	00H
	DD	00H
	DD	2 DUP(00H)
	DD	2 DUP(00H)
	DD	00H
	DD	05H
xdata$x	ENDS
;	COMDAT xdata$x
xdata$x	SEGMENT
__ehfuncinfo$??0?$basic_string@_WU?$char_traits@_W@std@@V?$allocator@_W@2@@std@@QAE@$$QAV01@@Z DD 019930522H
	DD	00H
	DD	00H
	DD	2 DUP(00H)
	DD	2 DUP(00H)
	DD	00H
	DD	05H
xdata$x	ENDS
;	COMDAT xdata$x
xdata$x	SEGMENT
__ehfuncinfo$??0?$basic_string@_WU?$char_traits@_W@std@@V?$allocator@_W@2@@std@@QAE@XZ DD 019930522H
	DD	00H
	DD	00H
	DD	2 DUP(00H)
	DD	2 DUP(00H)
	DD	00H
	DD	05H
xdata$x	ENDS
;	COMDAT xdata$x
xdata$x	SEGMENT
__unwindtable$??0?$basic_string@_WU?$char_traits@_W@std@@V?$allocator@_W@2@@std@@QAE@ABV01@@Z DD 0ffffffffH
	DD	FLAT:__unwindfunclet$??0?$basic_string@_WU?$char_traits@_W@std@@V?$allocator@_W@2@@std@@QAE@ABV01@@Z$0
	DD	00H
	DD	FLAT:__unwindfunclet$??0?$basic_string@_WU?$char_traits@_W@std@@V?$allocator@_W@2@@std@@QAE@ABV01@@Z$1
__ehfuncinfo$??0?$basic_string@_WU?$char_traits@_W@std@@V?$allocator@_W@2@@std@@QAE@ABV01@@Z DD 019930522H
	DD	02H
	DD	FLAT:__unwindtable$??0?$basic_string@_WU?$char_traits@_W@std@@V?$allocator@_W@2@@std@@QAE@ABV01@@Z
	DD	2 DUP(00H)
	DD	2 DUP(00H)
	DD	00H
	DD	01H
xdata$x	ENDS
;	COMDAT xdata$x
xdata$x	SEGMENT
__ehfuncinfo$?_Tidy_deallocate@?$basic_string@DU?$char_traits@D@std@@V?$allocator@D@2@@std@@AAEXXZ DD 019930522H
	DD	00H
	DD	00H
	DD	2 DUP(00H)
	DD	2 DUP(00H)
	DD	00H
	DD	05H
xdata$x	ENDS
;	COMDAT xdata$x
xdata$x	SEGMENT
__ehfuncinfo$?_Take_contents@?$basic_string@DU?$char_traits@D@std@@V?$allocator@D@2@@std@@AAEXAAV12@U?$integral_constant@_N$00@2@@Z DD 019930522H
	DD	00H
	DD	00H
	DD	2 DUP(00H)
	DD	2 DUP(00H)
	DD	00H
	DD	05H
xdata$x	ENDS
;	COMDAT xdata$x
xdata$x	SEGMENT
__ehfuncinfo$??0?$basic_string@DU?$char_traits@D@std@@V?$allocator@D@2@@std@@QAE@$$QAV01@@Z DD 019930522H
	DD	00H
	DD	00H
	DD	2 DUP(00H)
	DD	2 DUP(00H)
	DD	00H
	DD	05H
xdata$x	ENDS
;	COMDAT xdata$x
xdata$x	SEGMENT
__unwindtable$??0?$basic_string@DU?$char_traits@D@std@@V?$allocator@D@2@@std@@QAE@QBD@Z DD 0ffffffffH
	DD	FLAT:__unwindfunclet$??0?$basic_string@DU?$char_traits@D@std@@V?$allocator@D@2@@std@@QAE@QBD@Z$0
	DD	00H
	DD	FLAT:__unwindfunclet$??0?$basic_string@DU?$char_traits@D@std@@V?$allocator@D@2@@std@@QAE@QBD@Z$1
__ehfuncinfo$??0?$basic_string@DU?$char_traits@D@std@@V?$allocator@D@2@@std@@QAE@QBD@Z DD 019930522H
	DD	02H
	DD	FLAT:__unwindtable$??0?$basic_string@DU?$char_traits@D@std@@V?$allocator@D@2@@std@@QAE@QBD@Z
	DD	2 DUP(00H)
	DD	2 DUP(00H)
	DD	00H
	DD	01H
xdata$x	ENDS
;	COMDAT xdata$x
xdata$x	SEGMENT
__unwindtable$??0?$basic_string@DU?$char_traits@D@std@@V?$allocator@D@2@@std@@QAE@QBDI@Z DD 0ffffffffH
	DD	FLAT:__unwindfunclet$??0?$basic_string@DU?$char_traits@D@std@@V?$allocator@D@2@@std@@QAE@QBDI@Z$0
	DD	00H
	DD	FLAT:__unwindfunclet$??0?$basic_string@DU?$char_traits@D@std@@V?$allocator@D@2@@std@@QAE@QBDI@Z$1
__ehfuncinfo$??0?$basic_string@DU?$char_traits@D@std@@V?$allocator@D@2@@std@@QAE@QBDI@Z DD 019930522H
	DD	02H
	DD	FLAT:__unwindtable$??0?$basic_string@DU?$char_traits@D@std@@V?$allocator@D@2@@std@@QAE@QBDI@Z
	DD	2 DUP(00H)
	DD	2 DUP(00H)
	DD	00H
	DD	01H
xdata$x	ENDS
;	COMDAT xdata$x
xdata$x	SEGMENT
__ehfuncinfo$??0?$basic_string@DU?$char_traits@D@std@@V?$allocator@D@2@@std@@QAE@ABV?$allocator@D@1@@Z DD 019930522H
	DD	00H
	DD	00H
	DD	2 DUP(00H)
	DD	2 DUP(00H)
	DD	00H
	DD	05H
xdata$x	ENDS
;	COMDAT xdata$x
xdata$x	SEGMENT
__ehfuncinfo$??0?$basic_string@DU?$char_traits@D@std@@V?$allocator@D@2@@std@@QAE@XZ DD 019930522H
	DD	00H
	DD	00H
	DD	2 DUP(00H)
	DD	2 DUP(00H)
	DD	00H
	DD	05H
xdata$x	ENDS
;	COMDAT xdata$x
xdata$x	SEGMENT
__unwindtable$??0?$basic_string@DU?$char_traits@D@std@@V?$allocator@D@2@@std@@QAE@ABV01@@Z DD 0ffffffffH
	DD	FLAT:__unwindfunclet$??0?$basic_string@DU?$char_traits@D@std@@V?$allocator@D@2@@std@@QAE@ABV01@@Z$0
	DD	00H
	DD	FLAT:__unwindfunclet$??0?$basic_string@DU?$char_traits@D@std@@V?$allocator@D@2@@std@@QAE@ABV01@@Z$1
__ehfuncinfo$??0?$basic_string@DU?$char_traits@D@std@@V?$allocator@D@2@@std@@QAE@ABV01@@Z DD 019930522H
	DD	02H
	DD	FLAT:__unwindtable$??0?$basic_string@DU?$char_traits@D@std@@V?$allocator@D@2@@std@@QAE@ABV01@@Z
	DD	2 DUP(00H)
	DD	2 DUP(00H)
	DD	00H
	DD	01H
xdata$x	ENDS
; Function compile flags: /Odt
;	COMDAT __JustMyCode_Default
_TEXT	SEGMENT
__JustMyCode_Default PROC				; COMDAT
	push	ebp
	mov	ebp, esp
	pop	ebp
	ret	0
__JustMyCode_Default ENDP
_TEXT	ENDS
; Function compile flags: /Odsp /RTCsu /ZI
;	COMDAT ??_E?$basic_fstream@DU?$char_traits@D@std@@@std@@$4PPPPPPPM@A@AEPAXI@Z
_TEXT	SEGMENT
??_E?$basic_fstream@DU?$char_traits@D@std@@@std@@$4PPPPPPPM@A@AEPAXI@Z PROC ; std::basic_fstream<char,std::char_traits<char> >::`vector deleting destructor', COMDAT
	sub	ecx, DWORD PTR [ecx-4]
	jmp	??_E?$basic_fstream@DU?$char_traits@D@std@@@std@@UAEPAXI@Z
??_E?$basic_fstream@DU?$char_traits@D@std@@@std@@$4PPPPPPPM@A@AEPAXI@Z ENDP ; std::basic_fstream<char,std::char_traits<char> >::`vector deleting destructor'
_TEXT	ENDS
; Function compile flags: /Odtp /RTCsu /ZI
; File C:\Program Files (x86)\Microsoft Visual Studio\2019\Professional\VC\Tools\MSVC\14.28.29333\include\type_traits
;	COMDAT ??$forward@AAPAV_Facet_base@std@@@std@@YAAAPAV_Facet_base@0@AAPAV10@@Z
_TEXT	SEGMENT
__Arg$ = 8						; size = 4
??$forward@AAPAV_Facet_base@std@@@std@@YAAAPAV_Facet_base@0@AAPAV10@@Z PROC ; std::forward<std::_Facet_base * &>, COMDAT

; 1442 :     remove_reference_t<_Ty>& _Arg) noexcept { // forward an lvalue as either an lvalue or an rvalue

	push	ebp
	mov	ebp, esp
	sub	esp, 192				; 000000c0H
	push	ebx
	push	esi
	push	edi
	lea	edi, DWORD PTR [ebp-192]
	mov	ecx, 48					; 00000030H
	mov	eax, -858993460				; ccccccccH
	rep stosd
	mov	ecx, OFFSET __77E6CA79_type_traits
	call	@__CheckForDebuggerJustMyCode@4

; 1443 :     return static_cast<_Ty&&>(_Arg);

	mov	eax, DWORD PTR __Arg$[ebp]

; 1444 : }

	pop	edi
	pop	esi
	pop	ebx
	add	esp, 192				; 000000c0H
	cmp	ebp, esp
	call	__RTC_CheckEsp
	mov	esp, ebp
	pop	ebp
	ret	0
??$forward@AAPAV_Facet_base@std@@@std@@YAAAPAV_Facet_base@0@AAPAV10@@Z ENDP ; std::forward<std::_Facet_base * &>
_TEXT	ENDS
; Function compile flags: /Odtp /RTCsu /ZI
; File C:\Program Files (x86)\Microsoft Visual Studio\2019\Professional\VC\Tools\MSVC\14.28.29333\include\type_traits
;	COMDAT ??$forward@ABV?$allocator@D@std@@@std@@YAABV?$allocator@D@0@ABV10@@Z
_TEXT	SEGMENT
__Arg$ = 8						; size = 4
??$forward@ABV?$allocator@D@std@@@std@@YAABV?$allocator@D@0@ABV10@@Z PROC ; std::forward<std::allocator<char> const &>, COMDAT

; 1442 :     remove_reference_t<_Ty>& _Arg) noexcept { // forward an lvalue as either an lvalue or an rvalue

	push	ebp
	mov	ebp, esp
	sub	esp, 192				; 000000c0H
	push	ebx
	push	esi
	push	edi
	lea	edi, DWORD PTR [ebp-192]
	mov	ecx, 48					; 00000030H
	mov	eax, -858993460				; ccccccccH
	rep stosd
	mov	ecx, OFFSET __77E6CA79_type_traits
	call	@__CheckForDebuggerJustMyCode@4

; 1443 :     return static_cast<_Ty&&>(_Arg);

	mov	eax, DWORD PTR __Arg$[ebp]

; 1444 : }

	pop	edi
	pop	esi
	pop	ebx
	add	esp, 192				; 000000c0H
	cmp	ebp, esp
	call	__RTC_CheckEsp
	mov	esp, ebp
	pop	ebp
	ret	0
??$forward@ABV?$allocator@D@std@@@std@@YAABV?$allocator@D@0@ABV10@@Z ENDP ; std::forward<std::allocator<char> const &>
_TEXT	ENDS
; Function compile flags: /Odtp /RTCsu /ZI
; File C:\Program Files (x86)\Microsoft Visual Studio\2019\Professional\VC\Tools\MSVC\14.28.29333\include\xmemory
;	COMDAT ?deallocate@?$_Default_allocator_traits@V?$allocator@U_Container_proxy@std@@@std@@@std@@SAXAAV?$allocator@U_Container_proxy@std@@@2@QAU_Container_proxy@2@I@Z
_TEXT	SEGMENT
___formal$ = 8						; size = 4
__Ptr$ = 12						; size = 4
__Count$ = 16						; size = 4
?deallocate@?$_Default_allocator_traits@V?$allocator@U_Container_proxy@std@@@std@@@std@@SAXAAV?$allocator@U_Container_proxy@std@@@2@QAU_Container_proxy@2@I@Z PROC ; std::_Default_allocator_traits<std::allocator<std::_Container_proxy> >::deallocate, COMDAT

; 694  :     static void deallocate(_Alloc&, const pointer _Ptr, const size_type _Count) {

	push	ebp
	mov	ebp, esp
	sub	esp, 192				; 000000c0H
	push	ebx
	push	esi
	push	edi
	lea	edi, DWORD PTR [ebp-192]
	mov	ecx, 48					; 00000030H
	mov	eax, -858993460				; ccccccccH
	rep stosd
	mov	ecx, OFFSET __B4DE8A79_xmemory
	call	@__CheckForDebuggerJustMyCode@4

; 695  :         // no overflow check on the following multiply; we assume _Allocate did that check
; 696  :         _Deallocate<_New_alignof<value_type>>(_Ptr, sizeof(value_type) * _Count);

	mov	eax, DWORD PTR __Count$[ebp]
	shl	eax, 3
	push	eax
	mov	ecx, DWORD PTR __Ptr$[ebp]
	push	ecx
	call	??$_Deallocate@$07$0A@@std@@YAXPAXI@Z	; std::_Deallocate<8,0>
	add	esp, 8

; 697  :     }

	pop	edi
	pop	esi
	pop	ebx
	add	esp, 192				; 000000c0H
	cmp	ebp, esp
	call	__RTC_CheckEsp
	mov	esp, ebp
	pop	ebp
	ret	0
?deallocate@?$_Default_allocator_traits@V?$allocator@U_Container_proxy@std@@@std@@@std@@SAXAAV?$allocator@U_Container_proxy@std@@@2@QAU_Container_proxy@2@I@Z ENDP ; std::_Default_allocator_traits<std::allocator<std::_Container_proxy> >::deallocate
_TEXT	ENDS
; Function compile flags: /Odtp /RTCsu /ZI
; File C:\Program Files (x86)\Microsoft Visual Studio\2019\Professional\VC\Tools\MSVC\14.28.29333\include\filesystem
;	COMDAT ??$_Convert_stringoid_to_wide@U_Normal_conversion@filesystem@std@@@filesystem@std@@YA?AV?$basic_string@_WU?$char_traits@_W@std@@V?$allocator@_W@2@@1@V?$basic_string_view@DU?$char_traits@D@std@@@1@U_Normal_conversion@01@@Z
_TEXT	SEGMENT
$T1 = -200						; size = 4
___$ReturnUdt$ = 8					; size = 4
__Input$ = 12						; size = 8
___formal$ = 20						; size = 1
??$_Convert_stringoid_to_wide@U_Normal_conversion@filesystem@std@@@filesystem@std@@YA?AV?$basic_string@_WU?$char_traits@_W@std@@V?$allocator@_W@2@@1@V?$basic_string_view@DU?$char_traits@D@std@@@1@U_Normal_conversion@01@@Z PROC ; std::filesystem::_Convert_stringoid_to_wide<std::filesystem::_Normal_conversion>, COMDAT

; 254  :     _NODISCARD wstring _Convert_stringoid_to_wide(const string_view _Input, _Conversion) {

	push	ebp
	mov	ebp, esp
	sub	esp, 204				; 000000ccH
	push	ebx
	push	esi
	push	edi
	lea	edi, DWORD PTR [ebp-204]
	mov	ecx, 51					; 00000033H
	mov	eax, -858993460				; ccccccccH
	rep stosd
	mov	DWORD PTR $T1[ebp], 0
	mov	ecx, OFFSET __A704387C_filesystem
	call	@__CheckForDebuggerJustMyCode@4

; 255  :         static_assert(_Is_any_of_v<_Conversion, _Normal_conversion, _Utf8_conversion>);
; 256  : 
; 257  :         if constexpr (is_same_v<_Conversion, _Normal_conversion>) {
; 258  :             return _Convert_narrow_to_wide(__std_fs_code_page(), _Input);

	mov	eax, DWORD PTR __Input$[ebp+4]
	push	eax
	mov	ecx, DWORD PTR __Input$[ebp]
	push	ecx
	call	___std_fs_code_page@0
	push	eax
	mov	edx, DWORD PTR ___$ReturnUdt$[ebp]
	push	edx
	call	?_Convert_narrow_to_wide@filesystem@std@@YA?AV?$basic_string@_WU?$char_traits@_W@std@@V?$allocator@_W@2@@2@W4__std_code_page@@V?$basic_string_view@DU?$char_traits@D@std@@@2@@Z ; std::filesystem::_Convert_narrow_to_wide
	add	esp, 16					; 00000010H
	mov	eax, DWORD PTR $T1[ebp]
	or	eax, 1
	mov	DWORD PTR $T1[ebp], eax
	mov	eax, DWORD PTR ___$ReturnUdt$[ebp]

; 259  :         } else {
; 260  :             return _Convert_narrow_to_wide(__std_code_page::_Utf8, _Input);
; 261  :         }
; 262  :     }

	pop	edi
	pop	esi
	pop	ebx
	add	esp, 204				; 000000ccH
	cmp	ebp, esp
	call	__RTC_CheckEsp
	mov	esp, ebp
	pop	ebp
	ret	0
??$_Convert_stringoid_to_wide@U_Normal_conversion@filesystem@std@@@filesystem@std@@YA?AV?$basic_string@_WU?$char_traits@_W@std@@V?$allocator@_W@2@@1@V?$basic_string_view@DU?$char_traits@D@std@@@1@U_Normal_conversion@01@@Z ENDP ; std::filesystem::_Convert_stringoid_to_wide<std::filesystem::_Normal_conversion>
_TEXT	ENDS
; Function compile flags: /Odtp /RTCsu /ZI
; File C:\Program Files (x86)\Microsoft Visual Studio\2019\Professional\VC\Tools\MSVC\14.28.29333\include\xutility
;	COMDAT ??$_Get_unwrapped_unverified@ABQBD@std@@YA@ABQBD@Z
_TEXT	SEGMENT
__It$ = 8						; size = 4
??$_Get_unwrapped_unverified@ABQBD@std@@YA@ABQBD@Z PROC	; std::_Get_unwrapped_unverified<char const * const &>, COMDAT

; 1347 : _NODISCARD constexpr decltype(auto) _Get_unwrapped_unverified(_Iter&& _It) {

	push	ebp
	mov	ebp, esp
	sub	esp, 192				; 000000c0H
	push	ebx
	push	esi
	push	edi
	lea	edi, DWORD PTR [ebp-192]
	mov	ecx, 48					; 00000030H
	mov	eax, -858993460				; ccccccccH
	rep stosd
	mov	ecx, OFFSET __DEE7E6EF_xutility
	call	@__CheckForDebuggerJustMyCode@4

; 1348 :     // unwrap an iterator not previously subjected to _Adl_verify_range
; 1349 :     if constexpr (is_pointer_v<decay_t<_Iter>>) { // special-case pointers and arrays
; 1350 :         return _It + 0;

	mov	eax, DWORD PTR __It$[ebp]
	mov	eax, DWORD PTR [eax]

; 1351 :     } else if constexpr (_Unwrappable_for_unverified_v<_Iter>) {
; 1352 :         return static_cast<_Iter&&>(_It)._Unwrapped();
; 1353 :     } else {
; 1354 :         return static_cast<_Iter&&>(_It);
; 1355 :     }
; 1356 : }

	pop	edi
	pop	esi
	pop	ebx
	add	esp, 192				; 000000c0H
	cmp	ebp, esp
	call	__RTC_CheckEsp
	mov	esp, ebp
	pop	ebp
	ret	0
??$_Get_unwrapped_unverified@ABQBD@std@@YA@ABQBD@Z ENDP	; std::_Get_unwrapped_unverified<char const * const &>
_TEXT	ENDS
; Function compile flags: /Odtp /RTCsu /ZI
; File C:\Program Files (x86)\Microsoft Visual Studio\2019\Professional\VC\Tools\MSVC\14.28.29333\include\filesystem
;	COMDAT ??$_Stringoid_from_Source@PBD@filesystem@std@@YA@ABQBD@Z
_TEXT	SEGMENT
___$ReturnUdt$ = 8					; size = 4
__Source$ = 12						; size = 4
??$_Stringoid_from_Source@PBD@filesystem@std@@YA@ABQBD@Z PROC ; std::filesystem::_Stringoid_from_Source<char const *>, COMDAT

; 306  :     _NODISCARD auto _Stringoid_from_Source(const _Src& _Source) {

	push	ebp
	mov	ebp, esp
	sub	esp, 192				; 000000c0H
	push	ebx
	push	esi
	push	edi
	lea	edi, DWORD PTR [ebp-192]
	mov	ecx, 48					; 00000030H
	mov	eax, -858993460				; ccccccccH
	rep stosd
	mov	ecx, OFFSET __A704387C_filesystem
	call	@__CheckForDebuggerJustMyCode@4

; 307  :         using _EcharT = _Iter_value_t<decay_t<_Src>>;
; 308  :         if constexpr (is_pointer_v<_Unwrapped_unverified_t<const _Src&>>) {
; 309  :             return basic_string_view<_EcharT>(_Get_unwrapped_unverified(_Source));

	mov	eax, DWORD PTR __Source$[ebp]
	push	eax
	call	??$_Get_unwrapped_unverified@ABQBD@std@@YA@ABQBD@Z ; std::_Get_unwrapped_unverified<char const * const &>
	add	esp, 4
	push	eax
	mov	ecx, DWORD PTR ___$ReturnUdt$[ebp]
	call	??0?$basic_string_view@DU?$char_traits@D@std@@@std@@QAE@QBD@Z ; std::basic_string_view<char,std::char_traits<char> >::basic_string_view<char,std::char_traits<char> >
	mov	eax, DWORD PTR ___$ReturnUdt$[ebp]

; 310  :         } else if constexpr (is_pointer_v<_Unwrapped_t<const _Src&>>) {
; 311  :             const auto _Data = _Get_unwrapped(_Source);
; 312  :             auto _Next       = _Source;
; 313  :             while (*_Next != _EcharT{}) {
; 314  :                 ++_Next;
; 315  :             }
; 316  : 
; 317  :             return basic_string_view<_EcharT>(_Data, static_cast<size_t>(_Get_unwrapped(_Next) - _Data));
; 318  :         } else {
; 319  :             basic_string<_EcharT> _Str;
; 320  :             for (auto _Next = _Source; *_Next != _EcharT{}; ++_Next) {
; 321  :                 _Str.push_back(*_Next);
; 322  :             }
; 323  : 
; 324  :             return _Str;
; 325  :         }
; 326  :     }

	pop	edi
	pop	esi
	pop	ebx
	add	esp, 192				; 000000c0H
	cmp	ebp, esp
	call	__RTC_CheckEsp
	mov	esp, ebp
	pop	ebp
	ret	0
??$_Stringoid_from_Source@PBD@filesystem@std@@YA@ABQBD@Z ENDP ; std::filesystem::_Stringoid_from_Source<char const *>
_TEXT	ENDS
; Function compile flags: /Odtp /RTCsu /ZI
; File C:\Program Files (x86)\Microsoft Visual Studio\2019\Professional\VC\Tools\MSVC\14.28.29333\include\xmemory
;	COMDAT ??$?0AAPAV_Facet_base@std@@@?$_Compressed_pair@U?$default_delete@V_Facet_base@std@@@std@@PAV_Facet_base@2@$00@std@@QAE@U_Zero_then_variadic_args_t@1@AAPAV_Facet_base@1@@Z
_TEXT	SEGMENT
_this$ = -8						; size = 4
___formal$ = 8						; size = 1
_<_Val2_0>$ = 12					; size = 4
??$?0AAPAV_Facet_base@std@@@?$_Compressed_pair@U?$default_delete@V_Facet_base@std@@@std@@PAV_Facet_base@2@$00@std@@QAE@U_Zero_then_variadic_args_t@1@AAPAV_Facet_base@1@@Z PROC ; std::_Compressed_pair<std::default_delete<std::_Facet_base>,std::_Facet_base *,1>::_Compressed_pair<std::default_delete<std::_Facet_base>,std::_Facet_base *,1><std::_Facet_base * &>, COMDAT
; _this$ = ecx

; 1339 :         : _Ty1(), _Myval2(_STD forward<_Other2>(_Val2)...) {}

	push	ebp
	mov	ebp, esp
	sub	esp, 204				; 000000ccH
	push	ebx
	push	esi
	push	edi
	push	ecx
	lea	edi, DWORD PTR [ebp-204]
	mov	ecx, 51					; 00000033H
	mov	eax, -858993460				; ccccccccH
	rep stosd
	pop	ecx
	mov	DWORD PTR _this$[ebp], ecx
	mov	ecx, OFFSET __B4DE8A79_xmemory
	call	@__CheckForDebuggerJustMyCode@4
	mov	eax, DWORD PTR _<_Val2_0>$[ebp]
	push	eax
	call	??$forward@AAPAV_Facet_base@std@@@std@@YAAAPAV_Facet_base@0@AAPAV10@@Z ; std::forward<std::_Facet_base * &>
	add	esp, 4
	mov	ecx, DWORD PTR _this$[ebp]
	mov	edx, DWORD PTR [eax]
	mov	DWORD PTR [ecx], edx
	mov	eax, DWORD PTR _this$[ebp]
	pop	edi
	pop	esi
	pop	ebx
	add	esp, 204				; 000000ccH
	cmp	ebp, esp
	call	__RTC_CheckEsp
	mov	esp, ebp
	pop	ebp
	ret	8
??$?0AAPAV_Facet_base@std@@@?$_Compressed_pair@U?$default_delete@V_Facet_base@std@@@std@@PAV_Facet_base@2@$00@std@@QAE@U_Zero_then_variadic_args_t@1@AAPAV_Facet_base@1@@Z ENDP ; std::_Compressed_pair<std::default_delete<std::_Facet_base>,std::_Facet_base *,1>::_Compressed_pair<std::default_delete<std::_Facet_base>,std::_Facet_base *,1><std::_Facet_base * &>
_TEXT	ENDS
; Function compile flags: /Odtp /RTCsu /ZI
; File C:\Program Files (x86)\Microsoft Visual Studio\2019\Professional\VC\Tools\MSVC\14.28.29333\include\xmemory
;	COMDAT ??$?0ABV?$allocator@D@std@@$$V@?$_Compressed_pair@V?$allocator@D@std@@V?$_String_val@U?$_Simple_types@D@std@@@2@$00@std@@QAE@U_One_then_variadic_args_t@1@ABV?$allocator@D@1@@Z
_TEXT	SEGMENT
_this$ = -8						; size = 4
___formal$ = 8						; size = 1
__Val1$ = 12						; size = 4
??$?0ABV?$allocator@D@std@@$$V@?$_Compressed_pair@V?$allocator@D@std@@V?$_String_val@U?$_Simple_types@D@std@@@2@$00@std@@QAE@U_One_then_variadic_args_t@1@ABV?$allocator@D@1@@Z PROC ; std::_Compressed_pair<std::allocator<char>,std::_String_val<std::_Simple_types<char> >,1>::_Compressed_pair<std::allocator<char>,std::_String_val<std::_Simple_types<char> >,1><std::allocator<char> const &>, COMDAT
; _this$ = ecx

; 1344 :         : _Ty1(_STD forward<_Other1>(_Val1)), _Myval2(_STD forward<_Other2>(_Val2)...) {}

	push	ebp
	mov	ebp, esp
	sub	esp, 204				; 000000ccH
	push	ebx
	push	esi
	push	edi
	push	ecx
	lea	edi, DWORD PTR [ebp-204]
	mov	ecx, 51					; 00000033H
	mov	eax, -858993460				; ccccccccH
	rep stosd
	pop	ecx
	mov	DWORD PTR _this$[ebp], ecx
	mov	ecx, OFFSET __B4DE8A79_xmemory
	call	@__CheckForDebuggerJustMyCode@4
	mov	eax, DWORD PTR __Val1$[ebp]
	push	eax
	call	??$forward@ABV?$allocator@D@std@@@std@@YAABV?$allocator@D@0@ABV10@@Z ; std::forward<std::allocator<char> const &>
	add	esp, 4
	mov	ecx, DWORD PTR _this$[ebp]
	call	??0?$_String_val@U?$_Simple_types@D@std@@@std@@QAE@XZ ; std::_String_val<std::_Simple_types<char> >::_String_val<std::_Simple_types<char> >
	mov	eax, DWORD PTR _this$[ebp]
	pop	edi
	pop	esi
	pop	ebx
	add	esp, 204				; 000000ccH
	cmp	ebp, esp
	call	__RTC_CheckEsp
	mov	esp, ebp
	pop	ebp
	ret	8
??$?0ABV?$allocator@D@std@@$$V@?$_Compressed_pair@V?$allocator@D@std@@V?$_String_val@U?$_Simple_types@D@std@@@2@$00@std@@QAE@U_One_then_variadic_args_t@1@ABV?$allocator@D@1@@Z ENDP ; std::_Compressed_pair<std::allocator<char>,std::_String_val<std::_Simple_types<char> >,1>::_Compressed_pair<std::allocator<char>,std::_String_val<std::_Simple_types<char> >,1><std::allocator<char> const &>
_TEXT	ENDS
; Function compile flags: /Odtp /RTCsu /ZI
; File C:\Program Files (x86)\Microsoft Visual Studio\2019\Professional\VC\Tools\MSVC\14.28.29333\include\utility
;	COMDAT ??$exchange@PAV_Facet_base@std@@PAV12@@std@@YAPAV_Facet_base@0@AAPAV10@$$QAPAV10@@Z
_TEXT	SEGMENT
__Old_val$ = -8						; size = 4
__Val$ = 8						; size = 4
__New_val$ = 12						; size = 4
??$exchange@PAV_Facet_base@std@@PAV12@@std@@YAPAV_Facet_base@0@AAPAV10@$$QAPAV10@@Z PROC ; std::exchange<std::_Facet_base *,std::_Facet_base *>, COMDAT

; 596  :     conjunction_v<is_nothrow_move_constructible<_Ty>, is_nothrow_assignable<_Ty&, _Other>>) /* strengthened */ {

	push	ebp
	mov	ebp, esp
	sub	esp, 204				; 000000ccH
	push	ebx
	push	esi
	push	edi
	lea	edi, DWORD PTR [ebp-204]
	mov	ecx, 51					; 00000033H
	mov	eax, -858993460				; ccccccccH
	rep stosd
	mov	ecx, OFFSET __DE4BE9BA_utility
	call	@__CheckForDebuggerJustMyCode@4

; 597  :     // assign _New_val to _Val, return previous _Val
; 598  :     _Ty _Old_val = static_cast<_Ty&&>(_Val);

	mov	eax, DWORD PTR __Val$[ebp]
	mov	ecx, DWORD PTR [eax]
	mov	DWORD PTR __Old_val$[ebp], ecx

; 599  :     _Val         = static_cast<_Other&&>(_New_val);

	mov	eax, DWORD PTR __Val$[ebp]
	mov	ecx, DWORD PTR __New_val$[ebp]
	mov	edx, DWORD PTR [ecx]
	mov	DWORD PTR [eax], edx

; 600  :     return _Old_val;

	mov	eax, DWORD PTR __Old_val$[ebp]

; 601  : }

	pop	edi
	pop	esi
	pop	ebx
	add	esp, 204				; 000000ccH
	cmp	ebp, esp
	call	__RTC_CheckEsp
	mov	esp, ebp
	pop	ebp
	ret	0
??$exchange@PAV_Facet_base@std@@PAV12@@std@@YAPAV_Facet_base@0@AAPAV10@$$QAPAV10@@Z ENDP ; std::exchange<std::_Facet_base *,std::_Facet_base *>
_TEXT	ENDS
; Function compile flags: /Odtp /RTCsu /ZI
; File C:\Program Files (x86)\Microsoft Visual Studio\2019\Professional\VC\Tools\MSVC\14.28.29333\include\xmemory
;	COMDAT ??$_Allocate_manually_vector_aligned@U_Default_allocate_traits@std@@@std@@YAPAXI@Z
_TEXT	SEGMENT
__Ptr$ = -32						; size = 4
__Ptr_container$ = -20					; size = 4
__Block_size$ = -8					; size = 4
__Bytes$ = 8						; size = 4
??$_Allocate_manually_vector_aligned@U_Default_allocate_traits@std@@@std@@YAPAXI@Z PROC ; std::_Allocate_manually_vector_aligned<std::_Default_allocate_traits>, COMDAT

; 113  : __declspec(allocator) void* _Allocate_manually_vector_aligned(const size_t _Bytes) {

	push	ebp
	mov	ebp, esp
	sub	esp, 228				; 000000e4H
	push	ebx
	push	esi
	push	edi
	lea	edi, DWORD PTR [ebp-228]
	mov	ecx, 57					; 00000039H
	mov	eax, -858993460				; ccccccccH
	rep stosd
	mov	ecx, OFFSET __B4DE8A79_xmemory
	call	@__CheckForDebuggerJustMyCode@4

; 114  :     // allocate _Bytes manually aligned to at least _Big_allocation_alignment
; 115  :     const size_t _Block_size = _Non_user_size + _Bytes;

	mov	eax, DWORD PTR __Bytes$[ebp]
	add	eax, 39					; 00000027H
	mov	DWORD PTR __Block_size$[ebp], eax

; 116  :     if (_Block_size <= _Bytes) {

	mov	eax, DWORD PTR __Block_size$[ebp]
	cmp	eax, DWORD PTR __Bytes$[ebp]
	ja	SHORT $LN8@Allocate_m

; 117  :         _Throw_bad_array_new_length(); // add overflow

	call	?_Throw_bad_array_new_length@std@@YAXXZ	; std::_Throw_bad_array_new_length
$LN8@Allocate_m:

; 118  :     }
; 119  : 
; 120  :     const uintptr_t _Ptr_container = reinterpret_cast<uintptr_t>(_Traits::_Allocate(_Block_size));

	mov	eax, DWORD PTR __Block_size$[ebp]
	push	eax
	call	?_Allocate@_Default_allocate_traits@std@@SAPAXI@Z ; std::_Default_allocate_traits::_Allocate
	add	esp, 4
	mov	DWORD PTR __Ptr_container$[ebp], eax
$LN4@Allocate_m:

; 121  :     _STL_VERIFY(_Ptr_container != 0, "invalid argument"); // validate even in release since we're doing p[-1]

	cmp	DWORD PTR __Ptr_container$[ebp], 0
	je	SHORT $LN7@Allocate_m
	jmp	SHORT $LN2@Allocate_m
$LN7@Allocate_m:
	mov	esi, esp
	push	OFFSET ??_C@_0BB@FCMFBGOM@invalid?5argument@
	push	OFFSET ??_C@_02DKCKIIND@?$CFs@
	push	0
	push	121					; 00000079H
	push	OFFSET ??_C@_0GL@KFPMFPIC@C?3?2Program?5Files?5?$CIx86?$CJ?2Microsof@
	push	2
	call	DWORD PTR __imp___CrtDbgReport
	add	esp, 24					; 00000018H
	cmp	esi, esp
	call	__RTC_CheckEsp
	cmp	eax, 1
	jne	SHORT $LN12@Allocate_m
	int	3
$LN12@Allocate_m:
	mov	esi, esp
	push	0
	push	121					; 00000079H
	push	OFFSET ??_C@_1NG@FKHEBIAG@?$AAC?$AA?3?$AA?2?$AAP?$AAr?$AAo?$AAg?$AAr?$AAa?$AAm?$AA?5?$AAF?$AAi?$AAl?$AAe@
	push	OFFSET ??_C@_1EO@GFNCMDLA@?$AAs?$AAt?$AAd?$AA?3?$AA?3?$AA_?$AAA?$AAl?$AAl?$AAo?$AAc?$AAa?$AAt?$AAe?$AA_@
	push	OFFSET ??_C@_1CG@JNLFBNGN@?$AA?$CC?$AAi?$AAn?$AAv?$AAa?$AAl?$AAi?$AAd?$AA?5?$AAa?$AAr?$AAg?$AAu?$AAm?$AAe@
	call	DWORD PTR __imp___invalid_parameter
	add	esp, 20					; 00000014H
	cmp	esi, esp
	call	__RTC_CheckEsp
	xor	eax, eax
	jne	SHORT $LN7@Allocate_m
$LN2@Allocate_m:
	xor	eax, eax
	jne	SHORT $LN4@Allocate_m

; 122  :     void* const _Ptr = reinterpret_cast<void*>((_Ptr_container + _Non_user_size) & ~(_Big_allocation_alignment - 1));

	mov	eax, DWORD PTR __Ptr_container$[ebp]
	add	eax, 39					; 00000027H
	and	eax, -32				; ffffffe0H
	mov	DWORD PTR __Ptr$[ebp], eax

; 123  :     static_cast<uintptr_t*>(_Ptr)[-1] = _Ptr_container;

	mov	eax, 4
	imul	ecx, eax, -1
	mov	edx, DWORD PTR __Ptr$[ebp]
	mov	eax, DWORD PTR __Ptr_container$[ebp]
	mov	DWORD PTR [edx+ecx], eax

; 124  : 
; 125  : #ifdef _DEBUG
; 126  :     static_cast<uintptr_t*>(_Ptr)[-2] = _Big_allocation_sentinel;

	mov	eax, 4
	imul	ecx, eax, -2
	mov	edx, DWORD PTR __Ptr$[ebp]
	mov	DWORD PTR [edx+ecx], -84215046		; fafafafaH

; 127  : #endif // _DEBUG
; 128  :     return _Ptr;

	mov	eax, DWORD PTR __Ptr$[ebp]
$LN11@Allocate_m:

; 129  : }

	pop	edi
	pop	esi
	pop	ebx
	add	esp, 228				; 000000e4H
	cmp	ebp, esp
	call	__RTC_CheckEsp
	mov	esp, ebp
	pop	ebp
	ret	0
??$_Allocate_manually_vector_aligned@U_Default_allocate_traits@std@@@std@@YAPAXI@Z ENDP ; std::_Allocate_manually_vector_aligned<std::_Default_allocate_traits>
_TEXT	ENDS
; Function compile flags: /Odtp /RTCsu /ZI
; File C:\Program Files (x86)\Microsoft Visual Studio\2019\Professional\VC\Tools\MSVC\14.28.29333\include\type_traits
;	COMDAT ??$forward@ABQAD@std@@YAABQADABQAD@Z
_TEXT	SEGMENT
__Arg$ = 8						; size = 4
??$forward@ABQAD@std@@YAABQADABQAD@Z PROC		; std::forward<char * const &>, COMDAT

; 1442 :     remove_reference_t<_Ty>& _Arg) noexcept { // forward an lvalue as either an lvalue or an rvalue

	push	ebp
	mov	ebp, esp
	sub	esp, 192				; 000000c0H
	push	ebx
	push	esi
	push	edi
	lea	edi, DWORD PTR [ebp-192]
	mov	ecx, 48					; 00000030H
	mov	eax, -858993460				; ccccccccH
	rep stosd
	mov	ecx, OFFSET __77E6CA79_type_traits
	call	@__CheckForDebuggerJustMyCode@4

; 1443 :     return static_cast<_Ty&&>(_Arg);

	mov	eax, DWORD PTR __Arg$[ebp]

; 1444 : }

	pop	edi
	pop	esi
	pop	ebx
	add	esp, 192				; 000000c0H
	cmp	ebp, esp
	call	__RTC_CheckEsp
	mov	esp, ebp
	pop	ebp
	ret	0
??$forward@ABQAD@std@@YAABQADABQAD@Z ENDP		; std::forward<char * const &>
_TEXT	ENDS
; Function compile flags: /Odtp /RTCsu /ZI
; File C:\Program Files (x86)\Microsoft Visual Studio\2019\Professional\VC\Tools\MSVC\14.28.29333\include\xstddef
;	COMDAT ??$addressof@PAD@std@@YAPAPADAAPAD@Z
_TEXT	SEGMENT
__Val$ = 8						; size = 4
??$addressof@PAD@std@@YAPAPADAAPAD@Z PROC		; std::addressof<char *>, COMDAT

; 274  : _NODISCARD constexpr _Ty* addressof(_Ty& _Val) noexcept {

	push	ebp
	mov	ebp, esp
	sub	esp, 192				; 000000c0H
	push	ebx
	push	esi
	push	edi
	lea	edi, DWORD PTR [ebp-192]
	mov	ecx, 48					; 00000030H
	mov	eax, -858993460				; ccccccccH
	rep stosd
	mov	ecx, OFFSET __29547EA8_xstddef
	call	@__CheckForDebuggerJustMyCode@4

; 275  :     return __builtin_addressof(_Val);

	mov	eax, DWORD PTR __Val$[ebp]

; 276  : }

	pop	edi
	pop	esi
	pop	ebx
	add	esp, 192				; 000000c0H
	cmp	ebp, esp
	call	__RTC_CheckEsp
	mov	esp, ebp
	pop	ebp
	ret	0
??$addressof@PAD@std@@YAPAPADAAPAD@Z ENDP		; std::addressof<char *>
_TEXT	ENDS
; Function compile flags: /Odtp /RTCsu /ZI
; File C:\Program Files (x86)\Microsoft Visual Studio\2019\Professional\VC\Tools\MSVC\14.28.29333\include\type_traits
;	COMDAT ??$forward@ABQA_W@std@@YAABQA_WABQA_W@Z
_TEXT	SEGMENT
__Arg$ = 8						; size = 4
??$forward@ABQA_W@std@@YAABQA_WABQA_W@Z PROC		; std::forward<wchar_t * const &>, COMDAT

; 1442 :     remove_reference_t<_Ty>& _Arg) noexcept { // forward an lvalue as either an lvalue or an rvalue

	push	ebp
	mov	ebp, esp
	sub	esp, 192				; 000000c0H
	push	ebx
	push	esi
	push	edi
	lea	edi, DWORD PTR [ebp-192]
	mov	ecx, 48					; 00000030H
	mov	eax, -858993460				; ccccccccH
	rep stosd
	mov	ecx, OFFSET __77E6CA79_type_traits
	call	@__CheckForDebuggerJustMyCode@4

; 1443 :     return static_cast<_Ty&&>(_Arg);

	mov	eax, DWORD PTR __Arg$[ebp]

; 1444 : }

	pop	edi
	pop	esi
	pop	ebx
	add	esp, 192				; 000000c0H
	cmp	ebp, esp
	call	__RTC_CheckEsp
	mov	esp, ebp
	pop	ebp
	ret	0
??$forward@ABQA_W@std@@YAABQA_WABQA_W@Z ENDP		; std::forward<wchar_t * const &>
_TEXT	ENDS
; Function compile flags: /Odtp /RTCsu /ZI
; File C:\Program Files (x86)\Microsoft Visual Studio\2019\Professional\VC\Tools\MSVC\14.28.29333\include\xstddef
;	COMDAT ??$addressof@PA_W@std@@YAPAPA_WAAPA_W@Z
_TEXT	SEGMENT
__Val$ = 8						; size = 4
??$addressof@PA_W@std@@YAPAPA_WAAPA_W@Z PROC		; std::addressof<wchar_t *>, COMDAT

; 274  : _NODISCARD constexpr _Ty* addressof(_Ty& _Val) noexcept {

	push	ebp
	mov	ebp, esp
	sub	esp, 192				; 000000c0H
	push	ebx
	push	esi
	push	edi
	lea	edi, DWORD PTR [ebp-192]
	mov	ecx, 48					; 00000030H
	mov	eax, -858993460				; ccccccccH
	rep stosd
	mov	ecx, OFFSET __29547EA8_xstddef
	call	@__CheckForDebuggerJustMyCode@4

; 275  :     return __builtin_addressof(_Val);

	mov	eax, DWORD PTR __Val$[ebp]

; 276  : }

	pop	edi
	pop	esi
	pop	ebx
	add	esp, 192				; 000000c0H
	cmp	ebp, esp
	call	__RTC_CheckEsp
	mov	esp, ebp
	pop	ebp
	ret	0
??$addressof@PA_W@std@@YAPAPA_WAAPA_W@Z ENDP		; std::addressof<wchar_t *>
_TEXT	ENDS
; Function compile flags: /Odtp /RTCsu /ZI
; File C:\Program Files (x86)\Microsoft Visual Studio\2019\Professional\VC\Tools\MSVC\14.28.29333\include\type_traits
;	COMDAT ??$forward@V?$allocator@D@std@@@std@@YA$$QAV?$allocator@D@0@AAV10@@Z
_TEXT	SEGMENT
__Arg$ = 8						; size = 4
??$forward@V?$allocator@D@std@@@std@@YA$$QAV?$allocator@D@0@AAV10@@Z PROC ; std::forward<std::allocator<char> >, COMDAT

; 1442 :     remove_reference_t<_Ty>& _Arg) noexcept { // forward an lvalue as either an lvalue or an rvalue

	push	ebp
	mov	ebp, esp
	sub	esp, 192				; 000000c0H
	push	ebx
	push	esi
	push	edi
	lea	edi, DWORD PTR [ebp-192]
	mov	ecx, 48					; 00000030H
	mov	eax, -858993460				; ccccccccH
	rep stosd
	mov	ecx, OFFSET __77E6CA79_type_traits
	call	@__CheckForDebuggerJustMyCode@4

; 1443 :     return static_cast<_Ty&&>(_Arg);

	mov	eax, DWORD PTR __Arg$[ebp]

; 1444 : }

	pop	edi
	pop	esi
	pop	ebx
	add	esp, 192				; 000000c0H
	cmp	ebp, esp
	call	__RTC_CheckEsp
	mov	esp, ebp
	pop	ebp
	ret	0
??$forward@V?$allocator@D@std@@@std@@YA$$QAV?$allocator@D@0@AAV10@@Z ENDP ; std::forward<std::allocator<char> >
_TEXT	ENDS
; Function compile flags: /Odtp /RTCsu /ZI
; File C:\Program Files (x86)\Microsoft Visual Studio\2019\Professional\VC\Tools\MSVC\14.28.29333\include\type_traits
;	COMDAT ??$forward@V?$allocator@_W@std@@@std@@YA$$QAV?$allocator@_W@0@AAV10@@Z
_TEXT	SEGMENT
__Arg$ = 8						; size = 4
??$forward@V?$allocator@_W@std@@@std@@YA$$QAV?$allocator@_W@0@AAV10@@Z PROC ; std::forward<std::allocator<wchar_t> >, COMDAT

; 1442 :     remove_reference_t<_Ty>& _Arg) noexcept { // forward an lvalue as either an lvalue or an rvalue

	push	ebp
	mov	ebp, esp
	sub	esp, 192				; 000000c0H
	push	ebx
	push	esi
	push	edi
	lea	edi, DWORD PTR [ebp-192]
	mov	ecx, 48					; 00000030H
	mov	eax, -858993460				; ccccccccH
	rep stosd
	mov	ecx, OFFSET __77E6CA79_type_traits
	call	@__CheckForDebuggerJustMyCode@4

; 1443 :     return static_cast<_Ty&&>(_Arg);

	mov	eax, DWORD PTR __Arg$[ebp]

; 1444 : }

	pop	edi
	pop	esi
	pop	ebx
	add	esp, 192				; 000000c0H
	cmp	ebp, esp
	call	__RTC_CheckEsp
	mov	esp, ebp
	pop	ebp
	ret	0
??$forward@V?$allocator@_W@std@@@std@@YA$$QAV?$allocator@_W@0@AAV10@@Z ENDP ; std::forward<std::allocator<wchar_t> >
_TEXT	ENDS
; Function compile flags: /Odtp /RTCsu /ZI
; File C:\Program Files (x86)\Microsoft Visual Studio\2019\Professional\VC\Tools\MSVC\14.28.29333\include\xmemory
;	COMDAT ??$_Deallocate_plain@V?$allocator@U_Container_proxy@std@@@std@@@std@@YAXAAV?$allocator@U_Container_proxy@std@@@0@QAU_Container_proxy@0@@Z
_TEXT	SEGMENT
__$EHRec$ = -12						; size = 12
__Al$ = 8						; size = 4
__Ptr$ = 12						; size = 4
??$_Deallocate_plain@V?$allocator@U_Container_proxy@std@@@std@@@std@@YAXAAV?$allocator@U_Container_proxy@std@@@0@QAU_Container_proxy@0@@Z PROC ; std::_Deallocate_plain<std::allocator<std::_Container_proxy> >, COMDAT

; 1003 : void _Deallocate_plain(_Alloc& _Al, typename _Alloc::value_type* const _Ptr) noexcept {

	push	ebp
	mov	ebp, esp
	push	-1
	push	__ehhandler$??$_Deallocate_plain@V?$allocator@U_Container_proxy@std@@@std@@@std@@YAXAAV?$allocator@U_Container_proxy@std@@@0@QAU_Container_proxy@0@@Z
	mov	eax, DWORD PTR fs:0
	push	eax
	sub	esp, 192				; 000000c0H
	push	ebx
	push	esi
	push	edi
	lea	edi, DWORD PTR [ebp-204]
	mov	ecx, 48					; 00000030H
	mov	eax, -858993460				; ccccccccH
	rep stosd
	mov	eax, DWORD PTR ___security_cookie
	xor	eax, ebp
	push	eax
	lea	eax, DWORD PTR __$EHRec$[ebp]
	mov	DWORD PTR fs:0, eax
	mov	ecx, OFFSET __B4DE8A79_xmemory
	call	@__CheckForDebuggerJustMyCode@4

; 1004 :     // deallocate a plain pointer using an allocator
; 1005 :     using _Alloc_traits = allocator_traits<_Alloc>;
; 1006 :     if constexpr (is_same_v<_Alloc_ptr_t<_Alloc>, typename _Alloc::value_type*>) {
; 1007 :         _Alloc_traits::deallocate(_Al, _Ptr, 1);

	push	1
	mov	eax, DWORD PTR __Ptr$[ebp]
	push	eax
	mov	ecx, DWORD PTR __Al$[ebp]
	push	ecx
	call	?deallocate@?$_Default_allocator_traits@V?$allocator@U_Container_proxy@std@@@std@@@std@@SAXAAV?$allocator@U_Container_proxy@std@@@2@QAU_Container_proxy@2@I@Z ; std::_Default_allocator_traits<std::allocator<std::_Container_proxy> >::deallocate
	add	esp, 12					; 0000000cH

; 1008 :     } else {
; 1009 :         using _Ptr_traits = pointer_traits<_Alloc_ptr_t<_Alloc>>;
; 1010 :         _Alloc_traits::deallocate(_Al, _Ptr_traits::pointer_to(*_Ptr), 1);
; 1011 :     }
; 1012 : }

	mov	ecx, DWORD PTR __$EHRec$[ebp]
	mov	DWORD PTR fs:0, ecx
	pop	ecx
	pop	edi
	pop	esi
	pop	ebx
	add	esp, 204				; 000000ccH
	cmp	ebp, esp
	call	__RTC_CheckEsp
	mov	esp, ebp
	pop	ebp
	ret	0
	int	3
	int	3
	int	3
	int	3
	int	3
_TEXT	ENDS
;	COMDAT text$x
text$x	SEGMENT
__ehhandler$??$_Deallocate_plain@V?$allocator@U_Container_proxy@std@@@std@@@std@@YAXAAV?$allocator@U_Container_proxy@std@@@0@QAU_Container_proxy@0@@Z:
	npad	1
	npad	1
	mov	edx, DWORD PTR [esp+8]
	lea	eax, DWORD PTR [edx+12]
	mov	ecx, DWORD PTR [edx-208]
	xor	ecx, eax
	call	@__security_check_cookie@4
	mov	eax, OFFSET __ehfuncinfo$??$_Deallocate_plain@V?$allocator@U_Container_proxy@std@@@std@@@std@@YAXAAV?$allocator@U_Container_proxy@std@@@0@QAU_Container_proxy@0@@Z
	jmp	___CxxFrameHandler3
text$x	ENDS
??$_Deallocate_plain@V?$allocator@U_Container_proxy@std@@@std@@@std@@YAXAAV?$allocator@U_Container_proxy@std@@@0@QAU_Container_proxy@0@@Z ENDP ; std::_Deallocate_plain<std::allocator<std::_Container_proxy> >
; Function compile flags: /Odtp /RTCsu /ZI
; File C:\Program Files (x86)\Microsoft Visual Studio\2019\Professional\VC\Tools\MSVC\14.28.29333\include\filesystem
;	COMDAT ??$_Convert_Source_to_wide@PBDU_Normal_conversion@filesystem@std@@@filesystem@std@@YA?AV?$basic_string@_WU?$char_traits@_W@std@@V?$allocator@_W@2@@1@ABQBDU_Normal_conversion@01@@Z
_TEXT	SEGMENT
$T1 = -216						; size = 4
$T2 = -204						; size = 8
___$ReturnUdt$ = 8					; size = 4
__Source$ = 12						; size = 4
__Tag$ = 16						; size = 1
??$_Convert_Source_to_wide@PBDU_Normal_conversion@filesystem@std@@@filesystem@std@@YA?AV?$basic_string@_WU?$char_traits@_W@std@@V?$allocator@_W@2@@1@ABQBDU_Normal_conversion@01@@Z PROC ; std::filesystem::_Convert_Source_to_wide<char const *,std::filesystem::_Normal_conversion>, COMDAT

; 341  :     _NODISCARD wstring _Convert_Source_to_wide(const _Src& _Source, _Conversion _Tag = {}) {

	push	ebp
	mov	ebp, esp
	sub	esp, 220				; 000000dcH
	push	ebx
	push	esi
	push	edi
	lea	edi, DWORD PTR [ebp-220]
	mov	ecx, 55					; 00000037H
	mov	eax, -858993460				; ccccccccH
	rep stosd
	mov	DWORD PTR $T1[ebp], 0
	mov	ecx, OFFSET __A704387C_filesystem
	call	@__CheckForDebuggerJustMyCode@4

; 342  :         return _Convert_stringoid_to_wide(_Stringoid_from_Source(_Source), _Tag);

	movzx	eax, BYTE PTR __Tag$[ebp]
	push	eax
	mov	ecx, DWORD PTR __Source$[ebp]
	push	ecx
	lea	edx, DWORD PTR $T2[ebp]
	push	edx
	call	??$_Stringoid_from_Source@PBD@filesystem@std@@YA@ABQBD@Z ; std::filesystem::_Stringoid_from_Source<char const *>
	add	esp, 8
	mov	ecx, DWORD PTR [eax+4]
	push	ecx
	mov	edx, DWORD PTR [eax]
	push	edx
	mov	eax, DWORD PTR ___$ReturnUdt$[ebp]
	push	eax
	call	??$_Convert_stringoid_to_wide@U_Normal_conversion@filesystem@std@@@filesystem@std@@YA?AV?$basic_string@_WU?$char_traits@_W@std@@V?$allocator@_W@2@@1@V?$basic_string_view@DU?$char_traits@D@std@@@1@U_Normal_conversion@01@@Z ; std::filesystem::_Convert_stringoid_to_wide<std::filesystem::_Normal_conversion>
	add	esp, 16					; 00000010H
	mov	ecx, DWORD PTR $T1[ebp]
	or	ecx, 1
	mov	DWORD PTR $T1[ebp], ecx
	mov	eax, DWORD PTR ___$ReturnUdt$[ebp]

; 343  :     }

	pop	edi
	pop	esi
	pop	ebx
	add	esp, 220				; 000000dcH
	cmp	ebp, esp
	call	__RTC_CheckEsp
	mov	esp, ebp
	pop	ebp
	ret	0
??$_Convert_Source_to_wide@PBDU_Normal_conversion@filesystem@std@@@filesystem@std@@YA?AV?$basic_string@_WU?$char_traits@_W@std@@V?$allocator@_W@2@@1@ABQBDU_Normal_conversion@01@@Z ENDP ; std::filesystem::_Convert_Source_to_wide<char const *,std::filesystem::_Normal_conversion>
_TEXT	ENDS
; Function compile flags: /Odtp /RTCsu /ZI
; File C:\Program Files (x86)\Microsoft Visual Studio\2019\Professional\VC\Tools\MSVC\14.28.29333\include\xstring
;	COMDAT ??$append@V?$basic_string_view@DU?$char_traits@D@std@@@std@@$0A@@?$basic_string@DU?$char_traits@D@std@@V?$allocator@D@2@@std@@QAEAAV01@ABV?$basic_string_view@DU?$char_traits@D@std@@@1@@Z
_TEXT	SEGMENT
tv78 = -232						; size = 4
tv80 = -228						; size = 4
__As_view$ = -28					; size = 8
_this$ = -12						; size = 4
__$ArrayPad$ = -4					; size = 4
__Right$ = 8						; size = 4
??$append@V?$basic_string_view@DU?$char_traits@D@std@@@std@@$0A@@?$basic_string@DU?$char_traits@D@std@@V?$allocator@D@2@@std@@QAEAAV01@ABV?$basic_string_view@DU?$char_traits@D@std@@@1@@Z PROC ; std::basic_string<char,std::char_traits<char>,std::allocator<char> >::append<std::basic_string_view<char,std::char_traits<char> >,0>, COMDAT
; _this$ = ecx

; 2922 :     basic_string& append(const _StringViewIsh& _Right) {

	push	ebp
	mov	ebp, esp
	sub	esp, 232				; 000000e8H
	push	ebx
	push	esi
	push	edi
	push	ecx
	lea	edi, DWORD PTR [ebp-232]
	mov	ecx, 58					; 0000003aH
	mov	eax, -858993460				; ccccccccH
	rep stosd
	pop	ecx
	mov	eax, DWORD PTR ___security_cookie
	xor	eax, ebp
	mov	DWORD PTR __$ArrayPad$[ebp], eax
	mov	DWORD PTR _this$[ebp], ecx
	mov	ecx, OFFSET __C00D0CE5_xstring
	call	@__CheckForDebuggerJustMyCode@4

; 2923 :         const basic_string_view<_Elem, _Traits> _As_view = _Right;

	push	8
	lea	ecx, DWORD PTR __As_view$[ebp]
	call	?__autoclassinit2@?$basic_string_view@DU?$char_traits@D@std@@@std@@QAEXI@Z
	mov	eax, DWORD PTR __Right$[ebp]
	mov	ecx, DWORD PTR [eax]
	mov	edx, DWORD PTR [eax+4]
	mov	DWORD PTR __As_view$[ebp], ecx
	mov	DWORD PTR __As_view$[ebp+4], edx

; 2924 :         return append(_As_view.data(), _Convert_size<size_type>(_As_view.size()));

	lea	ecx, DWORD PTR __As_view$[ebp]
	call	?size@?$basic_string_view@DU?$char_traits@D@std@@@std@@QBEIXZ ; std::basic_string_view<char,std::char_traits<char> >::size
	push	eax
	call	??$_Convert_size@I@std@@YAII@Z		; std::_Convert_size<unsigned int>
	add	esp, 4
	mov	DWORD PTR tv80[ebp], eax
	lea	ecx, DWORD PTR __As_view$[ebp]
	call	?data@?$basic_string_view@DU?$char_traits@D@std@@@std@@QBEPBDXZ ; std::basic_string_view<char,std::char_traits<char> >::data
	mov	DWORD PTR tv78[ebp], eax
	mov	eax, DWORD PTR tv80[ebp]
	push	eax
	mov	ecx, DWORD PTR tv78[ebp]
	push	ecx
	mov	ecx, DWORD PTR _this$[ebp]
	call	?append@?$basic_string@DU?$char_traits@D@std@@V?$allocator@D@2@@std@@QAEAAV12@QBDI@Z ; std::basic_string<char,std::char_traits<char>,std::allocator<char> >::append

; 2925 :     }

	push	edx
	mov	ecx, ebp
	push	eax
	lea	edx, DWORD PTR $LN5@append
	call	@_RTC_CheckStackVars@8
	pop	eax
	pop	edx
	pop	edi
	pop	esi
	pop	ebx
	mov	ecx, DWORD PTR __$ArrayPad$[ebp]
	xor	ecx, ebp
	call	@__security_check_cookie@4
	add	esp, 232				; 000000e8H
	cmp	ebp, esp
	call	__RTC_CheckEsp
	mov	esp, ebp
	pop	ebp
	ret	4
	npad	1
$LN5@append:
	DD	1
	DD	$LN4@append
$LN4@append:
	DD	-28					; ffffffe4H
	DD	8
	DD	$LN3@append
$LN3@append:
	DB	95					; 0000005fH
	DB	65					; 00000041H
	DB	115					; 00000073H
	DB	95					; 0000005fH
	DB	118					; 00000076H
	DB	105					; 00000069H
	DB	101					; 00000065H
	DB	119					; 00000077H
	DB	0
??$append@V?$basic_string_view@DU?$char_traits@D@std@@@std@@$0A@@?$basic_string@DU?$char_traits@D@std@@V?$allocator@D@2@@std@@QAEAAV01@ABV?$basic_string_view@DU?$char_traits@D@std@@@1@@Z ENDP ; std::basic_string<char,std::char_traits<char>,std::allocator<char> >::append<std::basic_string_view<char,std::char_traits<char> >,0>
_TEXT	ENDS
; Function compile flags: /Odtp /RTCsu /ZI
; File C:\Program Files (x86)\Microsoft Visual Studio\2019\Professional\VC\Tools\MSVC\14.28.29333\include\memory
;	COMDAT ??$?0U?$default_delete@V_Facet_base@std@@@std@@$0A@@?$unique_ptr@V_Facet_base@std@@U?$default_delete@V_Facet_base@std@@@2@@std@@QAE@PAV_Facet_base@1@@Z
_TEXT	SEGMENT
tv70 = -220						; size = 4
$T1 = -209						; size = 1
_this$ = -8						; size = 4
__Ptr$ = 8						; size = 4
??$?0U?$default_delete@V_Facet_base@std@@@std@@$0A@@?$unique_ptr@V_Facet_base@std@@U?$default_delete@V_Facet_base@std@@@2@@std@@QAE@PAV_Facet_base@1@@Z PROC ; std::unique_ptr<std::_Facet_base,std::default_delete<std::_Facet_base> >::unique_ptr<std::_Facet_base,std::default_delete<std::_Facet_base> ><std::default_delete<std::_Facet_base>,0>, COMDAT
; _this$ = ecx

; 2590 :     explicit unique_ptr(pointer _Ptr) noexcept : _Mypair(_Zero_then_variadic_args_t{}, _Ptr) {}

	push	ebp
	mov	ebp, esp
	sub	esp, 220				; 000000dcH
	push	ebx
	push	esi
	push	edi
	push	ecx
	lea	edi, DWORD PTR [ebp-220]
	mov	ecx, 55					; 00000037H
	mov	eax, -858993460				; ccccccccH
	rep stosd
	pop	ecx
	mov	DWORD PTR _this$[ebp], ecx
	mov	ecx, OFFSET __18D1DF79_memory
	call	@__CheckForDebuggerJustMyCode@4
	mov	eax, DWORD PTR _this$[ebp]
	mov	DWORD PTR tv70[ebp], eax
	lea	ecx, DWORD PTR __Ptr$[ebp]
	push	ecx
	movzx	edx, BYTE PTR $T1[ebp]
	push	edx
	mov	ecx, DWORD PTR tv70[ebp]
	call	??$?0AAPAV_Facet_base@std@@@?$_Compressed_pair@U?$default_delete@V_Facet_base@std@@@std@@PAV_Facet_base@2@$00@std@@QAE@U_Zero_then_variadic_args_t@1@AAPAV_Facet_base@1@@Z ; std::_Compressed_pair<std::default_delete<std::_Facet_base>,std::_Facet_base *,1>::_Compressed_pair<std::default_delete<std::_Facet_base>,std::_Facet_base *,1><std::_Facet_base * &>
	mov	eax, DWORD PTR _this$[ebp]
	pop	edi
	pop	esi
	pop	ebx
	add	esp, 220				; 000000dcH
	cmp	ebp, esp
	call	__RTC_CheckEsp
	mov	esp, ebp
	pop	ebp
	ret	4
??$?0U?$default_delete@V_Facet_base@std@@@std@@$0A@@?$unique_ptr@V_Facet_base@std@@U?$default_delete@V_Facet_base@std@@@2@@std@@QAE@PAV_Facet_base@1@@Z ENDP ; std::unique_ptr<std::_Facet_base,std::default_delete<std::_Facet_base> >::unique_ptr<std::_Facet_base,std::default_delete<std::_Facet_base> ><std::default_delete<std::_Facet_base>,0>
_TEXT	ENDS
; Function compile flags: /Odtp /RTCsu /ZI
;	COMDAT ?__autoclassinit2@?$unique_ptr@V_Facet_base@std@@U?$default_delete@V_Facet_base@std@@@2@@std@@QAEXI@Z
_TEXT	SEGMENT
_this$ = -8						; size = 4
_classSize$ = 8						; size = 4
?__autoclassinit2@?$unique_ptr@V_Facet_base@std@@U?$default_delete@V_Facet_base@std@@@2@@std@@QAEXI@Z PROC ; std::unique_ptr<std::_Facet_base,std::default_delete<std::_Facet_base> >::__autoclassinit2, COMDAT
; _this$ = ecx
	push	ebp
	mov	ebp, esp
	sub	esp, 204				; 000000ccH
	push	ebx
	push	esi
	push	edi
	push	ecx
	lea	edi, DWORD PTR [ebp-204]
	mov	ecx, 51					; 00000033H
	mov	eax, -858993460				; ccccccccH
	rep stosd
	pop	ecx
	mov	DWORD PTR _this$[ebp], ecx
	mov	eax, DWORD PTR _classSize$[ebp]
	push	eax
	push	0
	mov	ecx, DWORD PTR _this$[ebp]
	push	ecx
	call	_memset
	add	esp, 12					; 0000000cH
	pop	edi
	pop	esi
	pop	ebx
	add	esp, 204				; 000000ccH
	cmp	ebp, esp
	call	__RTC_CheckEsp
	mov	esp, ebp
	pop	ebp
	ret	4
?__autoclassinit2@?$unique_ptr@V_Facet_base@std@@U?$default_delete@V_Facet_base@std@@@2@@std@@QAEXI@Z ENDP ; std::unique_ptr<std::_Facet_base,std::default_delete<std::_Facet_base> >::__autoclassinit2
_TEXT	ENDS
; Function compile flags: /Odtp /RTCsu /ZI
; File C:\Program Files (x86)\Microsoft Visual Studio\2019\Professional\VC\Tools\MSVC\14.28.29333\include\xmemory
;	COMDAT ?_Get_first@?$_Compressed_pair@U?$default_delete@V_Facet_base@std@@@std@@PAV_Facet_base@2@$00@std@@QAEAAU?$default_delete@V_Facet_base@std@@@2@XZ
_TEXT	SEGMENT
_this$ = -8						; size = 4
?_Get_first@?$_Compressed_pair@U?$default_delete@V_Facet_base@std@@@std@@PAV_Facet_base@2@$00@std@@QAEAAU?$default_delete@V_Facet_base@std@@@2@XZ PROC ; std::_Compressed_pair<std::default_delete<std::_Facet_base>,std::_Facet_base *,1>::_Get_first, COMDAT
; _this$ = ecx

; 1346 :     constexpr _Ty1& _Get_first() noexcept {

	push	ebp
	mov	ebp, esp
	sub	esp, 204				; 000000ccH
	push	ebx
	push	esi
	push	edi
	push	ecx
	lea	edi, DWORD PTR [ebp-204]
	mov	ecx, 51					; 00000033H
	mov	eax, -858993460				; ccccccccH
	rep stosd
	pop	ecx
	mov	DWORD PTR _this$[ebp], ecx
	mov	ecx, OFFSET __B4DE8A79_xmemory
	call	@__CheckForDebuggerJustMyCode@4

; 1347 :         return *this;

	mov	eax, DWORD PTR _this$[ebp]

; 1348 :     }

	pop	edi
	pop	esi
	pop	ebx
	add	esp, 204				; 000000ccH
	cmp	ebp, esp
	call	__RTC_CheckEsp
	mov	esp, ebp
	pop	ebp
	ret	0
?_Get_first@?$_Compressed_pair@U?$default_delete@V_Facet_base@std@@@std@@PAV_Facet_base@2@$00@std@@QAEAAU?$default_delete@V_Facet_base@std@@@2@XZ ENDP ; std::_Compressed_pair<std::default_delete<std::_Facet_base>,std::_Facet_base *,1>::_Get_first
_TEXT	ENDS
; Function compile flags: /Odtp /RTCsu /ZI
; File C:\Program Files (x86)\Microsoft Visual Studio\2019\Professional\VC\Tools\MSVC\14.28.29333\include\memory
;	COMDAT ?release@?$unique_ptr@V_Facet_base@std@@U?$default_delete@V_Facet_base@std@@@2@@std@@QAEPAV_Facet_base@2@XZ
_TEXT	SEGMENT
$T1 = -212						; size = 4
_this$ = -8						; size = 4
?release@?$unique_ptr@V_Facet_base@std@@U?$default_delete@V_Facet_base@std@@@2@@std@@QAEPAV_Facet_base@2@XZ PROC ; std::unique_ptr<std::_Facet_base,std::default_delete<std::_Facet_base> >::release, COMDAT
; _this$ = ecx

; 2675 :     pointer release() noexcept {

	push	ebp
	mov	ebp, esp
	sub	esp, 216				; 000000d8H
	push	ebx
	push	esi
	push	edi
	push	ecx
	lea	edi, DWORD PTR [ebp-216]
	mov	ecx, 54					; 00000036H
	mov	eax, -858993460				; ccccccccH
	rep stosd
	pop	ecx
	mov	DWORD PTR _this$[ebp], ecx
	mov	ecx, OFFSET __18D1DF79_memory
	call	@__CheckForDebuggerJustMyCode@4

; 2676 :         return _STD exchange(_Mypair._Myval2, pointer());

	mov	DWORD PTR $T1[ebp], 0
	lea	eax, DWORD PTR $T1[ebp]
	push	eax
	mov	ecx, DWORD PTR _this$[ebp]
	push	ecx
	call	??$exchange@PAV_Facet_base@std@@PAV12@@std@@YAPAV_Facet_base@0@AAPAV10@$$QAPAV10@@Z ; std::exchange<std::_Facet_base *,std::_Facet_base *>
	add	esp, 8

; 2677 :     }

	pop	edi
	pop	esi
	pop	ebx
	add	esp, 216				; 000000d8H
	cmp	ebp, esp
	call	__RTC_CheckEsp
	mov	esp, ebp
	pop	ebp
	ret	0
?release@?$unique_ptr@V_Facet_base@std@@U?$default_delete@V_Facet_base@std@@@2@@std@@QAEPAV_Facet_base@2@XZ ENDP ; std::unique_ptr<std::_Facet_base,std::default_delete<std::_Facet_base> >::release
_TEXT	ENDS
; Function compile flags: /Odtp /RTCsu /ZI
; File C:\Program Files (x86)\Microsoft Visual Studio\2019\Professional\VC\Tools\MSVC\14.28.29333\include\memory
;	COMDAT ??1?$unique_ptr@V_Facet_base@std@@U?$default_delete@V_Facet_base@std@@@2@@std@@QAE@XZ
_TEXT	SEGMENT
tv75 = -212						; size = 4
tv77 = -208						; size = 4
_this$ = -8						; size = 4
??1?$unique_ptr@V_Facet_base@std@@U?$default_delete@V_Facet_base@std@@@2@@std@@QAE@XZ PROC ; std::unique_ptr<std::_Facet_base,std::default_delete<std::_Facet_base> >::~unique_ptr<std::_Facet_base,std::default_delete<std::_Facet_base> >, COMDAT
; _this$ = ecx

; 2645 :     ~unique_ptr() noexcept {

	push	ebp
	mov	ebp, esp
	sub	esp, 212				; 000000d4H
	push	ebx
	push	esi
	push	edi
	push	ecx
	lea	edi, DWORD PTR [ebp-212]
	mov	ecx, 53					; 00000035H
	mov	eax, -858993460				; ccccccccH
	rep stosd
	pop	ecx
	mov	DWORD PTR _this$[ebp], ecx
	mov	ecx, OFFSET __18D1DF79_memory
	call	@__CheckForDebuggerJustMyCode@4

; 2646 :         if (_Mypair._Myval2) {

	mov	eax, DWORD PTR _this$[ebp]
	cmp	DWORD PTR [eax], 0
	je	SHORT $LN3@unique_ptr

; 2647 :             _Mypair._Get_first()(_Mypair._Myval2);

	mov	ecx, DWORD PTR _this$[ebp]
	call	?_Get_first@?$_Compressed_pair@U?$default_delete@V_Facet_base@std@@@std@@PAV_Facet_base@2@$00@std@@QAEAAU?$default_delete@V_Facet_base@std@@@2@XZ ; std::_Compressed_pair<std::default_delete<std::_Facet_base>,std::_Facet_base *,1>::_Get_first
	mov	DWORD PTR tv77[ebp], eax
	mov	eax, DWORD PTR _this$[ebp]
	mov	ecx, DWORD PTR [eax]
	mov	DWORD PTR tv75[ebp], ecx
	mov	edx, DWORD PTR tv75[ebp]
	push	edx
	mov	ecx, DWORD PTR tv77[ebp]
	call	??R?$default_delete@V_Facet_base@std@@@std@@QBEXPAV_Facet_base@1@@Z ; std::default_delete<std::_Facet_base>::operator()
$LN3@unique_ptr:

; 2648 :         }
; 2649 :     }

	pop	edi
	pop	esi
	pop	ebx
	add	esp, 212				; 000000d4H
	cmp	ebp, esp
	call	__RTC_CheckEsp
	mov	esp, ebp
	pop	ebp
	ret	0
??1?$unique_ptr@V_Facet_base@std@@U?$default_delete@V_Facet_base@std@@@2@@std@@QAE@XZ ENDP ; std::unique_ptr<std::_Facet_base,std::default_delete<std::_Facet_base> >::~unique_ptr<std::_Facet_base,std::default_delete<std::_Facet_base> >
_TEXT	ENDS
; Function compile flags: /Odtp /RTCsu /ZI
; File C:\Program Files (x86)\Microsoft Visual Studio\2019\Professional\VC\Tools\MSVC\14.28.29333\include\memory
;	COMDAT ??R?$default_delete@V_Facet_base@std@@@std@@QBEXPAV_Facet_base@1@@Z
_TEXT	SEGMENT
tv72 = -224						; size = 4
tv71 = -220						; size = 4
$T1 = -212						; size = 4
_this$ = -8						; size = 4
__Ptr$ = 8						; size = 4
??R?$default_delete@V_Facet_base@std@@@std@@QBEXPAV_Facet_base@1@@Z PROC ; std::default_delete<std::_Facet_base>::operator(), COMDAT
; _this$ = ecx

; 2535 :     void operator()(_Ty* _Ptr) const noexcept /* strengthened */ { // delete a pointer

	push	ebp
	mov	ebp, esp
	sub	esp, 224				; 000000e0H
	push	ebx
	push	esi
	push	edi
	push	ecx
	lea	edi, DWORD PTR [ebp-224]
	mov	ecx, 56					; 00000038H
	mov	eax, -858993460				; ccccccccH
	rep stosd
	pop	ecx
	mov	DWORD PTR _this$[ebp], ecx
	mov	ecx, OFFSET __18D1DF79_memory
	call	@__CheckForDebuggerJustMyCode@4

; 2536 :         static_assert(0 < sizeof(_Ty), "can't delete an incomplete type");
; 2537 :         delete _Ptr;

	mov	eax, DWORD PTR __Ptr$[ebp]
	mov	DWORD PTR $T1[ebp], eax
	cmp	DWORD PTR $T1[ebp], 0
	je	SHORT $LN3@operator
	mov	ecx, DWORD PTR $T1[ebp]
	mov	edx, DWORD PTR [ecx]
	mov	eax, DWORD PTR [edx]
	mov	DWORD PTR tv71[ebp], eax
	mov	esi, esp
	push	1
	mov	ecx, DWORD PTR $T1[ebp]
	call	DWORD PTR tv71[ebp]
	cmp	esi, esp
	call	__RTC_CheckEsp
	mov	DWORD PTR tv72[ebp], eax
	jmp	SHORT $LN2@operator
$LN3@operator:
	mov	DWORD PTR tv72[ebp], 0
$LN2@operator:

; 2538 :     }

	pop	edi
	pop	esi
	pop	ebx
	add	esp, 224				; 000000e0H
	cmp	ebp, esp
	call	__RTC_CheckEsp
	mov	esp, ebp
	pop	ebp
	ret	4
??R?$default_delete@V_Facet_base@std@@@std@@QBEXPAV_Facet_base@1@@Z ENDP ; std::default_delete<std::_Facet_base>::operator()
_TEXT	ENDS
; Function compile flags: /Odtp /RTCsu /ZI
; File C:\Program Files (x86)\Microsoft Visual Studio\2019\Professional\VC\Tools\MSVC\14.28.29333\include\type_traits
;	COMDAT ??$forward@PAU_Container_base12@std@@@std@@YA$$QAPAU_Container_base12@0@AAPAU10@@Z
_TEXT	SEGMENT
__Arg$ = 8						; size = 4
??$forward@PAU_Container_base12@std@@@std@@YA$$QAPAU_Container_base12@0@AAPAU10@@Z PROC ; std::forward<std::_Container_base12 *>, COMDAT

; 1442 :     remove_reference_t<_Ty>& _Arg) noexcept { // forward an lvalue as either an lvalue or an rvalue

	push	ebp
	mov	ebp, esp
	sub	esp, 192				; 000000c0H
	push	ebx
	push	esi
	push	edi
	lea	edi, DWORD PTR [ebp-192]
	mov	ecx, 48					; 00000030H
	mov	eax, -858993460				; ccccccccH
	rep stosd
	mov	ecx, OFFSET __77E6CA79_type_traits
	call	@__CheckForDebuggerJustMyCode@4

; 1443 :     return static_cast<_Ty&&>(_Arg);

	mov	eax, DWORD PTR __Arg$[ebp]

; 1444 : }

	pop	edi
	pop	esi
	pop	ebx
	add	esp, 192				; 000000c0H
	cmp	ebp, esp
	call	__RTC_CheckEsp
	mov	esp, ebp
	pop	ebp
	ret	0
??$forward@PAU_Container_base12@std@@@std@@YA$$QAPAU_Container_base12@0@AAPAU10@@Z ENDP ; std::forward<std::_Container_base12 *>
_TEXT	ENDS
; Function compile flags: /Odtp /RTCsu /ZI
; File C:\Program Files (x86)\Microsoft Visual Studio\2019\Professional\VC\Tools\MSVC\14.28.29333\include\xstddef
;	COMDAT ??$addressof@U_Container_proxy@std@@@std@@YAPAU_Container_proxy@0@AAU10@@Z
_TEXT	SEGMENT
__Val$ = 8						; size = 4
??$addressof@U_Container_proxy@std@@@std@@YAPAU_Container_proxy@0@AAU10@@Z PROC ; std::addressof<std::_Container_proxy>, COMDAT

; 274  : _NODISCARD constexpr _Ty* addressof(_Ty& _Val) noexcept {

	push	ebp
	mov	ebp, esp
	sub	esp, 192				; 000000c0H
	push	ebx
	push	esi
	push	edi
	lea	edi, DWORD PTR [ebp-192]
	mov	ecx, 48					; 00000030H
	mov	eax, -858993460				; ccccccccH
	rep stosd
	mov	ecx, OFFSET __29547EA8_xstddef
	call	@__CheckForDebuggerJustMyCode@4

; 275  :     return __builtin_addressof(_Val);

	mov	eax, DWORD PTR __Val$[ebp]

; 276  : }

	pop	edi
	pop	esi
	pop	ebx
	add	esp, 192				; 000000c0H
	cmp	ebp, esp
	call	__RTC_CheckEsp
	mov	esp, ebp
	pop	ebp
	ret	0
??$addressof@U_Container_proxy@std@@@std@@YAPAU_Container_proxy@0@AAU10@@Z ENDP ; std::addressof<std::_Container_proxy>
_TEXT	ENDS
; Function compile flags: /Odtp /RTCsu /ZI
; File C:\Program Files (x86)\Microsoft Visual Studio\2019\Professional\VC\Tools\MSVC\14.28.29333\include\xmemory
;	COMDAT ??$_Get_size_of_n@$00@std@@YAII@Z
_TEXT	SEGMENT
__Overflow_is_possible$ = -5				; size = 1
__Count$ = 8						; size = 4
??$_Get_size_of_n@$00@std@@YAII@Z PROC			; std::_Get_size_of_n<1>, COMDAT

; 55   : _NODISCARD constexpr size_t _Get_size_of_n(const size_t _Count) {

	push	ebp
	mov	ebp, esp
	sub	esp, 204				; 000000ccH
	push	ebx
	push	esi
	push	edi
	lea	edi, DWORD PTR [ebp-204]
	mov	ecx, 51					; 00000033H
	mov	eax, -858993460				; ccccccccH
	rep stosd
	mov	ecx, OFFSET __B4DE8A79_xmemory
	call	@__CheckForDebuggerJustMyCode@4

; 56   :     constexpr bool _Overflow_is_possible = _Ty_size > 1;

	mov	BYTE PTR __Overflow_is_possible$[ebp], 0

; 57   : 
; 58   :     if _CONSTEXPR_IF (_Overflow_is_possible) {
; 59   :         constexpr size_t _Max_possible = static_cast<size_t>(-1) / _Ty_size;
; 60   :         if (_Count > _Max_possible) {
; 61   :             _Throw_bad_array_new_length(); // multiply overflow
; 62   :         }
; 63   :     }
; 64   : 
; 65   :     return _Count * _Ty_size;

	mov	eax, DWORD PTR __Count$[ebp]

; 66   : }

	pop	edi
	pop	esi
	pop	ebx
	add	esp, 204				; 000000ccH
	cmp	ebp, esp
	call	__RTC_CheckEsp
	mov	esp, ebp
	pop	ebp
	ret	0
??$_Get_size_of_n@$00@std@@YAII@Z ENDP			; std::_Get_size_of_n<1>
_TEXT	ENDS
; Function compile flags: /Odtp /RTCsu /ZI
; File C:\Program Files (x86)\Microsoft Visual Studio\2019\Professional\VC\Tools\MSVC\14.28.29333\include\xstddef
;	COMDAT ??$addressof@$$CBV?$_String_val@U?$_Simple_types@D@std@@@std@@@std@@YAPBV?$_String_val@U?$_Simple_types@D@std@@@0@ABV10@@Z
_TEXT	SEGMENT
__Val$ = 8						; size = 4
??$addressof@$$CBV?$_String_val@U?$_Simple_types@D@std@@@std@@@std@@YAPBV?$_String_val@U?$_Simple_types@D@std@@@0@ABV10@@Z PROC ; std::addressof<std::_String_val<std::_Simple_types<char> > const >, COMDAT

; 274  : _NODISCARD constexpr _Ty* addressof(_Ty& _Val) noexcept {

	push	ebp
	mov	ebp, esp
	sub	esp, 192				; 000000c0H
	push	ebx
	push	esi
	push	edi
	lea	edi, DWORD PTR [ebp-192]
	mov	ecx, 48					; 00000030H
	mov	eax, -858993460				; ccccccccH
	rep stosd
	mov	ecx, OFFSET __29547EA8_xstddef
	call	@__CheckForDebuggerJustMyCode@4

; 275  :     return __builtin_addressof(_Val);

	mov	eax, DWORD PTR __Val$[ebp]

; 276  : }

	pop	edi
	pop	esi
	pop	ebx
	add	esp, 192				; 000000c0H
	cmp	ebp, esp
	call	__RTC_CheckEsp
	mov	esp, ebp
	pop	ebp
	ret	0
??$addressof@$$CBV?$_String_val@U?$_Simple_types@D@std@@@std@@@std@@YAPBV?$_String_val@U?$_Simple_types@D@std@@@0@ABV10@@Z ENDP ; std::addressof<std::_String_val<std::_Simple_types<char> > const >
_TEXT	ENDS
; Function compile flags: /Odtp /RTCsu /ZI
; File C:\Program Files (x86)\Microsoft Visual Studio\2019\Professional\VC\Tools\MSVC\14.28.29333\include\xmemory
;	COMDAT ??$_Get_size_of_n@$01@std@@YAII@Z
_TEXT	SEGMENT
__Max_possible$1 = -20					; size = 4
__Overflow_is_possible$ = -5				; size = 1
__Count$ = 8						; size = 4
??$_Get_size_of_n@$01@std@@YAII@Z PROC			; std::_Get_size_of_n<2>, COMDAT

; 55   : _NODISCARD constexpr size_t _Get_size_of_n(const size_t _Count) {

	push	ebp
	mov	ebp, esp
	sub	esp, 216				; 000000d8H
	push	ebx
	push	esi
	push	edi
	lea	edi, DWORD PTR [ebp-216]
	mov	ecx, 54					; 00000036H
	mov	eax, -858993460				; ccccccccH
	rep stosd
	mov	ecx, OFFSET __B4DE8A79_xmemory
	call	@__CheckForDebuggerJustMyCode@4

; 56   :     constexpr bool _Overflow_is_possible = _Ty_size > 1;

	mov	BYTE PTR __Overflow_is_possible$[ebp], 1

; 57   : 
; 58   :     if _CONSTEXPR_IF (_Overflow_is_possible) {
; 59   :         constexpr size_t _Max_possible = static_cast<size_t>(-1) / _Ty_size;

	mov	DWORD PTR __Max_possible$1[ebp], 2147483647 ; 7fffffffH

; 60   :         if (_Count > _Max_possible) {

	cmp	DWORD PTR __Count$[ebp], 2147483647	; 7fffffffH
	jbe	SHORT $LN2@Get_size_o

; 61   :             _Throw_bad_array_new_length(); // multiply overflow

	call	?_Throw_bad_array_new_length@std@@YAXXZ	; std::_Throw_bad_array_new_length
$LN2@Get_size_o:

; 62   :         }
; 63   :     }
; 64   : 
; 65   :     return _Count * _Ty_size;

	mov	eax, DWORD PTR __Count$[ebp]
	shl	eax, 1
$LN3@Get_size_o:

; 66   : }

	pop	edi
	pop	esi
	pop	ebx
	add	esp, 216				; 000000d8H
	cmp	ebp, esp
	call	__RTC_CheckEsp
	mov	esp, ebp
	pop	ebp
	ret	0
??$_Get_size_of_n@$01@std@@YAII@Z ENDP			; std::_Get_size_of_n<2>
_TEXT	ENDS
; Function compile flags: /Odtp /RTCsu /ZI
; File C:\Program Files (x86)\Microsoft Visual Studio\2019\Professional\VC\Tools\MSVC\14.28.29333\include\xmemory
;	COMDAT ??$_Deallocate@$07$0A@@std@@YAXPAXI@Z
_TEXT	SEGMENT
__$EHRec$ = -12						; size = 12
__Ptr$ = 8						; size = 4
__Bytes$ = 12						; size = 4
??$_Deallocate@$07$0A@@std@@YAXPAXI@Z PROC		; std::_Deallocate<8,0>, COMDAT

; 213  : void _Deallocate(void* _Ptr, size_t _Bytes) noexcept {

	push	ebp
	mov	ebp, esp
	push	-1
	push	__ehhandler$??$_Deallocate@$07$0A@@std@@YAXPAXI@Z
	mov	eax, DWORD PTR fs:0
	push	eax
	sub	esp, 192				; 000000c0H
	push	ebx
	push	esi
	push	edi
	lea	edi, DWORD PTR [ebp-204]
	mov	ecx, 48					; 00000030H
	mov	eax, -858993460				; ccccccccH
	rep stosd
	mov	eax, DWORD PTR ___security_cookie
	xor	eax, ebp
	push	eax
	lea	eax, DWORD PTR __$EHRec$[ebp]
	mov	DWORD PTR fs:0, eax
	mov	ecx, OFFSET __B4DE8A79_xmemory
	call	@__CheckForDebuggerJustMyCode@4

; 214  :     // deallocate storage allocated by _Allocate when !_HAS_ALIGNED_NEW || _Align <= __STDCPP_DEFAULT_NEW_ALIGNMENT__
; 215  : #if defined(_M_IX86) || defined(_M_X64)
; 216  :     if (_Bytes >= _Big_allocation_threshold) { // boost the alignment of big allocations to help autovectorization

	cmp	DWORD PTR __Bytes$[ebp], 4096		; 00001000H
	jb	SHORT $LN2@Deallocate

; 217  :         _Adjust_manually_vector_aligned(_Ptr, _Bytes);

	lea	eax, DWORD PTR __Bytes$[ebp]
	push	eax
	lea	ecx, DWORD PTR __Ptr$[ebp]
	push	ecx
	call	?_Adjust_manually_vector_aligned@std@@YAXAAPAXAAI@Z ; std::_Adjust_manually_vector_aligned
	add	esp, 8
$LN2@Deallocate:

; 218  :     }
; 219  : #endif // defined(_M_IX86) || defined(_M_X64)
; 220  : 
; 221  :     ::operator delete(_Ptr, _Bytes);

	mov	eax, DWORD PTR __Bytes$[ebp]
	push	eax
	mov	ecx, DWORD PTR __Ptr$[ebp]
	push	ecx
	call	??3@YAXPAXI@Z				; operator delete
	add	esp, 8

; 222  : }

	mov	ecx, DWORD PTR __$EHRec$[ebp]
	mov	DWORD PTR fs:0, ecx
	pop	ecx
	pop	edi
	pop	esi
	pop	ebx
	add	esp, 204				; 000000ccH
	cmp	ebp, esp
	call	__RTC_CheckEsp
	mov	esp, ebp
	pop	ebp
	ret	0
	int	3
	int	3
	int	3
	int	3
	int	3
_TEXT	ENDS
;	COMDAT text$x
text$x	SEGMENT
__ehhandler$??$_Deallocate@$07$0A@@std@@YAXPAXI@Z:
	npad	1
	npad	1
	mov	edx, DWORD PTR [esp+8]
	lea	eax, DWORD PTR [edx+12]
	mov	ecx, DWORD PTR [edx-208]
	xor	ecx, eax
	call	@__security_check_cookie@4
	mov	eax, OFFSET __ehfuncinfo$??$_Deallocate@$07$0A@@std@@YAXPAXI@Z
	jmp	___CxxFrameHandler3
text$x	ENDS
??$_Deallocate@$07$0A@@std@@YAXPAXI@Z ENDP		; std::_Deallocate<8,0>
; Function compile flags: /Odtp /RTCsu /ZI
; File C:\Program Files (x86)\Microsoft Visual Studio\2019\Professional\VC\Tools\MSVC\14.28.29333\include\xmemory
;	COMDAT ??$_Allocate@$07U_Default_allocate_traits@std@@$0A@@std@@YAPAXI@Z
_TEXT	SEGMENT
__Bytes$ = 8						; size = 4
??$_Allocate@$07U_Default_allocate_traits@std@@$0A@@std@@YAPAXI@Z PROC ; std::_Allocate<8,std::_Default_allocate_traits,0>, COMDAT

; 197  : __declspec(allocator) void* _Allocate(const size_t _Bytes) {

	push	ebp
	mov	ebp, esp
	sub	esp, 192				; 000000c0H
	push	ebx
	push	esi
	push	edi
	lea	edi, DWORD PTR [ebp-192]
	mov	ecx, 48					; 00000030H
	mov	eax, -858993460				; ccccccccH
	rep stosd
	mov	ecx, OFFSET __B4DE8A79_xmemory
	call	@__CheckForDebuggerJustMyCode@4

; 198  :     // allocate _Bytes when !_HAS_ALIGNED_NEW || _Align <= __STDCPP_DEFAULT_NEW_ALIGNMENT__
; 199  : #if defined(_M_IX86) || defined(_M_X64)
; 200  :     if (_Bytes >= _Big_allocation_threshold) { // boost the alignment of big allocations to help autovectorization

	cmp	DWORD PTR __Bytes$[ebp], 4096		; 00001000H
	jb	SHORT $LN2@Allocate

; 201  :         return _Allocate_manually_vector_aligned<_Traits>(_Bytes);

	mov	eax, DWORD PTR __Bytes$[ebp]
	push	eax
	call	??$_Allocate_manually_vector_aligned@U_Default_allocate_traits@std@@@std@@YAPAXI@Z ; std::_Allocate_manually_vector_aligned<std::_Default_allocate_traits>
	add	esp, 4
	jmp	SHORT $LN1@Allocate
$LN2@Allocate:

; 202  :     }
; 203  : #endif // defined(_M_IX86) || defined(_M_X64)
; 204  : 
; 205  :     if (_Bytes != 0) {

	cmp	DWORD PTR __Bytes$[ebp], 0
	je	SHORT $LN3@Allocate

; 206  :         return _Traits::_Allocate(_Bytes);

	mov	eax, DWORD PTR __Bytes$[ebp]
	push	eax
	call	?_Allocate@_Default_allocate_traits@std@@SAPAXI@Z ; std::_Default_allocate_traits::_Allocate
	add	esp, 4
	jmp	SHORT $LN1@Allocate
$LN3@Allocate:

; 207  :     }
; 208  : 
; 209  :     return nullptr;

	xor	eax, eax
$LN1@Allocate:

; 210  : }

	pop	edi
	pop	esi
	pop	ebx
	add	esp, 192				; 000000c0H
	cmp	ebp, esp
	call	__RTC_CheckEsp
	mov	esp, ebp
	pop	ebp
	ret	0
??$_Allocate@$07U_Default_allocate_traits@std@@$0A@@std@@YAPAXI@Z ENDP ; std::_Allocate<8,std::_Default_allocate_traits,0>
_TEXT	ENDS
; Function compile flags: /Odtp /RTCsu /ZI
; File C:\Program Files (x86)\Microsoft Visual Studio\2019\Professional\VC\Tools\MSVC\14.28.29333\include\xmemory
;	COMDAT ??$_Get_size_of_n@$07@std@@YAII@Z
_TEXT	SEGMENT
__Max_possible$1 = -20					; size = 4
__Overflow_is_possible$ = -5				; size = 1
__Count$ = 8						; size = 4
??$_Get_size_of_n@$07@std@@YAII@Z PROC			; std::_Get_size_of_n<8>, COMDAT

; 55   : _NODISCARD constexpr size_t _Get_size_of_n(const size_t _Count) {

	push	ebp
	mov	ebp, esp
	sub	esp, 216				; 000000d8H
	push	ebx
	push	esi
	push	edi
	lea	edi, DWORD PTR [ebp-216]
	mov	ecx, 54					; 00000036H
	mov	eax, -858993460				; ccccccccH
	rep stosd
	mov	ecx, OFFSET __B4DE8A79_xmemory
	call	@__CheckForDebuggerJustMyCode@4

; 56   :     constexpr bool _Overflow_is_possible = _Ty_size > 1;

	mov	BYTE PTR __Overflow_is_possible$[ebp], 1

; 57   : 
; 58   :     if _CONSTEXPR_IF (_Overflow_is_possible) {
; 59   :         constexpr size_t _Max_possible = static_cast<size_t>(-1) / _Ty_size;

	mov	DWORD PTR __Max_possible$1[ebp], 536870911 ; 1fffffffH

; 60   :         if (_Count > _Max_possible) {

	cmp	DWORD PTR __Count$[ebp], 536870911	; 1fffffffH
	jbe	SHORT $LN2@Get_size_o

; 61   :             _Throw_bad_array_new_length(); // multiply overflow

	call	?_Throw_bad_array_new_length@std@@YAXXZ	; std::_Throw_bad_array_new_length
$LN2@Get_size_o:

; 62   :         }
; 63   :     }
; 64   : 
; 65   :     return _Count * _Ty_size;

	mov	eax, DWORD PTR __Count$[ebp]
	shl	eax, 3
$LN3@Get_size_o:

; 66   : }

	pop	edi
	pop	esi
	pop	ebx
	add	esp, 216				; 000000d8H
	cmp	ebp, esp
	call	__RTC_CheckEsp
	mov	esp, ebp
	pop	ebp
	ret	0
??$_Get_size_of_n@$07@std@@YAII@Z ENDP			; std::_Get_size_of_n<8>
_TEXT	ENDS
; Function compile flags: /Odtp /RTCsu /ZI
; File C:\Program Files (x86)\Microsoft Visual Studio\2019\Professional\VC\Tools\MSVC\14.28.29333\include\xmemory
;	COMDAT ??$_Construct_in_place@PADABQAD@std@@YAXAAPADABQAD@Z
_TEXT	SEGMENT
$T1 = -200						; size = 4
__Obj$ = 8						; size = 4
_<_Args_0>$ = 12					; size = 4
??$_Construct_in_place@PADABQAD@std@@YAXAAPADABQAD@Z PROC ; std::_Construct_in_place<char *,char * const &>, COMDAT

; 228  : void _Construct_in_place(_Ty& _Obj, _Types&&... _Args) noexcept(is_nothrow_constructible_v<_Ty, _Types...>) {

	push	ebp
	mov	ebp, esp
	sub	esp, 204				; 000000ccH
	push	ebx
	push	esi
	push	edi
	lea	edi, DWORD PTR [ebp-204]
	mov	ecx, 51					; 00000033H
	mov	eax, -858993460				; ccccccccH
	rep stosd
	mov	ecx, OFFSET __B4DE8A79_xmemory
	call	@__CheckForDebuggerJustMyCode@4
	mov	eax, DWORD PTR __Obj$[ebp]
	push	eax
	call	??$addressof@PAD@std@@YAPAPADAAPAD@Z	; std::addressof<char *>
	add	esp, 4
	push	eax
	push	4
	call	??2@YAPAXIPAX@Z				; operator new
	add	esp, 8
	mov	DWORD PTR $T1[ebp], eax
	mov	ecx, DWORD PTR _<_Args_0>$[ebp]
	push	ecx
	call	??$forward@ABQAD@std@@YAABQADABQAD@Z	; std::forward<char * const &>
	add	esp, 4
	mov	edx, DWORD PTR $T1[ebp]
	mov	eax, DWORD PTR [eax]
	mov	DWORD PTR [edx], eax

; 229  :     ::new (const_cast<void*>(static_cast<const volatile void*>(_STD addressof(_Obj))))
; 230  :         _Ty(_STD forward<_Types>(_Args)...);
; 231  : }

	pop	edi
	pop	esi
	pop	ebx
	add	esp, 204				; 000000ccH
	cmp	ebp, esp
	call	__RTC_CheckEsp
	mov	esp, ebp
	pop	ebp
	ret	0
??$_Construct_in_place@PADABQAD@std@@YAXAAPADABQAD@Z ENDP ; std::_Construct_in_place<char *,char * const &>
_TEXT	ENDS
; Function compile flags: /Odtp /RTCsu /ZI
; File C:\Program Files (x86)\Microsoft Visual Studio\2019\Professional\VC\Tools\MSVC\14.28.29333\include\xstring
;	COMDAT ??$_Reallocate_grow_by@V<lambda_ab246b20b9526e2ef7792587e4298a77>@@PBDI@?$basic_string@DU?$char_traits@D@std@@V?$allocator@D@2@@std@@AAEAAV01@IV<lambda_ab246b20b9526e2ef7792587e4298a77>@@PBDI@Z
_TEXT	SEGMENT
__Old_ptr$1 = -120					; size = 4
__Raw_new$ = -108					; size = 4
__New_ptr$ = -96					; size = 4
__Al$ = -84						; size = 4
__New_capacity$ = -72					; size = 4
__Old_capacity$ = -60					; size = 4
__New_size$ = -48					; size = 4
__Old_size$ = -36					; size = 4
__My_data$ = -24					; size = 4
_this$ = -12						; size = 4
__$ArrayPad$ = -4					; size = 4
__Size_increase$ = 8					; size = 4
__Fn$ = 12						; size = 1
_<_Args_0>$ = 16					; size = 4
_<_Args_1>$ = 20					; size = 4
??$_Reallocate_grow_by@V<lambda_ab246b20b9526e2ef7792587e4298a77>@@PBDI@?$basic_string@DU?$char_traits@D@std@@V?$allocator@D@2@@std@@AAEAAV01@IV<lambda_ab246b20b9526e2ef7792587e4298a77>@@PBDI@Z PROC ; std::basic_string<char,std::char_traits<char>,std::allocator<char> >::_Reallocate_grow_by<<lambda_ab246b20b9526e2ef7792587e4298a77>,char const *,unsigned int>, COMDAT
; _this$ = ecx

; 4328 :     basic_string& _Reallocate_grow_by(const size_type _Size_increase, _Fty _Fn, _ArgTys... _Args) {

	push	ebp
	mov	ebp, esp
	sub	esp, 316				; 0000013cH
	push	ebx
	push	esi
	push	edi
	push	ecx
	lea	edi, DWORD PTR [ebp-316]
	mov	ecx, 79					; 0000004fH
	mov	eax, -858993460				; ccccccccH
	rep stosd
	pop	ecx
	mov	eax, DWORD PTR ___security_cookie
	xor	eax, ebp
	mov	DWORD PTR __$ArrayPad$[ebp], eax
	mov	DWORD PTR _this$[ebp], ecx
	mov	ecx, OFFSET __C00D0CE5_xstring
	call	@__CheckForDebuggerJustMyCode@4

; 4329 :         // reallocate to increase size by _Size_increase elements, new buffer prepared by
; 4330 :         // _Fn(_New_ptr, _Old_ptr, _Old_size, _Args...)
; 4331 :         auto& _My_data            = _Mypair._Myval2;

	mov	eax, DWORD PTR _this$[ebp]
	mov	DWORD PTR __My_data$[ebp], eax

; 4332 :         const size_type _Old_size = _My_data._Mysize;

	mov	eax, DWORD PTR __My_data$[ebp]
	mov	ecx, DWORD PTR [eax+20]
	mov	DWORD PTR __Old_size$[ebp], ecx

; 4333 :         if (max_size() - _Old_size < _Size_increase) {

	mov	ecx, DWORD PTR _this$[ebp]
	call	?max_size@?$basic_string@DU?$char_traits@D@std@@V?$allocator@D@2@@std@@QBEIXZ ; std::basic_string<char,std::char_traits<char>,std::allocator<char> >::max_size
	sub	eax, DWORD PTR __Old_size$[ebp]
	cmp	eax, DWORD PTR __Size_increase$[ebp]
	jae	SHORT $LN2@Reallocate

; 4334 :             _Xlen_string(); // result too long

	call	?_Xlen_string@std@@YAXXZ		; std::_Xlen_string
$LN2@Reallocate:

; 4335 :         }
; 4336 : 
; 4337 :         const size_type _New_size     = _Old_size + _Size_increase;

	mov	eax, DWORD PTR __Old_size$[ebp]
	add	eax, DWORD PTR __Size_increase$[ebp]
	mov	DWORD PTR __New_size$[ebp], eax

; 4338 :         const size_type _Old_capacity = _My_data._Myres;

	mov	eax, DWORD PTR __My_data$[ebp]
	mov	ecx, DWORD PTR [eax+24]
	mov	DWORD PTR __Old_capacity$[ebp], ecx

; 4339 :         const size_type _New_capacity = _Calculate_growth(_New_size);

	mov	eax, DWORD PTR __New_size$[ebp]
	push	eax
	mov	ecx, DWORD PTR _this$[ebp]
	call	?_Calculate_growth@?$basic_string@DU?$char_traits@D@std@@V?$allocator@D@2@@std@@ABEII@Z ; std::basic_string<char,std::char_traits<char>,std::allocator<char> >::_Calculate_growth
	mov	DWORD PTR __New_capacity$[ebp], eax

; 4340 :         auto& _Al                     = _Getal();

	mov	ecx, DWORD PTR _this$[ebp]
	call	?_Getal@?$basic_string@DU?$char_traits@D@std@@V?$allocator@D@2@@std@@AAEAAV?$allocator@D@2@XZ ; std::basic_string<char,std::char_traits<char>,std::allocator<char> >::_Getal
	mov	DWORD PTR __Al$[ebp], eax

; 4341 :         const pointer _New_ptr        = _Al.allocate(_New_capacity + 1); // throws

	xor	eax, eax
	mov	ecx, DWORD PTR __New_capacity$[ebp]
	add	ecx, 1
	setb	al
	neg	eax
	or	eax, ecx
	push	eax
	mov	ecx, DWORD PTR __Al$[ebp]
	call	?allocate@?$allocator@D@std@@QAEPADI@Z	; std::allocator<char>::allocate
	mov	DWORD PTR __New_ptr$[ebp], eax

; 4342 :         _My_data._Orphan_all();

	mov	ecx, DWORD PTR __My_data$[ebp]
	call	?_Orphan_all@_Container_base12@std@@QAEXXZ ; std::_Container_base12::_Orphan_all

; 4343 :         _My_data._Mysize      = _New_size;

	mov	eax, DWORD PTR __My_data$[ebp]
	mov	ecx, DWORD PTR __New_size$[ebp]
	mov	DWORD PTR [eax+20], ecx

; 4344 :         _My_data._Myres       = _New_capacity;

	mov	eax, DWORD PTR __My_data$[ebp]
	mov	ecx, DWORD PTR __New_capacity$[ebp]
	mov	DWORD PTR [eax+24], ecx

; 4345 :         _Elem* const _Raw_new = _Unfancy(_New_ptr);

	mov	eax, DWORD PTR __New_ptr$[ebp]
	push	eax
	call	??$_Unfancy@D@std@@YAPADPAD@Z		; std::_Unfancy<char>
	add	esp, 4
	mov	DWORD PTR __Raw_new$[ebp], eax

; 4346 :         if (_BUF_SIZE <= _Old_capacity) {

	cmp	DWORD PTR __Old_capacity$[ebp], 16	; 00000010H
	jb	SHORT $LN3@Reallocate

; 4347 :             const pointer _Old_ptr = _My_data._Bx._Ptr;

	mov	eax, DWORD PTR __My_data$[ebp]
	mov	ecx, DWORD PTR [eax+4]
	mov	DWORD PTR __Old_ptr$1[ebp], ecx

; 4348 :             _Fn(_Raw_new, _Unfancy(_Old_ptr), _Old_size, _Args...);

	mov	eax, DWORD PTR _<_Args_1>$[ebp]
	push	eax
	mov	ecx, DWORD PTR _<_Args_0>$[ebp]
	push	ecx
	mov	edx, DWORD PTR __Old_size$[ebp]
	push	edx
	mov	eax, DWORD PTR __Old_ptr$1[ebp]
	push	eax
	call	??$_Unfancy@D@std@@YAPADPAD@Z		; std::_Unfancy<char>
	add	esp, 4
	push	eax
	mov	ecx, DWORD PTR __Raw_new$[ebp]
	push	ecx
	lea	ecx, DWORD PTR __Fn$[ebp]
	call	??R<lambda_ab246b20b9526e2ef7792587e4298a77>@@QBEXQADQBDI1I@Z ; <lambda_ab246b20b9526e2ef7792587e4298a77>::operator()

; 4349 :             _Al.deallocate(_Old_ptr, _Old_capacity + 1);

	mov	eax, DWORD PTR __Old_capacity$[ebp]
	add	eax, 1
	push	eax
	mov	ecx, DWORD PTR __Old_ptr$1[ebp]
	push	ecx
	mov	ecx, DWORD PTR __Al$[ebp]
	call	?deallocate@?$allocator@D@std@@QAEXQADI@Z ; std::allocator<char>::deallocate

; 4350 :             _My_data._Bx._Ptr = _New_ptr;

	mov	eax, DWORD PTR __My_data$[ebp]
	mov	ecx, DWORD PTR __New_ptr$[ebp]
	mov	DWORD PTR [eax+4], ecx

; 4351 :         } else {

	jmp	SHORT $LN4@Reallocate
$LN3@Reallocate:

; 4352 :             _Fn(_Raw_new, _My_data._Bx._Buf, _Old_size, _Args...);

	mov	eax, DWORD PTR _<_Args_1>$[ebp]
	push	eax
	mov	ecx, DWORD PTR _<_Args_0>$[ebp]
	push	ecx
	mov	edx, DWORD PTR __Old_size$[ebp]
	push	edx
	mov	eax, DWORD PTR __My_data$[ebp]
	add	eax, 4
	push	eax
	mov	ecx, DWORD PTR __Raw_new$[ebp]
	push	ecx
	lea	ecx, DWORD PTR __Fn$[ebp]
	call	??R<lambda_ab246b20b9526e2ef7792587e4298a77>@@QBEXQADQBDI1I@Z ; <lambda_ab246b20b9526e2ef7792587e4298a77>::operator()

; 4353 :             _Construct_in_place(_My_data._Bx._Ptr, _New_ptr);

	lea	eax, DWORD PTR __New_ptr$[ebp]
	push	eax
	mov	ecx, DWORD PTR __My_data$[ebp]
	add	ecx, 4
	push	ecx
	call	??$_Construct_in_place@PADABQAD@std@@YAXAAPADABQAD@Z ; std::_Construct_in_place<char *,char * const &>
	add	esp, 8
$LN4@Reallocate:

; 4354 :         }
; 4355 : 
; 4356 :         return *this;

	mov	eax, DWORD PTR _this$[ebp]
$LN5@Reallocate:

; 4357 :     }

	push	edx
	mov	ecx, ebp
	push	eax
	lea	edx, DWORD PTR $LN8@Reallocate
	call	@_RTC_CheckStackVars@8
	pop	eax
	pop	edx
	pop	edi
	pop	esi
	pop	ebx
	mov	ecx, DWORD PTR __$ArrayPad$[ebp]
	xor	ecx, ebp
	call	@__security_check_cookie@4
	add	esp, 316				; 0000013cH
	cmp	ebp, esp
	call	__RTC_CheckEsp
	mov	esp, ebp
	pop	ebp
	ret	16					; 00000010H
	npad	1
$LN8@Reallocate:
	DD	1
	DD	$LN7@Reallocate
$LN7@Reallocate:
	DD	-96					; ffffffa0H
	DD	4
	DD	$LN6@Reallocate
$LN6@Reallocate:
	DB	95					; 0000005fH
	DB	78					; 0000004eH
	DB	101					; 00000065H
	DB	119					; 00000077H
	DB	95					; 0000005fH
	DB	112					; 00000070H
	DB	116					; 00000074H
	DB	114					; 00000072H
	DB	0
??$_Reallocate_grow_by@V<lambda_ab246b20b9526e2ef7792587e4298a77>@@PBDI@?$basic_string@DU?$char_traits@D@std@@V?$allocator@D@2@@std@@AAEAAV01@IV<lambda_ab246b20b9526e2ef7792587e4298a77>@@PBDI@Z ENDP ; std::basic_string<char,std::char_traits<char>,std::allocator<char> >::_Reallocate_grow_by<<lambda_ab246b20b9526e2ef7792587e4298a77>,char const *,unsigned int>
_TEXT	ENDS
; Function compile flags: /Odtp /RTCsu /ZI
; File C:\Program Files (x86)\Microsoft Visual Studio\2019\Professional\VC\Tools\MSVC\14.28.29333\include\xstring
;	COMDAT ??R<lambda_ab246b20b9526e2ef7792587e4298a77>@@QBEXQADQBDI1I@Z
_TEXT	SEGMENT
$T1 = -209						; size = 1
_this$ = -8						; size = 4
__New_ptr$ = 8						; size = 4
__Old_ptr$ = 12						; size = 4
__Old_size$ = 16					; size = 4
__Ptr$ = 20						; size = 4
__Count$ = 24						; size = 4
??R<lambda_ab246b20b9526e2ef7792587e4298a77>@@QBEXQADQBDI1I@Z PROC ; <lambda_ab246b20b9526e2ef7792587e4298a77>::operator(), COMDAT
; _this$ = ecx

; 2949 :                 const size_type _Count) {

	push	ebp
	mov	ebp, esp
	sub	esp, 216				; 000000d8H
	push	ebx
	push	esi
	push	edi
	push	ecx
	lea	edi, DWORD PTR [ebp-216]
	mov	ecx, 54					; 00000036H
	mov	eax, -858993460				; ccccccccH
	rep stosd
	pop	ecx
	mov	DWORD PTR _this$[ebp], ecx
	mov	ecx, OFFSET __C00D0CE5_xstring
	call	@__CheckForDebuggerJustMyCode@4

; 2950 :                 _Traits::copy(_New_ptr, _Old_ptr, _Old_size);

	mov	eax, DWORD PTR __Old_size$[ebp]
	push	eax
	mov	ecx, DWORD PTR __Old_ptr$[ebp]
	push	ecx
	mov	edx, DWORD PTR __New_ptr$[ebp]
	push	edx
	call	?copy@?$_Char_traits@DH@std@@SAPADQADQBDI@Z ; std::_Char_traits<char,int>::copy
	add	esp, 12					; 0000000cH

; 2951 :                 _Traits::copy(_New_ptr + _Old_size, _Ptr, _Count);

	mov	eax, DWORD PTR __Count$[ebp]
	push	eax
	mov	ecx, DWORD PTR __Ptr$[ebp]
	push	ecx
	mov	edx, DWORD PTR __New_ptr$[ebp]
	add	edx, DWORD PTR __Old_size$[ebp]
	push	edx
	call	?copy@?$_Char_traits@DH@std@@SAPADQADQBDI@Z ; std::_Char_traits<char,int>::copy
	add	esp, 12					; 0000000cH

; 2952 :                 _Traits::assign(_New_ptr[_Old_size + _Count], _Elem());

	mov	BYTE PTR $T1[ebp], 0
	lea	eax, DWORD PTR $T1[ebp]
	push	eax
	mov	ecx, DWORD PTR __Old_size$[ebp]
	add	ecx, DWORD PTR __Count$[ebp]
	add	ecx, DWORD PTR __New_ptr$[ebp]
	push	ecx
	call	?assign@?$_Narrow_char_traits@DH@std@@SAXAADABD@Z ; std::_Narrow_char_traits<char,int>::assign
	add	esp, 8

; 2953 :             },

	pop	edi
	pop	esi
	pop	ebx
	add	esp, 216				; 000000d8H
	cmp	ebp, esp
	call	__RTC_CheckEsp
	mov	esp, ebp
	pop	ebp
	ret	20					; 00000014H
??R<lambda_ab246b20b9526e2ef7792587e4298a77>@@QBEXQADQBDI1I@Z ENDP ; <lambda_ab246b20b9526e2ef7792587e4298a77>::operator()
_TEXT	ENDS
; Function compile flags: /Odtp /RTCsu /ZI
; File C:\Program Files (x86)\Microsoft Visual Studio\2019\Professional\VC\Tools\MSVC\14.28.29333\include\xstring
;	COMDAT ??$_Reallocate_grow_by@V<lambda_c1b8c41cb4019640539cfd828748c4d4>@@ID@?$basic_string@DU?$char_traits@D@std@@V?$allocator@D@2@@std@@AAEAAV01@IV<lambda_c1b8c41cb4019640539cfd828748c4d4>@@ID@Z
_TEXT	SEGMENT
__Old_ptr$1 = -120					; size = 4
__Raw_new$ = -108					; size = 4
__New_ptr$ = -96					; size = 4
__Al$ = -84						; size = 4
__New_capacity$ = -72					; size = 4
__Old_capacity$ = -60					; size = 4
__New_size$ = -48					; size = 4
__Old_size$ = -36					; size = 4
__My_data$ = -24					; size = 4
_this$ = -12						; size = 4
__$ArrayPad$ = -4					; size = 4
__Size_increase$ = 8					; size = 4
__Fn$ = 12						; size = 1
_<_Args_0>$ = 16					; size = 4
_<_Args_1>$ = 20					; size = 1
??$_Reallocate_grow_by@V<lambda_c1b8c41cb4019640539cfd828748c4d4>@@ID@?$basic_string@DU?$char_traits@D@std@@V?$allocator@D@2@@std@@AAEAAV01@IV<lambda_c1b8c41cb4019640539cfd828748c4d4>@@ID@Z PROC ; std::basic_string<char,std::char_traits<char>,std::allocator<char> >::_Reallocate_grow_by<<lambda_c1b8c41cb4019640539cfd828748c4d4>,unsigned int,char>, COMDAT
; _this$ = ecx

; 4328 :     basic_string& _Reallocate_grow_by(const size_type _Size_increase, _Fty _Fn, _ArgTys... _Args) {

	push	ebp
	mov	ebp, esp
	sub	esp, 316				; 0000013cH
	push	ebx
	push	esi
	push	edi
	push	ecx
	lea	edi, DWORD PTR [ebp-316]
	mov	ecx, 79					; 0000004fH
	mov	eax, -858993460				; ccccccccH
	rep stosd
	pop	ecx
	mov	eax, DWORD PTR ___security_cookie
	xor	eax, ebp
	mov	DWORD PTR __$ArrayPad$[ebp], eax
	mov	DWORD PTR _this$[ebp], ecx
	mov	ecx, OFFSET __C00D0CE5_xstring
	call	@__CheckForDebuggerJustMyCode@4

; 4329 :         // reallocate to increase size by _Size_increase elements, new buffer prepared by
; 4330 :         // _Fn(_New_ptr, _Old_ptr, _Old_size, _Args...)
; 4331 :         auto& _My_data            = _Mypair._Myval2;

	mov	eax, DWORD PTR _this$[ebp]
	mov	DWORD PTR __My_data$[ebp], eax

; 4332 :         const size_type _Old_size = _My_data._Mysize;

	mov	eax, DWORD PTR __My_data$[ebp]
	mov	ecx, DWORD PTR [eax+20]
	mov	DWORD PTR __Old_size$[ebp], ecx

; 4333 :         if (max_size() - _Old_size < _Size_increase) {

	mov	ecx, DWORD PTR _this$[ebp]
	call	?max_size@?$basic_string@DU?$char_traits@D@std@@V?$allocator@D@2@@std@@QBEIXZ ; std::basic_string<char,std::char_traits<char>,std::allocator<char> >::max_size
	sub	eax, DWORD PTR __Old_size$[ebp]
	cmp	eax, DWORD PTR __Size_increase$[ebp]
	jae	SHORT $LN2@Reallocate

; 4334 :             _Xlen_string(); // result too long

	call	?_Xlen_string@std@@YAXXZ		; std::_Xlen_string
$LN2@Reallocate:

; 4335 :         }
; 4336 : 
; 4337 :         const size_type _New_size     = _Old_size + _Size_increase;

	mov	eax, DWORD PTR __Old_size$[ebp]
	add	eax, DWORD PTR __Size_increase$[ebp]
	mov	DWORD PTR __New_size$[ebp], eax

; 4338 :         const size_type _Old_capacity = _My_data._Myres;

	mov	eax, DWORD PTR __My_data$[ebp]
	mov	ecx, DWORD PTR [eax+24]
	mov	DWORD PTR __Old_capacity$[ebp], ecx

; 4339 :         const size_type _New_capacity = _Calculate_growth(_New_size);

	mov	eax, DWORD PTR __New_size$[ebp]
	push	eax
	mov	ecx, DWORD PTR _this$[ebp]
	call	?_Calculate_growth@?$basic_string@DU?$char_traits@D@std@@V?$allocator@D@2@@std@@ABEII@Z ; std::basic_string<char,std::char_traits<char>,std::allocator<char> >::_Calculate_growth
	mov	DWORD PTR __New_capacity$[ebp], eax

; 4340 :         auto& _Al                     = _Getal();

	mov	ecx, DWORD PTR _this$[ebp]
	call	?_Getal@?$basic_string@DU?$char_traits@D@std@@V?$allocator@D@2@@std@@AAEAAV?$allocator@D@2@XZ ; std::basic_string<char,std::char_traits<char>,std::allocator<char> >::_Getal
	mov	DWORD PTR __Al$[ebp], eax

; 4341 :         const pointer _New_ptr        = _Al.allocate(_New_capacity + 1); // throws

	xor	eax, eax
	mov	ecx, DWORD PTR __New_capacity$[ebp]
	add	ecx, 1
	setb	al
	neg	eax
	or	eax, ecx
	push	eax
	mov	ecx, DWORD PTR __Al$[ebp]
	call	?allocate@?$allocator@D@std@@QAEPADI@Z	; std::allocator<char>::allocate
	mov	DWORD PTR __New_ptr$[ebp], eax

; 4342 :         _My_data._Orphan_all();

	mov	ecx, DWORD PTR __My_data$[ebp]
	call	?_Orphan_all@_Container_base12@std@@QAEXXZ ; std::_Container_base12::_Orphan_all

; 4343 :         _My_data._Mysize      = _New_size;

	mov	eax, DWORD PTR __My_data$[ebp]
	mov	ecx, DWORD PTR __New_size$[ebp]
	mov	DWORD PTR [eax+20], ecx

; 4344 :         _My_data._Myres       = _New_capacity;

	mov	eax, DWORD PTR __My_data$[ebp]
	mov	ecx, DWORD PTR __New_capacity$[ebp]
	mov	DWORD PTR [eax+24], ecx

; 4345 :         _Elem* const _Raw_new = _Unfancy(_New_ptr);

	mov	eax, DWORD PTR __New_ptr$[ebp]
	push	eax
	call	??$_Unfancy@D@std@@YAPADPAD@Z		; std::_Unfancy<char>
	add	esp, 4
	mov	DWORD PTR __Raw_new$[ebp], eax

; 4346 :         if (_BUF_SIZE <= _Old_capacity) {

	cmp	DWORD PTR __Old_capacity$[ebp], 16	; 00000010H
	jb	SHORT $LN3@Reallocate

; 4347 :             const pointer _Old_ptr = _My_data._Bx._Ptr;

	mov	eax, DWORD PTR __My_data$[ebp]
	mov	ecx, DWORD PTR [eax+4]
	mov	DWORD PTR __Old_ptr$1[ebp], ecx

; 4348 :             _Fn(_Raw_new, _Unfancy(_Old_ptr), _Old_size, _Args...);

	movzx	eax, BYTE PTR _<_Args_1>$[ebp]
	push	eax
	mov	ecx, DWORD PTR _<_Args_0>$[ebp]
	push	ecx
	mov	edx, DWORD PTR __Old_size$[ebp]
	push	edx
	mov	eax, DWORD PTR __Old_ptr$1[ebp]
	push	eax
	call	??$_Unfancy@D@std@@YAPADPAD@Z		; std::_Unfancy<char>
	add	esp, 4
	push	eax
	mov	ecx, DWORD PTR __Raw_new$[ebp]
	push	ecx
	lea	ecx, DWORD PTR __Fn$[ebp]
	call	??R<lambda_c1b8c41cb4019640539cfd828748c4d4>@@QBEXQADQBDIID@Z ; <lambda_c1b8c41cb4019640539cfd828748c4d4>::operator()

; 4349 :             _Al.deallocate(_Old_ptr, _Old_capacity + 1);

	mov	eax, DWORD PTR __Old_capacity$[ebp]
	add	eax, 1
	push	eax
	mov	ecx, DWORD PTR __Old_ptr$1[ebp]
	push	ecx
	mov	ecx, DWORD PTR __Al$[ebp]
	call	?deallocate@?$allocator@D@std@@QAEXQADI@Z ; std::allocator<char>::deallocate

; 4350 :             _My_data._Bx._Ptr = _New_ptr;

	mov	eax, DWORD PTR __My_data$[ebp]
	mov	ecx, DWORD PTR __New_ptr$[ebp]
	mov	DWORD PTR [eax+4], ecx

; 4351 :         } else {

	jmp	SHORT $LN4@Reallocate
$LN3@Reallocate:

; 4352 :             _Fn(_Raw_new, _My_data._Bx._Buf, _Old_size, _Args...);

	movzx	eax, BYTE PTR _<_Args_1>$[ebp]
	push	eax
	mov	ecx, DWORD PTR _<_Args_0>$[ebp]
	push	ecx
	mov	edx, DWORD PTR __Old_size$[ebp]
	push	edx
	mov	eax, DWORD PTR __My_data$[ebp]
	add	eax, 4
	push	eax
	mov	ecx, DWORD PTR __Raw_new$[ebp]
	push	ecx
	lea	ecx, DWORD PTR __Fn$[ebp]
	call	??R<lambda_c1b8c41cb4019640539cfd828748c4d4>@@QBEXQADQBDIID@Z ; <lambda_c1b8c41cb4019640539cfd828748c4d4>::operator()

; 4353 :             _Construct_in_place(_My_data._Bx._Ptr, _New_ptr);

	lea	eax, DWORD PTR __New_ptr$[ebp]
	push	eax
	mov	ecx, DWORD PTR __My_data$[ebp]
	add	ecx, 4
	push	ecx
	call	??$_Construct_in_place@PADABQAD@std@@YAXAAPADABQAD@Z ; std::_Construct_in_place<char *,char * const &>
	add	esp, 8
$LN4@Reallocate:

; 4354 :         }
; 4355 : 
; 4356 :         return *this;

	mov	eax, DWORD PTR _this$[ebp]
$LN5@Reallocate:

; 4357 :     }

	push	edx
	mov	ecx, ebp
	push	eax
	lea	edx, DWORD PTR $LN8@Reallocate
	call	@_RTC_CheckStackVars@8
	pop	eax
	pop	edx
	pop	edi
	pop	esi
	pop	ebx
	mov	ecx, DWORD PTR __$ArrayPad$[ebp]
	xor	ecx, ebp
	call	@__security_check_cookie@4
	add	esp, 316				; 0000013cH
	cmp	ebp, esp
	call	__RTC_CheckEsp
	mov	esp, ebp
	pop	ebp
	ret	16					; 00000010H
	npad	3
$LN8@Reallocate:
	DD	1
	DD	$LN7@Reallocate
$LN7@Reallocate:
	DD	-96					; ffffffa0H
	DD	4
	DD	$LN6@Reallocate
$LN6@Reallocate:
	DB	95					; 0000005fH
	DB	78					; 0000004eH
	DB	101					; 00000065H
	DB	119					; 00000077H
	DB	95					; 0000005fH
	DB	112					; 00000070H
	DB	116					; 00000074H
	DB	114					; 00000072H
	DB	0
??$_Reallocate_grow_by@V<lambda_c1b8c41cb4019640539cfd828748c4d4>@@ID@?$basic_string@DU?$char_traits@D@std@@V?$allocator@D@2@@std@@AAEAAV01@IV<lambda_c1b8c41cb4019640539cfd828748c4d4>@@ID@Z ENDP ; std::basic_string<char,std::char_traits<char>,std::allocator<char> >::_Reallocate_grow_by<<lambda_c1b8c41cb4019640539cfd828748c4d4>,unsigned int,char>
_TEXT	ENDS
; Function compile flags: /Odtp /RTCsu /ZI
; File C:\Program Files (x86)\Microsoft Visual Studio\2019\Professional\VC\Tools\MSVC\14.28.29333\include\xstring
;	COMDAT ??R<lambda_c1b8c41cb4019640539cfd828748c4d4>@@QBEXQADQBDIID@Z
_TEXT	SEGMENT
$T1 = -209						; size = 1
_this$ = -8						; size = 4
__New_ptr$ = 8						; size = 4
__Old_ptr$ = 12						; size = 4
__Old_size$ = 16					; size = 4
__Count$ = 20						; size = 4
__Ch$ = 24						; size = 1
??R<lambda_c1b8c41cb4019640539cfd828748c4d4>@@QBEXQADQBDIID@Z PROC ; <lambda_c1b8c41cb4019640539cfd828748c4d4>::operator(), COMDAT
; _this$ = ecx

; 2974 :                 const _Elem _Ch) {

	push	ebp
	mov	ebp, esp
	sub	esp, 216				; 000000d8H
	push	ebx
	push	esi
	push	edi
	push	ecx
	lea	edi, DWORD PTR [ebp-216]
	mov	ecx, 54					; 00000036H
	mov	eax, -858993460				; ccccccccH
	rep stosd
	pop	ecx
	mov	DWORD PTR _this$[ebp], ecx
	mov	ecx, OFFSET __C00D0CE5_xstring
	call	@__CheckForDebuggerJustMyCode@4

; 2975 :                 _Traits::copy(_New_ptr, _Old_ptr, _Old_size);

	mov	eax, DWORD PTR __Old_size$[ebp]
	push	eax
	mov	ecx, DWORD PTR __Old_ptr$[ebp]
	push	ecx
	mov	edx, DWORD PTR __New_ptr$[ebp]
	push	edx
	call	?copy@?$_Char_traits@DH@std@@SAPADQADQBDI@Z ; std::_Char_traits<char,int>::copy
	add	esp, 12					; 0000000cH

; 2976 :                 _Traits::assign(_New_ptr + _Old_size, _Count, _Ch);

	movzx	eax, BYTE PTR __Ch$[ebp]
	push	eax
	mov	ecx, DWORD PTR __Count$[ebp]
	push	ecx
	mov	edx, DWORD PTR __New_ptr$[ebp]
	add	edx, DWORD PTR __Old_size$[ebp]
	push	edx
	call	?assign@?$_Narrow_char_traits@DH@std@@SAPADQADID@Z ; std::_Narrow_char_traits<char,int>::assign
	add	esp, 12					; 0000000cH

; 2977 :                 _Traits::assign(_New_ptr[_Old_size + _Count], _Elem());

	mov	BYTE PTR $T1[ebp], 0
	lea	eax, DWORD PTR $T1[ebp]
	push	eax
	mov	ecx, DWORD PTR __Old_size$[ebp]
	add	ecx, DWORD PTR __Count$[ebp]
	add	ecx, DWORD PTR __New_ptr$[ebp]
	push	ecx
	call	?assign@?$_Narrow_char_traits@DH@std@@SAXAADABD@Z ; std::_Narrow_char_traits<char,int>::assign
	add	esp, 8

; 2978 :             },

	pop	edi
	pop	esi
	pop	ebx
	add	esp, 216				; 000000d8H
	cmp	ebp, esp
	call	__RTC_CheckEsp
	mov	esp, ebp
	pop	ebp
	ret	20					; 00000014H
??R<lambda_c1b8c41cb4019640539cfd828748c4d4>@@QBEXQADQBDIID@Z ENDP ; <lambda_c1b8c41cb4019640539cfd828748c4d4>::operator()
_TEXT	ENDS
; Function compile flags: /Odtp /RTCsu /ZI
; File C:\Program Files (x86)\Microsoft Visual Studio\2019\Professional\VC\Tools\MSVC\14.28.29333\include\xstring
;	COMDAT ??$_Reallocate_for@V<lambda_9366063389c5f42a00a5088cf24e69de>@@PBD@?$basic_string@DU?$char_traits@D@std@@V?$allocator@D@2@@std@@AAEAAV01@IV<lambda_9366063389c5f42a00a5088cf24e69de>@@PBD@Z
_TEXT	SEGMENT
__New_ptr$ = -60					; size = 4
__Al$ = -48						; size = 4
__New_capacity$ = -36					; size = 4
__Old_capacity$ = -24					; size = 4
_this$ = -12						; size = 4
__$ArrayPad$ = -4					; size = 4
__New_size$ = 8						; size = 4
__Fn$ = 12						; size = 1
_<_Args_0>$ = 16					; size = 4
??$_Reallocate_for@V<lambda_9366063389c5f42a00a5088cf24e69de>@@PBD@?$basic_string@DU?$char_traits@D@std@@V?$allocator@D@2@@std@@AAEAAV01@IV<lambda_9366063389c5f42a00a5088cf24e69de>@@PBD@Z PROC ; std::basic_string<char,std::char_traits<char>,std::allocator<char> >::_Reallocate_for<<lambda_9366063389c5f42a00a5088cf24e69de>,char const *>, COMDAT
; _this$ = ecx

; 4302 :     basic_string& _Reallocate_for(const size_type _New_size, _Fty _Fn, _ArgTys... _Args) {

	push	ebp
	mov	ebp, esp
	sub	esp, 256				; 00000100H
	push	ebx
	push	esi
	push	edi
	push	ecx
	lea	edi, DWORD PTR [ebp-256]
	mov	ecx, 64					; 00000040H
	mov	eax, -858993460				; ccccccccH
	rep stosd
	pop	ecx
	mov	eax, DWORD PTR ___security_cookie
	xor	eax, ebp
	mov	DWORD PTR __$ArrayPad$[ebp], eax
	mov	DWORD PTR _this$[ebp], ecx
	mov	ecx, OFFSET __C00D0CE5_xstring
	call	@__CheckForDebuggerJustMyCode@4

; 4303 :         // reallocate to store exactly _New_size elements, new buffer prepared by
; 4304 :         // _Fn(_New_ptr, _New_size, _Args...)
; 4305 :         if (_New_size > max_size()) {

	mov	ecx, DWORD PTR _this$[ebp]
	call	?max_size@?$basic_string@DU?$char_traits@D@std@@V?$allocator@D@2@@std@@QBEIXZ ; std::basic_string<char,std::char_traits<char>,std::allocator<char> >::max_size
	cmp	DWORD PTR __New_size$[ebp], eax
	jbe	SHORT $LN2@Reallocate

; 4306 :             _Xlen_string(); // result too long

	call	?_Xlen_string@std@@YAXXZ		; std::_Xlen_string
$LN2@Reallocate:

; 4307 :         }
; 4308 : 
; 4309 :         const size_type _Old_capacity = _Mypair._Myval2._Myres;

	mov	eax, DWORD PTR _this$[ebp]
	mov	ecx, DWORD PTR [eax+24]
	mov	DWORD PTR __Old_capacity$[ebp], ecx

; 4310 :         const size_type _New_capacity = _Calculate_growth(_New_size);

	mov	eax, DWORD PTR __New_size$[ebp]
	push	eax
	mov	ecx, DWORD PTR _this$[ebp]
	call	?_Calculate_growth@?$basic_string@DU?$char_traits@D@std@@V?$allocator@D@2@@std@@ABEII@Z ; std::basic_string<char,std::char_traits<char>,std::allocator<char> >::_Calculate_growth
	mov	DWORD PTR __New_capacity$[ebp], eax

; 4311 :         auto& _Al                     = _Getal();

	mov	ecx, DWORD PTR _this$[ebp]
	call	?_Getal@?$basic_string@DU?$char_traits@D@std@@V?$allocator@D@2@@std@@AAEAAV?$allocator@D@2@XZ ; std::basic_string<char,std::char_traits<char>,std::allocator<char> >::_Getal
	mov	DWORD PTR __Al$[ebp], eax

; 4312 :         const pointer _New_ptr        = _Al.allocate(_New_capacity + 1); // throws

	xor	eax, eax
	mov	ecx, DWORD PTR __New_capacity$[ebp]
	add	ecx, 1
	setb	al
	neg	eax
	or	eax, ecx
	push	eax
	mov	ecx, DWORD PTR __Al$[ebp]
	call	?allocate@?$allocator@D@std@@QAEPADI@Z	; std::allocator<char>::allocate
	mov	DWORD PTR __New_ptr$[ebp], eax

; 4313 :         _Mypair._Myval2._Orphan_all();

	mov	ecx, DWORD PTR _this$[ebp]
	call	?_Orphan_all@_Container_base12@std@@QAEXXZ ; std::_Container_base12::_Orphan_all

; 4314 :         _Mypair._Myval2._Mysize = _New_size;

	mov	eax, DWORD PTR _this$[ebp]
	mov	ecx, DWORD PTR __New_size$[ebp]
	mov	DWORD PTR [eax+20], ecx

; 4315 :         _Mypair._Myval2._Myres  = _New_capacity;

	mov	eax, DWORD PTR _this$[ebp]
	mov	ecx, DWORD PTR __New_capacity$[ebp]
	mov	DWORD PTR [eax+24], ecx

; 4316 :         _Fn(_Unfancy(_New_ptr), _New_size, _Args...);

	mov	eax, DWORD PTR _<_Args_0>$[ebp]
	push	eax
	mov	ecx, DWORD PTR __New_size$[ebp]
	push	ecx
	mov	edx, DWORD PTR __New_ptr$[ebp]
	push	edx
	call	??$_Unfancy@D@std@@YAPADPAD@Z		; std::_Unfancy<char>
	add	esp, 4
	push	eax
	lea	ecx, DWORD PTR __Fn$[ebp]
	call	??R<lambda_9366063389c5f42a00a5088cf24e69de>@@QBEXQADIQBD@Z ; <lambda_9366063389c5f42a00a5088cf24e69de>::operator()

; 4317 :         if (_BUF_SIZE <= _Old_capacity) {

	cmp	DWORD PTR __Old_capacity$[ebp], 16	; 00000010H
	jb	SHORT $LN3@Reallocate

; 4318 :             _Al.deallocate(_Mypair._Myval2._Bx._Ptr, _Old_capacity + 1);

	mov	eax, DWORD PTR __Old_capacity$[ebp]
	add	eax, 1
	push	eax
	mov	ecx, DWORD PTR _this$[ebp]
	mov	edx, DWORD PTR [ecx+4]
	push	edx
	mov	ecx, DWORD PTR __Al$[ebp]
	call	?deallocate@?$allocator@D@std@@QAEXQADI@Z ; std::allocator<char>::deallocate

; 4319 :             _Mypair._Myval2._Bx._Ptr = _New_ptr;

	mov	eax, DWORD PTR _this$[ebp]
	mov	ecx, DWORD PTR __New_ptr$[ebp]
	mov	DWORD PTR [eax+4], ecx

; 4320 :         } else {

	jmp	SHORT $LN4@Reallocate
$LN3@Reallocate:

; 4321 :             _Construct_in_place(_Mypair._Myval2._Bx._Ptr, _New_ptr);

	lea	eax, DWORD PTR __New_ptr$[ebp]
	push	eax
	mov	ecx, DWORD PTR _this$[ebp]
	add	ecx, 4
	push	ecx
	call	??$_Construct_in_place@PADABQAD@std@@YAXAAPADABQAD@Z ; std::_Construct_in_place<char *,char * const &>
	add	esp, 8
$LN4@Reallocate:

; 4322 :         }
; 4323 : 
; 4324 :         return *this;

	mov	eax, DWORD PTR _this$[ebp]
$LN5@Reallocate:

; 4325 :     }

	push	edx
	mov	ecx, ebp
	push	eax
	lea	edx, DWORD PTR $LN8@Reallocate
	call	@_RTC_CheckStackVars@8
	pop	eax
	pop	edx
	pop	edi
	pop	esi
	pop	ebx
	mov	ecx, DWORD PTR __$ArrayPad$[ebp]
	xor	ecx, ebp
	call	@__security_check_cookie@4
	add	esp, 256				; 00000100H
	cmp	ebp, esp
	call	__RTC_CheckEsp
	mov	esp, ebp
	pop	ebp
	ret	12					; 0000000cH
$LN8@Reallocate:
	DD	1
	DD	$LN7@Reallocate
$LN7@Reallocate:
	DD	-60					; ffffffc4H
	DD	4
	DD	$LN6@Reallocate
$LN6@Reallocate:
	DB	95					; 0000005fH
	DB	78					; 0000004eH
	DB	101					; 00000065H
	DB	119					; 00000077H
	DB	95					; 0000005fH
	DB	112					; 00000070H
	DB	116					; 00000074H
	DB	114					; 00000072H
	DB	0
??$_Reallocate_for@V<lambda_9366063389c5f42a00a5088cf24e69de>@@PBD@?$basic_string@DU?$char_traits@D@std@@V?$allocator@D@2@@std@@AAEAAV01@IV<lambda_9366063389c5f42a00a5088cf24e69de>@@PBD@Z ENDP ; std::basic_string<char,std::char_traits<char>,std::allocator<char> >::_Reallocate_for<<lambda_9366063389c5f42a00a5088cf24e69de>,char const *>
_TEXT	ENDS
; Function compile flags: /Odtp /RTCsu /ZI
; File C:\Program Files (x86)\Microsoft Visual Studio\2019\Professional\VC\Tools\MSVC\14.28.29333\include\xstring
;	COMDAT ??R<lambda_9366063389c5f42a00a5088cf24e69de>@@QBEXQADIQBD@Z
_TEXT	SEGMENT
$T1 = -209						; size = 1
_this$ = -8						; size = 4
__New_ptr$ = 8						; size = 4
__Count$ = 12						; size = 4
__Ptr$ = 16						; size = 4
??R<lambda_9366063389c5f42a00a5088cf24e69de>@@QBEXQADIQBD@Z PROC ; <lambda_9366063389c5f42a00a5088cf24e69de>::operator(), COMDAT
; _this$ = ecx

; 3054 :             [](_Elem* const _New_ptr, const size_type _Count, const _Elem* const _Ptr) {

	push	ebp
	mov	ebp, esp
	sub	esp, 216				; 000000d8H
	push	ebx
	push	esi
	push	edi
	push	ecx
	lea	edi, DWORD PTR [ebp-216]
	mov	ecx, 54					; 00000036H
	mov	eax, -858993460				; ccccccccH
	rep stosd
	pop	ecx
	mov	DWORD PTR _this$[ebp], ecx
	mov	ecx, OFFSET __C00D0CE5_xstring
	call	@__CheckForDebuggerJustMyCode@4

; 3055 :                 _Traits::copy(_New_ptr, _Ptr, _Count);

	mov	eax, DWORD PTR __Count$[ebp]
	push	eax
	mov	ecx, DWORD PTR __Ptr$[ebp]
	push	ecx
	mov	edx, DWORD PTR __New_ptr$[ebp]
	push	edx
	call	?copy@?$_Char_traits@DH@std@@SAPADQADQBDI@Z ; std::_Char_traits<char,int>::copy
	add	esp, 12					; 0000000cH

; 3056 :                 _Traits::assign(_New_ptr[_Count], _Elem());

	mov	BYTE PTR $T1[ebp], 0
	lea	eax, DWORD PTR $T1[ebp]
	push	eax
	mov	ecx, DWORD PTR __New_ptr$[ebp]
	add	ecx, DWORD PTR __Count$[ebp]
	push	ecx
	call	?assign@?$_Narrow_char_traits@DH@std@@SAXAADABD@Z ; std::_Narrow_char_traits<char,int>::assign
	add	esp, 8

; 3057 :             },

	pop	edi
	pop	esi
	pop	ebx
	add	esp, 216				; 000000d8H
	cmp	ebp, esp
	call	__RTC_CheckEsp
	mov	esp, ebp
	pop	ebp
	ret	12					; 0000000cH
??R<lambda_9366063389c5f42a00a5088cf24e69de>@@QBEXQADIQBD@Z ENDP ; <lambda_9366063389c5f42a00a5088cf24e69de>::operator()
_TEXT	ENDS
; Function compile flags: /Odtp /RTCsu /ZI
; File C:\Program Files (x86)\Microsoft Visual Studio\2019\Professional\VC\Tools\MSVC\14.28.29333\include\xstring
;	COMDAT ??$_Reallocate_grow_by@V<lambda_15711c68e099a15a58f4d77303cb286d>@@D@?$basic_string@DU?$char_traits@D@std@@V?$allocator@D@2@@std@@AAEAAV01@IV<lambda_15711c68e099a15a58f4d77303cb286d>@@D@Z
_TEXT	SEGMENT
__Old_ptr$1 = -120					; size = 4
__Raw_new$ = -108					; size = 4
__New_ptr$ = -96					; size = 4
__Al$ = -84						; size = 4
__New_capacity$ = -72					; size = 4
__Old_capacity$ = -60					; size = 4
__New_size$ = -48					; size = 4
__Old_size$ = -36					; size = 4
__My_data$ = -24					; size = 4
_this$ = -12						; size = 4
__$ArrayPad$ = -4					; size = 4
__Size_increase$ = 8					; size = 4
__Fn$ = 12						; size = 1
_<_Args_0>$ = 16					; size = 1
??$_Reallocate_grow_by@V<lambda_15711c68e099a15a58f4d77303cb286d>@@D@?$basic_string@DU?$char_traits@D@std@@V?$allocator@D@2@@std@@AAEAAV01@IV<lambda_15711c68e099a15a58f4d77303cb286d>@@D@Z PROC ; std::basic_string<char,std::char_traits<char>,std::allocator<char> >::_Reallocate_grow_by<<lambda_15711c68e099a15a58f4d77303cb286d>,char>, COMDAT
; _this$ = ecx

; 4328 :     basic_string& _Reallocate_grow_by(const size_type _Size_increase, _Fty _Fn, _ArgTys... _Args) {

	push	ebp
	mov	ebp, esp
	sub	esp, 316				; 0000013cH
	push	ebx
	push	esi
	push	edi
	push	ecx
	lea	edi, DWORD PTR [ebp-316]
	mov	ecx, 79					; 0000004fH
	mov	eax, -858993460				; ccccccccH
	rep stosd
	pop	ecx
	mov	eax, DWORD PTR ___security_cookie
	xor	eax, ebp
	mov	DWORD PTR __$ArrayPad$[ebp], eax
	mov	DWORD PTR _this$[ebp], ecx
	mov	ecx, OFFSET __C00D0CE5_xstring
	call	@__CheckForDebuggerJustMyCode@4

; 4329 :         // reallocate to increase size by _Size_increase elements, new buffer prepared by
; 4330 :         // _Fn(_New_ptr, _Old_ptr, _Old_size, _Args...)
; 4331 :         auto& _My_data            = _Mypair._Myval2;

	mov	eax, DWORD PTR _this$[ebp]
	mov	DWORD PTR __My_data$[ebp], eax

; 4332 :         const size_type _Old_size = _My_data._Mysize;

	mov	eax, DWORD PTR __My_data$[ebp]
	mov	ecx, DWORD PTR [eax+20]
	mov	DWORD PTR __Old_size$[ebp], ecx

; 4333 :         if (max_size() - _Old_size < _Size_increase) {

	mov	ecx, DWORD PTR _this$[ebp]
	call	?max_size@?$basic_string@DU?$char_traits@D@std@@V?$allocator@D@2@@std@@QBEIXZ ; std::basic_string<char,std::char_traits<char>,std::allocator<char> >::max_size
	sub	eax, DWORD PTR __Old_size$[ebp]
	cmp	eax, DWORD PTR __Size_increase$[ebp]
	jae	SHORT $LN2@Reallocate

; 4334 :             _Xlen_string(); // result too long

	call	?_Xlen_string@std@@YAXXZ		; std::_Xlen_string
$LN2@Reallocate:

; 4335 :         }
; 4336 : 
; 4337 :         const size_type _New_size     = _Old_size + _Size_increase;

	mov	eax, DWORD PTR __Old_size$[ebp]
	add	eax, DWORD PTR __Size_increase$[ebp]
	mov	DWORD PTR __New_size$[ebp], eax

; 4338 :         const size_type _Old_capacity = _My_data._Myres;

	mov	eax, DWORD PTR __My_data$[ebp]
	mov	ecx, DWORD PTR [eax+24]
	mov	DWORD PTR __Old_capacity$[ebp], ecx

; 4339 :         const size_type _New_capacity = _Calculate_growth(_New_size);

	mov	eax, DWORD PTR __New_size$[ebp]
	push	eax
	mov	ecx, DWORD PTR _this$[ebp]
	call	?_Calculate_growth@?$basic_string@DU?$char_traits@D@std@@V?$allocator@D@2@@std@@ABEII@Z ; std::basic_string<char,std::char_traits<char>,std::allocator<char> >::_Calculate_growth
	mov	DWORD PTR __New_capacity$[ebp], eax

; 4340 :         auto& _Al                     = _Getal();

	mov	ecx, DWORD PTR _this$[ebp]
	call	?_Getal@?$basic_string@DU?$char_traits@D@std@@V?$allocator@D@2@@std@@AAEAAV?$allocator@D@2@XZ ; std::basic_string<char,std::char_traits<char>,std::allocator<char> >::_Getal
	mov	DWORD PTR __Al$[ebp], eax

; 4341 :         const pointer _New_ptr        = _Al.allocate(_New_capacity + 1); // throws

	xor	eax, eax
	mov	ecx, DWORD PTR __New_capacity$[ebp]
	add	ecx, 1
	setb	al
	neg	eax
	or	eax, ecx
	push	eax
	mov	ecx, DWORD PTR __Al$[ebp]
	call	?allocate@?$allocator@D@std@@QAEPADI@Z	; std::allocator<char>::allocate
	mov	DWORD PTR __New_ptr$[ebp], eax

; 4342 :         _My_data._Orphan_all();

	mov	ecx, DWORD PTR __My_data$[ebp]
	call	?_Orphan_all@_Container_base12@std@@QAEXXZ ; std::_Container_base12::_Orphan_all

; 4343 :         _My_data._Mysize      = _New_size;

	mov	eax, DWORD PTR __My_data$[ebp]
	mov	ecx, DWORD PTR __New_size$[ebp]
	mov	DWORD PTR [eax+20], ecx

; 4344 :         _My_data._Myres       = _New_capacity;

	mov	eax, DWORD PTR __My_data$[ebp]
	mov	ecx, DWORD PTR __New_capacity$[ebp]
	mov	DWORD PTR [eax+24], ecx

; 4345 :         _Elem* const _Raw_new = _Unfancy(_New_ptr);

	mov	eax, DWORD PTR __New_ptr$[ebp]
	push	eax
	call	??$_Unfancy@D@std@@YAPADPAD@Z		; std::_Unfancy<char>
	add	esp, 4
	mov	DWORD PTR __Raw_new$[ebp], eax

; 4346 :         if (_BUF_SIZE <= _Old_capacity) {

	cmp	DWORD PTR __Old_capacity$[ebp], 16	; 00000010H
	jb	SHORT $LN3@Reallocate

; 4347 :             const pointer _Old_ptr = _My_data._Bx._Ptr;

	mov	eax, DWORD PTR __My_data$[ebp]
	mov	ecx, DWORD PTR [eax+4]
	mov	DWORD PTR __Old_ptr$1[ebp], ecx

; 4348 :             _Fn(_Raw_new, _Unfancy(_Old_ptr), _Old_size, _Args...);

	movzx	eax, BYTE PTR _<_Args_0>$[ebp]
	push	eax
	mov	ecx, DWORD PTR __Old_size$[ebp]
	push	ecx
	mov	edx, DWORD PTR __Old_ptr$1[ebp]
	push	edx
	call	??$_Unfancy@D@std@@YAPADPAD@Z		; std::_Unfancy<char>
	add	esp, 4
	push	eax
	mov	eax, DWORD PTR __Raw_new$[ebp]
	push	eax
	lea	ecx, DWORD PTR __Fn$[ebp]
	call	??R<lambda_15711c68e099a15a58f4d77303cb286d>@@QBEXQADQBDID@Z ; <lambda_15711c68e099a15a58f4d77303cb286d>::operator()

; 4349 :             _Al.deallocate(_Old_ptr, _Old_capacity + 1);

	mov	eax, DWORD PTR __Old_capacity$[ebp]
	add	eax, 1
	push	eax
	mov	ecx, DWORD PTR __Old_ptr$1[ebp]
	push	ecx
	mov	ecx, DWORD PTR __Al$[ebp]
	call	?deallocate@?$allocator@D@std@@QAEXQADI@Z ; std::allocator<char>::deallocate

; 4350 :             _My_data._Bx._Ptr = _New_ptr;

	mov	eax, DWORD PTR __My_data$[ebp]
	mov	ecx, DWORD PTR __New_ptr$[ebp]
	mov	DWORD PTR [eax+4], ecx

; 4351 :         } else {

	jmp	SHORT $LN4@Reallocate
$LN3@Reallocate:

; 4352 :             _Fn(_Raw_new, _My_data._Bx._Buf, _Old_size, _Args...);

	movzx	eax, BYTE PTR _<_Args_0>$[ebp]
	push	eax
	mov	ecx, DWORD PTR __Old_size$[ebp]
	push	ecx
	mov	edx, DWORD PTR __My_data$[ebp]
	add	edx, 4
	push	edx
	mov	eax, DWORD PTR __Raw_new$[ebp]
	push	eax
	lea	ecx, DWORD PTR __Fn$[ebp]
	call	??R<lambda_15711c68e099a15a58f4d77303cb286d>@@QBEXQADQBDID@Z ; <lambda_15711c68e099a15a58f4d77303cb286d>::operator()

; 4353 :             _Construct_in_place(_My_data._Bx._Ptr, _New_ptr);

	lea	eax, DWORD PTR __New_ptr$[ebp]
	push	eax
	mov	ecx, DWORD PTR __My_data$[ebp]
	add	ecx, 4
	push	ecx
	call	??$_Construct_in_place@PADABQAD@std@@YAXAAPADABQAD@Z ; std::_Construct_in_place<char *,char * const &>
	add	esp, 8
$LN4@Reallocate:

; 4354 :         }
; 4355 : 
; 4356 :         return *this;

	mov	eax, DWORD PTR _this$[ebp]
$LN5@Reallocate:

; 4357 :     }

	push	edx
	mov	ecx, ebp
	push	eax
	lea	edx, DWORD PTR $LN8@Reallocate
	call	@_RTC_CheckStackVars@8
	pop	eax
	pop	edx
	pop	edi
	pop	esi
	pop	ebx
	mov	ecx, DWORD PTR __$ArrayPad$[ebp]
	xor	ecx, ebp
	call	@__security_check_cookie@4
	add	esp, 316				; 0000013cH
	cmp	ebp, esp
	call	__RTC_CheckEsp
	mov	esp, ebp
	pop	ebp
	ret	12					; 0000000cH
	npad	3
$LN8@Reallocate:
	DD	1
	DD	$LN7@Reallocate
$LN7@Reallocate:
	DD	-96					; ffffffa0H
	DD	4
	DD	$LN6@Reallocate
$LN6@Reallocate:
	DB	95					; 0000005fH
	DB	78					; 0000004eH
	DB	101					; 00000065H
	DB	119					; 00000077H
	DB	95					; 0000005fH
	DB	112					; 00000070H
	DB	116					; 00000074H
	DB	114					; 00000072H
	DB	0
??$_Reallocate_grow_by@V<lambda_15711c68e099a15a58f4d77303cb286d>@@D@?$basic_string@DU?$char_traits@D@std@@V?$allocator@D@2@@std@@AAEAAV01@IV<lambda_15711c68e099a15a58f4d77303cb286d>@@D@Z ENDP ; std::basic_string<char,std::char_traits<char>,std::allocator<char> >::_Reallocate_grow_by<<lambda_15711c68e099a15a58f4d77303cb286d>,char>
_TEXT	ENDS
; Function compile flags: /Odtp /RTCsu /ZI
; File C:\Program Files (x86)\Microsoft Visual Studio\2019\Professional\VC\Tools\MSVC\14.28.29333\include\xstring
;	COMDAT ??R<lambda_15711c68e099a15a58f4d77303cb286d>@@QBEXQADQBDID@Z
_TEXT	SEGMENT
$T1 = -209						; size = 1
_this$ = -8						; size = 4
__New_ptr$ = 8						; size = 4
__Old_ptr$ = 12						; size = 4
__Old_size$ = 16					; size = 4
__Ch$ = 20						; size = 1
??R<lambda_15711c68e099a15a58f4d77303cb286d>@@QBEXQADQBDID@Z PROC ; <lambda_15711c68e099a15a58f4d77303cb286d>::operator(), COMDAT
; _this$ = ecx

; 3703 :             [](_Elem* const _New_ptr, const _Elem* const _Old_ptr, const size_type _Old_size, const _Elem _Ch) {

	push	ebp
	mov	ebp, esp
	sub	esp, 216				; 000000d8H
	push	ebx
	push	esi
	push	edi
	push	ecx
	lea	edi, DWORD PTR [ebp-216]
	mov	ecx, 54					; 00000036H
	mov	eax, -858993460				; ccccccccH
	rep stosd
	pop	ecx
	mov	DWORD PTR _this$[ebp], ecx
	mov	ecx, OFFSET __C00D0CE5_xstring
	call	@__CheckForDebuggerJustMyCode@4

; 3704 :                 _Traits::copy(_New_ptr, _Old_ptr, _Old_size);

	mov	eax, DWORD PTR __Old_size$[ebp]
	push	eax
	mov	ecx, DWORD PTR __Old_ptr$[ebp]
	push	ecx
	mov	edx, DWORD PTR __New_ptr$[ebp]
	push	edx
	call	?copy@?$_Char_traits@DH@std@@SAPADQADQBDI@Z ; std::_Char_traits<char,int>::copy
	add	esp, 12					; 0000000cH

; 3705 :                 _Traits::assign(_New_ptr[_Old_size], _Ch);

	lea	eax, DWORD PTR __Ch$[ebp]
	push	eax
	mov	ecx, DWORD PTR __New_ptr$[ebp]
	add	ecx, DWORD PTR __Old_size$[ebp]
	push	ecx
	call	?assign@?$_Narrow_char_traits@DH@std@@SAXAADABD@Z ; std::_Narrow_char_traits<char,int>::assign
	add	esp, 8

; 3706 :                 _Traits::assign(_New_ptr[_Old_size + 1], _Elem());

	mov	BYTE PTR $T1[ebp], 0
	lea	eax, DWORD PTR $T1[ebp]
	push	eax
	mov	ecx, DWORD PTR __Old_size$[ebp]
	mov	edx, DWORD PTR __New_ptr$[ebp]
	lea	eax, DWORD PTR [edx+ecx+1]
	push	eax
	call	?assign@?$_Narrow_char_traits@DH@std@@SAXAADABD@Z ; std::_Narrow_char_traits<char,int>::assign
	add	esp, 8

; 3707 :             },

	pop	edi
	pop	esi
	pop	ebx
	add	esp, 216				; 000000d8H
	cmp	ebp, esp
	call	__RTC_CheckEsp
	mov	esp, ebp
	pop	ebp
	ret	16					; 00000010H
??R<lambda_15711c68e099a15a58f4d77303cb286d>@@QBEXQADQBDID@Z ENDP ; <lambda_15711c68e099a15a58f4d77303cb286d>::operator()
_TEXT	ENDS
; Function compile flags: /Odtp /RTCsu /ZI
; File C:\Program Files (x86)\Microsoft Visual Studio\2019\Professional\VC\Tools\MSVC\14.28.29333\include\xstddef
;	COMDAT ??$_Unfancy@D@std@@YAPADPAD@Z
_TEXT	SEGMENT
__Ptr$ = 8						; size = 4
??$_Unfancy@D@std@@YAPADPAD@Z PROC			; std::_Unfancy<char>, COMDAT

; 288  : _NODISCARD constexpr _Ty* _Unfancy(_Ty* _Ptr) noexcept { // do nothing for plain pointers

	push	ebp
	mov	ebp, esp
	sub	esp, 192				; 000000c0H
	push	ebx
	push	esi
	push	edi
	lea	edi, DWORD PTR [ebp-192]
	mov	ecx, 48					; 00000030H
	mov	eax, -858993460				; ccccccccH
	rep stosd
	mov	ecx, OFFSET __29547EA8_xstddef
	call	@__CheckForDebuggerJustMyCode@4

; 289  :     return _Ptr;

	mov	eax, DWORD PTR __Ptr$[ebp]

; 290  : }

	pop	edi
	pop	esi
	pop	ebx
	add	esp, 192				; 000000c0H
	cmp	ebp, esp
	call	__RTC_CheckEsp
	mov	esp, ebp
	pop	ebp
	ret	0
??$_Unfancy@D@std@@YAPADPAD@Z ENDP			; std::_Unfancy<char>
_TEXT	ENDS
; Function compile flags: /Odtp /RTCsu /ZI
; File C:\Program Files (x86)\Microsoft Visual Studio\2019\Professional\VC\Tools\MSVC\14.28.29333\include\xmemory
;	COMDAT ??$_Destroy_in_place@PAD@std@@YAXAAPAD@Z
_TEXT	SEGMENT
__Obj$ = 8						; size = 4
??$_Destroy_in_place@PAD@std@@YAXAAPAD@Z PROC		; std::_Destroy_in_place<char *>, COMDAT

; 270  : /* _CONSTEXPR20_DYNALLOC */ void _Destroy_in_place(_Ty& _Obj) noexcept {

	push	ebp
	mov	ebp, esp
	sub	esp, 192				; 000000c0H
	push	ebx
	push	esi
	push	edi
	lea	edi, DWORD PTR [ebp-192]
	mov	ecx, 48					; 00000030H
	mov	eax, -858993460				; ccccccccH
	rep stosd
	mov	ecx, OFFSET __B4DE8A79_xmemory
	call	@__CheckForDebuggerJustMyCode@4

; 271  : #if _HAS_IF_CONSTEXPR
; 272  :     if constexpr (is_array_v<_Ty>) {
; 273  :         _Destroy_range(_Obj, _Obj + extent_v<_Ty>);
; 274  :     } else
; 275  : #endif // _HAS_IF_CONSTEXPR
; 276  :     {
; 277  :         _Obj.~_Ty();
; 278  :     }
; 279  : }

	pop	edi
	pop	esi
	pop	ebx
	add	esp, 192				; 000000c0H
	cmp	ebp, esp
	call	__RTC_CheckEsp
	mov	esp, ebp
	pop	ebp
	ret	0
??$_Destroy_in_place@PAD@std@@YAXAAPAD@Z ENDP		; std::_Destroy_in_place<char *>
_TEXT	ENDS
; Function compile flags: /Odtp /RTCsu /ZI
; File C:\Program Files (x86)\Microsoft Visual Studio\2019\Professional\VC\Tools\MSVC\14.28.29333\include\xmemory
;	COMDAT ??$_Construct_in_place@PA_WABQA_W@std@@YAXAAPA_WABQA_W@Z
_TEXT	SEGMENT
$T1 = -200						; size = 4
__Obj$ = 8						; size = 4
_<_Args_0>$ = 12					; size = 4
??$_Construct_in_place@PA_WABQA_W@std@@YAXAAPA_WABQA_W@Z PROC ; std::_Construct_in_place<wchar_t *,wchar_t * const &>, COMDAT

; 228  : void _Construct_in_place(_Ty& _Obj, _Types&&... _Args) noexcept(is_nothrow_constructible_v<_Ty, _Types...>) {

	push	ebp
	mov	ebp, esp
	sub	esp, 204				; 000000ccH
	push	ebx
	push	esi
	push	edi
	lea	edi, DWORD PTR [ebp-204]
	mov	ecx, 51					; 00000033H
	mov	eax, -858993460				; ccccccccH
	rep stosd
	mov	ecx, OFFSET __B4DE8A79_xmemory
	call	@__CheckForDebuggerJustMyCode@4
	mov	eax, DWORD PTR __Obj$[ebp]
	push	eax
	call	??$addressof@PA_W@std@@YAPAPA_WAAPA_W@Z	; std::addressof<wchar_t *>
	add	esp, 4
	push	eax
	push	4
	call	??2@YAPAXIPAX@Z				; operator new
	add	esp, 8
	mov	DWORD PTR $T1[ebp], eax
	mov	ecx, DWORD PTR _<_Args_0>$[ebp]
	push	ecx
	call	??$forward@ABQA_W@std@@YAABQA_WABQA_W@Z	; std::forward<wchar_t * const &>
	add	esp, 4
	mov	edx, DWORD PTR $T1[ebp]
	mov	eax, DWORD PTR [eax]
	mov	DWORD PTR [edx], eax

; 229  :     ::new (const_cast<void*>(static_cast<const volatile void*>(_STD addressof(_Obj))))
; 230  :         _Ty(_STD forward<_Types>(_Args)...);
; 231  : }

	pop	edi
	pop	esi
	pop	ebx
	add	esp, 204				; 000000ccH
	cmp	ebp, esp
	call	__RTC_CheckEsp
	mov	esp, ebp
	pop	ebp
	ret	0
??$_Construct_in_place@PA_WABQA_W@std@@YAXAAPA_WABQA_W@Z ENDP ; std::_Construct_in_place<wchar_t *,wchar_t * const &>
_TEXT	ENDS
; Function compile flags: /Odtp /RTCsu /ZI
; File C:\Program Files (x86)\Microsoft Visual Studio\2019\Professional\VC\Tools\MSVC\14.28.29333\include\xstring
;	COMDAT ??$_Reallocate_grow_by@V<lambda_c3135ae829aeedc0a8af1bd1e887c66a>@@I_W@?$basic_string@_WU?$char_traits@_W@std@@V?$allocator@_W@2@@std@@AAEAAV01@IV<lambda_c3135ae829aeedc0a8af1bd1e887c66a>@@I_W@Z
_TEXT	SEGMENT
__Old_ptr$1 = -120					; size = 4
__Raw_new$ = -108					; size = 4
__New_ptr$ = -96					; size = 4
__Al$ = -84						; size = 4
__New_capacity$ = -72					; size = 4
__Old_capacity$ = -60					; size = 4
__New_size$ = -48					; size = 4
__Old_size$ = -36					; size = 4
__My_data$ = -24					; size = 4
_this$ = -12						; size = 4
__$ArrayPad$ = -4					; size = 4
__Size_increase$ = 8					; size = 4
__Fn$ = 12						; size = 1
_<_Args_0>$ = 16					; size = 4
_<_Args_1>$ = 20					; size = 2
??$_Reallocate_grow_by@V<lambda_c3135ae829aeedc0a8af1bd1e887c66a>@@I_W@?$basic_string@_WU?$char_traits@_W@std@@V?$allocator@_W@2@@std@@AAEAAV01@IV<lambda_c3135ae829aeedc0a8af1bd1e887c66a>@@I_W@Z PROC ; std::basic_string<wchar_t,std::char_traits<wchar_t>,std::allocator<wchar_t> >::_Reallocate_grow_by<<lambda_c3135ae829aeedc0a8af1bd1e887c66a>,unsigned int,wchar_t>, COMDAT
; _this$ = ecx

; 4328 :     basic_string& _Reallocate_grow_by(const size_type _Size_increase, _Fty _Fn, _ArgTys... _Args) {

	push	ebp
	mov	ebp, esp
	sub	esp, 316				; 0000013cH
	push	ebx
	push	esi
	push	edi
	push	ecx
	lea	edi, DWORD PTR [ebp-316]
	mov	ecx, 79					; 0000004fH
	mov	eax, -858993460				; ccccccccH
	rep stosd
	pop	ecx
	mov	eax, DWORD PTR ___security_cookie
	xor	eax, ebp
	mov	DWORD PTR __$ArrayPad$[ebp], eax
	mov	DWORD PTR _this$[ebp], ecx
	mov	ecx, OFFSET __C00D0CE5_xstring
	call	@__CheckForDebuggerJustMyCode@4

; 4329 :         // reallocate to increase size by _Size_increase elements, new buffer prepared by
; 4330 :         // _Fn(_New_ptr, _Old_ptr, _Old_size, _Args...)
; 4331 :         auto& _My_data            = _Mypair._Myval2;

	mov	eax, DWORD PTR _this$[ebp]
	mov	DWORD PTR __My_data$[ebp], eax

; 4332 :         const size_type _Old_size = _My_data._Mysize;

	mov	eax, DWORD PTR __My_data$[ebp]
	mov	ecx, DWORD PTR [eax+20]
	mov	DWORD PTR __Old_size$[ebp], ecx

; 4333 :         if (max_size() - _Old_size < _Size_increase) {

	mov	ecx, DWORD PTR _this$[ebp]
	call	?max_size@?$basic_string@_WU?$char_traits@_W@std@@V?$allocator@_W@2@@std@@QBEIXZ ; std::basic_string<wchar_t,std::char_traits<wchar_t>,std::allocator<wchar_t> >::max_size
	sub	eax, DWORD PTR __Old_size$[ebp]
	cmp	eax, DWORD PTR __Size_increase$[ebp]
	jae	SHORT $LN2@Reallocate

; 4334 :             _Xlen_string(); // result too long

	call	?_Xlen_string@std@@YAXXZ		; std::_Xlen_string
$LN2@Reallocate:

; 4335 :         }
; 4336 : 
; 4337 :         const size_type _New_size     = _Old_size + _Size_increase;

	mov	eax, DWORD PTR __Old_size$[ebp]
	add	eax, DWORD PTR __Size_increase$[ebp]
	mov	DWORD PTR __New_size$[ebp], eax

; 4338 :         const size_type _Old_capacity = _My_data._Myres;

	mov	eax, DWORD PTR __My_data$[ebp]
	mov	ecx, DWORD PTR [eax+24]
	mov	DWORD PTR __Old_capacity$[ebp], ecx

; 4339 :         const size_type _New_capacity = _Calculate_growth(_New_size);

	mov	eax, DWORD PTR __New_size$[ebp]
	push	eax
	mov	ecx, DWORD PTR _this$[ebp]
	call	?_Calculate_growth@?$basic_string@_WU?$char_traits@_W@std@@V?$allocator@_W@2@@std@@ABEII@Z ; std::basic_string<wchar_t,std::char_traits<wchar_t>,std::allocator<wchar_t> >::_Calculate_growth
	mov	DWORD PTR __New_capacity$[ebp], eax

; 4340 :         auto& _Al                     = _Getal();

	mov	ecx, DWORD PTR _this$[ebp]
	call	?_Getal@?$basic_string@_WU?$char_traits@_W@std@@V?$allocator@_W@2@@std@@AAEAAV?$allocator@_W@2@XZ ; std::basic_string<wchar_t,std::char_traits<wchar_t>,std::allocator<wchar_t> >::_Getal
	mov	DWORD PTR __Al$[ebp], eax

; 4341 :         const pointer _New_ptr        = _Al.allocate(_New_capacity + 1); // throws

	xor	eax, eax
	mov	ecx, DWORD PTR __New_capacity$[ebp]
	add	ecx, 1
	setb	al
	neg	eax
	or	eax, ecx
	push	eax
	mov	ecx, DWORD PTR __Al$[ebp]
	call	?allocate@?$allocator@_W@std@@QAEPA_WI@Z ; std::allocator<wchar_t>::allocate
	mov	DWORD PTR __New_ptr$[ebp], eax

; 4342 :         _My_data._Orphan_all();

	mov	ecx, DWORD PTR __My_data$[ebp]
	call	?_Orphan_all@_Container_base12@std@@QAEXXZ ; std::_Container_base12::_Orphan_all

; 4343 :         _My_data._Mysize      = _New_size;

	mov	eax, DWORD PTR __My_data$[ebp]
	mov	ecx, DWORD PTR __New_size$[ebp]
	mov	DWORD PTR [eax+20], ecx

; 4344 :         _My_data._Myres       = _New_capacity;

	mov	eax, DWORD PTR __My_data$[ebp]
	mov	ecx, DWORD PTR __New_capacity$[ebp]
	mov	DWORD PTR [eax+24], ecx

; 4345 :         _Elem* const _Raw_new = _Unfancy(_New_ptr);

	mov	eax, DWORD PTR __New_ptr$[ebp]
	push	eax
	call	??$_Unfancy@_W@std@@YAPA_WPA_W@Z	; std::_Unfancy<wchar_t>
	add	esp, 4
	mov	DWORD PTR __Raw_new$[ebp], eax

; 4346 :         if (_BUF_SIZE <= _Old_capacity) {

	cmp	DWORD PTR __Old_capacity$[ebp], 8
	jb	SHORT $LN3@Reallocate

; 4347 :             const pointer _Old_ptr = _My_data._Bx._Ptr;

	mov	eax, DWORD PTR __My_data$[ebp]
	mov	ecx, DWORD PTR [eax+4]
	mov	DWORD PTR __Old_ptr$1[ebp], ecx

; 4348 :             _Fn(_Raw_new, _Unfancy(_Old_ptr), _Old_size, _Args...);

	movzx	eax, WORD PTR _<_Args_1>$[ebp]
	push	eax
	mov	ecx, DWORD PTR _<_Args_0>$[ebp]
	push	ecx
	mov	edx, DWORD PTR __Old_size$[ebp]
	push	edx
	mov	eax, DWORD PTR __Old_ptr$1[ebp]
	push	eax
	call	??$_Unfancy@_W@std@@YAPA_WPA_W@Z	; std::_Unfancy<wchar_t>
	add	esp, 4
	push	eax
	mov	ecx, DWORD PTR __Raw_new$[ebp]
	push	ecx
	lea	ecx, DWORD PTR __Fn$[ebp]
	call	??R<lambda_c3135ae829aeedc0a8af1bd1e887c66a>@@QBEXQA_WQB_WII_W@Z ; <lambda_c3135ae829aeedc0a8af1bd1e887c66a>::operator()

; 4349 :             _Al.deallocate(_Old_ptr, _Old_capacity + 1);

	mov	eax, DWORD PTR __Old_capacity$[ebp]
	add	eax, 1
	push	eax
	mov	ecx, DWORD PTR __Old_ptr$1[ebp]
	push	ecx
	mov	ecx, DWORD PTR __Al$[ebp]
	call	?deallocate@?$allocator@_W@std@@QAEXQA_WI@Z ; std::allocator<wchar_t>::deallocate

; 4350 :             _My_data._Bx._Ptr = _New_ptr;

	mov	eax, DWORD PTR __My_data$[ebp]
	mov	ecx, DWORD PTR __New_ptr$[ebp]
	mov	DWORD PTR [eax+4], ecx

; 4351 :         } else {

	jmp	SHORT $LN4@Reallocate
$LN3@Reallocate:

; 4352 :             _Fn(_Raw_new, _My_data._Bx._Buf, _Old_size, _Args...);

	movzx	eax, WORD PTR _<_Args_1>$[ebp]
	push	eax
	mov	ecx, DWORD PTR _<_Args_0>$[ebp]
	push	ecx
	mov	edx, DWORD PTR __Old_size$[ebp]
	push	edx
	mov	eax, DWORD PTR __My_data$[ebp]
	add	eax, 4
	push	eax
	mov	ecx, DWORD PTR __Raw_new$[ebp]
	push	ecx
	lea	ecx, DWORD PTR __Fn$[ebp]
	call	??R<lambda_c3135ae829aeedc0a8af1bd1e887c66a>@@QBEXQA_WQB_WII_W@Z ; <lambda_c3135ae829aeedc0a8af1bd1e887c66a>::operator()

; 4353 :             _Construct_in_place(_My_data._Bx._Ptr, _New_ptr);

	lea	eax, DWORD PTR __New_ptr$[ebp]
	push	eax
	mov	ecx, DWORD PTR __My_data$[ebp]
	add	ecx, 4
	push	ecx
	call	??$_Construct_in_place@PA_WABQA_W@std@@YAXAAPA_WABQA_W@Z ; std::_Construct_in_place<wchar_t *,wchar_t * const &>
	add	esp, 8
$LN4@Reallocate:

; 4354 :         }
; 4355 : 
; 4356 :         return *this;

	mov	eax, DWORD PTR _this$[ebp]
$LN5@Reallocate:

; 4357 :     }

	push	edx
	mov	ecx, ebp
	push	eax
	lea	edx, DWORD PTR $LN8@Reallocate
	call	@_RTC_CheckStackVars@8
	pop	eax
	pop	edx
	pop	edi
	pop	esi
	pop	ebx
	mov	ecx, DWORD PTR __$ArrayPad$[ebp]
	xor	ecx, ebp
	call	@__security_check_cookie@4
	add	esp, 316				; 0000013cH
	cmp	ebp, esp
	call	__RTC_CheckEsp
	mov	esp, ebp
	pop	ebp
	ret	16					; 00000010H
	npad	3
$LN8@Reallocate:
	DD	1
	DD	$LN7@Reallocate
$LN7@Reallocate:
	DD	-96					; ffffffa0H
	DD	4
	DD	$LN6@Reallocate
$LN6@Reallocate:
	DB	95					; 0000005fH
	DB	78					; 0000004eH
	DB	101					; 00000065H
	DB	119					; 00000077H
	DB	95					; 0000005fH
	DB	112					; 00000070H
	DB	116					; 00000074H
	DB	114					; 00000072H
	DB	0
??$_Reallocate_grow_by@V<lambda_c3135ae829aeedc0a8af1bd1e887c66a>@@I_W@?$basic_string@_WU?$char_traits@_W@std@@V?$allocator@_W@2@@std@@AAEAAV01@IV<lambda_c3135ae829aeedc0a8af1bd1e887c66a>@@I_W@Z ENDP ; std::basic_string<wchar_t,std::char_traits<wchar_t>,std::allocator<wchar_t> >::_Reallocate_grow_by<<lambda_c3135ae829aeedc0a8af1bd1e887c66a>,unsigned int,wchar_t>
_TEXT	ENDS
; Function compile flags: /Odtp /RTCsu /ZI
; File C:\Program Files (x86)\Microsoft Visual Studio\2019\Professional\VC\Tools\MSVC\14.28.29333\include\xstring
;	COMDAT ??R<lambda_c3135ae829aeedc0a8af1bd1e887c66a>@@QBEXQA_WQB_WII_W@Z
_TEXT	SEGMENT
$T1 = -210						; size = 2
_this$ = -8						; size = 4
__New_ptr$ = 8						; size = 4
__Old_ptr$ = 12						; size = 4
__Old_size$ = 16					; size = 4
__Count$ = 20						; size = 4
__Ch$ = 24						; size = 2
??R<lambda_c3135ae829aeedc0a8af1bd1e887c66a>@@QBEXQA_WQB_WII_W@Z PROC ; <lambda_c3135ae829aeedc0a8af1bd1e887c66a>::operator(), COMDAT
; _this$ = ecx

; 2974 :                 const _Elem _Ch) {

	push	ebp
	mov	ebp, esp
	sub	esp, 216				; 000000d8H
	push	ebx
	push	esi
	push	edi
	push	ecx
	lea	edi, DWORD PTR [ebp-216]
	mov	ecx, 54					; 00000036H
	mov	eax, -858993460				; ccccccccH
	rep stosd
	pop	ecx
	mov	DWORD PTR _this$[ebp], ecx
	mov	ecx, OFFSET __C00D0CE5_xstring
	call	@__CheckForDebuggerJustMyCode@4

; 2975 :                 _Traits::copy(_New_ptr, _Old_ptr, _Old_size);

	mov	eax, DWORD PTR __Old_size$[ebp]
	push	eax
	mov	ecx, DWORD PTR __Old_ptr$[ebp]
	push	ecx
	mov	edx, DWORD PTR __New_ptr$[ebp]
	push	edx
	call	?copy@?$_Char_traits@_WG@std@@SAPA_WQA_WQB_WI@Z ; std::_Char_traits<wchar_t,unsigned short>::copy
	add	esp, 12					; 0000000cH

; 2976 :                 _Traits::assign(_New_ptr + _Old_size, _Count, _Ch);

	movzx	eax, WORD PTR __Ch$[ebp]
	push	eax
	mov	ecx, DWORD PTR __Count$[ebp]
	push	ecx
	mov	edx, DWORD PTR __Old_size$[ebp]
	mov	eax, DWORD PTR __New_ptr$[ebp]
	lea	ecx, DWORD PTR [eax+edx*2]
	push	ecx
	call	?assign@?$_WChar_traits@_W@std@@SAPA_WQA_WI_W@Z ; std::_WChar_traits<wchar_t>::assign
	add	esp, 12					; 0000000cH

; 2977 :                 _Traits::assign(_New_ptr[_Old_size + _Count], _Elem());

	xor	eax, eax
	mov	WORD PTR $T1[ebp], ax
	lea	ecx, DWORD PTR $T1[ebp]
	push	ecx
	mov	edx, DWORD PTR __Old_size$[ebp]
	add	edx, DWORD PTR __Count$[ebp]
	mov	eax, DWORD PTR __New_ptr$[ebp]
	lea	ecx, DWORD PTR [eax+edx*2]
	push	ecx
	call	?assign@?$_WChar_traits@_W@std@@SAXAA_WAB_W@Z ; std::_WChar_traits<wchar_t>::assign
	add	esp, 8

; 2978 :             },

	pop	edi
	pop	esi
	pop	ebx
	add	esp, 216				; 000000d8H
	cmp	ebp, esp
	call	__RTC_CheckEsp
	mov	esp, ebp
	pop	ebp
	ret	20					; 00000014H
??R<lambda_c3135ae829aeedc0a8af1bd1e887c66a>@@QBEXQA_WQB_WII_W@Z ENDP ; <lambda_c3135ae829aeedc0a8af1bd1e887c66a>::operator()
_TEXT	ENDS
; Function compile flags: /Odtp /RTCsu /ZI
; File C:\Program Files (x86)\Microsoft Visual Studio\2019\Professional\VC\Tools\MSVC\14.28.29333\include\xstddef
;	COMDAT ??$_Unfancy@_W@std@@YAPA_WPA_W@Z
_TEXT	SEGMENT
__Ptr$ = 8						; size = 4
??$_Unfancy@_W@std@@YAPA_WPA_W@Z PROC			; std::_Unfancy<wchar_t>, COMDAT

; 288  : _NODISCARD constexpr _Ty* _Unfancy(_Ty* _Ptr) noexcept { // do nothing for plain pointers

	push	ebp
	mov	ebp, esp
	sub	esp, 192				; 000000c0H
	push	ebx
	push	esi
	push	edi
	lea	edi, DWORD PTR [ebp-192]
	mov	ecx, 48					; 00000030H
	mov	eax, -858993460				; ccccccccH
	rep stosd
	mov	ecx, OFFSET __29547EA8_xstddef
	call	@__CheckForDebuggerJustMyCode@4

; 289  :     return _Ptr;

	mov	eax, DWORD PTR __Ptr$[ebp]

; 290  : }

	pop	edi
	pop	esi
	pop	ebx
	add	esp, 192				; 000000c0H
	cmp	ebp, esp
	call	__RTC_CheckEsp
	mov	esp, ebp
	pop	ebp
	ret	0
??$_Unfancy@_W@std@@YAPA_WPA_W@Z ENDP			; std::_Unfancy<wchar_t>
_TEXT	ENDS
; Function compile flags: /Odtp /RTCsu /ZI
; File C:\Program Files (x86)\Microsoft Visual Studio\2019\Professional\VC\Tools\MSVC\14.28.29333\include\xmemory
;	COMDAT ??$_Destroy_in_place@PA_W@std@@YAXAAPA_W@Z
_TEXT	SEGMENT
__Obj$ = 8						; size = 4
??$_Destroy_in_place@PA_W@std@@YAXAAPA_W@Z PROC		; std::_Destroy_in_place<wchar_t *>, COMDAT

; 270  : /* _CONSTEXPR20_DYNALLOC */ void _Destroy_in_place(_Ty& _Obj) noexcept {

	push	ebp
	mov	ebp, esp
	sub	esp, 192				; 000000c0H
	push	ebx
	push	esi
	push	edi
	lea	edi, DWORD PTR [ebp-192]
	mov	ecx, 48					; 00000030H
	mov	eax, -858993460				; ccccccccH
	rep stosd
	mov	ecx, OFFSET __B4DE8A79_xmemory
	call	@__CheckForDebuggerJustMyCode@4

; 271  : #if _HAS_IF_CONSTEXPR
; 272  :     if constexpr (is_array_v<_Ty>) {
; 273  :         _Destroy_range(_Obj, _Obj + extent_v<_Ty>);
; 274  :     } else
; 275  : #endif // _HAS_IF_CONSTEXPR
; 276  :     {
; 277  :         _Obj.~_Ty();
; 278  :     }
; 279  : }

	pop	edi
	pop	esi
	pop	ebx
	add	esp, 192				; 000000c0H
	cmp	ebp, esp
	call	__RTC_CheckEsp
	mov	esp, ebp
	pop	ebp
	ret	0
??$_Destroy_in_place@PA_W@std@@YAXAAPA_W@Z ENDP		; std::_Destroy_in_place<wchar_t *>
_TEXT	ENDS
; Function compile flags: /Odtp /RTCsu /ZI
; File C:\Program Files (x86)\Microsoft Visual Studio\2019\Professional\VC\Tools\MSVC\14.28.29333\include\xstddef
;	COMDAT ??$addressof@$$CBV?$codecvt@DDU_Mbstatet@@@std@@@std@@YAPBV?$codecvt@DDU_Mbstatet@@@0@ABV10@@Z
_TEXT	SEGMENT
__Val$ = 8						; size = 4
??$addressof@$$CBV?$codecvt@DDU_Mbstatet@@@std@@@std@@YAPBV?$codecvt@DDU_Mbstatet@@@0@ABV10@@Z PROC ; std::addressof<std::codecvt<char,char,_Mbstatet> const >, COMDAT

; 274  : _NODISCARD constexpr _Ty* addressof(_Ty& _Val) noexcept {

	push	ebp
	mov	ebp, esp
	sub	esp, 192				; 000000c0H
	push	ebx
	push	esi
	push	edi
	lea	edi, DWORD PTR [ebp-192]
	mov	ecx, 48					; 00000030H
	mov	eax, -858993460				; ccccccccH
	rep stosd
	mov	ecx, OFFSET __29547EA8_xstddef
	call	@__CheckForDebuggerJustMyCode@4

; 275  :     return __builtin_addressof(_Val);

	mov	eax, DWORD PTR __Val$[ebp]

; 276  : }

	pop	edi
	pop	esi
	pop	ebx
	add	esp, 192				; 000000c0H
	cmp	ebp, esp
	call	__RTC_CheckEsp
	mov	esp, ebp
	pop	ebp
	ret	0
??$addressof@$$CBV?$codecvt@DDU_Mbstatet@@@std@@@std@@YAPBV?$codecvt@DDU_Mbstatet@@@0@ABV10@@Z ENDP ; std::addressof<std::codecvt<char,char,_Mbstatet> const >
_TEXT	ENDS
; Function compile flags: /Odtp /RTCsu /ZI
; File C:\Program Files (x86)\Microsoft Visual Studio\2019\Professional\VC\Tools\MSVC\14.28.29333\include\xstddef
;	COMDAT ??$_Unfancy@U_Container_proxy@std@@@std@@YAPAU_Container_proxy@0@PAU10@@Z
_TEXT	SEGMENT
__Ptr$ = 8						; size = 4
??$_Unfancy@U_Container_proxy@std@@@std@@YAPAU_Container_proxy@0@PAU10@@Z PROC ; std::_Unfancy<std::_Container_proxy>, COMDAT

; 288  : _NODISCARD constexpr _Ty* _Unfancy(_Ty* _Ptr) noexcept { // do nothing for plain pointers

	push	ebp
	mov	ebp, esp
	sub	esp, 192				; 000000c0H
	push	ebx
	push	esi
	push	edi
	lea	edi, DWORD PTR [ebp-192]
	mov	ecx, 48					; 00000030H
	mov	eax, -858993460				; ccccccccH
	rep stosd
	mov	ecx, OFFSET __29547EA8_xstddef
	call	@__CheckForDebuggerJustMyCode@4

; 289  :     return _Ptr;

	mov	eax, DWORD PTR __Ptr$[ebp]

; 290  : }

	pop	edi
	pop	esi
	pop	ebx
	add	esp, 192				; 000000c0H
	cmp	ebp, esp
	call	__RTC_CheckEsp
	mov	esp, ebp
	pop	ebp
	ret	0
??$_Unfancy@U_Container_proxy@std@@@std@@YAPAU_Container_proxy@0@PAU10@@Z ENDP ; std::_Unfancy<std::_Container_proxy>
_TEXT	ENDS
; Function compile flags: /Odtp /RTCsu /ZI
; File C:\Program Files (x86)\Microsoft Visual Studio\2019\Professional\VC\Tools\MSVC\14.28.29333\include\xmemory
;	COMDAT ??$?0$$V@?$_Compressed_pair@V?$allocator@D@std@@V?$_String_val@U?$_Simple_types@D@std@@@2@$00@std@@QAE@U_Zero_then_variadic_args_t@1@@Z
_TEXT	SEGMENT
_this$ = -8						; size = 4
___formal$ = 8						; size = 1
??$?0$$V@?$_Compressed_pair@V?$allocator@D@std@@V?$_String_val@U?$_Simple_types@D@std@@@2@$00@std@@QAE@U_Zero_then_variadic_args_t@1@@Z PROC ; std::_Compressed_pair<std::allocator<char>,std::_String_val<std::_Simple_types<char> >,1>::_Compressed_pair<std::allocator<char>,std::_String_val<std::_Simple_types<char> >,1><>, COMDAT
; _this$ = ecx

; 1339 :         : _Ty1(), _Myval2(_STD forward<_Other2>(_Val2)...) {}

	push	ebp
	mov	ebp, esp
	sub	esp, 204				; 000000ccH
	push	ebx
	push	esi
	push	edi
	push	ecx
	lea	edi, DWORD PTR [ebp-204]
	mov	ecx, 51					; 00000033H
	mov	eax, -858993460				; ccccccccH
	rep stosd
	pop	ecx
	mov	DWORD PTR _this$[ebp], ecx
	mov	ecx, OFFSET __B4DE8A79_xmemory
	call	@__CheckForDebuggerJustMyCode@4
	mov	ecx, DWORD PTR _this$[ebp]
	call	??0?$allocator@D@std@@QAE@XZ		; std::allocator<char>::allocator<char>
	mov	ecx, DWORD PTR _this$[ebp]
	call	??0?$_String_val@U?$_Simple_types@D@std@@@std@@QAE@XZ ; std::_String_val<std::_Simple_types<char> >::_String_val<std::_Simple_types<char> >
	mov	eax, DWORD PTR _this$[ebp]
	pop	edi
	pop	esi
	pop	ebx
	add	esp, 204				; 000000ccH
	cmp	ebp, esp
	call	__RTC_CheckEsp
	mov	esp, ebp
	pop	ebp
	ret	4
??$?0$$V@?$_Compressed_pair@V?$allocator@D@std@@V?$_String_val@U?$_Simple_types@D@std@@@2@$00@std@@QAE@U_Zero_then_variadic_args_t@1@@Z ENDP ; std::_Compressed_pair<std::allocator<char>,std::_String_val<std::_Simple_types<char> >,1>::_Compressed_pair<std::allocator<char>,std::_String_val<std::_Simple_types<char> >,1><>
_TEXT	ENDS
; Function compile flags: /Odtp /RTCsu /ZI
; File C:\Program Files (x86)\Microsoft Visual Studio\2019\Professional\VC\Tools\MSVC\14.28.29333\include\xmemory
;	COMDAT ??$?0V?$allocator@D@std@@$$V@?$_Compressed_pair@V?$allocator@D@std@@V?$_String_val@U?$_Simple_types@D@std@@@2@$00@std@@QAE@U_One_then_variadic_args_t@1@$$QAV?$allocator@D@1@@Z
_TEXT	SEGMENT
_this$ = -8						; size = 4
___formal$ = 8						; size = 1
__Val1$ = 12						; size = 4
??$?0V?$allocator@D@std@@$$V@?$_Compressed_pair@V?$allocator@D@std@@V?$_String_val@U?$_Simple_types@D@std@@@2@$00@std@@QAE@U_One_then_variadic_args_t@1@$$QAV?$allocator@D@1@@Z PROC ; std::_Compressed_pair<std::allocator<char>,std::_String_val<std::_Simple_types<char> >,1>::_Compressed_pair<std::allocator<char>,std::_String_val<std::_Simple_types<char> >,1><std::allocator<char> >, COMDAT
; _this$ = ecx

; 1344 :         : _Ty1(_STD forward<_Other1>(_Val1)), _Myval2(_STD forward<_Other2>(_Val2)...) {}

	push	ebp
	mov	ebp, esp
	sub	esp, 204				; 000000ccH
	push	ebx
	push	esi
	push	edi
	push	ecx
	lea	edi, DWORD PTR [ebp-204]
	mov	ecx, 51					; 00000033H
	mov	eax, -858993460				; ccccccccH
	rep stosd
	pop	ecx
	mov	DWORD PTR _this$[ebp], ecx
	mov	ecx, OFFSET __B4DE8A79_xmemory
	call	@__CheckForDebuggerJustMyCode@4
	mov	eax, DWORD PTR __Val1$[ebp]
	push	eax
	call	??$forward@V?$allocator@D@std@@@std@@YA$$QAV?$allocator@D@0@AAV10@@Z ; std::forward<std::allocator<char> >
	add	esp, 4
	mov	ecx, DWORD PTR _this$[ebp]
	call	??0?$_String_val@U?$_Simple_types@D@std@@@std@@QAE@XZ ; std::_String_val<std::_Simple_types<char> >::_String_val<std::_Simple_types<char> >
	mov	eax, DWORD PTR _this$[ebp]
	pop	edi
	pop	esi
	pop	ebx
	add	esp, 204				; 000000ccH
	cmp	ebp, esp
	call	__RTC_CheckEsp
	mov	esp, ebp
	pop	ebp
	ret	8
??$?0V?$allocator@D@std@@$$V@?$_Compressed_pair@V?$allocator@D@std@@V?$_String_val@U?$_Simple_types@D@std@@@2@$00@std@@QAE@U_One_then_variadic_args_t@1@$$QAV?$allocator@D@1@@Z ENDP ; std::_Compressed_pair<std::allocator<char>,std::_String_val<std::_Simple_types<char> >,1>::_Compressed_pair<std::allocator<char>,std::_String_val<std::_Simple_types<char> >,1><std::allocator<char> >
_TEXT	ENDS
; Function compile flags: /Odtp /RTCsu /ZI
; File C:\Program Files (x86)\Microsoft Visual Studio\2019\Professional\VC\Tools\MSVC\14.28.29333\include\type_traits
;	COMDAT ??$move@AAV?$allocator@D@std@@@std@@YA$$QAV?$allocator@D@0@AAV10@@Z
_TEXT	SEGMENT
__Arg$ = 8						; size = 4
??$move@AAV?$allocator@D@std@@@std@@YA$$QAV?$allocator@D@0@AAV10@@Z PROC ; std::move<std::allocator<char> &>, COMDAT

; 1454 : _NODISCARD constexpr remove_reference_t<_Ty>&& move(_Ty&& _Arg) noexcept { // forward _Arg as movable

	push	ebp
	mov	ebp, esp
	sub	esp, 192				; 000000c0H
	push	ebx
	push	esi
	push	edi
	lea	edi, DWORD PTR [ebp-192]
	mov	ecx, 48					; 00000030H
	mov	eax, -858993460				; ccccccccH
	rep stosd
	mov	ecx, OFFSET __77E6CA79_type_traits
	call	@__CheckForDebuggerJustMyCode@4

; 1455 :     return static_cast<remove_reference_t<_Ty>&&>(_Arg);

	mov	eax, DWORD PTR __Arg$[ebp]

; 1456 : }

	pop	edi
	pop	esi
	pop	ebx
	add	esp, 192				; 000000c0H
	cmp	ebp, esp
	call	__RTC_CheckEsp
	mov	esp, ebp
	pop	ebp
	ret	0
??$move@AAV?$allocator@D@std@@@std@@YA$$QAV?$allocator@D@0@AAV10@@Z ENDP ; std::move<std::allocator<char> &>
_TEXT	ENDS
; Function compile flags: /Odtp /RTCsu /ZI
; File C:\Program Files (x86)\Microsoft Visual Studio\2019\Professional\VC\Tools\MSVC\14.28.29333\include\xmemory
;	COMDAT ??$?0D@?$allocator@U_Container_proxy@std@@@std@@QAE@ABV?$allocator@D@1@@Z
_TEXT	SEGMENT
_this$ = -8						; size = 4
___formal$ = 8						; size = 4
??$?0D@?$allocator@U_Container_proxy@std@@@std@@QAE@ABV?$allocator@D@1@@Z PROC ; std::allocator<std::_Container_proxy>::allocator<std::_Container_proxy><char>, COMDAT
; _this$ = ecx

; 806  :     constexpr allocator(const allocator<_Other>&) noexcept {}

	push	ebp
	mov	ebp, esp
	sub	esp, 204				; 000000ccH
	push	ebx
	push	esi
	push	edi
	push	ecx
	lea	edi, DWORD PTR [ebp-204]
	mov	ecx, 51					; 00000033H
	mov	eax, -858993460				; ccccccccH
	rep stosd
	pop	ecx
	mov	DWORD PTR _this$[ebp], ecx
	mov	ecx, OFFSET __B4DE8A79_xmemory
	call	@__CheckForDebuggerJustMyCode@4
	mov	eax, DWORD PTR _this$[ebp]
	pop	edi
	pop	esi
	pop	ebx
	add	esp, 204				; 000000ccH
	cmp	ebp, esp
	call	__RTC_CheckEsp
	mov	esp, ebp
	pop	ebp
	ret	4
??$?0D@?$allocator@U_Container_proxy@std@@@std@@QAE@ABV?$allocator@D@1@@Z ENDP ; std::allocator<std::_Container_proxy>::allocator<std::_Container_proxy><char>
_TEXT	ENDS
; Function compile flags: /Odtp /RTCsu /ZI
; File C:\Program Files (x86)\Microsoft Visual Studio\2019\Professional\VC\Tools\MSVC\14.28.29333\include\xstddef
;	COMDAT ??$addressof@V?$_String_val@U?$_Simple_types@D@std@@@std@@@std@@YAPAV?$_String_val@U?$_Simple_types@D@std@@@0@AAV10@@Z
_TEXT	SEGMENT
__Val$ = 8						; size = 4
??$addressof@V?$_String_val@U?$_Simple_types@D@std@@@std@@@std@@YAPAV?$_String_val@U?$_Simple_types@D@std@@@0@AAV10@@Z PROC ; std::addressof<std::_String_val<std::_Simple_types<char> > >, COMDAT

; 274  : _NODISCARD constexpr _Ty* addressof(_Ty& _Val) noexcept {

	push	ebp
	mov	ebp, esp
	sub	esp, 192				; 000000c0H
	push	ebx
	push	esi
	push	edi
	lea	edi, DWORD PTR [ebp-192]
	mov	ecx, 48					; 00000030H
	mov	eax, -858993460				; ccccccccH
	rep stosd
	mov	ecx, OFFSET __29547EA8_xstddef
	call	@__CheckForDebuggerJustMyCode@4

; 275  :     return __builtin_addressof(_Val);

	mov	eax, DWORD PTR __Val$[ebp]

; 276  : }

	pop	edi
	pop	esi
	pop	ebx
	add	esp, 192				; 000000c0H
	cmp	ebp, esp
	call	__RTC_CheckEsp
	mov	esp, ebp
	pop	ebp
	ret	0
??$addressof@V?$_String_val@U?$_Simple_types@D@std@@@std@@@std@@YAPAV?$_String_val@U?$_Simple_types@D@std@@@0@AAV10@@Z ENDP ; std::addressof<std::_String_val<std::_Simple_types<char> > >
_TEXT	ENDS
; Function compile flags: /Odtp /RTCsu /ZI
; File C:\Program Files (x86)\Microsoft Visual Studio\2019\Professional\VC\Tools\MSVC\14.28.29333\include\xstring
;	COMDAT ??$_Reallocate_grow_by@V<lambda_67d87d4aa1269033985980465fd1d824>@@$$V@?$basic_string@DU?$char_traits@D@std@@V?$allocator@D@2@@std@@AAEAAV01@IV<lambda_67d87d4aa1269033985980465fd1d824>@@@Z
_TEXT	SEGMENT
__Old_ptr$1 = -120					; size = 4
__Raw_new$ = -108					; size = 4
__New_ptr$ = -96					; size = 4
__Al$ = -84						; size = 4
__New_capacity$ = -72					; size = 4
__Old_capacity$ = -60					; size = 4
__New_size$ = -48					; size = 4
__Old_size$ = -36					; size = 4
__My_data$ = -24					; size = 4
_this$ = -12						; size = 4
__$ArrayPad$ = -4					; size = 4
__Size_increase$ = 8					; size = 4
__Fn$ = 12						; size = 1
??$_Reallocate_grow_by@V<lambda_67d87d4aa1269033985980465fd1d824>@@$$V@?$basic_string@DU?$char_traits@D@std@@V?$allocator@D@2@@std@@AAEAAV01@IV<lambda_67d87d4aa1269033985980465fd1d824>@@@Z PROC ; std::basic_string<char,std::char_traits<char>,std::allocator<char> >::_Reallocate_grow_by<<lambda_67d87d4aa1269033985980465fd1d824> >, COMDAT
; _this$ = ecx

; 4328 :     basic_string& _Reallocate_grow_by(const size_type _Size_increase, _Fty _Fn, _ArgTys... _Args) {

	push	ebp
	mov	ebp, esp
	sub	esp, 316				; 0000013cH
	push	ebx
	push	esi
	push	edi
	push	ecx
	lea	edi, DWORD PTR [ebp-316]
	mov	ecx, 79					; 0000004fH
	mov	eax, -858993460				; ccccccccH
	rep stosd
	pop	ecx
	mov	eax, DWORD PTR ___security_cookie
	xor	eax, ebp
	mov	DWORD PTR __$ArrayPad$[ebp], eax
	mov	DWORD PTR _this$[ebp], ecx
	mov	ecx, OFFSET __C00D0CE5_xstring
	call	@__CheckForDebuggerJustMyCode@4

; 4329 :         // reallocate to increase size by _Size_increase elements, new buffer prepared by
; 4330 :         // _Fn(_New_ptr, _Old_ptr, _Old_size, _Args...)
; 4331 :         auto& _My_data            = _Mypair._Myval2;

	mov	eax, DWORD PTR _this$[ebp]
	mov	DWORD PTR __My_data$[ebp], eax

; 4332 :         const size_type _Old_size = _My_data._Mysize;

	mov	eax, DWORD PTR __My_data$[ebp]
	mov	ecx, DWORD PTR [eax+20]
	mov	DWORD PTR __Old_size$[ebp], ecx

; 4333 :         if (max_size() - _Old_size < _Size_increase) {

	mov	ecx, DWORD PTR _this$[ebp]
	call	?max_size@?$basic_string@DU?$char_traits@D@std@@V?$allocator@D@2@@std@@QBEIXZ ; std::basic_string<char,std::char_traits<char>,std::allocator<char> >::max_size
	sub	eax, DWORD PTR __Old_size$[ebp]
	cmp	eax, DWORD PTR __Size_increase$[ebp]
	jae	SHORT $LN2@Reallocate

; 4334 :             _Xlen_string(); // result too long

	call	?_Xlen_string@std@@YAXXZ		; std::_Xlen_string
$LN2@Reallocate:

; 4335 :         }
; 4336 : 
; 4337 :         const size_type _New_size     = _Old_size + _Size_increase;

	mov	eax, DWORD PTR __Old_size$[ebp]
	add	eax, DWORD PTR __Size_increase$[ebp]
	mov	DWORD PTR __New_size$[ebp], eax

; 4338 :         const size_type _Old_capacity = _My_data._Myres;

	mov	eax, DWORD PTR __My_data$[ebp]
	mov	ecx, DWORD PTR [eax+24]
	mov	DWORD PTR __Old_capacity$[ebp], ecx

; 4339 :         const size_type _New_capacity = _Calculate_growth(_New_size);

	mov	eax, DWORD PTR __New_size$[ebp]
	push	eax
	mov	ecx, DWORD PTR _this$[ebp]
	call	?_Calculate_growth@?$basic_string@DU?$char_traits@D@std@@V?$allocator@D@2@@std@@ABEII@Z ; std::basic_string<char,std::char_traits<char>,std::allocator<char> >::_Calculate_growth
	mov	DWORD PTR __New_capacity$[ebp], eax

; 4340 :         auto& _Al                     = _Getal();

	mov	ecx, DWORD PTR _this$[ebp]
	call	?_Getal@?$basic_string@DU?$char_traits@D@std@@V?$allocator@D@2@@std@@AAEAAV?$allocator@D@2@XZ ; std::basic_string<char,std::char_traits<char>,std::allocator<char> >::_Getal
	mov	DWORD PTR __Al$[ebp], eax

; 4341 :         const pointer _New_ptr        = _Al.allocate(_New_capacity + 1); // throws

	xor	eax, eax
	mov	ecx, DWORD PTR __New_capacity$[ebp]
	add	ecx, 1
	setb	al
	neg	eax
	or	eax, ecx
	push	eax
	mov	ecx, DWORD PTR __Al$[ebp]
	call	?allocate@?$allocator@D@std@@QAEPADI@Z	; std::allocator<char>::allocate
	mov	DWORD PTR __New_ptr$[ebp], eax

; 4342 :         _My_data._Orphan_all();

	mov	ecx, DWORD PTR __My_data$[ebp]
	call	?_Orphan_all@_Container_base12@std@@QAEXXZ ; std::_Container_base12::_Orphan_all

; 4343 :         _My_data._Mysize      = _New_size;

	mov	eax, DWORD PTR __My_data$[ebp]
	mov	ecx, DWORD PTR __New_size$[ebp]
	mov	DWORD PTR [eax+20], ecx

; 4344 :         _My_data._Myres       = _New_capacity;

	mov	eax, DWORD PTR __My_data$[ebp]
	mov	ecx, DWORD PTR __New_capacity$[ebp]
	mov	DWORD PTR [eax+24], ecx

; 4345 :         _Elem* const _Raw_new = _Unfancy(_New_ptr);

	mov	eax, DWORD PTR __New_ptr$[ebp]
	push	eax
	call	??$_Unfancy@D@std@@YAPADPAD@Z		; std::_Unfancy<char>
	add	esp, 4
	mov	DWORD PTR __Raw_new$[ebp], eax

; 4346 :         if (_BUF_SIZE <= _Old_capacity) {

	cmp	DWORD PTR __Old_capacity$[ebp], 16	; 00000010H
	jb	SHORT $LN3@Reallocate

; 4347 :             const pointer _Old_ptr = _My_data._Bx._Ptr;

	mov	eax, DWORD PTR __My_data$[ebp]
	mov	ecx, DWORD PTR [eax+4]
	mov	DWORD PTR __Old_ptr$1[ebp], ecx

; 4348 :             _Fn(_Raw_new, _Unfancy(_Old_ptr), _Old_size, _Args...);

	mov	eax, DWORD PTR __Old_size$[ebp]
	push	eax
	mov	ecx, DWORD PTR __Old_ptr$1[ebp]
	push	ecx
	call	??$_Unfancy@D@std@@YAPADPAD@Z		; std::_Unfancy<char>
	add	esp, 4
	push	eax
	mov	edx, DWORD PTR __Raw_new$[ebp]
	push	edx
	lea	ecx, DWORD PTR __Fn$[ebp]
	call	??R<lambda_67d87d4aa1269033985980465fd1d824>@@QBEXQADQBDI@Z ; <lambda_67d87d4aa1269033985980465fd1d824>::operator()

; 4349 :             _Al.deallocate(_Old_ptr, _Old_capacity + 1);

	mov	eax, DWORD PTR __Old_capacity$[ebp]
	add	eax, 1
	push	eax
	mov	ecx, DWORD PTR __Old_ptr$1[ebp]
	push	ecx
	mov	ecx, DWORD PTR __Al$[ebp]
	call	?deallocate@?$allocator@D@std@@QAEXQADI@Z ; std::allocator<char>::deallocate

; 4350 :             _My_data._Bx._Ptr = _New_ptr;

	mov	eax, DWORD PTR __My_data$[ebp]
	mov	ecx, DWORD PTR __New_ptr$[ebp]
	mov	DWORD PTR [eax+4], ecx

; 4351 :         } else {

	jmp	SHORT $LN4@Reallocate
$LN3@Reallocate:

; 4352 :             _Fn(_Raw_new, _My_data._Bx._Buf, _Old_size, _Args...);

	mov	eax, DWORD PTR __Old_size$[ebp]
	push	eax
	mov	ecx, DWORD PTR __My_data$[ebp]
	add	ecx, 4
	push	ecx
	mov	edx, DWORD PTR __Raw_new$[ebp]
	push	edx
	lea	ecx, DWORD PTR __Fn$[ebp]
	call	??R<lambda_67d87d4aa1269033985980465fd1d824>@@QBEXQADQBDI@Z ; <lambda_67d87d4aa1269033985980465fd1d824>::operator()

; 4353 :             _Construct_in_place(_My_data._Bx._Ptr, _New_ptr);

	lea	eax, DWORD PTR __New_ptr$[ebp]
	push	eax
	mov	ecx, DWORD PTR __My_data$[ebp]
	add	ecx, 4
	push	ecx
	call	??$_Construct_in_place@PADABQAD@std@@YAXAAPADABQAD@Z ; std::_Construct_in_place<char *,char * const &>
	add	esp, 8
$LN4@Reallocate:

; 4354 :         }
; 4355 : 
; 4356 :         return *this;

	mov	eax, DWORD PTR _this$[ebp]
$LN5@Reallocate:

; 4357 :     }

	push	edx
	mov	ecx, ebp
	push	eax
	lea	edx, DWORD PTR $LN8@Reallocate
	call	@_RTC_CheckStackVars@8
	pop	eax
	pop	edx
	pop	edi
	pop	esi
	pop	ebx
	mov	ecx, DWORD PTR __$ArrayPad$[ebp]
	xor	ecx, ebp
	call	@__security_check_cookie@4
	add	esp, 316				; 0000013cH
	cmp	ebp, esp
	call	__RTC_CheckEsp
	mov	esp, ebp
	pop	ebp
	ret	8
	npad	1
$LN8@Reallocate:
	DD	1
	DD	$LN7@Reallocate
$LN7@Reallocate:
	DD	-96					; ffffffa0H
	DD	4
	DD	$LN6@Reallocate
$LN6@Reallocate:
	DB	95					; 0000005fH
	DB	78					; 0000004eH
	DB	101					; 00000065H
	DB	119					; 00000077H
	DB	95					; 0000005fH
	DB	112					; 00000070H
	DB	116					; 00000074H
	DB	114					; 00000072H
	DB	0
??$_Reallocate_grow_by@V<lambda_67d87d4aa1269033985980465fd1d824>@@$$V@?$basic_string@DU?$char_traits@D@std@@V?$allocator@D@2@@std@@AAEAAV01@IV<lambda_67d87d4aa1269033985980465fd1d824>@@@Z ENDP ; std::basic_string<char,std::char_traits<char>,std::allocator<char> >::_Reallocate_grow_by<<lambda_67d87d4aa1269033985980465fd1d824> >
_TEXT	ENDS
; Function compile flags: /Odtp /RTCsu /ZI
; File C:\Program Files (x86)\Microsoft Visual Studio\2019\Professional\VC\Tools\MSVC\14.28.29333\include\xstring
;	COMDAT ??R<lambda_67d87d4aa1269033985980465fd1d824>@@QBEXQADQBDI@Z
_TEXT	SEGMENT
_this$ = -8						; size = 4
__New_ptr$ = 8						; size = 4
__Old_ptr$ = 12						; size = 4
__Old_size$ = 16					; size = 4
??R<lambda_67d87d4aa1269033985980465fd1d824>@@QBEXQADQBDI@Z PROC ; <lambda_67d87d4aa1269033985980465fd1d824>::operator(), COMDAT
; _this$ = ecx

; 3829 :                 _Newcap - _Old_size, [](_Elem* const _New_ptr, const _Elem* const _Old_ptr, const size_type _Old_size) {

	push	ebp
	mov	ebp, esp
	sub	esp, 204				; 000000ccH
	push	ebx
	push	esi
	push	edi
	push	ecx
	lea	edi, DWORD PTR [ebp-204]
	mov	ecx, 51					; 00000033H
	mov	eax, -858993460				; ccccccccH
	rep stosd
	pop	ecx
	mov	DWORD PTR _this$[ebp], ecx
	mov	ecx, OFFSET __C00D0CE5_xstring
	call	@__CheckForDebuggerJustMyCode@4

; 3830 :                     _Traits::copy(_New_ptr, _Old_ptr, _Old_size + 1);

	mov	eax, DWORD PTR __Old_size$[ebp]
	add	eax, 1
	push	eax
	mov	ecx, DWORD PTR __Old_ptr$[ebp]
	push	ecx
	mov	edx, DWORD PTR __New_ptr$[ebp]
	push	edx
	call	?copy@?$_Char_traits@DH@std@@SAPADQADQBDI@Z ; std::_Char_traits<char,int>::copy
	add	esp, 12					; 0000000cH

; 3831 :                 });

	pop	edi
	pop	esi
	pop	ebx
	add	esp, 204				; 000000ccH
	cmp	ebp, esp
	call	__RTC_CheckEsp
	mov	esp, ebp
	pop	ebp
	ret	12					; 0000000cH
??R<lambda_67d87d4aa1269033985980465fd1d824>@@QBEXQADQBDI@Z ENDP ; <lambda_67d87d4aa1269033985980465fd1d824>::operator()
_TEXT	ENDS
; Function compile flags: /Odtp /RTCsu /ZI
; File C:\Program Files (x86)\Microsoft Visual Studio\2019\Professional\VC\Tools\MSVC\14.28.29333\include\xmemory
;	COMDAT ??$?0$$V@?$_Compressed_pair@V?$allocator@_W@std@@V?$_String_val@U?$_Simple_types@_W@std@@@2@$00@std@@QAE@U_Zero_then_variadic_args_t@1@@Z
_TEXT	SEGMENT
_this$ = -8						; size = 4
___formal$ = 8						; size = 1
??$?0$$V@?$_Compressed_pair@V?$allocator@_W@std@@V?$_String_val@U?$_Simple_types@_W@std@@@2@$00@std@@QAE@U_Zero_then_variadic_args_t@1@@Z PROC ; std::_Compressed_pair<std::allocator<wchar_t>,std::_String_val<std::_Simple_types<wchar_t> >,1>::_Compressed_pair<std::allocator<wchar_t>,std::_String_val<std::_Simple_types<wchar_t> >,1><>, COMDAT
; _this$ = ecx

; 1339 :         : _Ty1(), _Myval2(_STD forward<_Other2>(_Val2)...) {}

	push	ebp
	mov	ebp, esp
	sub	esp, 204				; 000000ccH
	push	ebx
	push	esi
	push	edi
	push	ecx
	lea	edi, DWORD PTR [ebp-204]
	mov	ecx, 51					; 00000033H
	mov	eax, -858993460				; ccccccccH
	rep stosd
	pop	ecx
	mov	DWORD PTR _this$[ebp], ecx
	mov	ecx, OFFSET __B4DE8A79_xmemory
	call	@__CheckForDebuggerJustMyCode@4
	mov	ecx, DWORD PTR _this$[ebp]
	call	??0?$allocator@_W@std@@QAE@XZ		; std::allocator<wchar_t>::allocator<wchar_t>
	mov	ecx, DWORD PTR _this$[ebp]
	call	??0?$_String_val@U?$_Simple_types@_W@std@@@std@@QAE@XZ ; std::_String_val<std::_Simple_types<wchar_t> >::_String_val<std::_Simple_types<wchar_t> >
	mov	eax, DWORD PTR _this$[ebp]
	pop	edi
	pop	esi
	pop	ebx
	add	esp, 204				; 000000ccH
	cmp	ebp, esp
	call	__RTC_CheckEsp
	mov	esp, ebp
	pop	ebp
	ret	4
??$?0$$V@?$_Compressed_pair@V?$allocator@_W@std@@V?$_String_val@U?$_Simple_types@_W@std@@@2@$00@std@@QAE@U_Zero_then_variadic_args_t@1@@Z ENDP ; std::_Compressed_pair<std::allocator<wchar_t>,std::_String_val<std::_Simple_types<wchar_t> >,1>::_Compressed_pair<std::allocator<wchar_t>,std::_String_val<std::_Simple_types<wchar_t> >,1><>
_TEXT	ENDS
; Function compile flags: /Odtp /RTCsu /ZI
; File C:\Program Files (x86)\Microsoft Visual Studio\2019\Professional\VC\Tools\MSVC\14.28.29333\include\xmemory
;	COMDAT ??$?0V?$allocator@_W@std@@$$V@?$_Compressed_pair@V?$allocator@_W@std@@V?$_String_val@U?$_Simple_types@_W@std@@@2@$00@std@@QAE@U_One_then_variadic_args_t@1@$$QAV?$allocator@_W@1@@Z
_TEXT	SEGMENT
_this$ = -8						; size = 4
___formal$ = 8						; size = 1
__Val1$ = 12						; size = 4
??$?0V?$allocator@_W@std@@$$V@?$_Compressed_pair@V?$allocator@_W@std@@V?$_String_val@U?$_Simple_types@_W@std@@@2@$00@std@@QAE@U_One_then_variadic_args_t@1@$$QAV?$allocator@_W@1@@Z PROC ; std::_Compressed_pair<std::allocator<wchar_t>,std::_String_val<std::_Simple_types<wchar_t> >,1>::_Compressed_pair<std::allocator<wchar_t>,std::_String_val<std::_Simple_types<wchar_t> >,1><std::allocator<wchar_t> >, COMDAT
; _this$ = ecx

; 1344 :         : _Ty1(_STD forward<_Other1>(_Val1)), _Myval2(_STD forward<_Other2>(_Val2)...) {}

	push	ebp
	mov	ebp, esp
	sub	esp, 204				; 000000ccH
	push	ebx
	push	esi
	push	edi
	push	ecx
	lea	edi, DWORD PTR [ebp-204]
	mov	ecx, 51					; 00000033H
	mov	eax, -858993460				; ccccccccH
	rep stosd
	pop	ecx
	mov	DWORD PTR _this$[ebp], ecx
	mov	ecx, OFFSET __B4DE8A79_xmemory
	call	@__CheckForDebuggerJustMyCode@4
	mov	eax, DWORD PTR __Val1$[ebp]
	push	eax
	call	??$forward@V?$allocator@_W@std@@@std@@YA$$QAV?$allocator@_W@0@AAV10@@Z ; std::forward<std::allocator<wchar_t> >
	add	esp, 4
	mov	ecx, DWORD PTR _this$[ebp]
	call	??0?$_String_val@U?$_Simple_types@_W@std@@@std@@QAE@XZ ; std::_String_val<std::_Simple_types<wchar_t> >::_String_val<std::_Simple_types<wchar_t> >
	mov	eax, DWORD PTR _this$[ebp]
	pop	edi
	pop	esi
	pop	ebx
	add	esp, 204				; 000000ccH
	cmp	ebp, esp
	call	__RTC_CheckEsp
	mov	esp, ebp
	pop	ebp
	ret	8
??$?0V?$allocator@_W@std@@$$V@?$_Compressed_pair@V?$allocator@_W@std@@V?$_String_val@U?$_Simple_types@_W@std@@@2@$00@std@@QAE@U_One_then_variadic_args_t@1@$$QAV?$allocator@_W@1@@Z ENDP ; std::_Compressed_pair<std::allocator<wchar_t>,std::_String_val<std::_Simple_types<wchar_t> >,1>::_Compressed_pair<std::allocator<wchar_t>,std::_String_val<std::_Simple_types<wchar_t> >,1><std::allocator<wchar_t> >
_TEXT	ENDS
; Function compile flags: /Odtp /RTCsu /ZI
; File C:\Program Files (x86)\Microsoft Visual Studio\2019\Professional\VC\Tools\MSVC\14.28.29333\include\type_traits
;	COMDAT ??$move@AAV?$allocator@_W@std@@@std@@YA$$QAV?$allocator@_W@0@AAV10@@Z
_TEXT	SEGMENT
__Arg$ = 8						; size = 4
??$move@AAV?$allocator@_W@std@@@std@@YA$$QAV?$allocator@_W@0@AAV10@@Z PROC ; std::move<std::allocator<wchar_t> &>, COMDAT

; 1454 : _NODISCARD constexpr remove_reference_t<_Ty>&& move(_Ty&& _Arg) noexcept { // forward _Arg as movable

	push	ebp
	mov	ebp, esp
	sub	esp, 192				; 000000c0H
	push	ebx
	push	esi
	push	edi
	lea	edi, DWORD PTR [ebp-192]
	mov	ecx, 48					; 00000030H
	mov	eax, -858993460				; ccccccccH
	rep stosd
	mov	ecx, OFFSET __77E6CA79_type_traits
	call	@__CheckForDebuggerJustMyCode@4

; 1455 :     return static_cast<remove_reference_t<_Ty>&&>(_Arg);

	mov	eax, DWORD PTR __Arg$[ebp]

; 1456 : }

	pop	edi
	pop	esi
	pop	ebx
	add	esp, 192				; 000000c0H
	cmp	ebp, esp
	call	__RTC_CheckEsp
	mov	esp, ebp
	pop	ebp
	ret	0
??$move@AAV?$allocator@_W@std@@@std@@YA$$QAV?$allocator@_W@0@AAV10@@Z ENDP ; std::move<std::allocator<wchar_t> &>
_TEXT	ENDS
; Function compile flags: /Odtp /RTCsu /ZI
; File C:\Program Files (x86)\Microsoft Visual Studio\2019\Professional\VC\Tools\MSVC\14.28.29333\include\xmemory
;	COMDAT ??$?0_W@?$allocator@U_Container_proxy@std@@@std@@QAE@ABV?$allocator@_W@1@@Z
_TEXT	SEGMENT
_this$ = -8						; size = 4
___formal$ = 8						; size = 4
??$?0_W@?$allocator@U_Container_proxy@std@@@std@@QAE@ABV?$allocator@_W@1@@Z PROC ; std::allocator<std::_Container_proxy>::allocator<std::_Container_proxy><wchar_t>, COMDAT
; _this$ = ecx

; 806  :     constexpr allocator(const allocator<_Other>&) noexcept {}

	push	ebp
	mov	ebp, esp
	sub	esp, 204				; 000000ccH
	push	ebx
	push	esi
	push	edi
	push	ecx
	lea	edi, DWORD PTR [ebp-204]
	mov	ecx, 51					; 00000033H
	mov	eax, -858993460				; ccccccccH
	rep stosd
	pop	ecx
	mov	DWORD PTR _this$[ebp], ecx
	mov	ecx, OFFSET __B4DE8A79_xmemory
	call	@__CheckForDebuggerJustMyCode@4
	mov	eax, DWORD PTR _this$[ebp]
	pop	edi
	pop	esi
	pop	ebx
	add	esp, 204				; 000000ccH
	cmp	ebp, esp
	call	__RTC_CheckEsp
	mov	esp, ebp
	pop	ebp
	ret	4
??$?0_W@?$allocator@U_Container_proxy@std@@@std@@QAE@ABV?$allocator@_W@1@@Z ENDP ; std::allocator<std::_Container_proxy>::allocator<std::_Container_proxy><wchar_t>
_TEXT	ENDS
; Function compile flags: /Odtp /RTCsu /ZI
; File C:\Program Files (x86)\Microsoft Visual Studio\2019\Professional\VC\Tools\MSVC\14.28.29333\include\xstddef
;	COMDAT ??$addressof@V?$_String_val@U?$_Simple_types@_W@std@@@std@@@std@@YAPAV?$_String_val@U?$_Simple_types@_W@std@@@0@AAV10@@Z
_TEXT	SEGMENT
__Val$ = 8						; size = 4
??$addressof@V?$_String_val@U?$_Simple_types@_W@std@@@std@@@std@@YAPAV?$_String_val@U?$_Simple_types@_W@std@@@0@AAV10@@Z PROC ; std::addressof<std::_String_val<std::_Simple_types<wchar_t> > >, COMDAT

; 274  : _NODISCARD constexpr _Ty* addressof(_Ty& _Val) noexcept {

	push	ebp
	mov	ebp, esp
	sub	esp, 192				; 000000c0H
	push	ebx
	push	esi
	push	edi
	lea	edi, DWORD PTR [ebp-192]
	mov	ecx, 48					; 00000030H
	mov	eax, -858993460				; ccccccccH
	rep stosd
	mov	ecx, OFFSET __29547EA8_xstddef
	call	@__CheckForDebuggerJustMyCode@4

; 275  :     return __builtin_addressof(_Val);

	mov	eax, DWORD PTR __Val$[ebp]

; 276  : }

	pop	edi
	pop	esi
	pop	ebx
	add	esp, 192				; 000000c0H
	cmp	ebp, esp
	call	__RTC_CheckEsp
	mov	esp, ebp
	pop	ebp
	ret	0
??$addressof@V?$_String_val@U?$_Simple_types@_W@std@@@std@@@std@@YAPAV?$_String_val@U?$_Simple_types@_W@std@@@0@AAV10@@Z ENDP ; std::addressof<std::_String_val<std::_Simple_types<wchar_t> > >
_TEXT	ENDS
; Function compile flags: /Odtp /RTCsu /ZI
; File C:\Program Files (x86)\Microsoft Visual Studio\2019\Professional\VC\Tools\MSVC\14.28.29333\include\xstddef
;	COMDAT ??$addressof@$$CBV?$_String_val@U?$_Simple_types@_W@std@@@std@@@std@@YAPBV?$_String_val@U?$_Simple_types@_W@std@@@0@ABV10@@Z
_TEXT	SEGMENT
__Val$ = 8						; size = 4
??$addressof@$$CBV?$_String_val@U?$_Simple_types@_W@std@@@std@@@std@@YAPBV?$_String_val@U?$_Simple_types@_W@std@@@0@ABV10@@Z PROC ; std::addressof<std::_String_val<std::_Simple_types<wchar_t> > const >, COMDAT

; 274  : _NODISCARD constexpr _Ty* addressof(_Ty& _Val) noexcept {

	push	ebp
	mov	ebp, esp
	sub	esp, 192				; 000000c0H
	push	ebx
	push	esi
	push	edi
	lea	edi, DWORD PTR [ebp-192]
	mov	ecx, 48					; 00000030H
	mov	eax, -858993460				; ccccccccH
	rep stosd
	mov	ecx, OFFSET __29547EA8_xstddef
	call	@__CheckForDebuggerJustMyCode@4

; 275  :     return __builtin_addressof(_Val);

	mov	eax, DWORD PTR __Val$[ebp]

; 276  : }

	pop	edi
	pop	esi
	pop	ebx
	add	esp, 192				; 000000c0H
	cmp	ebp, esp
	call	__RTC_CheckEsp
	mov	esp, ebp
	pop	ebp
	ret	0
??$addressof@$$CBV?$_String_val@U?$_Simple_types@_W@std@@@std@@@std@@YAPBV?$_String_val@U?$_Simple_types@_W@std@@@0@ABV10@@Z ENDP ; std::addressof<std::_String_val<std::_Simple_types<wchar_t> > const >
_TEXT	ENDS
; Function compile flags: /Odtp /RTCsu /ZI
; File C:\Program Files (x86)\Microsoft Visual Studio\2019\Professional\VC\Tools\MSVC\14.28.29333\include\utility
;	COMDAT ??$max@I@std@@YAABIABI0@Z
_TEXT	SEGMENT
tv65 = -208						; size = 4
$T1 = -200						; size = 4
__Left$ = 8						; size = 4
__Right$ = 12						; size = 4
??$max@I@std@@YAABIABI0@Z PROC				; std::max<unsigned int>, COMDAT

; 42   :     const _Ty& _Left, const _Ty& _Right) noexcept(noexcept(_Left < _Right)) /* strengthened */ {

	push	ebp
	mov	ebp, esp
	sub	esp, 208				; 000000d0H
	push	ebx
	push	esi
	push	edi
	lea	edi, DWORD PTR [ebp-208]
	mov	ecx, 52					; 00000034H
	mov	eax, -858993460				; ccccccccH
	rep stosd
	mov	ecx, OFFSET __DE4BE9BA_utility
	call	@__CheckForDebuggerJustMyCode@4

; 43   :     // return larger of _Left and _Right
; 44   :     return _Left < _Right ? _Right : _Left;

	mov	eax, DWORD PTR __Left$[ebp]
	mov	ecx, DWORD PTR __Right$[ebp]
	mov	edx, DWORD PTR [eax]
	cmp	edx, DWORD PTR [ecx]
	jae	SHORT $LN3@max
	mov	eax, DWORD PTR __Right$[ebp]
	mov	DWORD PTR tv65[ebp], eax
	jmp	SHORT $LN4@max
$LN3@max:
	mov	ecx, DWORD PTR __Left$[ebp]
	mov	DWORD PTR tv65[ebp], ecx
$LN4@max:
	mov	edx, DWORD PTR tv65[ebp]
	mov	DWORD PTR $T1[ebp], edx
	mov	eax, DWORD PTR $T1[ebp]

; 45   : }

	pop	edi
	pop	esi
	pop	ebx
	add	esp, 208				; 000000d0H
	cmp	ebp, esp
	call	__RTC_CheckEsp
	mov	esp, ebp
	pop	ebp
	ret	0
??$max@I@std@@YAABIABI0@Z ENDP				; std::max<unsigned int>
_TEXT	ENDS
; Function compile flags: /Odtp /RTCsu /ZI
; File C:\Program Files (x86)\Microsoft Visual Studio\2019\Professional\VC\Tools\MSVC\14.28.29333\include\xmemory
;	COMDAT ??1?$_Container_proxy_ptr12@V?$allocator@U_Container_proxy@std@@@std@@@std@@QAE@XZ
_TEXT	SEGMENT
_this$ = -8						; size = 4
??1?$_Container_proxy_ptr12@V?$allocator@U_Container_proxy@std@@@std@@@std@@QAE@XZ PROC ; std::_Container_proxy_ptr12<std::allocator<std::_Container_proxy> >::~_Container_proxy_ptr12<std::allocator<std::_Container_proxy> >, COMDAT
; _this$ = ecx

; 1303 :     ~_Container_proxy_ptr12() {

	push	ebp
	mov	ebp, esp
	sub	esp, 204				; 000000ccH
	push	ebx
	push	esi
	push	edi
	push	ecx
	lea	edi, DWORD PTR [ebp-204]
	mov	ecx, 51					; 00000033H
	mov	eax, -858993460				; ccccccccH
	rep stosd
	pop	ecx
	mov	DWORD PTR _this$[ebp], ecx
	mov	ecx, OFFSET __B4DE8A79_xmemory
	call	@__CheckForDebuggerJustMyCode@4

; 1304 :         if (_Ptr) {

	mov	eax, DWORD PTR _this$[ebp]
	cmp	DWORD PTR [eax], 0
	je	SHORT $LN3@Container_

; 1305 :             _Delete_plain_internal(_Al, _Ptr);

	mov	eax, DWORD PTR _this$[ebp]
	mov	ecx, DWORD PTR [eax]
	push	ecx
	mov	edx, DWORD PTR _this$[ebp]
	mov	eax, DWORD PTR [edx+4]
	push	eax
	call	??$_Delete_plain_internal@V?$allocator@U_Container_proxy@std@@@std@@@std@@YAXAAV?$allocator@U_Container_proxy@std@@@0@QAU_Container_proxy@0@@Z ; std::_Delete_plain_internal<std::allocator<std::_Container_proxy> >
	add	esp, 8
$LN3@Container_:

; 1306 :         }
; 1307 :     }

	pop	edi
	pop	esi
	pop	ebx
	add	esp, 204				; 000000ccH
	cmp	ebp, esp
	call	__RTC_CheckEsp
	mov	esp, ebp
	pop	ebp
	ret	0
??1?$_Container_proxy_ptr12@V?$allocator@U_Container_proxy@std@@@std@@@std@@QAE@XZ ENDP ; std::_Container_proxy_ptr12<std::allocator<std::_Container_proxy> >::~_Container_proxy_ptr12<std::allocator<std::_Container_proxy> >
_TEXT	ENDS
; Function compile flags: /Odtp /RTCsu /ZI
; File C:\Program Files (x86)\Microsoft Visual Studio\2019\Professional\VC\Tools\MSVC\14.28.29333\include\xmemory
;	COMDAT ??0?$_Container_proxy_ptr12@V?$allocator@U_Container_proxy@std@@@std@@@std@@QAE@AAV?$allocator@U_Container_proxy@std@@@1@AAU_Container_base12@1@@Z
_TEXT	SEGMENT
$T1 = -212						; size = 4
_this$ = -8						; size = 4
__Al_$ = 8						; size = 4
__Mycont$ = 12						; size = 4
??0?$_Container_proxy_ptr12@V?$allocator@U_Container_proxy@std@@@std@@@std@@QAE@AAV?$allocator@U_Container_proxy@std@@@1@AAU_Container_base12@1@@Z PROC ; std::_Container_proxy_ptr12<std::allocator<std::_Container_proxy> >::_Container_proxy_ptr12<std::allocator<std::_Container_proxy> >, COMDAT
; _this$ = ecx

; 1289 :     _Container_proxy_ptr12(_Alloc& _Al_, _Container_base12& _Mycont)

	push	ebp
	mov	ebp, esp
	sub	esp, 216				; 000000d8H
	push	ebx
	push	esi
	push	edi
	push	ecx
	lea	edi, DWORD PTR [ebp-216]
	mov	ecx, 54					; 00000036H
	mov	eax, -858993460				; ccccccccH
	rep stosd
	pop	ecx
	mov	DWORD PTR _this$[ebp], ecx
	mov	ecx, OFFSET __B4DE8A79_xmemory
	call	@__CheckForDebuggerJustMyCode@4

; 1290 :         : _Al(_Al_) { // create a new _Container_proxy pointing at _Mycont

	mov	eax, DWORD PTR _this$[ebp]
	mov	ecx, DWORD PTR __Al_$[ebp]
	mov	DWORD PTR [eax+4], ecx

; 1291 :         _Ptr = _Unfancy(_Al_.allocate(1));

	push	1
	mov	ecx, DWORD PTR __Al_$[ebp]
	call	?allocate@?$allocator@U_Container_proxy@std@@@std@@QAEPAU_Container_proxy@2@I@Z ; std::allocator<std::_Container_proxy>::allocate
	push	eax
	call	??$_Unfancy@U_Container_proxy@std@@@std@@YAPAU_Container_proxy@0@PAU10@@Z ; std::_Unfancy<std::_Container_proxy>
	add	esp, 4
	mov	ecx, DWORD PTR _this$[ebp]
	mov	DWORD PTR [ecx], eax

; 1292 :         _Construct_in_place(*_Ptr, _STD addressof(_Mycont));

	mov	eax, DWORD PTR __Mycont$[ebp]
	push	eax
	call	??$addressof@U_Container_base12@std@@@std@@YAPAU_Container_base12@0@AAU10@@Z ; std::addressof<std::_Container_base12>
	add	esp, 4
	mov	DWORD PTR $T1[ebp], eax
	lea	ecx, DWORD PTR $T1[ebp]
	push	ecx
	mov	edx, DWORD PTR _this$[ebp]
	mov	eax, DWORD PTR [edx]
	push	eax
	call	??$_Construct_in_place@U_Container_proxy@std@@PAU_Container_base12@2@@std@@YAXAAU_Container_proxy@0@$$QAPAU_Container_base12@0@@Z ; std::_Construct_in_place<std::_Container_proxy,std::_Container_base12 *>
	add	esp, 8

; 1293 :         _Mycont._Myproxy = _Ptr;

	mov	eax, DWORD PTR __Mycont$[ebp]
	mov	ecx, DWORD PTR _this$[ebp]
	mov	edx, DWORD PTR [ecx]
	mov	DWORD PTR [eax], edx

; 1294 :     }

	mov	eax, DWORD PTR _this$[ebp]
	pop	edi
	pop	esi
	pop	ebx
	add	esp, 216				; 000000d8H
	cmp	ebp, esp
	call	__RTC_CheckEsp
	mov	esp, ebp
	pop	ebp
	ret	8
??0?$_Container_proxy_ptr12@V?$allocator@U_Container_proxy@std@@@std@@@std@@QAE@AAV?$allocator@U_Container_proxy@std@@@1@AAU_Container_base12@1@@Z ENDP ; std::_Container_proxy_ptr12<std::allocator<std::_Container_proxy> >::_Container_proxy_ptr12<std::allocator<std::_Container_proxy> >
_TEXT	ENDS
; Function compile flags: /Odtp /RTCsu /ZI
; File C:\Program Files (x86)\Microsoft Visual Studio\2019\Professional\VC\Tools\MSVC\14.28.29333\include\xmemory
;	COMDAT ??$_Alloc_proxy@V?$allocator@U_Container_proxy@std@@@std@@@_Container_base12@std@@QAEX$$QAV?$allocator@U_Container_proxy@std@@@1@@Z
_TEXT	SEGMENT
$T1 = -224						; size = 4
__New_proxy$ = -20					; size = 4
_this$ = -8						; size = 4
__Al$ = 8						; size = 4
??$_Alloc_proxy@V?$allocator@U_Container_proxy@std@@@std@@@_Container_base12@std@@QAEX$$QAV?$allocator@U_Container_proxy@std@@@1@@Z PROC ; std::_Container_base12::_Alloc_proxy<std::allocator<std::_Container_proxy> >, COMDAT
; _this$ = ecx

; 1106 :     void _Alloc_proxy(_Alloc&& _Al) {

	push	ebp
	mov	ebp, esp
	sub	esp, 228				; 000000e4H
	push	ebx
	push	esi
	push	edi
	push	ecx
	lea	edi, DWORD PTR [ebp-228]
	mov	ecx, 57					; 00000039H
	mov	eax, -858993460				; ccccccccH
	rep stosd
	pop	ecx
	mov	DWORD PTR _this$[ebp], ecx
	mov	ecx, OFFSET __B4DE8A79_xmemory
	call	@__CheckForDebuggerJustMyCode@4

; 1107 :         _Container_proxy* const _New_proxy = _Unfancy(_Al.allocate(1));

	push	1
	mov	ecx, DWORD PTR __Al$[ebp]
	call	?allocate@?$allocator@U_Container_proxy@std@@@std@@QAEPAU_Container_proxy@2@I@Z ; std::allocator<std::_Container_proxy>::allocate
	push	eax
	call	??$_Unfancy@U_Container_proxy@std@@@std@@YAPAU_Container_proxy@0@PAU10@@Z ; std::_Unfancy<std::_Container_proxy>
	add	esp, 4
	mov	DWORD PTR __New_proxy$[ebp], eax

; 1108 :         _Construct_in_place(*_New_proxy, this);

	mov	eax, DWORD PTR _this$[ebp]
	mov	DWORD PTR $T1[ebp], eax
	lea	ecx, DWORD PTR $T1[ebp]
	push	ecx
	mov	edx, DWORD PTR __New_proxy$[ebp]
	push	edx
	call	??$_Construct_in_place@U_Container_proxy@std@@PAU_Container_base12@2@@std@@YAXAAU_Container_proxy@0@$$QAPAU_Container_base12@0@@Z ; std::_Construct_in_place<std::_Container_proxy,std::_Container_base12 *>
	add	esp, 8

; 1109 :         _Myproxy            = _New_proxy;

	mov	eax, DWORD PTR _this$[ebp]
	mov	ecx, DWORD PTR __New_proxy$[ebp]
	mov	DWORD PTR [eax], ecx

; 1110 :         _New_proxy->_Mycont = this;

	mov	eax, DWORD PTR __New_proxy$[ebp]
	mov	ecx, DWORD PTR _this$[ebp]
	mov	DWORD PTR [eax], ecx

; 1111 :     }

	pop	edi
	pop	esi
	pop	ebx
	add	esp, 228				; 000000e4H
	cmp	ebp, esp
	call	__RTC_CheckEsp
	mov	esp, ebp
	pop	ebp
	ret	4
??$_Alloc_proxy@V?$allocator@U_Container_proxy@std@@@std@@@_Container_base12@std@@QAEX$$QAV?$allocator@U_Container_proxy@std@@@1@@Z ENDP ; std::_Container_base12::_Alloc_proxy<std::allocator<std::_Container_proxy> >
_TEXT	ENDS
; Function compile flags: /Odtp /RTCsu /ZI
; File C:\Program Files (x86)\Microsoft Visual Studio\2019\Professional\VC\Tools\MSVC\14.28.29333\include\xmemory
;	COMDAT ??$_Delete_plain_internal@V?$allocator@U_Container_proxy@std@@@std@@@std@@YAXAAV?$allocator@U_Container_proxy@std@@@0@QAU_Container_proxy@0@@Z
_TEXT	SEGMENT
__Al$ = 8						; size = 4
__Ptr$ = 12						; size = 4
??$_Delete_plain_internal@V?$allocator@U_Container_proxy@std@@@std@@@std@@YAXAAV?$allocator@U_Container_proxy@std@@@0@QAU_Container_proxy@0@@Z PROC ; std::_Delete_plain_internal<std::allocator<std::_Container_proxy> >, COMDAT

; 1031 : void _Delete_plain_internal(_Alloc& _Al, typename _Alloc::value_type* const _Ptr) noexcept {

	push	ebp
	mov	ebp, esp
	sub	esp, 192				; 000000c0H
	push	ebx
	push	esi
	push	edi
	lea	edi, DWORD PTR [ebp-192]
	mov	ecx, 48					; 00000030H
	mov	eax, -858993460				; ccccccccH
	rep stosd
	mov	ecx, OFFSET __B4DE8A79_xmemory
	call	@__CheckForDebuggerJustMyCode@4

; 1032 :     // destroy *_Ptr in place, then deallocate _Ptr using _Al; used for internal container types the user didn't name
; 1033 :     using _Ty = typename _Alloc::value_type;
; 1034 :     _Ptr->~_Ty();
; 1035 :     _Deallocate_plain(_Al, _Ptr);

	mov	eax, DWORD PTR __Ptr$[ebp]
	push	eax
	mov	ecx, DWORD PTR __Al$[ebp]
	push	ecx
	call	??$_Deallocate_plain@V?$allocator@U_Container_proxy@std@@@std@@@std@@YAXAAV?$allocator@U_Container_proxy@std@@@0@QAU_Container_proxy@0@@Z ; std::_Deallocate_plain<std::allocator<std::_Container_proxy> >
	add	esp, 8

; 1036 : }

	pop	edi
	pop	esi
	pop	ebx
	add	esp, 192				; 000000c0H
	cmp	ebp, esp
	call	__RTC_CheckEsp
	mov	esp, ebp
	pop	ebp
	ret	0
??$_Delete_plain_internal@V?$allocator@U_Container_proxy@std@@@std@@@std@@YAXAAV?$allocator@U_Container_proxy@std@@@0@QAU_Container_proxy@0@@Z ENDP ; std::_Delete_plain_internal<std::allocator<std::_Container_proxy> >
_TEXT	ENDS
; Function compile flags: /Odtp /RTCsu /ZI
; File C:\Program Files (x86)\Microsoft Visual Studio\2019\Professional\VC\Tools\MSVC\14.28.29333\include\xmemory
;	COMDAT ?allocate@?$allocator@U_Container_proxy@std@@@std@@QAEPAU_Container_proxy@2@I@Z
_TEXT	SEGMENT
_this$ = -8						; size = 4
__Count$ = 8						; size = 4
?allocate@?$allocator@U_Container_proxy@std@@@std@@QAEPAU_Container_proxy@2@I@Z PROC ; std::allocator<std::_Container_proxy>::allocate, COMDAT
; _this$ = ecx

; 813  :     _NODISCARD __declspec(allocator) _Ty* allocate(_CRT_GUARDOVERFLOW const size_t _Count) {

	push	ebp
	mov	ebp, esp
	sub	esp, 204				; 000000ccH
	push	ebx
	push	esi
	push	edi
	push	ecx
	lea	edi, DWORD PTR [ebp-204]
	mov	ecx, 51					; 00000033H
	mov	eax, -858993460				; ccccccccH
	rep stosd
	pop	ecx
	mov	DWORD PTR _this$[ebp], ecx
	mov	ecx, OFFSET __B4DE8A79_xmemory
	call	@__CheckForDebuggerJustMyCode@4

; 814  :         return static_cast<_Ty*>(_Allocate<_New_alignof<_Ty>>(_Get_size_of_n<sizeof(_Ty)>(_Count)));

	mov	eax, DWORD PTR __Count$[ebp]
	push	eax
	call	??$_Get_size_of_n@$07@std@@YAII@Z	; std::_Get_size_of_n<8>
	add	esp, 4
	push	eax
	call	??$_Allocate@$07U_Default_allocate_traits@std@@$0A@@std@@YAPAXI@Z ; std::_Allocate<8,std::_Default_allocate_traits,0>
	add	esp, 4

; 815  :     }

	pop	edi
	pop	esi
	pop	ebx
	add	esp, 204				; 000000ccH
	cmp	ebp, esp
	call	__RTC_CheckEsp
	mov	esp, ebp
	pop	ebp
	ret	4
?allocate@?$allocator@U_Container_proxy@std@@@std@@QAEPAU_Container_proxy@2@I@Z ENDP ; std::allocator<std::_Container_proxy>::allocate
_TEXT	ENDS
; Function compile flags: /Odtp /RTCsu /ZI
; File C:\Program Files (x86)\Microsoft Visual Studio\2019\Professional\VC\Tools\MSVC\14.28.29333\include\xstddef
;	COMDAT ??$addressof@V?$basic_filebuf@DU?$char_traits@D@std@@@std@@@std@@YAPAV?$basic_filebuf@DU?$char_traits@D@std@@@0@AAV10@@Z
_TEXT	SEGMENT
__Val$ = 8						; size = 4
??$addressof@V?$basic_filebuf@DU?$char_traits@D@std@@@std@@@std@@YAPAV?$basic_filebuf@DU?$char_traits@D@std@@@0@AAV10@@Z PROC ; std::addressof<std::basic_filebuf<char,std::char_traits<char> > >, COMDAT

; 274  : _NODISCARD constexpr _Ty* addressof(_Ty& _Val) noexcept {

	push	ebp
	mov	ebp, esp
	sub	esp, 192				; 000000c0H
	push	ebx
	push	esi
	push	edi
	lea	edi, DWORD PTR [ebp-192]
	mov	ecx, 48					; 00000030H
	mov	eax, -858993460				; ccccccccH
	rep stosd
	mov	ecx, OFFSET __29547EA8_xstddef
	call	@__CheckForDebuggerJustMyCode@4

; 275  :     return __builtin_addressof(_Val);

	mov	eax, DWORD PTR __Val$[ebp]

; 276  : }

	pop	edi
	pop	esi
	pop	ebx
	add	esp, 192				; 000000c0H
	cmp	ebp, esp
	call	__RTC_CheckEsp
	mov	esp, ebp
	pop	ebp
	ret	0
??$addressof@V?$basic_filebuf@DU?$char_traits@D@std@@@std@@@std@@YAPAV?$basic_filebuf@DU?$char_traits@D@std@@@0@AAV10@@Z ENDP ; std::addressof<std::basic_filebuf<char,std::char_traits<char> > >
_TEXT	ENDS
; Function compile flags: /Odtp /RTCsu /ZI
; File C:\Program Files (x86)\Microsoft Visual Studio\2019\Professional\VC\Tools\MSVC\14.28.29333\include\utility
;	COMDAT ??$min@I@std@@YAABIABI0@Z
_TEXT	SEGMENT
tv65 = -208						; size = 4
$T1 = -200						; size = 4
__Left$ = 8						; size = 4
__Right$ = 12						; size = 4
??$min@I@std@@YAABIABI0@Z PROC				; std::min<unsigned int>, COMDAT

; 66   :     const _Ty& _Left, const _Ty& _Right) noexcept(noexcept(_Right < _Left)) /* strengthened */ {

	push	ebp
	mov	ebp, esp
	sub	esp, 208				; 000000d0H
	push	ebx
	push	esi
	push	edi
	lea	edi, DWORD PTR [ebp-208]
	mov	ecx, 52					; 00000034H
	mov	eax, -858993460				; ccccccccH
	rep stosd
	mov	ecx, OFFSET __DE4BE9BA_utility
	call	@__CheckForDebuggerJustMyCode@4

; 67   :     // return smaller of _Left and _Right
; 68   :     return _Right < _Left ? _Right : _Left;

	mov	eax, DWORD PTR __Right$[ebp]
	mov	ecx, DWORD PTR __Left$[ebp]
	mov	edx, DWORD PTR [eax]
	cmp	edx, DWORD PTR [ecx]
	jae	SHORT $LN3@min
	mov	eax, DWORD PTR __Right$[ebp]
	mov	DWORD PTR tv65[ebp], eax
	jmp	SHORT $LN4@min
$LN3@min:
	mov	ecx, DWORD PTR __Left$[ebp]
	mov	DWORD PTR tv65[ebp], ecx
$LN4@min:
	mov	edx, DWORD PTR tv65[ebp]
	mov	DWORD PTR $T1[ebp], edx
	mov	eax, DWORD PTR $T1[ebp]

; 69   : }

	pop	edi
	pop	esi
	pop	ebx
	add	esp, 208				; 000000d0H
	cmp	ebp, esp
	call	__RTC_CheckEsp
	mov	esp, ebp
	pop	ebp
	ret	0
??$min@I@std@@YAABIABI0@Z ENDP				; std::min<unsigned int>
_TEXT	ENDS
; Function compile flags: /Odtp /RTCsu /ZI
; File C:\Program Files (x86)\Microsoft Visual Studio\2019\Professional\VC\Tools\MSVC\14.28.29333\include\xlocale
;	COMDAT ??$use_facet@V?$codecvt@DDU_Mbstatet@@@std@@@std@@YAABV?$codecvt@DDU_Mbstatet@@@0@ABVlocale@0@@Z
_TEXT	SEGMENT
$T2 = -288						; size = 4
__Psave_guard$3 = -84					; size = 4
__Pfmod$4 = -72						; size = 4
__Pf$5 = -60						; size = 4
__Id$6 = -48						; size = 4
__Psave$7 = -36						; size = 4
__Lock$8 = -24						; size = 4
__$ArrayPad$ = -16					; size = 4
__$EHRec$ = -12						; size = 12
__Loc$ = 8						; size = 4
??$use_facet@V?$codecvt@DDU_Mbstatet@@@std@@@std@@YAABV?$codecvt@DDU_Mbstatet@@@0@ABVlocale@0@@Z PROC ; std::use_facet<std::codecvt<char,char,_Mbstatet> >, COMDAT

; 426  : const _Facet& __CRTDECL use_facet(const locale& _Loc) { // get facet reference from locale

	push	ebp
	mov	ebp, esp
	push	-1
	push	__ehhandler$??$use_facet@V?$codecvt@DDU_Mbstatet@@@std@@@std@@YAABV?$codecvt@DDU_Mbstatet@@@0@ABVlocale@0@@Z
	mov	eax, DWORD PTR fs:0
	push	eax
	sub	esp, 280				; 00000118H
	push	ebx
	push	esi
	push	edi
	lea	edi, DWORD PTR [ebp-292]
	mov	ecx, 70					; 00000046H
	mov	eax, -858993460				; ccccccccH
	rep stosd
	mov	eax, DWORD PTR ___security_cookie
	xor	eax, ebp
	mov	DWORD PTR __$ArrayPad$[ebp], eax
	push	eax
	lea	eax, DWORD PTR __$EHRec$[ebp]
	mov	DWORD PTR fs:0, eax
	mov	ecx, OFFSET __1F3378D4_xlocale
	call	@__CheckForDebuggerJustMyCode@4

; 427  :     _BEGIN_LOCK(_LOCK_LOCALE) // the thread lock, make get atomic

	mov	esi, esp
	push	0
	lea	ecx, DWORD PTR __Lock$8[ebp]
	call	DWORD PTR __imp_??0_Lockit@std@@QAE@H@Z
	cmp	esi, esp
	call	__RTC_CheckEsp
	mov	DWORD PTR __$EHRec$[ebp+8], 0

; 428  :     const locale::facet* _Psave = _Facetptr<_Facet>::_Psave; // static pointer to lazy facet

	mov	eax, DWORD PTR ?_Psave@?$_Facetptr@V?$codecvt@DDU_Mbstatet@@@std@@@std@@2PBVfacet@locale@2@B ; std::_Facetptr<std::codecvt<char,char,_Mbstatet> >::_Psave
	mov	DWORD PTR __Psave$7[ebp], eax

; 429  : 
; 430  :     const size_t _Id         = _Facet::id;

	mov	esi, esp
	mov	ecx, DWORD PTR __imp_?id@?$codecvt@DDU_Mbstatet@@@std@@2V0locale@2@A
	call	DWORD PTR __imp_??Bid@locale@std@@QAEIXZ
	cmp	esi, esp
	call	__RTC_CheckEsp
	mov	DWORD PTR __Id$6[ebp], eax

; 431  :     const locale::facet* _Pf = _Loc._Getfacet(_Id);

	mov	eax, DWORD PTR __Id$6[ebp]
	push	eax
	mov	ecx, DWORD PTR __Loc$[ebp]
	call	?_Getfacet@locale@std@@QBEPBVfacet@12@I@Z ; std::locale::_Getfacet
	mov	DWORD PTR __Pf$5[ebp], eax

; 432  : 
; 433  :     if (!_Pf) {

	cmp	DWORD PTR __Pf$5[ebp], 0
	jne	$LN2@use_facet

; 434  :         if (_Psave) {

	cmp	DWORD PTR __Psave$7[ebp], 0
	je	SHORT $LN3@use_facet

; 435  :             _Pf = _Psave; // lazy facet already allocated

	mov	eax, DWORD PTR __Psave$7[ebp]
	mov	DWORD PTR __Pf$5[ebp], eax
	jmp	$LN2@use_facet
$LN3@use_facet:

; 436  :         } else if (_Facet::_Getcat(&_Psave, &_Loc) == static_cast<size_t>(-1)) {

	mov	esi, esp
	mov	eax, DWORD PTR __Loc$[ebp]
	push	eax
	lea	ecx, DWORD PTR __Psave$7[ebp]
	push	ecx
	call	DWORD PTR __imp_?_Getcat@?$codecvt@DDU_Mbstatet@@@std@@SAIPAPBVfacet@locale@2@PBV42@@Z
	add	esp, 8
	cmp	esi, esp
	call	__RTC_CheckEsp
	cmp	eax, -1
	jne	SHORT $LN5@use_facet

; 437  : #if _HAS_EXCEPTIONS
; 438  :             _Throw_bad_cast(); // lazy disallowed

	call	?_Throw_bad_cast@std@@YAXXZ		; std::_Throw_bad_cast

; 439  : #else // _HAS_EXCEPTIONS
; 440  :             _CSTD abort(); // lazy disallowed
; 441  : #endif // _HAS_EXCEPTIONS
; 442  :         } else { // queue up lazy facet for destruction

	jmp	SHORT $LN2@use_facet
$LN5@use_facet:

; 443  :             auto _Pfmod = const_cast<locale::facet*>(_Psave);

	mov	eax, DWORD PTR __Psave$7[ebp]
	mov	DWORD PTR __Pfmod$4[ebp], eax

; 444  :             unique_ptr<_Facet_base> _Psave_guard(static_cast<_Facet_base*>(_Pfmod));

	push	4
	lea	ecx, DWORD PTR __Psave_guard$3[ebp]
	call	?__autoclassinit2@?$unique_ptr@V_Facet_base@std@@U?$default_delete@V_Facet_base@std@@@2@@std@@QAEXI@Z
	mov	eax, DWORD PTR __Pfmod$4[ebp]
	push	eax
	lea	ecx, DWORD PTR __Psave_guard$3[ebp]
	call	??$?0U?$default_delete@V_Facet_base@std@@@std@@$0A@@?$unique_ptr@V_Facet_base@std@@U?$default_delete@V_Facet_base@std@@@2@@std@@QAE@PAV_Facet_base@1@@Z ; std::unique_ptr<std::_Facet_base,std::default_delete<std::_Facet_base> >::unique_ptr<std::_Facet_base,std::default_delete<std::_Facet_base> ><std::default_delete<std::_Facet_base>,0>
	mov	BYTE PTR __$EHRec$[ebp+8], 1

; 445  : 
; 446  : #if defined(_M_CEE)
; 447  :             _Facet_Register_m(_Pfmod);
; 448  : #else // defined(_M_CEE)
; 449  :             _Facet_Register(_Pfmod);

	mov	eax, DWORD PTR __Pfmod$4[ebp]
	push	eax
	call	?_Facet_Register@std@@YAXPAV_Facet_base@1@@Z ; std::_Facet_Register
	add	esp, 4

; 450  : #endif // defined(_M_CEE)
; 451  : 
; 452  :             _Pfmod->_Incref();

	mov	eax, DWORD PTR __Pfmod$4[ebp]
	mov	edx, DWORD PTR [eax]
	mov	esi, esp
	mov	ecx, DWORD PTR __Pfmod$4[ebp]
	mov	eax, DWORD PTR [edx+4]
	call	eax
	cmp	esi, esp
	call	__RTC_CheckEsp

; 453  :             _Facetptr<_Facet>::_Psave = _Psave;

	mov	eax, DWORD PTR __Psave$7[ebp]
	mov	DWORD PTR ?_Psave@?$_Facetptr@V?$codecvt@DDU_Mbstatet@@@std@@@std@@2PBVfacet@locale@2@B, eax ; std::_Facetptr<std::codecvt<char,char,_Mbstatet> >::_Psave

; 454  :             _Pf                       = _Psave;

	mov	eax, DWORD PTR __Psave$7[ebp]
	mov	DWORD PTR __Pf$5[ebp], eax

; 455  : 
; 456  :             (void) _Psave_guard.release();

	lea	ecx, DWORD PTR __Psave_guard$3[ebp]
	call	?release@?$unique_ptr@V_Facet_base@std@@U?$default_delete@V_Facet_base@std@@@2@@std@@QAEPAV_Facet_base@2@XZ ; std::unique_ptr<std::_Facet_base,std::default_delete<std::_Facet_base> >::release

; 457  :         }

	mov	BYTE PTR __$EHRec$[ebp+8], 0
	lea	ecx, DWORD PTR __Psave_guard$3[ebp]
	call	??1?$unique_ptr@V_Facet_base@std@@U?$default_delete@V_Facet_base@std@@@2@@std@@QAE@XZ ; std::unique_ptr<std::_Facet_base,std::default_delete<std::_Facet_base> >::~unique_ptr<std::_Facet_base,std::default_delete<std::_Facet_base> >
$LN2@use_facet:

; 458  :     }
; 459  : 
; 460  :     return static_cast<const _Facet&>(*_Pf); // should be dynamic_cast

	mov	eax, DWORD PTR __Pf$5[ebp]
	mov	DWORD PTR $T2[ebp], eax
	mov	DWORD PTR __$EHRec$[ebp+8], -1
	mov	esi, esp
	lea	ecx, DWORD PTR __Lock$8[ebp]
	call	DWORD PTR __imp_??1_Lockit@std@@QAE@XZ
	cmp	esi, esp
	call	__RTC_CheckEsp
	mov	eax, DWORD PTR $T2[ebp]
$LN7@use_facet:

; 461  :     _END_LOCK()
; 462  : } // end of use_facet body

	push	edx
	mov	ecx, ebp
	push	eax
	lea	edx, DWORD PTR $LN15@use_facet
	call	@_RTC_CheckStackVars@8
	pop	eax
	pop	edx
	mov	ecx, DWORD PTR __$EHRec$[ebp]
	mov	DWORD PTR fs:0, ecx
	pop	ecx
	pop	edi
	pop	esi
	pop	ebx
	mov	ecx, DWORD PTR __$ArrayPad$[ebp]
	xor	ecx, ebp
	call	@__security_check_cookie@4
	add	esp, 292				; 00000124H
	cmp	ebp, esp
	call	__RTC_CheckEsp
	mov	esp, ebp
	pop	ebp
	ret	0
	npad	1
$LN15@use_facet:
	DD	3
	DD	$LN14@use_facet
$LN14@use_facet:
	DD	-24					; ffffffe8H
	DD	4
	DD	$LN10@use_facet
	DD	-36					; ffffffdcH
	DD	4
	DD	$LN11@use_facet
	DD	-84					; ffffffacH
	DD	4
	DD	$LN12@use_facet
$LN12@use_facet:
	DB	95					; 0000005fH
	DB	80					; 00000050H
	DB	115					; 00000073H
	DB	97					; 00000061H
	DB	118					; 00000076H
	DB	101					; 00000065H
	DB	95					; 0000005fH
	DB	103					; 00000067H
	DB	117					; 00000075H
	DB	97					; 00000061H
	DB	114					; 00000072H
	DB	100					; 00000064H
	DB	0
$LN11@use_facet:
	DB	95					; 0000005fH
	DB	80					; 00000050H
	DB	115					; 00000073H
	DB	97					; 00000061H
	DB	118					; 00000076H
	DB	101					; 00000065H
	DB	0
$LN10@use_facet:
	DB	95					; 0000005fH
	DB	76					; 0000004cH
	DB	111					; 0000006fH
	DB	99					; 00000063H
	DB	107					; 0000006bH
	DB	0
_TEXT	ENDS
;	COMDAT text$x
text$x	SEGMENT
__unwindfunclet$??$use_facet@V?$codecvt@DDU_Mbstatet@@@std@@@std@@YAABV?$codecvt@DDU_Mbstatet@@@0@ABVlocale@0@@Z$0:
	mov	esi, esp
	lea	ecx, DWORD PTR __Lock$8[ebp]
	call	DWORD PTR __imp_??1_Lockit@std@@QAE@XZ
	cmp	esi, esp
	jmp	__RTC_CheckEsp
__unwindfunclet$??$use_facet@V?$codecvt@DDU_Mbstatet@@@std@@@std@@YAABV?$codecvt@DDU_Mbstatet@@@0@ABVlocale@0@@Z$1:
	lea	ecx, DWORD PTR __Psave_guard$3[ebp]
	jmp	??1?$unique_ptr@V_Facet_base@std@@U?$default_delete@V_Facet_base@std@@@2@@std@@QAE@XZ ; std::unique_ptr<std::_Facet_base,std::default_delete<std::_Facet_base> >::~unique_ptr<std::_Facet_base,std::default_delete<std::_Facet_base> >
	int	3
	int	3
	int	3
	int	3
	int	3
__ehhandler$??$use_facet@V?$codecvt@DDU_Mbstatet@@@std@@@std@@YAABV?$codecvt@DDU_Mbstatet@@@0@ABVlocale@0@@Z:
	npad	1
	npad	1
	mov	edx, DWORD PTR [esp+8]
	lea	eax, DWORD PTR [edx+12]
	mov	ecx, DWORD PTR [edx-296]
	xor	ecx, eax
	call	@__security_check_cookie@4
	mov	ecx, DWORD PTR [edx-4]
	xor	ecx, eax
	call	@__security_check_cookie@4
	mov	eax, OFFSET __ehfuncinfo$??$use_facet@V?$codecvt@DDU_Mbstatet@@@std@@@std@@YAABV?$codecvt@DDU_Mbstatet@@@0@ABVlocale@0@@Z
	jmp	___CxxFrameHandler3
text$x	ENDS
??$use_facet@V?$codecvt@DDU_Mbstatet@@@std@@@std@@YAABV?$codecvt@DDU_Mbstatet@@@0@ABVlocale@0@@Z ENDP ; std::use_facet<std::codecvt<char,char,_Mbstatet> >
; Function compile flags: /Odtp /RTCsu /ZI
; File C:\Program Files (x86)\Microsoft Visual Studio\2019\Professional\VC\Tools\MSVC\14.28.29333\include\filesystem
;	COMDAT ??$?0PBD$0A@@path@filesystem@std@@QAE@ABQBDW4format@012@@Z
_TEXT	SEGMENT
$T1 = -209						; size = 1
_this$ = -8						; size = 4
__Source$ = 8						; size = 4
___formal$ = 12						; size = 4
??$?0PBD$0A@@path@filesystem@std@@QAE@ABQBDW4format@012@@Z PROC ; std::filesystem::path::path<char const *,0>, COMDAT
; _this$ = ecx

; 711  :         path(const _Src& _Source, format = auto_format) : _Text(_Convert_Source_to_wide(_Source)) {

	push	ebp
	mov	ebp, esp
	sub	esp, 216				; 000000d8H
	push	ebx
	push	esi
	push	edi
	push	ecx
	lea	edi, DWORD PTR [ebp-216]
	mov	ecx, 54					; 00000036H
	mov	eax, -858993460				; ccccccccH
	rep stosd
	pop	ecx
	mov	DWORD PTR _this$[ebp], ecx
	mov	ecx, OFFSET __A704387C_filesystem
	call	@__CheckForDebuggerJustMyCode@4
	xor	eax, eax
	mov	BYTE PTR $T1[ebp], al
	movzx	ecx, BYTE PTR $T1[ebp]
	push	ecx
	mov	edx, DWORD PTR __Source$[ebp]
	push	edx
	mov	eax, DWORD PTR _this$[ebp]
	push	eax
	call	??$_Convert_Source_to_wide@PBDU_Normal_conversion@filesystem@std@@@filesystem@std@@YA?AV?$basic_string@_WU?$char_traits@_W@std@@V?$allocator@_W@2@@1@ABQBDU_Normal_conversion@01@@Z ; std::filesystem::_Convert_Source_to_wide<char const *,std::filesystem::_Normal_conversion>
	add	esp, 12					; 0000000cH

; 712  :             // format has no meaning for this implementation, as the generic grammar is acceptable as a native path
; 713  :         }

	mov	eax, DWORD PTR _this$[ebp]
	pop	edi
	pop	esi
	pop	ebx
	add	esp, 216				; 000000d8H
	cmp	ebp, esp
	call	__RTC_CheckEsp
	mov	esp, ebp
	pop	ebp
	ret	8
??$?0PBD$0A@@path@filesystem@std@@QAE@ABQBDW4format@012@@Z ENDP ; std::filesystem::path::path<char const *,0>
_TEXT	ENDS
; Function compile flags: /Odtp /RTCsu /ZI
;	COMDAT ??_D?$basic_fstream@DU?$char_traits@D@std@@@std@@QAEXXZ
_TEXT	SEGMENT
_this$ = -8						; size = 4
??_D?$basic_fstream@DU?$char_traits@D@std@@@std@@QAEXXZ PROC ; std::basic_fstream<char,std::char_traits<char> >::`vbase destructor', COMDAT
; _this$ = ecx
	push	ebp
	mov	ebp, esp
	sub	esp, 204				; 000000ccH
	push	ebx
	push	esi
	push	edi
	push	ecx
	lea	edi, DWORD PTR [ebp-204]
	mov	ecx, 51					; 00000033H
	mov	eax, -858993460				; ccccccccH
	rep stosd
	pop	ecx
	mov	DWORD PTR _this$[ebp], ecx
	mov	ecx, DWORD PTR _this$[ebp]
	add	ecx, 120				; 00000078H
	call	??1?$basic_fstream@DU?$char_traits@D@std@@@std@@UAE@XZ ; std::basic_fstream<char,std::char_traits<char> >::~basic_fstream<char,std::char_traits<char> >
	mov	ecx, DWORD PTR _this$[ebp]
	add	ecx, 120				; 00000078H
	mov	esi, esp
	call	DWORD PTR __imp_??1?$basic_ios@DU?$char_traits@D@std@@@std@@UAE@XZ
	cmp	esi, esp
	call	__RTC_CheckEsp
	pop	edi
	pop	esi
	pop	ebx
	add	esp, 204				; 000000ccH
	cmp	ebp, esp
	call	__RTC_CheckEsp
	mov	esp, ebp
	pop	ebp
	ret	0
??_D?$basic_fstream@DU?$char_traits@D@std@@@std@@QAEXXZ ENDP ; std::basic_fstream<char,std::char_traits<char> >::`vbase destructor'
_TEXT	ENDS
; Function compile flags: /Odtp /RTCsu /ZI
;	COMDAT ??_G?$basic_fstream@DU?$char_traits@D@std@@@std@@UAEPAXI@Z
_TEXT	SEGMENT
_this$ = -8						; size = 4
___flags$ = 8						; size = 4
??_G?$basic_fstream@DU?$char_traits@D@std@@@std@@UAEPAXI@Z PROC ; std::basic_fstream<char,std::char_traits<char> >::`scalar deleting destructor', COMDAT
; _this$ = ecx
	push	ebp
	mov	ebp, esp
	sub	esp, 204				; 000000ccH
	push	ebx
	push	esi
	push	edi
	push	ecx
	lea	edi, DWORD PTR [ebp-204]
	mov	ecx, 51					; 00000033H
	mov	eax, -858993460				; ccccccccH
	rep stosd
	pop	ecx
	mov	DWORD PTR _this$[ebp], ecx
	mov	ecx, DWORD PTR _this$[ebp]
	sub	ecx, 120				; 00000078H
	call	??_D?$basic_fstream@DU?$char_traits@D@std@@@std@@QAEXXZ
	mov	eax, DWORD PTR ___flags$[ebp]
	and	eax, 1
	je	SHORT $LN2@scalar
	push	192					; 000000c0H
	mov	eax, DWORD PTR _this$[ebp]
	sub	eax, 120				; 00000078H
	push	eax
	call	??3@YAXPAXI@Z				; operator delete
	add	esp, 8
$LN2@scalar:
	mov	eax, DWORD PTR _this$[ebp]
	sub	eax, 120				; 00000078H
	pop	edi
	pop	esi
	pop	ebx
	add	esp, 204				; 000000ccH
	cmp	ebp, esp
	call	__RTC_CheckEsp
	mov	esp, ebp
	pop	ebp
	ret	4
??_G?$basic_fstream@DU?$char_traits@D@std@@@std@@UAEPAXI@Z ENDP ; std::basic_fstream<char,std::char_traits<char> >::`scalar deleting destructor'
_TEXT	ENDS
; Function compile flags: /Odtp /RTCsu /ZI
;	COMDAT ?__autoclassinit2@?$basic_fstream@DU?$char_traits@D@std@@@std@@QAEXI@Z
_TEXT	SEGMENT
_this$ = -8						; size = 4
_classSize$ = 8						; size = 4
?__autoclassinit2@?$basic_fstream@DU?$char_traits@D@std@@@std@@QAEXI@Z PROC ; std::basic_fstream<char,std::char_traits<char> >::__autoclassinit2, COMDAT
; _this$ = ecx
	push	ebp
	mov	ebp, esp
	sub	esp, 204				; 000000ccH
	push	ebx
	push	esi
	push	edi
	push	ecx
	lea	edi, DWORD PTR [ebp-204]
	mov	ecx, 51					; 00000033H
	mov	eax, -858993460				; ccccccccH
	rep stosd
	pop	ecx
	mov	DWORD PTR _this$[ebp], ecx
	mov	eax, DWORD PTR _classSize$[ebp]
	push	eax
	push	0
	mov	ecx, DWORD PTR _this$[ebp]
	push	ecx
	call	_memset
	add	esp, 12					; 0000000cH
	pop	edi
	pop	esi
	pop	ebx
	add	esp, 204				; 000000ccH
	cmp	ebp, esp
	call	__RTC_CheckEsp
	mov	esp, ebp
	pop	ebp
	ret	4
?__autoclassinit2@?$basic_fstream@DU?$char_traits@D@std@@@std@@QAEXI@Z ENDP ; std::basic_fstream<char,std::char_traits<char> >::__autoclassinit2
_TEXT	ENDS
; Function compile flags: /Odtp /RTCsu /ZI
;	COMDAT ??_G?$basic_filebuf@DU?$char_traits@D@std@@@std@@UAEPAXI@Z
_TEXT	SEGMENT
_this$ = -8						; size = 4
___flags$ = 8						; size = 4
??_G?$basic_filebuf@DU?$char_traits@D@std@@@std@@UAEPAXI@Z PROC ; std::basic_filebuf<char,std::char_traits<char> >::`scalar deleting destructor', COMDAT
; _this$ = ecx
	push	ebp
	mov	ebp, esp
	sub	esp, 204				; 000000ccH
	push	ebx
	push	esi
	push	edi
	push	ecx
	lea	edi, DWORD PTR [ebp-204]
	mov	ecx, 51					; 00000033H
	mov	eax, -858993460				; ccccccccH
	rep stosd
	pop	ecx
	mov	DWORD PTR _this$[ebp], ecx
	mov	ecx, DWORD PTR _this$[ebp]
	call	??1?$basic_filebuf@DU?$char_traits@D@std@@@std@@UAE@XZ ; std::basic_filebuf<char,std::char_traits<char> >::~basic_filebuf<char,std::char_traits<char> >
	mov	eax, DWORD PTR ___flags$[ebp]
	and	eax, 1
	je	SHORT $LN2@scalar
	push	88					; 00000058H
	mov	eax, DWORD PTR _this$[ebp]
	push	eax
	call	??3@YAXPAXI@Z				; operator delete
	add	esp, 8
$LN2@scalar:
	mov	eax, DWORD PTR _this$[ebp]
	pop	edi
	pop	esi
	pop	ebx
	add	esp, 204				; 000000ccH
	cmp	ebp, esp
	call	__RTC_CheckEsp
	mov	esp, ebp
	pop	ebp
	ret	4
??_G?$basic_filebuf@DU?$char_traits@D@std@@@std@@UAEPAXI@Z ENDP ; std::basic_filebuf<char,std::char_traits<char> >::`scalar deleting destructor'
_TEXT	ENDS
; Function compile flags: /Odtp /RTCsu /ZI
; File C:\Program Files (x86)\Microsoft Visual Studio\2019\Professional\VC\Tools\MSVC\14.28.29333\include\fstream
;	COMDAT ?_Set_back@?$basic_filebuf@DU?$char_traits@D@std@@@std@@AAEXXZ
_TEXT	SEGMENT
_this$ = -8						; size = 4
?_Set_back@?$basic_filebuf@DU?$char_traits@D@std@@@std@@AAEXXZ PROC ; std::basic_filebuf<char,std::char_traits<char> >::_Set_back, COMDAT
; _this$ = ecx

; 779  :     void _Set_back() { // set up putback area

	push	ebp
	mov	ebp, esp
	sub	esp, 204				; 000000ccH
	push	ebx
	push	esi
	push	edi
	push	ecx
	lea	edi, DWORD PTR [ebp-204]
	mov	ecx, 51					; 00000033H
	mov	eax, -858993460				; ccccccccH
	rep stosd
	pop	ecx
	mov	DWORD PTR _this$[ebp], ecx
	mov	ecx, OFFSET __99BBE7C3_fstream
	call	@__CheckForDebuggerJustMyCode@4

; 780  :         if (_Mysb::eback() != &_Mychar) { // save current get buffer

	mov	esi, esp
	mov	ecx, DWORD PTR _this$[ebp]
	call	DWORD PTR __imp_?eback@?$basic_streambuf@DU?$char_traits@D@std@@@std@@IBEPADXZ
	cmp	esi, esp
	call	__RTC_CheckEsp
	mov	ecx, DWORD PTR _this$[ebp]
	add	ecx, 60					; 0000003cH
	cmp	eax, ecx
	je	SHORT $LN2@Set_back

; 781  :             _Set_eback = _Mysb::eback();

	mov	esi, esp
	mov	ecx, DWORD PTR _this$[ebp]
	call	DWORD PTR __imp_?eback@?$basic_streambuf@DU?$char_traits@D@std@@@std@@IBEPADXZ
	cmp	esi, esp
	call	__RTC_CheckEsp
	mov	ecx, DWORD PTR _this$[ebp]
	mov	DWORD PTR [ecx+80], eax

; 782  :             _Set_egptr = _Mysb::egptr();

	mov	esi, esp
	mov	ecx, DWORD PTR _this$[ebp]
	call	DWORD PTR __imp_?egptr@?$basic_streambuf@DU?$char_traits@D@std@@@std@@IBEPADXZ
	cmp	esi, esp
	call	__RTC_CheckEsp
	mov	ecx, DWORD PTR _this$[ebp]
	mov	DWORD PTR [ecx+84], eax
$LN2@Set_back:

; 783  :         }
; 784  :         _Mysb::setg(&_Mychar, &_Mychar, &_Mychar + 1);

	mov	eax, DWORD PTR _this$[ebp]
	add	eax, 61					; 0000003dH
	mov	esi, esp
	push	eax
	mov	ecx, DWORD PTR _this$[ebp]
	add	ecx, 60					; 0000003cH
	push	ecx
	mov	edx, DWORD PTR _this$[ebp]
	add	edx, 60					; 0000003cH
	push	edx
	mov	ecx, DWORD PTR _this$[ebp]
	call	DWORD PTR __imp_?setg@?$basic_streambuf@DU?$char_traits@D@std@@@std@@IAEXPAD00@Z
	cmp	esi, esp
	call	__RTC_CheckEsp

; 785  :     }

	pop	edi
	pop	esi
	pop	ebx
	add	esp, 204				; 000000ccH
	cmp	ebp, esp
	call	__RTC_CheckEsp
	mov	esp, ebp
	pop	ebp
	ret	0
?_Set_back@?$basic_filebuf@DU?$char_traits@D@std@@@std@@AAEXXZ ENDP ; std::basic_filebuf<char,std::char_traits<char> >::_Set_back
_TEXT	ENDS
; Function compile flags: /Odtp /RTCsu /ZI
; File C:\Program Files (x86)\Microsoft Visual Studio\2019\Professional\VC\Tools\MSVC\14.28.29333\include\fstream
;	COMDAT ?_Reset_back@?$basic_filebuf@DU?$char_traits@D@std@@@std@@AAEXXZ
_TEXT	SEGMENT
_this$ = -8						; size = 4
?_Reset_back@?$basic_filebuf@DU?$char_traits@D@std@@@std@@AAEXXZ PROC ; std::basic_filebuf<char,std::char_traits<char> >::_Reset_back, COMDAT
; _this$ = ecx

; 773  :     void _Reset_back() { // restore buffer after putback

	push	ebp
	mov	ebp, esp
	sub	esp, 204				; 000000ccH
	push	ebx
	push	esi
	push	edi
	push	ecx
	lea	edi, DWORD PTR [ebp-204]
	mov	ecx, 51					; 00000033H
	mov	eax, -858993460				; ccccccccH
	rep stosd
	pop	ecx
	mov	DWORD PTR _this$[ebp], ecx
	mov	ecx, OFFSET __99BBE7C3_fstream
	call	@__CheckForDebuggerJustMyCode@4

; 774  :         if (_Mysb::eback() == &_Mychar) {

	mov	esi, esp
	mov	ecx, DWORD PTR _this$[ebp]
	call	DWORD PTR __imp_?eback@?$basic_streambuf@DU?$char_traits@D@std@@@std@@IBEPADXZ
	cmp	esi, esp
	call	__RTC_CheckEsp
	mov	ecx, DWORD PTR _this$[ebp]
	add	ecx, 60					; 0000003cH
	cmp	eax, ecx
	jne	SHORT $LN1@Reset_back

; 775  :             _Mysb::setg(_Set_eback, _Set_eback, _Set_egptr);

	mov	esi, esp
	mov	eax, DWORD PTR _this$[ebp]
	mov	ecx, DWORD PTR [eax+84]
	push	ecx
	mov	edx, DWORD PTR _this$[ebp]
	mov	eax, DWORD PTR [edx+80]
	push	eax
	mov	ecx, DWORD PTR _this$[ebp]
	mov	edx, DWORD PTR [ecx+80]
	push	edx
	mov	ecx, DWORD PTR _this$[ebp]
	call	DWORD PTR __imp_?setg@?$basic_streambuf@DU?$char_traits@D@std@@@std@@IAEXPAD00@Z
	cmp	esi, esp
	call	__RTC_CheckEsp
$LN1@Reset_back:

; 776  :         }
; 777  :     }

	pop	edi
	pop	esi
	pop	ebx
	add	esp, 204				; 000000ccH
	cmp	ebp, esp
	call	__RTC_CheckEsp
	mov	esp, ebp
	pop	ebp
	ret	0
?_Reset_back@?$basic_filebuf@DU?$char_traits@D@std@@@std@@AAEXXZ ENDP ; std::basic_filebuf<char,std::char_traits<char> >::_Reset_back
_TEXT	ENDS
; Function compile flags: /Odtp /RTCsu /ZI
; File C:\Program Files (x86)\Microsoft Visual Studio\2019\Professional\VC\Tools\MSVC\14.28.29333\include\fstream
;	COMDAT ?_Initcvt@?$basic_filebuf@DU?$char_traits@D@std@@@std@@IAEXABV?$codecvt@DDU_Mbstatet@@@2@@Z
_TEXT	SEGMENT
_this$ = -8						; size = 4
__Newcvt$ = 8						; size = 4
?_Initcvt@?$basic_filebuf@DU?$char_traits@D@std@@@std@@IAEXABV?$codecvt@DDU_Mbstatet@@@2@@Z PROC ; std::basic_filebuf<char,std::char_traits<char> >::_Initcvt, COMDAT
; _this$ = ecx

; 756  :     void _Initcvt(const _Cvt& _Newcvt) { // initialize codecvt pointer

	push	ebp
	mov	ebp, esp
	sub	esp, 204				; 000000ccH
	push	ebx
	push	esi
	push	edi
	push	ecx
	lea	edi, DWORD PTR [ebp-204]
	mov	ecx, 51					; 00000033H
	mov	eax, -858993460				; ccccccccH
	rep stosd
	pop	ecx
	mov	DWORD PTR _this$[ebp], ecx
	mov	ecx, OFFSET __99BBE7C3_fstream
	call	@__CheckForDebuggerJustMyCode@4

; 757  :         if (_Newcvt.always_noconv()) {

	mov	esi, esp
	mov	ecx, DWORD PTR __Newcvt$[ebp]
	call	DWORD PTR __imp_?always_noconv@codecvt_base@std@@QBE_NXZ
	cmp	esi, esp
	call	__RTC_CheckEsp
	movzx	eax, al
	test	eax, eax
	je	SHORT $LN2@Initcvt

; 758  :             _Pcvt = nullptr; // nothing to do

	mov	eax, DWORD PTR _this$[ebp]
	mov	DWORD PTR [eax+56], 0

; 759  :         } else { // set up for nontrivial codecvt facet

	jmp	SHORT $LN1@Initcvt
$LN2@Initcvt:

; 760  :             _Pcvt = _STD addressof(_Newcvt);

	mov	eax, DWORD PTR __Newcvt$[ebp]
	push	eax
	call	??$addressof@$$CBV?$codecvt@DDU_Mbstatet@@@std@@@std@@YAPBV?$codecvt@DDU_Mbstatet@@@0@ABV10@@Z ; std::addressof<std::codecvt<char,char,_Mbstatet> const >
	add	esp, 4
	mov	ecx, DWORD PTR _this$[ebp]
	mov	DWORD PTR [ecx+56], eax

; 761  :             _Mysb::_Init(); // reset any buffering

	mov	esi, esp
	mov	ecx, DWORD PTR _this$[ebp]
	call	DWORD PTR __imp_?_Init@?$basic_streambuf@DU?$char_traits@D@std@@@std@@IAEXXZ
	cmp	esi, esp
	call	__RTC_CheckEsp
$LN1@Initcvt:

; 762  :         }
; 763  :     }

	pop	edi
	pop	esi
	pop	ebx
	add	esp, 204				; 000000ccH
	cmp	ebp, esp
	call	__RTC_CheckEsp
	mov	esp, ebp
	pop	ebp
	ret	4
?_Initcvt@?$basic_filebuf@DU?$char_traits@D@std@@@std@@IAEXABV?$codecvt@DDU_Mbstatet@@@2@@Z ENDP ; std::basic_filebuf<char,std::char_traits<char> >::_Initcvt
_TEXT	ENDS
; Function compile flags: /Odtp /RTCsu /ZI
; File C:\Program Files (x86)\Microsoft Visual Studio\2019\Professional\VC\Tools\MSVC\14.28.29333\include\fstream
;	COMDAT ?_Endwrite@?$basic_filebuf@DU?$char_traits@D@std@@@std@@IAE_NXZ
_TEXT	SEGMENT
tv132 = -316						; size = 4
tv81 = -316						; size = 4
tv146 = -312						; size = 4
tv131 = -312						; size = 4
tv83 = -312						; size = 4
$T1 = -304						; size = 4
$T2 = -292						; size = 4
__Count$3 = -88						; size = 4
__Dest$ = -76						; size = 4
__Str$ = -64						; size = 32
__Codecvt_temp_buf$ = -24				; size = 4
_this$ = -12						; size = 4
__$ArrayPad$ = -4					; size = 4
?_Endwrite@?$basic_filebuf@DU?$char_traits@D@std@@@std@@IAE_NXZ PROC ; std::basic_filebuf<char,std::char_traits<char> >::_Endwrite, COMDAT
; _this$ = ecx

; 720  :     bool _Endwrite() { // put shift to initial conversion state, as needed

	push	ebp
	mov	ebp, esp
	sub	esp, 316				; 0000013cH
	push	ebx
	push	esi
	push	edi
	push	ecx
	lea	edi, DWORD PTR [ebp-316]
	mov	ecx, 79					; 0000004fH
	mov	eax, -858993460				; ccccccccH
	rep stosd
	pop	ecx
	mov	eax, DWORD PTR ___security_cookie
	xor	eax, ebp
	mov	DWORD PTR __$ArrayPad$[ebp], eax
	mov	DWORD PTR _this$[ebp], ecx
	mov	ecx, OFFSET __99BBE7C3_fstream
	call	@__CheckForDebuggerJustMyCode@4

; 721  :         if (!_Pcvt || !_Wrotesome) {

	mov	eax, DWORD PTR _this$[ebp]
	cmp	DWORD PTR [eax+56], 0
	je	SHORT $LN5@Endwrite
	mov	eax, DWORD PTR _this$[ebp]
	movzx	ecx, BYTE PTR [eax+61]
	test	ecx, ecx
	jne	SHORT $LN4@Endwrite
$LN5@Endwrite:

; 722  :             return true;

	mov	al, 1
	jmp	$LN1@Endwrite
$LN4@Endwrite:

; 723  :         }
; 724  : 
; 725  :         // may have to put
; 726  :         if (_Traits::eq_int_type(_Traits::eof(), overflow())) {

	mov	eax, DWORD PTR _this$[ebp]
	mov	ecx, DWORD PTR [eax]
	mov	edx, DWORD PTR [ecx+12]
	mov	DWORD PTR tv83[ebp], edx
	call	?eof@?$_Narrow_char_traits@DH@std@@SAHXZ ; std::_Narrow_char_traits<char,int>::eof
	mov	DWORD PTR tv81[ebp], eax
	mov	esi, esp
	mov	eax, DWORD PTR tv81[ebp]
	push	eax
	mov	ecx, DWORD PTR _this$[ebp]
	call	DWORD PTR tv83[ebp]
	cmp	esi, esp
	call	__RTC_CheckEsp
	mov	DWORD PTR $T2[ebp], eax
	call	?eof@?$_Narrow_char_traits@DH@std@@SAHXZ ; std::_Narrow_char_traits<char,int>::eof
	mov	DWORD PTR $T1[ebp], eax
	lea	ecx, DWORD PTR $T2[ebp]
	push	ecx
	lea	edx, DWORD PTR $T1[ebp]
	push	edx
	call	?eq_int_type@?$_Narrow_char_traits@DH@std@@SA_NABH0@Z ; std::_Narrow_char_traits<char,int>::eq_int_type
	add	esp, 8
	movzx	eax, al
	test	eax, eax
	je	SHORT $LN6@Endwrite

; 727  :             return false;

	xor	al, al
	jmp	$LN1@Endwrite
$LN6@Endwrite:

; 728  :         }
; 729  : 
; 730  :         constexpr size_t _Codecvt_temp_buf = 32;

	mov	DWORD PTR __Codecvt_temp_buf$[ebp], 32	; 00000020H

; 731  :         char _Str[_Codecvt_temp_buf];
; 732  :         char* _Dest;
; 733  :         switch (_Pcvt->unshift(_State, _Str, _Str + _Codecvt_temp_buf, _Dest)) { // test result of homing conversion

	mov	eax, DWORD PTR _this$[ebp]
	mov	ecx, DWORD PTR [eax+56]
	mov	DWORD PTR tv131[ebp], ecx
	mov	esi, esp
	lea	edx, DWORD PTR __Dest$[ebp]
	push	edx
	lea	eax, DWORD PTR __Str$[ebp+32]
	push	eax
	lea	ecx, DWORD PTR __Str$[ebp]
	push	ecx
	mov	edx, DWORD PTR _this$[ebp]
	add	edx, 64					; 00000040H
	push	edx
	mov	ecx, DWORD PTR tv131[ebp]
	call	DWORD PTR __imp_?unshift@?$codecvt@DDU_Mbstatet@@@std@@QBEHAAU_Mbstatet@@PAD1AAPAD@Z
	cmp	esi, esp
	call	__RTC_CheckEsp
	mov	DWORD PTR tv132[ebp], eax
	cmp	DWORD PTR tv132[ebp], 0
	je	SHORT $LN7@Endwrite
	cmp	DWORD PTR tv132[ebp], 1
	je	SHORT $LN8@Endwrite
	cmp	DWORD PTR tv132[ebp], 3
	je	SHORT $LN10@Endwrite
	jmp	SHORT $LN11@Endwrite
$LN7@Endwrite:

; 734  :         case codecvt_base::ok:
; 735  :             _Wrotesome = false; // homed successfully

	mov	eax, DWORD PTR _this$[ebp]
	mov	BYTE PTR [eax+61], 0
$LN8@Endwrite:

; 736  : 
; 737  :         case codecvt_base::partial: // fall through
; 738  :         { // put any generated bytes
; 739  :             const auto _Count = static_cast<size_t>(_Dest - _Str);

	mov	eax, DWORD PTR __Dest$[ebp]
	lea	ecx, DWORD PTR __Str$[ebp]
	sub	eax, ecx
	mov	DWORD PTR __Count$3[ebp], eax

; 740  :             if (0 < _Count && _Count != static_cast<size_t>(_CSTD fwrite(_Str, 1, _Count, _Myfile))) {

	je	SHORT $LN9@Endwrite
	mov	esi, esp
	mov	eax, DWORD PTR _this$[ebp]
	mov	ecx, DWORD PTR [eax+76]
	push	ecx
	mov	edx, DWORD PTR __Count$3[ebp]
	push	edx
	push	1
	lea	eax, DWORD PTR __Str$[ebp]
	push	eax
	call	DWORD PTR __imp__fwrite
	add	esp, 16					; 00000010H
	cmp	esi, esp
	call	__RTC_CheckEsp
	cmp	DWORD PTR __Count$3[ebp], eax
	je	SHORT $LN9@Endwrite

; 741  :                 return false; // write failed

	xor	al, al
	jmp	SHORT $LN1@Endwrite
$LN9@Endwrite:

; 742  :             }
; 743  : 
; 744  :             return !_Wrotesome;

	mov	eax, DWORD PTR _this$[ebp]
	movzx	ecx, BYTE PTR [eax+61]
	test	ecx, ecx
	jne	SHORT $LN13@Endwrite
	mov	DWORD PTR tv146[ebp], 1
	jmp	SHORT $LN14@Endwrite
$LN13@Endwrite:
	mov	DWORD PTR tv146[ebp], 0
$LN14@Endwrite:
	mov	al, BYTE PTR tv146[ebp]
	jmp	SHORT $LN1@Endwrite
$LN10@Endwrite:

; 745  :         }
; 746  : 
; 747  :         case codecvt_base::noconv:
; 748  :             _Wrotesome = false; // homed successfully

	mov	eax, DWORD PTR _this$[ebp]
	mov	BYTE PTR [eax+61], 0

; 749  :             return true; // nothing else to do

	mov	al, 1
	jmp	SHORT $LN1@Endwrite
$LN11@Endwrite:

; 750  : 
; 751  :         default:
; 752  :             return false; // conversion failed

	xor	al, al
$LN1@Endwrite:

; 753  :         }
; 754  :     }

	push	edx
	mov	ecx, ebp
	push	eax
	lea	edx, DWORD PTR $LN18@Endwrite
	call	@_RTC_CheckStackVars@8
	pop	eax
	pop	edx
	pop	edi
	pop	esi
	pop	ebx
	mov	ecx, DWORD PTR __$ArrayPad$[ebp]
	xor	ecx, ebp
	call	@__security_check_cookie@4
	add	esp, 316				; 0000013cH
	cmp	ebp, esp
	call	__RTC_CheckEsp
	mov	esp, ebp
	pop	ebp
	ret	0
$LN18@Endwrite:
	DD	2
	DD	$LN17@Endwrite
$LN17@Endwrite:
	DD	-64					; ffffffc0H
	DD	32					; 00000020H
	DD	$LN15@Endwrite
	DD	-76					; ffffffb4H
	DD	4
	DD	$LN16@Endwrite
$LN16@Endwrite:
	DB	95					; 0000005fH
	DB	68					; 00000044H
	DB	101					; 00000065H
	DB	115					; 00000073H
	DB	116					; 00000074H
	DB	0
$LN15@Endwrite:
	DB	95					; 0000005fH
	DB	83					; 00000053H
	DB	116					; 00000074H
	DB	114					; 00000072H
	DB	0
?_Endwrite@?$basic_filebuf@DU?$char_traits@D@std@@@std@@IAE_NXZ ENDP ; std::basic_filebuf<char,std::char_traits<char> >::_Endwrite
_TEXT	ENDS
; Function compile flags: /Odtp /RTCsu /ZI
; File C:\Program Files (x86)\Microsoft Visual Studio\2019\Professional\VC\Tools\MSVC\14.28.29333\include\fstream
;	COMDAT ?_Init@?$basic_filebuf@DU?$char_traits@D@std@@@std@@IAEXPAU_iobuf@@W4_Initfl@12@@Z
_TEXT	SEGMENT
tv66 = -260						; size = 4
__Nw$1 = -60						; size = 4
__Nr$2 = -48						; size = 4
__Pn$3 = -36						; size = 4
__Pb$4 = -24						; size = 4
_this$ = -12						; size = 4
__$ArrayPad$ = -4					; size = 4
__File$ = 8						; size = 4
__Which$ = 12						; size = 4
?_Init@?$basic_filebuf@DU?$char_traits@D@std@@@std@@IAEXPAU_iobuf@@W4_Initfl@12@@Z PROC ; std::basic_filebuf<char,std::char_traits<char> >::_Init, COMDAT
; _this$ = ecx

; 693  :     void _Init(FILE* _File, _Initfl _Which) { // initialize to C stream _File after {new, open, close}

	push	ebp
	mov	ebp, esp
	sub	esp, 260				; 00000104H
	push	ebx
	push	esi
	push	edi
	push	ecx
	lea	edi, DWORD PTR [ebp-260]
	mov	ecx, 65					; 00000041H
	mov	eax, -858993460				; ccccccccH
	rep stosd
	pop	ecx
	mov	eax, DWORD PTR ___security_cookie
	xor	eax, ebp
	mov	DWORD PTR __$ArrayPad$[ebp], eax
	mov	DWORD PTR _this$[ebp], ecx
	mov	ecx, OFFSET __99BBE7C3_fstream
	call	@__CheckForDebuggerJustMyCode@4

; 694  :         using _State_type = typename _Traits::state_type;
; 695  : 
; 696  :         __PURE_APPDOMAIN_GLOBAL static _State_type _Stinit; // initial state
; 697  : 
; 698  :         _Closef    = _Which == _Openfl;

	cmp	DWORD PTR __Which$[ebp], 1
	jne	SHORT $LN4@Init
	mov	DWORD PTR tv66[ebp], 1
	jmp	SHORT $LN5@Init
$LN4@Init:
	mov	DWORD PTR tv66[ebp], 0
$LN5@Init:
	mov	eax, DWORD PTR _this$[ebp]
	mov	cl, BYTE PTR tv66[ebp]
	mov	BYTE PTR [eax+72], cl

; 699  :         _Wrotesome = false;

	mov	eax, DWORD PTR _this$[ebp]
	mov	BYTE PTR [eax+61], 0

; 700  : 
; 701  :         _Mysb::_Init(); // initialize stream buffer base object

	mov	esi, esp
	mov	ecx, DWORD PTR _this$[ebp]
	call	DWORD PTR __imp_?_Init@?$basic_streambuf@DU?$char_traits@D@std@@@std@@IAEXXZ
	cmp	esi, esp
	call	__RTC_CheckEsp

; 702  : 
; 703  :         if (_File && sizeof(_Elem) == 1) { // point inside C stream with [first, first + count) buffer

	cmp	DWORD PTR __File$[ebp], 0
	je	SHORT $LN2@Init
	mov	eax, 1
	test	eax, eax
	je	SHORT $LN2@Init

; 704  :             _Elem** _Pb = nullptr;

	mov	DWORD PTR __Pb$4[ebp], 0

; 705  :             _Elem** _Pn = nullptr;

	mov	DWORD PTR __Pn$3[ebp], 0

; 706  :             int* _Nr    = nullptr;

	mov	DWORD PTR __Nr$2[ebp], 0

; 707  : 
; 708  :             ::_get_stream_buffer_pointers(

	mov	esi, esp
	lea	eax, DWORD PTR __Nr$2[ebp]
	push	eax
	lea	ecx, DWORD PTR __Pn$3[ebp]
	push	ecx
	lea	edx, DWORD PTR __Pb$4[ebp]
	push	edx
	mov	eax, DWORD PTR __File$[ebp]
	push	eax
	call	DWORD PTR __imp___get_stream_buffer_pointers
	add	esp, 16					; 00000010H
	cmp	esi, esp
	call	__RTC_CheckEsp

; 709  :                 _File, reinterpret_cast<char***>(&_Pb), reinterpret_cast<char***>(&_Pn), &_Nr);
; 710  :             int* _Nw = _Nr;

	mov	eax, DWORD PTR __Nr$2[ebp]
	mov	DWORD PTR __Nw$1[ebp], eax

; 711  : 
; 712  :             _Mysb::_Init(_Pb, _Pn, _Nr, _Pb, _Pn, _Nw);

	mov	esi, esp
	mov	eax, DWORD PTR __Nw$1[ebp]
	push	eax
	mov	ecx, DWORD PTR __Pn$3[ebp]
	push	ecx
	mov	edx, DWORD PTR __Pb$4[ebp]
	push	edx
	mov	eax, DWORD PTR __Nr$2[ebp]
	push	eax
	mov	ecx, DWORD PTR __Pn$3[ebp]
	push	ecx
	mov	edx, DWORD PTR __Pb$4[ebp]
	push	edx
	mov	ecx, DWORD PTR _this$[ebp]
	call	DWORD PTR __imp_?_Init@?$basic_streambuf@DU?$char_traits@D@std@@@std@@IAEXPAPAD0PAH001@Z
	cmp	esi, esp
	call	__RTC_CheckEsp
$LN2@Init:

; 713  :         }
; 714  : 
; 715  :         _Myfile = _File;

	mov	eax, DWORD PTR _this$[ebp]
	mov	ecx, DWORD PTR __File$[ebp]
	mov	DWORD PTR [eax+76], ecx

; 716  :         _State  = _Stinit;

	mov	eax, DWORD PTR _this$[ebp]
	mov	ecx, DWORD PTR ?_Stinit@?1??_Init@?$basic_filebuf@DU?$char_traits@D@std@@@std@@IAEXPAU_iobuf@@W4_Initfl@23@@Z@4U_Mbstatet@@A
	mov	edx, DWORD PTR ?_Stinit@?1??_Init@?$basic_filebuf@DU?$char_traits@D@std@@@std@@IAEXPAU_iobuf@@W4_Initfl@23@@Z@4U_Mbstatet@@A+4
	mov	DWORD PTR [eax+64], ecx
	mov	DWORD PTR [eax+68], edx

; 717  :         _Pcvt   = nullptr; // pointer to codecvt facet

	mov	eax, DWORD PTR _this$[ebp]
	mov	DWORD PTR [eax+56], 0

; 718  :     }

	push	edx
	mov	ecx, ebp
	push	eax
	lea	edx, DWORD PTR $LN10@Init
	call	@_RTC_CheckStackVars@8
	pop	eax
	pop	edx
	pop	edi
	pop	esi
	pop	ebx
	mov	ecx, DWORD PTR __$ArrayPad$[ebp]
	xor	ecx, ebp
	call	@__security_check_cookie@4
	add	esp, 260				; 00000104H
	cmp	ebp, esp
	call	__RTC_CheckEsp
	mov	esp, ebp
	pop	ebp
	ret	8
	npad	1
$LN10@Init:
	DD	3
	DD	$LN9@Init
$LN9@Init:
	DD	-24					; ffffffe8H
	DD	4
	DD	$LN6@Init
	DD	-36					; ffffffdcH
	DD	4
	DD	$LN7@Init
	DD	-48					; ffffffd0H
	DD	4
	DD	$LN8@Init
$LN8@Init:
	DB	95					; 0000005fH
	DB	78					; 0000004eH
	DB	114					; 00000072H
	DB	0
$LN7@Init:
	DB	95					; 0000005fH
	DB	80					; 00000050H
	DB	110					; 0000006eH
	DB	0
$LN6@Init:
	DB	95					; 0000005fH
	DB	80					; 00000050H
	DB	98					; 00000062H
	DB	0
?_Init@?$basic_filebuf@DU?$char_traits@D@std@@@std@@IAEXPAU_iobuf@@W4_Initfl@12@@Z ENDP ; std::basic_filebuf<char,std::char_traits<char> >::_Init
_TEXT	ENDS
; Function compile flags: /Odtp /RTCsu /ZI
; File C:\Program Files (x86)\Microsoft Visual Studio\2019\Professional\VC\Tools\MSVC\14.28.29333\include\fstream
;	COMDAT ?imbue@?$basic_filebuf@DU?$char_traits@D@std@@@std@@MAEXABVlocale@2@@Z
_TEXT	SEGMENT
_this$ = -8						; size = 4
__Loc$ = 8						; size = 4
?imbue@?$basic_filebuf@DU?$char_traits@D@std@@@std@@MAEXABVlocale@2@@Z PROC ; std::basic_filebuf<char,std::char_traits<char> >::imbue, COMDAT
; _this$ = ecx

; 688  :     virtual void __CLR_OR_THIS_CALL imbue(const locale& _Loc) override {

	push	ebp
	mov	ebp, esp
	sub	esp, 204				; 000000ccH
	push	ebx
	push	esi
	push	edi
	push	ecx
	lea	edi, DWORD PTR [ebp-204]
	mov	ecx, 51					; 00000033H
	mov	eax, -858993460				; ccccccccH
	rep stosd
	pop	ecx
	mov	DWORD PTR _this$[ebp], ecx
	mov	ecx, OFFSET __99BBE7C3_fstream
	call	@__CheckForDebuggerJustMyCode@4

; 689  :         // set locale to argument (capture nontrivial codecvt facet)
; 690  :         _Initcvt(_STD use_facet<_Cvt>(_Loc));

	mov	eax, DWORD PTR __Loc$[ebp]
	push	eax
	call	??$use_facet@V?$codecvt@DDU_Mbstatet@@@std@@@std@@YAABV?$codecvt@DDU_Mbstatet@@@0@ABVlocale@0@@Z ; std::use_facet<std::codecvt<char,char,_Mbstatet> >
	add	esp, 4
	push	eax
	mov	ecx, DWORD PTR _this$[ebp]
	call	?_Initcvt@?$basic_filebuf@DU?$char_traits@D@std@@@std@@IAEXABV?$codecvt@DDU_Mbstatet@@@2@@Z ; std::basic_filebuf<char,std::char_traits<char> >::_Initcvt

; 691  :     }

	pop	edi
	pop	esi
	pop	ebx
	add	esp, 204				; 000000ccH
	cmp	ebp, esp
	call	__RTC_CheckEsp
	mov	esp, ebp
	pop	ebp
	ret	4
?imbue@?$basic_filebuf@DU?$char_traits@D@std@@@std@@MAEXABVlocale@2@@Z ENDP ; std::basic_filebuf<char,std::char_traits<char> >::imbue
_TEXT	ENDS
; Function compile flags: /Odtp /RTCsu /ZI
; File C:\Program Files (x86)\Microsoft Visual Studio\2019\Professional\VC\Tools\MSVC\14.28.29333\include\fstream
;	COMDAT ?sync@?$basic_filebuf@DU?$char_traits@D@std@@@std@@MAEHXZ
_TEXT	SEGMENT
tv78 = -236						; size = 4
tv80 = -232						; size = 4
$T1 = -224						; size = 4
$T2 = -212						; size = 4
_this$ = -8						; size = 4
?sync@?$basic_filebuf@DU?$char_traits@D@std@@@std@@MAEHXZ PROC ; std::basic_filebuf<char,std::char_traits<char> >::sync, COMDAT
; _this$ = ecx

; 680  :     virtual int __CLR_OR_THIS_CALL sync() override { // synchronize C stream with external file

	push	ebp
	mov	ebp, esp
	sub	esp, 236				; 000000ecH
	push	ebx
	push	esi
	push	edi
	push	ecx
	lea	edi, DWORD PTR [ebp-236]
	mov	ecx, 59					; 0000003bH
	mov	eax, -858993460				; ccccccccH
	rep stosd
	pop	ecx
	mov	DWORD PTR _this$[ebp], ecx
	mov	ecx, OFFSET __99BBE7C3_fstream
	call	@__CheckForDebuggerJustMyCode@4

; 681  :         if (!_Myfile || _Traits::eq_int_type(_Traits::eof(), overflow()) || 0 <= _CSTD fflush(_Myfile)) {

	mov	eax, DWORD PTR _this$[ebp]
	cmp	DWORD PTR [eax+76], 0
	je	SHORT $LN3@sync
	mov	eax, DWORD PTR _this$[ebp]
	mov	ecx, DWORD PTR [eax]
	mov	edx, DWORD PTR [ecx+12]
	mov	DWORD PTR tv80[ebp], edx
	call	?eof@?$_Narrow_char_traits@DH@std@@SAHXZ ; std::_Narrow_char_traits<char,int>::eof
	mov	DWORD PTR tv78[ebp], eax
	mov	esi, esp
	mov	eax, DWORD PTR tv78[ebp]
	push	eax
	mov	ecx, DWORD PTR _this$[ebp]
	call	DWORD PTR tv80[ebp]
	cmp	esi, esp
	call	__RTC_CheckEsp
	mov	DWORD PTR $T2[ebp], eax
	call	?eof@?$_Narrow_char_traits@DH@std@@SAHXZ ; std::_Narrow_char_traits<char,int>::eof
	mov	DWORD PTR $T1[ebp], eax
	lea	ecx, DWORD PTR $T2[ebp]
	push	ecx
	lea	edx, DWORD PTR $T1[ebp]
	push	edx
	call	?eq_int_type@?$_Narrow_char_traits@DH@std@@SA_NABH0@Z ; std::_Narrow_char_traits<char,int>::eq_int_type
	add	esp, 8
	movzx	eax, al
	test	eax, eax
	jne	SHORT $LN3@sync
	mov	esi, esp
	mov	eax, DWORD PTR _this$[ebp]
	mov	ecx, DWORD PTR [eax+76]
	push	ecx
	call	DWORD PTR __imp__fflush
	add	esp, 4
	cmp	esi, esp
	call	__RTC_CheckEsp
	test	eax, eax
	jl	SHORT $LN2@sync
$LN3@sync:

; 682  :             return 0;

	xor	eax, eax
	jmp	SHORT $LN1@sync
$LN2@sync:

; 683  :         }
; 684  : 
; 685  :         return -1;

	or	eax, -1
$LN1@sync:

; 686  :     }

	pop	edi
	pop	esi
	pop	ebx
	add	esp, 236				; 000000ecH
	cmp	ebp, esp
	call	__RTC_CheckEsp
	mov	esp, ebp
	pop	ebp
	ret	0
?sync@?$basic_filebuf@DU?$char_traits@D@std@@@std@@MAEHXZ ENDP ; std::basic_filebuf<char,std::char_traits<char> >::sync
_TEXT	ENDS
; Function compile flags: /Odtp /RTCsu /ZI
; File C:\Program Files (x86)\Microsoft Visual Studio\2019\Professional\VC\Tools\MSVC\14.28.29333\include\fstream
;	COMDAT ?setbuf@?$basic_filebuf@DU?$char_traits@D@std@@@std@@MAEPAV?$basic_streambuf@DU?$char_traits@D@std@@@2@PAD_J@Z
_TEXT	SEGMENT
__Size$ = -32						; size = 4
__Mode$ = -20						; size = 4
_this$ = -8						; size = 4
__Buffer$ = 8						; size = 4
__Count$ = 12						; size = 8
?setbuf@?$basic_filebuf@DU?$char_traits@D@std@@@std@@MAEPAV?$basic_streambuf@DU?$char_traits@D@std@@@2@PAD_J@Z PROC ; std::basic_filebuf<char,std::char_traits<char> >::setbuf, COMDAT
; _this$ = ecx

; 661  :     virtual _Mysb* __CLR_OR_THIS_CALL setbuf(_Elem* _Buffer, streamsize _Count) override { // offer _Buffer to C stream

	push	ebp
	mov	ebp, esp
	sub	esp, 228				; 000000e4H
	push	ebx
	push	esi
	push	edi
	push	ecx
	lea	edi, DWORD PTR [ebp-228]
	mov	ecx, 57					; 00000039H
	mov	eax, -858993460				; ccccccccH
	rep stosd
	pop	ecx
	mov	DWORD PTR _this$[ebp], ecx
	mov	ecx, OFFSET __99BBE7C3_fstream
	call	@__CheckForDebuggerJustMyCode@4

; 662  :         int _Mode;
; 663  :         if (!_Buffer && _Count == 0) {

	cmp	DWORD PTR __Buffer$[ebp], 0
	jne	SHORT $LN2@setbuf
	mov	eax, DWORD PTR __Count$[ebp]
	or	eax, DWORD PTR __Count$[ebp+4]
	jne	SHORT $LN2@setbuf

; 664  :             _Mode = _IONBF;

	mov	DWORD PTR __Mode$[ebp], 4

; 665  :         } else {

	jmp	SHORT $LN3@setbuf
$LN2@setbuf:

; 666  :             _Mode = _IOFBF;

	mov	DWORD PTR __Mode$[ebp], 0
$LN3@setbuf:

; 667  :         }
; 668  : 
; 669  :         const size_t _Size = static_cast<size_t>(_Count) * sizeof(_Elem);

	mov	eax, DWORD PTR __Count$[ebp]
	mov	DWORD PTR __Size$[ebp], eax

; 670  : 
; 671  :         if (!_Myfile || _CSTD setvbuf(_Myfile, reinterpret_cast<char*>(_Buffer), _Mode, _Size) != 0) {

	mov	eax, DWORD PTR _this$[ebp]
	cmp	DWORD PTR [eax+76], 0
	je	SHORT $LN5@setbuf
	mov	esi, esp
	mov	eax, DWORD PTR __Size$[ebp]
	push	eax
	mov	ecx, DWORD PTR __Mode$[ebp]
	push	ecx
	mov	edx, DWORD PTR __Buffer$[ebp]
	push	edx
	mov	eax, DWORD PTR _this$[ebp]
	mov	ecx, DWORD PTR [eax+76]
	push	ecx
	call	DWORD PTR __imp__setvbuf
	add	esp, 16					; 00000010H
	cmp	esi, esp
	call	__RTC_CheckEsp
	test	eax, eax
	je	SHORT $LN4@setbuf
$LN5@setbuf:

; 672  :             return nullptr; // failed

	xor	eax, eax
	jmp	SHORT $LN1@setbuf
$LN4@setbuf:

; 673  :         }
; 674  : 
; 675  :         // new buffer, reinitialize pointers
; 676  :         _Init(_Myfile, _Openfl);

	push	1
	mov	eax, DWORD PTR _this$[ebp]
	mov	ecx, DWORD PTR [eax+76]
	push	ecx
	mov	ecx, DWORD PTR _this$[ebp]
	call	?_Init@?$basic_filebuf@DU?$char_traits@D@std@@@std@@IAEXPAU_iobuf@@W4_Initfl@12@@Z ; std::basic_filebuf<char,std::char_traits<char> >::_Init

; 677  :         return this;

	mov	eax, DWORD PTR _this$[ebp]
$LN1@setbuf:

; 678  :     }

	pop	edi
	pop	esi
	pop	ebx
	add	esp, 228				; 000000e4H
	cmp	ebp, esp
	call	__RTC_CheckEsp
	mov	esp, ebp
	pop	ebp
	ret	12					; 0000000cH
?setbuf@?$basic_filebuf@DU?$char_traits@D@std@@@std@@MAEPAV?$basic_streambuf@DU?$char_traits@D@std@@@2@PAD_J@Z ENDP ; std::basic_filebuf<char,std::char_traits<char> >::setbuf
_TEXT	ENDS
; Function compile flags: /Odtp /RTCsu /ZI
; File C:\Program Files (x86)\Microsoft Visual Studio\2019\Professional\VC\Tools\MSVC\14.28.29333\include\fstream
;	COMDAT ?seekpos@?$basic_filebuf@DU?$char_traits@D@std@@@std@@MAE?AV?$fpos@U_Mbstatet@@@2@V32@H@Z
_TEXT	SEGMENT
$T1 = -236						; size = 8
__Off$ = -28						; size = 8
_this$ = -12						; size = 4
__$ArrayPad$ = -4					; size = 4
___$ReturnUdt$ = 8					; size = 4
__Pos$ = 12						; size = 24
___formal$ = 36						; size = 4
?seekpos@?$basic_filebuf@DU?$char_traits@D@std@@@std@@MAE?AV?$fpos@U_Mbstatet@@@2@V32@H@Z PROC ; std::basic_filebuf<char,std::char_traits<char> >::seekpos, COMDAT
; _this$ = ecx

; 648  :         pos_type _Pos, ios_base::openmode = ios_base::in | ios_base::out) override {

	push	ebp
	mov	ebp, esp
	sub	esp, 240				; 000000f0H
	push	ebx
	push	esi
	push	edi
	push	ecx
	lea	edi, DWORD PTR [ebp-240]
	mov	ecx, 60					; 0000003cH
	mov	eax, -858993460				; ccccccccH
	rep stosd
	pop	ecx
	mov	eax, DWORD PTR ___security_cookie
	xor	eax, ebp
	mov	DWORD PTR __$ArrayPad$[ebp], eax
	mov	DWORD PTR _this$[ebp], ecx
	mov	ecx, OFFSET __99BBE7C3_fstream
	call	@__CheckForDebuggerJustMyCode@4

; 649  :         // change position to _Pos
; 650  :         off_type _Off = static_cast<off_type>(_Pos);

	lea	ecx, DWORD PTR __Pos$[ebp]
	call	??B?$fpos@U_Mbstatet@@@std@@QBE_JXZ	; std::fpos<_Mbstatet>::operator __int64
	mov	DWORD PTR __Off$[ebp], eax
	mov	DWORD PTR __Off$[ebp+4], edx

; 651  : 
; 652  :         if (!_Myfile || !_Endwrite() || _CSTD fsetpos(_Myfile, &_Off) != 0) {

	mov	eax, DWORD PTR _this$[ebp]
	cmp	DWORD PTR [eax+76], 0
	je	SHORT $LN3@seekpos
	mov	ecx, DWORD PTR _this$[ebp]
	call	?_Endwrite@?$basic_filebuf@DU?$char_traits@D@std@@@std@@IAE_NXZ ; std::basic_filebuf<char,std::char_traits<char> >::_Endwrite
	movzx	eax, al
	test	eax, eax
	je	SHORT $LN3@seekpos
	mov	esi, esp
	lea	eax, DWORD PTR __Off$[ebp]
	push	eax
	mov	ecx, DWORD PTR _this$[ebp]
	mov	edx, DWORD PTR [ecx+76]
	push	edx
	call	DWORD PTR __imp__fsetpos
	add	esp, 8
	cmp	esi, esp
	call	__RTC_CheckEsp
	test	eax, eax
	je	SHORT $LN2@seekpos
$LN3@seekpos:

; 653  :             return pos_type(-1); // report failure

	push	-1
	push	-1
	mov	ecx, DWORD PTR ___$ReturnUdt$[ebp]
	call	??0?$fpos@U_Mbstatet@@@std@@QAE@_J@Z	; std::fpos<_Mbstatet>::fpos<_Mbstatet>
	mov	eax, DWORD PTR ___$ReturnUdt$[ebp]
	jmp	SHORT $LN1@seekpos
$LN2@seekpos:

; 654  :         }
; 655  : 
; 656  :         _State = _Pos.state();

	lea	eax, DWORD PTR $T1[ebp]
	push	eax
	lea	ecx, DWORD PTR __Pos$[ebp]
	call	?state@?$fpos@U_Mbstatet@@@std@@QBE?AU_Mbstatet@@XZ ; std::fpos<_Mbstatet>::state
	mov	ecx, DWORD PTR [eax]
	mov	edx, DWORD PTR [eax+4]
	mov	eax, DWORD PTR _this$[ebp]
	mov	DWORD PTR [eax+64], ecx
	mov	DWORD PTR [eax+68], edx

; 657  :         _Reset_back(); // revert from _Mychar buffer, discarding any putback

	mov	ecx, DWORD PTR _this$[ebp]
	call	?_Reset_back@?$basic_filebuf@DU?$char_traits@D@std@@@std@@AAEXXZ ; std::basic_filebuf<char,std::char_traits<char> >::_Reset_back

; 658  :         return pos_type(_State, _Off); // return new position

	mov	eax, DWORD PTR __Off$[ebp+4]
	push	eax
	mov	ecx, DWORD PTR __Off$[ebp]
	push	ecx
	mov	edx, DWORD PTR _this$[ebp]
	mov	eax, DWORD PTR [edx+68]
	push	eax
	mov	ecx, DWORD PTR [edx+64]
	push	ecx
	mov	ecx, DWORD PTR ___$ReturnUdt$[ebp]
	call	??0?$fpos@U_Mbstatet@@@std@@QAE@U_Mbstatet@@_J@Z ; std::fpos<_Mbstatet>::fpos<_Mbstatet>
	mov	eax, DWORD PTR ___$ReturnUdt$[ebp]
$LN1@seekpos:

; 659  :     }

	push	edx
	mov	ecx, ebp
	push	eax
	lea	edx, DWORD PTR $LN7@seekpos
	call	@_RTC_CheckStackVars@8
	pop	eax
	pop	edx
	pop	edi
	pop	esi
	pop	ebx
	mov	ecx, DWORD PTR __$ArrayPad$[ebp]
	xor	ecx, ebp
	call	@__security_check_cookie@4
	add	esp, 240				; 000000f0H
	cmp	ebp, esp
	call	__RTC_CheckEsp
	mov	esp, ebp
	pop	ebp
	ret	32					; 00000020H
	npad	1
$LN7@seekpos:
	DD	1
	DD	$LN6@seekpos
$LN6@seekpos:
	DD	-28					; ffffffe4H
	DD	8
	DD	$LN5@seekpos
$LN5@seekpos:
	DB	95					; 0000005fH
	DB	79					; 0000004fH
	DB	102					; 00000066H
	DB	102					; 00000066H
	DB	0
?seekpos@?$basic_filebuf@DU?$char_traits@D@std@@@std@@MAE?AV?$fpos@U_Mbstatet@@@2@V32@H@Z ENDP ; std::basic_filebuf<char,std::char_traits<char> >::seekpos
_TEXT	ENDS
; Function compile flags: /Odtp /RTCsu /ZI
; File C:\Program Files (x86)\Microsoft Visual Studio\2019\Professional\VC\Tools\MSVC\14.28.29333\include\fstream
;	COMDAT ?seekoff@?$basic_filebuf@DU?$char_traits@D@std@@@std@@MAE?AV?$fpos@U_Mbstatet@@@2@_JHH@Z
_TEXT	SEGMENT
__Fileposition$ = -28					; size = 8
_this$ = -12						; size = 4
__$ArrayPad$ = -4					; size = 4
___$ReturnUdt$ = 8					; size = 4
__Off$ = 12						; size = 8
__Way$ = 20						; size = 4
___formal$ = 24						; size = 4
?seekoff@?$basic_filebuf@DU?$char_traits@D@std@@@std@@MAE?AV?$fpos@U_Mbstatet@@@2@_JHH@Z PROC ; std::basic_filebuf<char,std::char_traits<char> >::seekoff, COMDAT
; _this$ = ecx

; 628  :         ios_base::openmode = ios_base::in | ios_base::out) override { // change position by _Off

	push	ebp
	mov	ebp, esp
	sub	esp, 224				; 000000e0H
	push	ebx
	push	esi
	push	edi
	push	ecx
	lea	edi, DWORD PTR [ebp-224]
	mov	ecx, 56					; 00000038H
	mov	eax, -858993460				; ccccccccH
	rep stosd
	pop	ecx
	mov	eax, DWORD PTR ___security_cookie
	xor	eax, ebp
	mov	DWORD PTR __$ArrayPad$[ebp], eax
	mov	DWORD PTR _this$[ebp], ecx
	mov	ecx, OFFSET __99BBE7C3_fstream
	call	@__CheckForDebuggerJustMyCode@4

; 629  :         fpos_t _Fileposition;
; 630  : 
; 631  :         if (_Mysb::gptr() == &_Mychar // something putback
; 632  :             && _Way == ios_base::cur // a relative seek
; 633  :             && !_Pcvt) { // not converting

	mov	esi, esp
	mov	ecx, DWORD PTR _this$[ebp]
	call	DWORD PTR __imp_?gptr@?$basic_streambuf@DU?$char_traits@D@std@@@std@@IBEPADXZ
	cmp	esi, esp
	call	__RTC_CheckEsp
	mov	ecx, DWORD PTR _this$[ebp]
	add	ecx, 60					; 0000003cH
	cmp	eax, ecx
	jne	SHORT $LN2@seekoff
	cmp	DWORD PTR __Way$[ebp], 1
	jne	SHORT $LN2@seekoff
	mov	eax, DWORD PTR _this$[ebp]
	cmp	DWORD PTR [eax+56], 0
	jne	SHORT $LN2@seekoff

; 634  :             _Off -= static_cast<off_type>(sizeof(_Elem)); // back up over _Elem bytes

	mov	eax, DWORD PTR __Off$[ebp]
	sub	eax, 1
	mov	ecx, DWORD PTR __Off$[ebp+4]
	sbb	ecx, 0
	mov	DWORD PTR __Off$[ebp], eax
	mov	DWORD PTR __Off$[ebp+4], ecx
$LN2@seekoff:

; 635  :         }
; 636  : 
; 637  :         if (!_Myfile || !_Endwrite()
; 638  :             || ((_Off != 0 || _Way != ios_base::cur) && _CSTD _fseeki64(_Myfile, _Off, _Way) != 0)
; 639  :             || _CSTD fgetpos(_Myfile, &_Fileposition) != 0) {

	mov	eax, DWORD PTR _this$[ebp]
	cmp	DWORD PTR [eax+76], 0
	je	SHORT $LN4@seekoff
	mov	ecx, DWORD PTR _this$[ebp]
	call	?_Endwrite@?$basic_filebuf@DU?$char_traits@D@std@@@std@@IAE_NXZ ; std::basic_filebuf<char,std::char_traits<char> >::_Endwrite
	movzx	eax, al
	test	eax, eax
	je	SHORT $LN4@seekoff
	mov	eax, DWORD PTR __Off$[ebp]
	or	eax, DWORD PTR __Off$[ebp+4]
	jne	SHORT $LN6@seekoff
	cmp	DWORD PTR __Way$[ebp], 1
	je	SHORT $LN5@seekoff
$LN6@seekoff:
	mov	esi, esp
	mov	eax, DWORD PTR __Way$[ebp]
	push	eax
	mov	ecx, DWORD PTR __Off$[ebp+4]
	push	ecx
	mov	edx, DWORD PTR __Off$[ebp]
	push	edx
	mov	eax, DWORD PTR _this$[ebp]
	mov	ecx, DWORD PTR [eax+76]
	push	ecx
	call	DWORD PTR __imp___fseeki64
	add	esp, 16					; 00000010H
	cmp	esi, esp
	call	__RTC_CheckEsp
	test	eax, eax
	jne	SHORT $LN4@seekoff
$LN5@seekoff:
	mov	esi, esp
	lea	eax, DWORD PTR __Fileposition$[ebp]
	push	eax
	mov	ecx, DWORD PTR _this$[ebp]
	mov	edx, DWORD PTR [ecx+76]
	push	edx
	call	DWORD PTR __imp__fgetpos
	add	esp, 8
	cmp	esi, esp
	call	__RTC_CheckEsp
	test	eax, eax
	je	SHORT $LN3@seekoff
$LN4@seekoff:

; 640  :             return pos_type(-1); // report failure

	push	-1
	push	-1
	mov	ecx, DWORD PTR ___$ReturnUdt$[ebp]
	call	??0?$fpos@U_Mbstatet@@@std@@QAE@_J@Z	; std::fpos<_Mbstatet>::fpos<_Mbstatet>
	mov	eax, DWORD PTR ___$ReturnUdt$[ebp]
	jmp	SHORT $LN1@seekoff
$LN3@seekoff:

; 641  :         }
; 642  : 
; 643  :         _Reset_back(); // revert from _Mychar buffer, discarding any putback

	mov	ecx, DWORD PTR _this$[ebp]
	call	?_Reset_back@?$basic_filebuf@DU?$char_traits@D@std@@@std@@AAEXXZ ; std::basic_filebuf<char,std::char_traits<char> >::_Reset_back

; 644  :         return pos_type(_State, _Fileposition); // return new position

	mov	eax, DWORD PTR __Fileposition$[ebp+4]
	push	eax
	mov	ecx, DWORD PTR __Fileposition$[ebp]
	push	ecx
	mov	edx, DWORD PTR _this$[ebp]
	mov	eax, DWORD PTR [edx+68]
	push	eax
	mov	ecx, DWORD PTR [edx+64]
	push	ecx
	mov	ecx, DWORD PTR ___$ReturnUdt$[ebp]
	call	??0?$fpos@U_Mbstatet@@@std@@QAE@U_Mbstatet@@_J@Z ; std::fpos<_Mbstatet>::fpos<_Mbstatet>
	mov	eax, DWORD PTR ___$ReturnUdt$[ebp]
$LN1@seekoff:

; 645  :     }

	push	edx
	mov	ecx, ebp
	push	eax
	lea	edx, DWORD PTR $LN10@seekoff
	call	@_RTC_CheckStackVars@8
	pop	eax
	pop	edx
	pop	edi
	pop	esi
	pop	ebx
	mov	ecx, DWORD PTR __$ArrayPad$[ebp]
	xor	ecx, ebp
	call	@__security_check_cookie@4
	add	esp, 224				; 000000e0H
	cmp	ebp, esp
	call	__RTC_CheckEsp
	mov	esp, ebp
	pop	ebp
	ret	20					; 00000014H
$LN10@seekoff:
	DD	1
	DD	$LN9@seekoff
$LN9@seekoff:
	DD	-28					; ffffffe4H
	DD	8
	DD	$LN8@seekoff
$LN8@seekoff:
	DB	95					; 0000005fH
	DB	70					; 00000046H
	DB	105					; 00000069H
	DB	108					; 0000006cH
	DB	101					; 00000065H
	DB	112					; 00000070H
	DB	111					; 0000006fH
	DB	115					; 00000073H
	DB	105					; 00000069H
	DB	116					; 00000074H
	DB	105					; 00000069H
	DB	111					; 0000006fH
	DB	110					; 0000006eH
	DB	0
?seekoff@?$basic_filebuf@DU?$char_traits@D@std@@@std@@MAE?AV?$fpos@U_Mbstatet@@@2@_JHH@Z ENDP ; std::basic_filebuf<char,std::char_traits<char> >::seekoff
_TEXT	ENDS
; Function compile flags: /Odtp /RTCsu /ZI
; File C:\Program Files (x86)\Microsoft Visual Studio\2019\Professional\VC\Tools\MSVC\14.28.29333\include\fstream
;	COMDAT ?xsputn@?$basic_filebuf@DU?$char_traits@D@std@@@std@@MAE_JPBD_J@Z
_TEXT	SEGMENT
__Size$1 = -40						; size = 8
__Start_count$2 = -24					; size = 8
_this$ = -8						; size = 4
__Ptr$ = 8						; size = 4
__Count$ = 12						; size = 8
?xsputn@?$basic_filebuf@DU?$char_traits@D@std@@@std@@MAE_JPBD_J@Z PROC ; std::basic_filebuf<char,std::char_traits<char> >::xsputn, COMDAT
; _this$ = ecx

; 596  :     virtual streamsize __CLR_OR_THIS_CALL xsputn(const _Elem* _Ptr, streamsize _Count) override {

	push	ebp
	mov	ebp, esp
	sub	esp, 236				; 000000ecH
	push	ebx
	push	esi
	push	edi
	push	ecx
	lea	edi, DWORD PTR [ebp-236]
	mov	ecx, 59					; 0000003bH
	mov	eax, -858993460				; ccccccccH
	rep stosd
	pop	ecx
	mov	DWORD PTR _this$[ebp], ecx
	mov	ecx, OFFSET __99BBE7C3_fstream
	call	@__CheckForDebuggerJustMyCode@4

; 597  :         // put _Count characters to stream
; 598  :         if _CONSTEXPR_IF (sizeof(_Elem) == 1) {
; 599  :             if (_Pcvt) { // if we need a nontrivial codecvt transform, do the default expensive thing

	mov	eax, DWORD PTR _this$[ebp]
	cmp	DWORD PTR [eax+56], 0
	je	SHORT $LN2@xsputn

; 600  :                 return _Mysb::xsputn(_Ptr, _Count);

	mov	esi, esp
	mov	eax, DWORD PTR __Count$[ebp+4]
	push	eax
	mov	ecx, DWORD PTR __Count$[ebp]
	push	ecx
	mov	edx, DWORD PTR __Ptr$[ebp]
	push	edx
	mov	ecx, DWORD PTR _this$[ebp]
	call	DWORD PTR __imp_?xsputn@?$basic_streambuf@DU?$char_traits@D@std@@@std@@MAE_JPBD_J@Z
	cmp	esi, esp
	call	__RTC_CheckEsp
	jmp	$LN1@xsputn
$LN2@xsputn:

; 601  :             }
; 602  : 
; 603  :             const streamsize _Start_count = _Count;

	mov	eax, DWORD PTR __Count$[ebp]
	mov	ecx, DWORD PTR __Count$[ebp+4]
	mov	DWORD PTR __Start_count$2[ebp], eax
	mov	DWORD PTR __Start_count$2[ebp+4], ecx

; 604  :             streamsize _Size              = _Mysb::_Pnavail();

	mov	esi, esp
	mov	ecx, DWORD PTR _this$[ebp]
	call	DWORD PTR __imp_?_Pnavail@?$basic_streambuf@DU?$char_traits@D@std@@@std@@IBE_JXZ
	cmp	esi, esp
	call	__RTC_CheckEsp
	mov	DWORD PTR __Size$1[ebp], eax
	mov	DWORD PTR __Size$1[ebp+4], edx

; 605  :             if (0 < _Count && 0 < _Size) { // copy to write buffer

	cmp	DWORD PTR __Count$[ebp+4], 0
	jl	$LN3@xsputn
	jg	SHORT $LN7@xsputn
	cmp	DWORD PTR __Count$[ebp], 0
	jbe	$LN3@xsputn
$LN7@xsputn:
	cmp	DWORD PTR __Size$1[ebp+4], 0
	jl	SHORT $LN3@xsputn
	jg	SHORT $LN8@xsputn
	cmp	DWORD PTR __Size$1[ebp], 0
	jbe	SHORT $LN3@xsputn
$LN8@xsputn:

; 606  :                 if (_Count < _Size) {

	mov	eax, DWORD PTR __Count$[ebp+4]
	cmp	eax, DWORD PTR __Size$1[ebp+4]
	jg	SHORT $LN4@xsputn
	jl	SHORT $LN9@xsputn
	mov	ecx, DWORD PTR __Count$[ebp]
	cmp	ecx, DWORD PTR __Size$1[ebp]
	jae	SHORT $LN4@xsputn
$LN9@xsputn:

; 607  :                     _Size = _Count;

	mov	eax, DWORD PTR __Count$[ebp]
	mov	ecx, DWORD PTR __Count$[ebp+4]
	mov	DWORD PTR __Size$1[ebp], eax
	mov	DWORD PTR __Size$1[ebp+4], ecx
$LN4@xsputn:

; 608  :                 }
; 609  : 
; 610  :                 _Traits::copy(_Mysb::pptr(), _Ptr, static_cast<size_t>(_Size));

	mov	eax, DWORD PTR __Size$1[ebp]
	push	eax
	mov	ecx, DWORD PTR __Ptr$[ebp]
	push	ecx
	mov	esi, esp
	mov	ecx, DWORD PTR _this$[ebp]
	call	DWORD PTR __imp_?pptr@?$basic_streambuf@DU?$char_traits@D@std@@@std@@IBEPADXZ
	cmp	esi, esp
	call	__RTC_CheckEsp
	push	eax
	call	?copy@?$_Char_traits@DH@std@@SAPADQADQBDI@Z ; std::_Char_traits<char,int>::copy
	add	esp, 12					; 0000000cH

; 611  :                 _Ptr += _Size;

	mov	eax, DWORD PTR __Size$1[ebp]
	add	eax, DWORD PTR __Ptr$[ebp]
	mov	DWORD PTR __Ptr$[ebp], eax

; 612  :                 _Count -= _Size;

	mov	eax, DWORD PTR __Count$[ebp]
	sub	eax, DWORD PTR __Size$1[ebp]
	mov	ecx, DWORD PTR __Count$[ebp+4]
	sbb	ecx, DWORD PTR __Size$1[ebp+4]
	mov	DWORD PTR __Count$[ebp], eax
	mov	DWORD PTR __Count$[ebp+4], ecx

; 613  :                 _Mysb::pbump(static_cast<int>(_Size));

	mov	eax, DWORD PTR __Size$1[ebp]
	mov	esi, esp
	push	eax
	mov	ecx, DWORD PTR _this$[ebp]
	call	DWORD PTR __imp_?pbump@?$basic_streambuf@DU?$char_traits@D@std@@@std@@IAEXH@Z
	cmp	esi, esp
	call	__RTC_CheckEsp
$LN3@xsputn:

; 614  :             }
; 615  : 
; 616  :             if (0 < _Count && _Myfile) { // open C stream, attempt write

	cmp	DWORD PTR __Count$[ebp+4], 0
	jl	SHORT $LN5@xsputn
	jg	SHORT $LN10@xsputn
	cmp	DWORD PTR __Count$[ebp], 0
	jbe	SHORT $LN5@xsputn
$LN10@xsputn:
	mov	eax, DWORD PTR _this$[ebp]
	cmp	DWORD PTR [eax+76], 0
	je	SHORT $LN5@xsputn

; 617  :                 _Count -= _CSTD fwrite(_Ptr, sizeof(_Elem), static_cast<size_t>(_Count), _Myfile);

	mov	esi, esp
	mov	eax, DWORD PTR _this$[ebp]
	mov	ecx, DWORD PTR [eax+76]
	push	ecx
	mov	edx, DWORD PTR __Count$[ebp]
	push	edx
	push	1
	mov	eax, DWORD PTR __Ptr$[ebp]
	push	eax
	call	DWORD PTR __imp__fwrite
	add	esp, 16					; 00000010H
	cmp	esi, esp
	call	__RTC_CheckEsp
	xor	ecx, ecx
	mov	edx, DWORD PTR __Count$[ebp]
	sub	edx, eax
	mov	eax, DWORD PTR __Count$[ebp+4]
	sbb	eax, ecx
	mov	DWORD PTR __Count$[ebp], edx
	mov	DWORD PTR __Count$[ebp+4], eax
$LN5@xsputn:

; 618  :             }
; 619  : 
; 620  :             return _Start_count - _Count;

	mov	eax, DWORD PTR __Start_count$2[ebp]
	sub	eax, DWORD PTR __Count$[ebp]
	mov	edx, DWORD PTR __Start_count$2[ebp+4]
	sbb	edx, DWORD PTR __Count$[ebp+4]
$LN1@xsputn:

; 621  :         } else { // non-chars always get element-by-element processing
; 622  :             return _Mysb::xsputn(_Ptr, _Count);
; 623  :         }
; 624  :     }

	pop	edi
	pop	esi
	pop	ebx
	add	esp, 236				; 000000ecH
	cmp	ebp, esp
	call	__RTC_CheckEsp
	mov	esp, ebp
	pop	ebp
	ret	12					; 0000000cH
?xsputn@?$basic_filebuf@DU?$char_traits@D@std@@@std@@MAE_JPBD_J@Z ENDP ; std::basic_filebuf<char,std::char_traits<char> >::xsputn
_TEXT	ENDS
; Function compile flags: /Odtp /RTCsu /ZI
; File C:\Program Files (x86)\Microsoft Visual Studio\2019\Professional\VC\Tools\MSVC\14.28.29333\include\fstream
;	COMDAT ?xsgetn@?$basic_filebuf@DU?$char_traits@D@std@@@std@@MAE_JPAD_J@Z
_TEXT	SEGMENT
tv159 = -292						; size = 4
tv161 = -288						; size = 4
__Actual_read$1 = -88					; size = 4
__Read_size$2 = -76					; size = 4
__Read_size$3 = -64					; size = 4
__Available$4 = -52					; size = 4
__Start_count$5 = -40					; size = 8
__Count_s$6 = -24					; size = 4
_this$ = -12						; size = 4
__$ArrayPad$ = -4					; size = 4
__Ptr$ = 8						; size = 4
__Count$ = 12						; size = 8
?xsgetn@?$basic_filebuf@DU?$char_traits@D@std@@@std@@MAE_JPAD_J@Z PROC ; std::basic_filebuf<char,std::char_traits<char> >::xsgetn, COMDAT
; _this$ = ecx

; 548  :     virtual streamsize __CLR_OR_THIS_CALL xsgetn(_Elem* _Ptr, streamsize _Count) override {

	push	ebp
	mov	ebp, esp
	sub	esp, 292				; 00000124H
	push	ebx
	push	esi
	push	edi
	push	ecx
	lea	edi, DWORD PTR [ebp-292]
	mov	ecx, 73					; 00000049H
	mov	eax, -858993460				; ccccccccH
	rep stosd
	pop	ecx
	mov	eax, DWORD PTR ___security_cookie
	xor	eax, ebp
	mov	DWORD PTR __$ArrayPad$[ebp], eax
	mov	DWORD PTR _this$[ebp], ecx
	mov	ecx, OFFSET __99BBE7C3_fstream
	call	@__CheckForDebuggerJustMyCode@4

; 549  :         // get _Count characters from stream
; 550  :         if _CONSTEXPR_IF (sizeof(_Elem) == 1) {
; 551  :             if (_Count <= 0) {

	cmp	DWORD PTR __Count$[ebp+4], 0
	jg	SHORT $LN4@xsgetn
	jl	SHORT $LN11@xsgetn
	cmp	DWORD PTR __Count$[ebp], 0
	ja	SHORT $LN4@xsgetn
$LN11@xsgetn:

; 552  :                 return 0;

	xor	eax, eax
	xor	edx, edx
	jmp	$LN1@xsgetn
$LN4@xsgetn:

; 553  :             }
; 554  : 
; 555  :             if (_Pcvt) { // if we need a nontrivial codecvt transform, do the default expensive thing

	mov	eax, DWORD PTR _this$[ebp]
	cmp	DWORD PTR [eax+56], 0
	je	SHORT $LN5@xsgetn

; 556  :                 return _Mysb::xsgetn(_Ptr, _Count);

	mov	esi, esp
	mov	eax, DWORD PTR __Count$[ebp+4]
	push	eax
	mov	ecx, DWORD PTR __Count$[ebp]
	push	ecx
	mov	edx, DWORD PTR __Ptr$[ebp]
	push	edx
	mov	ecx, DWORD PTR _this$[ebp]
	call	DWORD PTR __imp_?xsgetn@?$basic_streambuf@DU?$char_traits@D@std@@@std@@MAE_JPAD_J@Z
	cmp	esi, esp
	call	__RTC_CheckEsp
	jmp	$LN1@xsgetn
$LN5@xsgetn:

; 557  :             }
; 558  : 
; 559  :             // assuming this is OK because _Ptr + _Count must be valid
; 560  :             auto _Count_s           = static_cast<size_t>(_Count);

	mov	eax, DWORD PTR __Count$[ebp]
	mov	DWORD PTR __Count_s$6[ebp], eax

; 561  :             const auto _Start_count = _Count;

	mov	eax, DWORD PTR __Count$[ebp]
	mov	ecx, DWORD PTR __Count$[ebp+4]
	mov	DWORD PTR __Start_count$5[ebp], eax
	mov	DWORD PTR __Start_count$5[ebp+4], ecx

; 562  :             const auto _Available   = static_cast<size_t>(_Mysb::_Gnavail());

	mov	esi, esp
	mov	ecx, DWORD PTR _this$[ebp]
	call	DWORD PTR __imp_?_Gnavail@?$basic_streambuf@DU?$char_traits@D@std@@@std@@IBE_JXZ
	cmp	esi, esp
	call	__RTC_CheckEsp
	mov	DWORD PTR __Available$4[ebp], eax

; 563  :             if (0 < _Available) { // copy from get area

	cmp	DWORD PTR __Available$4[ebp], 0
	jbe	SHORT $LN6@xsgetn

; 564  :                 const auto _Read_size = (_STD min)(_Count_s, _Available);

	lea	eax, DWORD PTR __Available$4[ebp]
	push	eax
	lea	ecx, DWORD PTR __Count_s$6[ebp]
	push	ecx
	call	??$min@I@std@@YAABIABI0@Z		; std::min<unsigned int>
	add	esp, 8
	mov	edx, DWORD PTR [eax]
	mov	DWORD PTR __Read_size$3[ebp], edx

; 565  :                 _Traits::copy(_Ptr, _Mysb::gptr(), _Read_size);

	mov	eax, DWORD PTR __Read_size$3[ebp]
	push	eax
	mov	esi, esp
	mov	ecx, DWORD PTR _this$[ebp]
	call	DWORD PTR __imp_?gptr@?$basic_streambuf@DU?$char_traits@D@std@@@std@@IBEPADXZ
	cmp	esi, esp
	call	__RTC_CheckEsp
	push	eax
	mov	ecx, DWORD PTR __Ptr$[ebp]
	push	ecx
	call	?copy@?$_Char_traits@DH@std@@SAPADQADQBDI@Z ; std::_Char_traits<char,int>::copy
	add	esp, 12					; 0000000cH

; 566  :                 _Ptr += _Read_size;

	mov	eax, DWORD PTR __Ptr$[ebp]
	add	eax, DWORD PTR __Read_size$3[ebp]
	mov	DWORD PTR __Ptr$[ebp], eax

; 567  :                 _Count_s -= _Read_size;

	mov	eax, DWORD PTR __Count_s$6[ebp]
	sub	eax, DWORD PTR __Read_size$3[ebp]
	mov	DWORD PTR __Count_s$6[ebp], eax

; 568  :                 _Mysb::gbump(static_cast<int>(_Read_size));

	mov	esi, esp
	mov	eax, DWORD PTR __Read_size$3[ebp]
	push	eax
	mov	ecx, DWORD PTR _this$[ebp]
	call	DWORD PTR __imp_?gbump@?$basic_streambuf@DU?$char_traits@D@std@@@std@@IAEXH@Z
	cmp	esi, esp
	call	__RTC_CheckEsp
$LN6@xsgetn:

; 569  :             }
; 570  : 
; 571  :             if (_Myfile) { // open C stream, attempt read

	mov	eax, DWORD PTR _this$[ebp]
	cmp	DWORD PTR [eax+76], 0
	je	$LN7@xsgetn

; 572  :                 _Reset_back(); // revert from _Mychar buffer

	mov	ecx, DWORD PTR _this$[ebp]
	call	?_Reset_back@?$basic_filebuf@DU?$char_traits@D@std@@@std@@AAEXXZ ; std::basic_filebuf<char,std::char_traits<char> >::_Reset_back

; 573  :                 // process in 4k - 1 chunks to avoid tripping over fread's clobber-the-end behavior when
; 574  :                 // doing \r\n -> \n translation
; 575  :                 constexpr size_t _Read_size = 4095; // _INTERNAL_BUFSIZ - 1

	mov	DWORD PTR __Read_size$2[ebp], 4095	; 00000fffH
$LN2@xsgetn:

; 576  :                 while (_Read_size < _Count_s) {

	cmp	DWORD PTR __Count_s$6[ebp], 4095	; 00000fffH
	jbe	SHORT $LN3@xsgetn

; 577  :                     const auto _Actual_read = _CSTD fread(_Ptr, sizeof(_Elem), _Read_size, _Myfile);

	mov	esi, esp
	mov	eax, DWORD PTR _this$[ebp]
	mov	ecx, DWORD PTR [eax+76]
	push	ecx
	push	4095					; 00000fffH
	push	1
	mov	edx, DWORD PTR __Ptr$[ebp]
	push	edx
	call	DWORD PTR __imp__fread
	add	esp, 16					; 00000010H
	cmp	esi, esp
	call	__RTC_CheckEsp
	mov	DWORD PTR __Actual_read$1[ebp], eax

; 578  :                     _Ptr += _Actual_read;

	mov	eax, DWORD PTR __Ptr$[ebp]
	add	eax, DWORD PTR __Actual_read$1[ebp]
	mov	DWORD PTR __Ptr$[ebp], eax

; 579  :                     _Count_s -= _Actual_read;

	mov	eax, DWORD PTR __Count_s$6[ebp]
	sub	eax, DWORD PTR __Actual_read$1[ebp]
	mov	DWORD PTR __Count_s$6[ebp], eax

; 580  :                     if (_Actual_read != _Read_size) {

	cmp	DWORD PTR __Actual_read$1[ebp], 4095	; 00000fffH
	je	SHORT $LN8@xsgetn

; 581  :                         return static_cast<streamsize>(_Start_count - _Count_s);

	xor	eax, eax
	mov	ecx, DWORD PTR __Start_count$5[ebp]
	sub	ecx, DWORD PTR __Count_s$6[ebp]
	mov	edx, DWORD PTR __Start_count$5[ebp+4]
	sbb	edx, eax
	mov	eax, ecx
	jmp	SHORT $LN1@xsgetn
$LN8@xsgetn:

; 582  :                     }
; 583  :                 }

	jmp	SHORT $LN2@xsgetn
$LN3@xsgetn:

; 584  : 
; 585  :                 if (0 < _Count_s) {

	cmp	DWORD PTR __Count_s$6[ebp], 0
	jbe	SHORT $LN7@xsgetn

; 586  :                     _Count_s -= _CSTD fread(_Ptr, sizeof(_Elem), _Count_s, _Myfile);

	mov	esi, esp
	mov	eax, DWORD PTR _this$[ebp]
	mov	ecx, DWORD PTR [eax+76]
	push	ecx
	mov	edx, DWORD PTR __Count_s$6[ebp]
	push	edx
	push	1
	mov	eax, DWORD PTR __Ptr$[ebp]
	push	eax
	call	DWORD PTR __imp__fread
	add	esp, 16					; 00000010H
	cmp	esi, esp
	call	__RTC_CheckEsp
	mov	DWORD PTR tv161[ebp], eax
	mov	ecx, DWORD PTR __Count_s$6[ebp]
	mov	DWORD PTR tv159[ebp], ecx
	mov	edx, DWORD PTR tv159[ebp]
	sub	edx, DWORD PTR tv161[ebp]
	mov	DWORD PTR __Count_s$6[ebp], edx
$LN7@xsgetn:

; 587  :                 }
; 588  :             }
; 589  : 
; 590  :             return static_cast<streamsize>(_Start_count - _Count_s);

	xor	eax, eax
	mov	ecx, DWORD PTR __Start_count$5[ebp]
	sub	ecx, DWORD PTR __Count_s$6[ebp]
	mov	edx, DWORD PTR __Start_count$5[ebp+4]
	sbb	edx, eax
	mov	eax, ecx
$LN1@xsgetn:

; 591  :         } else { // non-chars always get element-by-element processing
; 592  :             return _Mysb::xsgetn(_Ptr, _Count);
; 593  :         }
; 594  :     }

	push	edx
	mov	ecx, ebp
	push	eax
	lea	edx, DWORD PTR $LN15@xsgetn
	call	@_RTC_CheckStackVars@8
	pop	eax
	pop	edx
	pop	edi
	pop	esi
	pop	ebx
	mov	ecx, DWORD PTR __$ArrayPad$[ebp]
	xor	ecx, ebp
	call	@__security_check_cookie@4
	add	esp, 292				; 00000124H
	cmp	ebp, esp
	call	__RTC_CheckEsp
	mov	esp, ebp
	pop	ebp
	ret	12					; 0000000cH
$LN15@xsgetn:
	DD	2
	DD	$LN14@xsgetn
$LN14@xsgetn:
	DD	-24					; ffffffe8H
	DD	4
	DD	$LN12@xsgetn
	DD	-52					; ffffffccH
	DD	4
	DD	$LN13@xsgetn
$LN13@xsgetn:
	DB	95					; 0000005fH
	DB	65					; 00000041H
	DB	118					; 00000076H
	DB	97					; 00000061H
	DB	105					; 00000069H
	DB	108					; 0000006cH
	DB	97					; 00000061H
	DB	98					; 00000062H
	DB	108					; 0000006cH
	DB	101					; 00000065H
	DB	0
$LN12@xsgetn:
	DB	95					; 0000005fH
	DB	67					; 00000043H
	DB	111					; 0000006fH
	DB	117					; 00000075H
	DB	110					; 0000006eH
	DB	116					; 00000074H
	DB	95					; 0000005fH
	DB	115					; 00000073H
	DB	0
?xsgetn@?$basic_filebuf@DU?$char_traits@D@std@@@std@@MAE_JPAD_J@Z ENDP ; std::basic_filebuf<char,std::char_traits<char> >::xsgetn
_TEXT	ENDS
; Function compile flags: /Odtp /RTCsu /ZI
; File C:\Program Files (x86)\Microsoft Visual Studio\2019\Professional\VC\Tools\MSVC\14.28.29333\include\fstream
;	COMDAT ?uflow@?$basic_filebuf@DU?$char_traits@D@std@@@std@@MAEHXZ
_TEXT	SEGMENT
tv175 = -392						; size = 4
tv170 = -388						; size = 4
tv172 = -384						; size = 4
tv174 = -380						; size = 4
tv139 = -380						; size = 4
$T2 = -372						; size = 4
$T3 = -360						; size = 4
$T4 = -348						; size = 4
$T5 = -336						; size = 4
__Nleft$6 = -132					; size = 4
__Dest$7 = -120						; size = 4
__Ch$8 = -105						; size = 1
__Meta$9 = -96						; size = 4
__Src$10 = -84						; size = 4
__Str$ = -72						; size = 28
__Ch$11 = -33						; size = 1
_this$ = -24						; size = 4
__$ArrayPad$ = -16					; size = 4
__$EHRec$ = -12						; size = 12
?uflow@?$basic_filebuf@DU?$char_traits@D@std@@@std@@MAEHXZ PROC ; std::basic_filebuf<char,std::char_traits<char> >::uflow, COMDAT
; _this$ = ecx

; 490  :     virtual int_type __CLR_OR_THIS_CALL uflow() override { // get an element from stream, point past it

	push	ebp
	mov	ebp, esp
	push	-1
	push	__ehhandler$?uflow@?$basic_filebuf@DU?$char_traits@D@std@@@std@@MAEHXZ
	mov	eax, DWORD PTR fs:0
	push	eax
	sub	esp, 380				; 0000017cH
	push	ebx
	push	esi
	push	edi
	push	ecx
	lea	edi, DWORD PTR [ebp-392]
	mov	ecx, 95					; 0000005fH
	mov	eax, -858993460				; ccccccccH
	rep stosd
	pop	ecx
	mov	eax, DWORD PTR ___security_cookie
	xor	eax, ebp
	mov	DWORD PTR __$ArrayPad$[ebp], eax
	push	eax
	lea	eax, DWORD PTR __$EHRec$[ebp]
	mov	DWORD PTR fs:0, eax
	mov	DWORD PTR _this$[ebp], ecx
	mov	ecx, OFFSET __99BBE7C3_fstream
	call	@__CheckForDebuggerJustMyCode@4

; 491  :         if (_Mysb::gptr() && _Mysb::gptr() < _Mysb::egptr()) {

	mov	esi, esp
	mov	ecx, DWORD PTR _this$[ebp]
	call	DWORD PTR __imp_?gptr@?$basic_streambuf@DU?$char_traits@D@std@@@std@@IBEPADXZ
	cmp	esi, esp
	call	__RTC_CheckEsp
	test	eax, eax
	je	SHORT $LN9@uflow
	mov	esi, esp
	mov	ecx, DWORD PTR _this$[ebp]
	call	DWORD PTR __imp_?gptr@?$basic_streambuf@DU?$char_traits@D@std@@@std@@IBEPADXZ
	cmp	esi, esp
	call	__RTC_CheckEsp
	mov	esi, eax
	mov	edi, esp
	mov	ecx, DWORD PTR _this$[ebp]
	call	DWORD PTR __imp_?egptr@?$basic_streambuf@DU?$char_traits@D@std@@@std@@IBEPADXZ
	cmp	edi, esp
	call	__RTC_CheckEsp
	cmp	esi, eax
	jae	SHORT $LN9@uflow

; 492  :             return _Traits::to_int_type(*_Mysb::_Gninc()); // return buffered

	mov	esi, esp
	mov	ecx, DWORD PTR _this$[ebp]
	call	DWORD PTR __imp_?_Gninc@?$basic_streambuf@DU?$char_traits@D@std@@@std@@IAEPADXZ
	cmp	esi, esp
	call	__RTC_CheckEsp
	push	eax
	call	?to_int_type@?$_Narrow_char_traits@DH@std@@SAHABD@Z ; std::_Narrow_char_traits<char,int>::to_int_type
	add	esp, 4
	jmp	$LN1@uflow
$LN9@uflow:

; 493  :         }
; 494  : 
; 495  :         if (!_Myfile) {

	mov	eax, DWORD PTR _this$[ebp]
	cmp	DWORD PTR [eax+76], 0
	jne	SHORT $LN10@uflow

; 496  :             return _Traits::eof(); // no open C stream, fail

	call	?eof@?$_Narrow_char_traits@DH@std@@SAHXZ ; std::_Narrow_char_traits<char,int>::eof
	jmp	$LN1@uflow
$LN10@uflow:

; 497  :         }
; 498  : 
; 499  :         _Reset_back(); // revert from _Mychar buffer

	mov	ecx, DWORD PTR _this$[ebp]
	call	?_Reset_back@?$basic_filebuf@DU?$char_traits@D@std@@@std@@AAEXXZ ; std::basic_filebuf<char,std::char_traits<char> >::_Reset_back

; 500  :         if (!_Pcvt) { // no codecvt facet, just get it

	mov	eax, DWORD PTR _this$[ebp]
	cmp	DWORD PTR [eax+56], 0
	jne	SHORT $LN11@uflow

; 501  :             _Elem _Ch;
; 502  :             return _Fgetc(_Ch, _Myfile) ? _Traits::to_int_type(_Ch) : _Traits::eof();

	mov	eax, DWORD PTR _this$[ebp]
	mov	ecx, DWORD PTR [eax+76]
	push	ecx
	lea	edx, DWORD PTR __Ch$11[ebp]
	push	edx
	call	??$_Fgetc@D@std@@YA_NAADPAU_iobuf@@@Z	; std::_Fgetc<char>
	add	esp, 8
	movzx	eax, al
	test	eax, eax
	je	SHORT $LN18@uflow
	lea	ecx, DWORD PTR __Ch$11[ebp]
	push	ecx
	call	?to_int_type@?$_Narrow_char_traits@DH@std@@SAHABD@Z ; std::_Narrow_char_traits<char,int>::to_int_type
	add	esp, 4
	mov	DWORD PTR tv139[ebp], eax
	jmp	SHORT $LN19@uflow
$LN18@uflow:
	call	?eof@?$_Narrow_char_traits@DH@std@@SAHXZ ; std::_Narrow_char_traits<char,int>::eof
	mov	DWORD PTR tv139[ebp], eax
$LN19@uflow:
	mov	eax, DWORD PTR tv139[ebp]
	jmp	$LN1@uflow
$LN11@uflow:

; 503  :         }
; 504  : 
; 505  :         // build string until codecvt succeeds
; 506  :         string _Str;

	lea	ecx, DWORD PTR __Str$[ebp]
	call	??0?$basic_string@DU?$char_traits@D@std@@V?$allocator@D@2@@std@@QAE@XZ ; std::basic_string<char,std::char_traits<char>,std::allocator<char> >::basic_string<char,std::char_traits<char>,std::allocator<char> >
	mov	DWORD PTR __$EHRec$[ebp+8], 0
$LN4@uflow:

; 507  : 
; 508  :         for (;;) { // get using codecvt facet
; 509  :             const char* _Src;
; 510  :             int _Meta = _CSTD fgetc(_Myfile);

	mov	esi, esp
	mov	eax, DWORD PTR _this$[ebp]
	mov	ecx, DWORD PTR [eax+76]
	push	ecx
	call	DWORD PTR __imp__fgetc
	add	esp, 4
	cmp	esi, esp
	call	__RTC_CheckEsp
	mov	DWORD PTR __Meta$9[ebp], eax

; 511  : 
; 512  :             if (_Meta == EOF) {

	cmp	DWORD PTR __Meta$9[ebp], -1
	jne	SHORT $LN12@uflow

; 513  :                 return _Traits::eof(); // partial char?

	call	?eof@?$_Narrow_char_traits@DH@std@@SAHXZ ; std::_Narrow_char_traits<char,int>::eof
	mov	DWORD PTR $T5[ebp], eax
	mov	DWORD PTR __$EHRec$[ebp+8], -1
	lea	ecx, DWORD PTR __Str$[ebp]
	call	??1?$basic_string@DU?$char_traits@D@std@@V?$allocator@D@2@@std@@QAE@XZ ; std::basic_string<char,std::char_traits<char>,std::allocator<char> >::~basic_string<char,std::char_traits<char>,std::allocator<char> >
	mov	eax, DWORD PTR $T5[ebp]
	jmp	$LN1@uflow
$LN12@uflow:

; 514  :             }
; 515  : 
; 516  :             _Str.push_back(static_cast<char>(_Meta)); // append byte and convert

	movzx	eax, BYTE PTR __Meta$9[ebp]
	push	eax
	lea	ecx, DWORD PTR __Str$[ebp]
	call	?push_back@?$basic_string@DU?$char_traits@D@std@@V?$allocator@D@2@@std@@QAEXD@Z ; std::basic_string<char,std::char_traits<char>,std::allocator<char> >::push_back

; 517  : 
; 518  :             _Elem _Ch;
; 519  :             _Elem* _Dest;
; 520  :             switch (_Pcvt->in(_State, _Str.data(), _Str.data() + _Str.size(), _Src, &_Ch, &_Ch + 1,

	mov	eax, DWORD PTR _this$[ebp]
	mov	ecx, DWORD PTR [eax+56]
	mov	DWORD PTR tv174[ebp], ecx
	lea	ecx, DWORD PTR __Str$[ebp]
	call	?data@?$basic_string@DU?$char_traits@D@std@@V?$allocator@D@2@@std@@QAEPADXZ ; std::basic_string<char,std::char_traits<char>,std::allocator<char> >::data
	mov	esi, eax
	lea	ecx, DWORD PTR __Str$[ebp]
	call	?size@?$basic_string@DU?$char_traits@D@std@@V?$allocator@D@2@@std@@QBEIXZ ; std::basic_string<char,std::char_traits<char>,std::allocator<char> >::size
	add	esi, eax
	mov	DWORD PTR tv172[ebp], esi
	lea	ecx, DWORD PTR __Str$[ebp]
	call	?data@?$basic_string@DU?$char_traits@D@std@@V?$allocator@D@2@@std@@QAEPADXZ ; std::basic_string<char,std::char_traits<char>,std::allocator<char> >::data
	mov	DWORD PTR tv170[ebp], eax
	mov	esi, esp
	lea	edx, DWORD PTR __Dest$7[ebp]
	push	edx
	lea	eax, DWORD PTR __Ch$8[ebp+1]
	push	eax
	lea	ecx, DWORD PTR __Ch$8[ebp]
	push	ecx
	lea	edx, DWORD PTR __Src$10[ebp]
	push	edx
	mov	eax, DWORD PTR tv172[ebp]
	push	eax
	mov	ecx, DWORD PTR tv170[ebp]
	push	ecx
	mov	edx, DWORD PTR _this$[ebp]
	add	edx, 64					; 00000040H
	push	edx
	mov	ecx, DWORD PTR tv174[ebp]
	call	DWORD PTR __imp_?in@?$codecvt@DDU_Mbstatet@@@std@@QBEHAAU_Mbstatet@@PBD1AAPBDPAD3AAPAD@Z
	cmp	esi, esp
	call	__RTC_CheckEsp
	mov	DWORD PTR tv175[ebp], eax
	cmp	DWORD PTR tv175[ebp], 0
	jl	$LN16@uflow
	cmp	DWORD PTR tv175[ebp], 1
	jle	SHORT $LN13@uflow
	cmp	DWORD PTR tv175[ebp], 3
	je	$LN15@uflow
	jmp	$LN16@uflow
$LN13@uflow:

; 521  :                 _Dest)) { // test result of converting one element
; 522  :             case codecvt_base::partial:
; 523  :             case codecvt_base::ok:
; 524  :                 if (_Dest != &_Ch) { // got an element, put back excess and deliver it

	lea	eax, DWORD PTR __Ch$8[ebp]
	cmp	DWORD PTR __Dest$7[ebp], eax
	je	$LN14@uflow

; 525  :                     auto _Nleft = _Str.data() + _Str.size() - _Src;

	lea	ecx, DWORD PTR __Str$[ebp]
	call	?data@?$basic_string@DU?$char_traits@D@std@@V?$allocator@D@2@@std@@QAEPADXZ ; std::basic_string<char,std::char_traits<char>,std::allocator<char> >::data
	mov	esi, eax
	lea	ecx, DWORD PTR __Str$[ebp]
	call	?size@?$basic_string@DU?$char_traits@D@std@@V?$allocator@D@2@@std@@QBEIXZ ; std::basic_string<char,std::char_traits<char>,std::allocator<char> >::size
	add	esi, eax
	sub	esi, DWORD PTR __Src$10[ebp]
	mov	DWORD PTR __Nleft$6[ebp], esi
$LN7@uflow:

; 526  :                     while (0 < _Nleft) {

	cmp	DWORD PTR __Nleft$6[ebp], 0
	jle	SHORT $LN8@uflow

; 527  :                         _CSTD ungetc(_Src[--_Nleft], _Myfile);

	mov	eax, DWORD PTR __Nleft$6[ebp]
	sub	eax, 1
	mov	DWORD PTR __Nleft$6[ebp], eax
	mov	esi, esp
	mov	ecx, DWORD PTR _this$[ebp]
	mov	edx, DWORD PTR [ecx+76]
	push	edx
	mov	eax, DWORD PTR __Src$10[ebp]
	add	eax, DWORD PTR __Nleft$6[ebp]
	movsx	ecx, BYTE PTR [eax]
	push	ecx
	call	DWORD PTR __imp__ungetc
	add	esp, 8
	cmp	esi, esp
	call	__RTC_CheckEsp

; 528  :                     }

	jmp	SHORT $LN7@uflow
$LN8@uflow:

; 529  : 
; 530  :                     return _Traits::to_int_type(_Ch);

	lea	eax, DWORD PTR __Ch$8[ebp]
	push	eax
	call	?to_int_type@?$_Narrow_char_traits@DH@std@@SAHABD@Z ; std::_Narrow_char_traits<char,int>::to_int_type
	add	esp, 4
	mov	DWORD PTR $T4[ebp], eax
	mov	DWORD PTR __$EHRec$[ebp+8], -1
	lea	ecx, DWORD PTR __Str$[ebp]
	call	??1?$basic_string@DU?$char_traits@D@std@@V?$allocator@D@2@@std@@QAE@XZ ; std::basic_string<char,std::char_traits<char>,std::allocator<char> >::~basic_string<char,std::char_traits<char>,std::allocator<char> >
	mov	eax, DWORD PTR $T4[ebp]
	jmp	SHORT $LN1@uflow
$LN14@uflow:

; 531  :                 }
; 532  : 
; 533  :                 _Str.erase(0, static_cast<size_t>(_Src - _Str.data())); // partial, discard used input

	lea	ecx, DWORD PTR __Str$[ebp]
	call	?data@?$basic_string@DU?$char_traits@D@std@@V?$allocator@D@2@@std@@QAEPADXZ ; std::basic_string<char,std::char_traits<char>,std::allocator<char> >::data
	mov	ecx, DWORD PTR __Src$10[ebp]
	sub	ecx, eax
	push	ecx
	push	0
	lea	ecx, DWORD PTR __Str$[ebp]
	call	?erase@?$basic_string@DU?$char_traits@D@std@@V?$allocator@D@2@@std@@QAEAAV12@II@Z ; std::basic_string<char,std::char_traits<char>,std::allocator<char> >::erase

; 534  :                 break;

	jmp	SHORT $LN5@uflow
$LN15@uflow:

; 535  : 
; 536  :             case codecvt_base::noconv:
; 537  :                 // noconv is only possible if _Elem is char, so we can use it directly
; 538  :                 return static_cast<int_type>(_Str.front());

	lea	ecx, DWORD PTR __Str$[ebp]
	call	?front@?$basic_string@DU?$char_traits@D@std@@V?$allocator@D@2@@std@@QAEAADXZ ; std::basic_string<char,std::char_traits<char>,std::allocator<char> >::front
	movsx	eax, BYTE PTR [eax]
	mov	DWORD PTR $T3[ebp], eax
	mov	DWORD PTR __$EHRec$[ebp+8], -1
	lea	ecx, DWORD PTR __Str$[ebp]
	call	??1?$basic_string@DU?$char_traits@D@std@@V?$allocator@D@2@@std@@QAE@XZ ; std::basic_string<char,std::char_traits<char>,std::allocator<char> >::~basic_string<char,std::char_traits<char>,std::allocator<char> >
	mov	eax, DWORD PTR $T3[ebp]
	jmp	SHORT $LN1@uflow
$LN16@uflow:

; 539  : 
; 540  :             default:
; 541  :                 return _Traits::eof(); // conversion failed

	call	?eof@?$_Narrow_char_traits@DH@std@@SAHXZ ; std::_Narrow_char_traits<char,int>::eof
	mov	DWORD PTR $T2[ebp], eax
	mov	DWORD PTR __$EHRec$[ebp+8], -1
	lea	ecx, DWORD PTR __Str$[ebp]
	call	??1?$basic_string@DU?$char_traits@D@std@@V?$allocator@D@2@@std@@QAE@XZ ; std::basic_string<char,std::char_traits<char>,std::allocator<char> >::~basic_string<char,std::char_traits<char>,std::allocator<char> >
	mov	eax, DWORD PTR $T2[ebp]
	jmp	SHORT $LN1@uflow
$LN5@uflow:

; 542  :             }
; 543  :         }

	jmp	$LN4@uflow

; 544  :     }

	mov	DWORD PTR __$EHRec$[ebp+8], -1
	lea	ecx, DWORD PTR __Str$[ebp]
	call	??1?$basic_string@DU?$char_traits@D@std@@V?$allocator@D@2@@std@@QAE@XZ ; std::basic_string<char,std::char_traits<char>,std::allocator<char> >::~basic_string<char,std::char_traits<char>,std::allocator<char> >
$LN1@uflow:
	push	edx
	mov	ecx, ebp
	push	eax
	lea	edx, DWORD PTR $LN28@uflow
	call	@_RTC_CheckStackVars@8
	pop	eax
	pop	edx
	mov	ecx, DWORD PTR __$EHRec$[ebp]
	mov	DWORD PTR fs:0, ecx
	pop	ecx
	pop	edi
	pop	esi
	pop	ebx
	mov	ecx, DWORD PTR __$ArrayPad$[ebp]
	xor	ecx, ebp
	call	@__security_check_cookie@4
	add	esp, 392				; 00000188H
	cmp	ebp, esp
	call	__RTC_CheckEsp
	mov	esp, ebp
	pop	ebp
	ret	0
	npad	2
$LN28@uflow:
	DD	5
	DD	$LN27@uflow
$LN27@uflow:
	DD	-33					; ffffffdfH
	DD	1
	DD	$LN21@uflow
	DD	-72					; ffffffb8H
	DD	28					; 0000001cH
	DD	$LN22@uflow
	DD	-84					; ffffffacH
	DD	4
	DD	$LN23@uflow
	DD	-105					; ffffff97H
	DD	1
	DD	$LN24@uflow
	DD	-120					; ffffff88H
	DD	4
	DD	$LN25@uflow
$LN25@uflow:
	DB	95					; 0000005fH
	DB	68					; 00000044H
	DB	101					; 00000065H
	DB	115					; 00000073H
	DB	116					; 00000074H
	DB	0
$LN24@uflow:
	DB	95					; 0000005fH
	DB	67					; 00000043H
	DB	104					; 00000068H
	DB	0
$LN23@uflow:
	DB	95					; 0000005fH
	DB	83					; 00000053H
	DB	114					; 00000072H
	DB	99					; 00000063H
	DB	0
$LN22@uflow:
	DB	95					; 0000005fH
	DB	83					; 00000053H
	DB	116					; 00000074H
	DB	114					; 00000072H
	DB	0
$LN21@uflow:
	DB	95					; 0000005fH
	DB	67					; 00000043H
	DB	104					; 00000068H
	DB	0
_TEXT	ENDS
;	COMDAT text$x
text$x	SEGMENT
__unwindfunclet$?uflow@?$basic_filebuf@DU?$char_traits@D@std@@@std@@MAEHXZ$0:
	lea	ecx, DWORD PTR __Str$[ebp]
	jmp	??1?$basic_string@DU?$char_traits@D@std@@V?$allocator@D@2@@std@@QAE@XZ ; std::basic_string<char,std::char_traits<char>,std::allocator<char> >::~basic_string<char,std::char_traits<char>,std::allocator<char> >
	int	3
	int	3
	int	3
	int	3
	int	3
__ehhandler$?uflow@?$basic_filebuf@DU?$char_traits@D@std@@@std@@MAEHXZ:
	npad	1
	npad	1
	mov	edx, DWORD PTR [esp+8]
	lea	eax, DWORD PTR [edx+12]
	mov	ecx, DWORD PTR [edx-396]
	xor	ecx, eax
	call	@__security_check_cookie@4
	mov	ecx, DWORD PTR [edx-4]
	xor	ecx, eax
	call	@__security_check_cookie@4
	mov	eax, OFFSET __ehfuncinfo$?uflow@?$basic_filebuf@DU?$char_traits@D@std@@@std@@MAEHXZ
	jmp	___CxxFrameHandler3
text$x	ENDS
?uflow@?$basic_filebuf@DU?$char_traits@D@std@@@std@@MAEHXZ ENDP ; std::basic_filebuf<char,std::char_traits<char> >::uflow
; Function compile flags: /Odtp /RTCsu /ZI
; File C:\Program Files (x86)\Microsoft Visual Studio\2019\Professional\VC\Tools\MSVC\14.28.29333\include\fstream
;	COMDAT ?underflow@?$basic_filebuf@DU?$char_traits@D@std@@@std@@MAEHXZ
_TEXT	SEGMENT
tv148 = -236						; size = 4
$T1 = -228						; size = 4
__Meta$ = -24						; size = 4
_this$ = -12						; size = 4
__$ArrayPad$ = -4					; size = 4
?underflow@?$basic_filebuf@DU?$char_traits@D@std@@@std@@MAEHXZ PROC ; std::basic_filebuf<char,std::char_traits<char> >::underflow, COMDAT
; _this$ = ecx

; 478  :     virtual int_type __CLR_OR_THIS_CALL underflow() override { // get an element from stream, but don't point past it

	push	ebp
	mov	ebp, esp
	sub	esp, 236				; 000000ecH
	push	ebx
	push	esi
	push	edi
	push	ecx
	lea	edi, DWORD PTR [ebp-236]
	mov	ecx, 59					; 0000003bH
	mov	eax, -858993460				; ccccccccH
	rep stosd
	pop	ecx
	mov	eax, DWORD PTR ___security_cookie
	xor	eax, ebp
	mov	DWORD PTR __$ArrayPad$[ebp], eax
	mov	DWORD PTR _this$[ebp], ecx
	mov	ecx, OFFSET __99BBE7C3_fstream
	call	@__CheckForDebuggerJustMyCode@4

; 479  :         int_type _Meta;
; 480  :         if (_Mysb::gptr() && _Mysb::gptr() < _Mysb::egptr()) {

	mov	esi, esp
	mov	ecx, DWORD PTR _this$[ebp]
	call	DWORD PTR __imp_?gptr@?$basic_streambuf@DU?$char_traits@D@std@@@std@@IBEPADXZ
	cmp	esi, esp
	call	__RTC_CheckEsp
	test	eax, eax
	je	SHORT $LN2@underflow
	mov	esi, esp
	mov	ecx, DWORD PTR _this$[ebp]
	call	DWORD PTR __imp_?gptr@?$basic_streambuf@DU?$char_traits@D@std@@@std@@IBEPADXZ
	cmp	esi, esp
	call	__RTC_CheckEsp
	mov	esi, eax
	mov	edi, esp
	mov	ecx, DWORD PTR _this$[ebp]
	call	DWORD PTR __imp_?egptr@?$basic_streambuf@DU?$char_traits@D@std@@@std@@IBEPADXZ
	cmp	edi, esp
	call	__RTC_CheckEsp
	cmp	esi, eax
	jae	SHORT $LN2@underflow

; 481  :             return _Traits::to_int_type(*_Mysb::gptr()); // return buffered

	mov	esi, esp
	mov	ecx, DWORD PTR _this$[ebp]
	call	DWORD PTR __imp_?gptr@?$basic_streambuf@DU?$char_traits@D@std@@@std@@IBEPADXZ
	cmp	esi, esp
	call	__RTC_CheckEsp
	push	eax
	call	?to_int_type@?$_Narrow_char_traits@DH@std@@SAHABD@Z ; std::_Narrow_char_traits<char,int>::to_int_type
	add	esp, 4
	jmp	SHORT $LN1@underflow
	jmp	SHORT $LN1@underflow
$LN2@underflow:

; 482  :         } else if (_Traits::eq_int_type(_Traits::eof(), _Meta = uflow())) {

	mov	eax, DWORD PTR _this$[ebp]
	mov	edx, DWORD PTR [eax]
	mov	esi, esp
	mov	ecx, DWORD PTR _this$[ebp]
	mov	eax, DWORD PTR [edx+28]
	call	eax
	cmp	esi, esp
	call	__RTC_CheckEsp
	mov	DWORD PTR __Meta$[ebp], eax
	call	?eof@?$_Narrow_char_traits@DH@std@@SAHXZ ; std::_Narrow_char_traits<char,int>::eof
	mov	DWORD PTR $T1[ebp], eax
	lea	ecx, DWORD PTR __Meta$[ebp]
	push	ecx
	lea	edx, DWORD PTR $T1[ebp]
	push	edx
	call	?eq_int_type@?$_Narrow_char_traits@DH@std@@SA_NABH0@Z ; std::_Narrow_char_traits<char,int>::eq_int_type
	add	esp, 8
	movzx	eax, al
	test	eax, eax
	je	SHORT $LN4@underflow

; 483  :             return _Meta; // uflow failed, return EOF

	mov	eax, DWORD PTR __Meta$[ebp]
	jmp	SHORT $LN1@underflow

; 484  :         } else { // get a char, don't point past it

	jmp	SHORT $LN1@underflow
$LN4@underflow:

; 485  :             pbackfail(_Meta);

	mov	eax, DWORD PTR _this$[ebp]
	mov	ecx, DWORD PTR [eax]
	mov	edx, DWORD PTR [ecx+16]
	mov	DWORD PTR tv148[ebp], edx
	mov	esi, esp
	mov	eax, DWORD PTR __Meta$[ebp]
	push	eax
	mov	ecx, DWORD PTR _this$[ebp]
	call	DWORD PTR tv148[ebp]
	cmp	esi, esp
	call	__RTC_CheckEsp

; 486  :             return _Meta;

	mov	eax, DWORD PTR __Meta$[ebp]
$LN1@underflow:

; 487  :         }
; 488  :     }

	push	edx
	mov	ecx, ebp
	push	eax
	lea	edx, DWORD PTR $LN9@underflow
	call	@_RTC_CheckStackVars@8
	pop	eax
	pop	edx
	pop	edi
	pop	esi
	pop	ebx
	mov	ecx, DWORD PTR __$ArrayPad$[ebp]
	xor	ecx, ebp
	call	@__security_check_cookie@4
	add	esp, 236				; 000000ecH
	cmp	ebp, esp
	call	__RTC_CheckEsp
	mov	esp, ebp
	pop	ebp
	ret	0
	npad	3
$LN9@underflow:
	DD	1
	DD	$LN8@underflow
$LN8@underflow:
	DD	-24					; ffffffe8H
	DD	4
	DD	$LN7@underflow
$LN7@underflow:
	DB	95					; 0000005fH
	DB	77					; 0000004dH
	DB	101					; 00000065H
	DB	116					; 00000074H
	DB	97					; 00000061H
	DB	0
?underflow@?$basic_filebuf@DU?$char_traits@D@std@@@std@@MAEHXZ ENDP ; std::basic_filebuf<char,std::char_traits<char> >::underflow
_TEXT	ENDS
; Function compile flags: /Odtp /RTCsu /ZI
; File C:\Program Files (x86)\Microsoft Visual Studio\2019\Professional\VC\Tools\MSVC\14.28.29333\include\fstream
;	COMDAT ?pbackfail@?$basic_filebuf@DU?$char_traits@D@std@@@std@@MAEHH@Z
_TEXT	SEGMENT
tv162 = -256						; size = 4
$T1 = -245						; size = 1
$T2 = -236						; size = 4
$T3 = -224						; size = 4
$T4 = -212						; size = 4
_this$ = -8						; size = 4
__Meta$ = 8						; size = 4
?pbackfail@?$basic_filebuf@DU?$char_traits@D@std@@@std@@MAEHH@Z PROC ; std::basic_filebuf<char,std::char_traits<char> >::pbackfail, COMDAT
; _this$ = ecx

; 457  :     virtual int_type __CLR_OR_THIS_CALL pbackfail(int_type _Meta = _Traits::eof()) override {

	push	ebp
	mov	ebp, esp
	sub	esp, 256				; 00000100H
	push	ebx
	push	esi
	push	edi
	push	ecx
	lea	edi, DWORD PTR [ebp-256]
	mov	ecx, 64					; 00000040H
	mov	eax, -858993460				; ccccccccH
	rep stosd
	pop	ecx
	mov	DWORD PTR _this$[ebp], ecx
	mov	ecx, OFFSET __99BBE7C3_fstream
	call	@__CheckForDebuggerJustMyCode@4

; 458  :         // put an element back to stream
; 459  :         if (_Mysb::gptr() && _Mysb::eback() < _Mysb::gptr()
; 460  :             && (_Traits::eq_int_type(_Traits::eof(), _Meta)

	mov	esi, esp
	mov	ecx, DWORD PTR _this$[ebp]
	call	DWORD PTR __imp_?gptr@?$basic_streambuf@DU?$char_traits@D@std@@@std@@IBEPADXZ
	cmp	esi, esp
	call	__RTC_CheckEsp
	test	eax, eax
	je	$LN2@pbackfail
	mov	esi, esp
	mov	ecx, DWORD PTR _this$[ebp]
	call	DWORD PTR __imp_?eback@?$basic_streambuf@DU?$char_traits@D@std@@@std@@IBEPADXZ
	cmp	esi, esp
	call	__RTC_CheckEsp
	mov	esi, eax
	mov	edi, esp
	mov	ecx, DWORD PTR _this$[ebp]
	call	DWORD PTR __imp_?gptr@?$basic_streambuf@DU?$char_traits@D@std@@@std@@IBEPADXZ
	cmp	edi, esp
	call	__RTC_CheckEsp
	cmp	esi, eax
	jae	$LN2@pbackfail
	call	?eof@?$_Narrow_char_traits@DH@std@@SAHXZ ; std::_Narrow_char_traits<char,int>::eof
	mov	DWORD PTR $T4[ebp], eax
	lea	eax, DWORD PTR __Meta$[ebp]
	push	eax
	lea	ecx, DWORD PTR $T4[ebp]
	push	ecx
	call	?eq_int_type@?$_Narrow_char_traits@DH@std@@SA_NABH0@Z ; std::_Narrow_char_traits<char,int>::eq_int_type
	add	esp, 8
	movzx	edx, al
	test	edx, edx
	jne	SHORT $LN4@pbackfail
	mov	esi, esp
	mov	ecx, DWORD PTR _this$[ebp]
	call	DWORD PTR __imp_?gptr@?$basic_streambuf@DU?$char_traits@D@std@@@std@@IBEPADXZ
	cmp	esi, esp
	call	__RTC_CheckEsp
	mov	ecx, 1
	imul	edx, ecx, -1
	add	eax, edx
	push	eax
	call	?to_int_type@?$_Narrow_char_traits@DH@std@@SAHABD@Z ; std::_Narrow_char_traits<char,int>::to_int_type
	add	esp, 4
	mov	DWORD PTR $T3[ebp], eax
	lea	eax, DWORD PTR __Meta$[ebp]
	push	eax
	lea	ecx, DWORD PTR $T3[ebp]
	push	ecx
	call	?eq_int_type@?$_Narrow_char_traits@DH@std@@SA_NABH0@Z ; std::_Narrow_char_traits<char,int>::eq_int_type
	add	esp, 8
	movzx	edx, al
	test	edx, edx
	je	SHORT $LN2@pbackfail
$LN4@pbackfail:

; 461  :                 || _Traits::eq_int_type(_Traits::to_int_type(_Mysb::gptr()[-1]),
; 462  :                     _Meta))) { // just back up position
; 463  :             _Mysb::_Gndec();

	mov	esi, esp
	mov	ecx, DWORD PTR _this$[ebp]
	call	DWORD PTR __imp_?_Gndec@?$basic_streambuf@DU?$char_traits@D@std@@@std@@IAEPADXZ
	cmp	esi, esp
	call	__RTC_CheckEsp

; 464  :             return _Traits::not_eof(_Meta);

	lea	eax, DWORD PTR __Meta$[ebp]
	push	eax
	call	?not_eof@?$_Narrow_char_traits@DH@std@@SAHABH@Z ; std::_Narrow_char_traits<char,int>::not_eof
	add	esp, 4
	jmp	$LN1@pbackfail
	jmp	$LN1@pbackfail
$LN2@pbackfail:

; 465  :         } else if (!_Myfile || _Traits::eq_int_type(_Traits::eof(), _Meta)) {

	mov	eax, DWORD PTR _this$[ebp]
	cmp	DWORD PTR [eax+76], 0
	je	SHORT $LN7@pbackfail
	call	?eof@?$_Narrow_char_traits@DH@std@@SAHXZ ; std::_Narrow_char_traits<char,int>::eof
	mov	DWORD PTR $T2[ebp], eax
	lea	eax, DWORD PTR __Meta$[ebp]
	push	eax
	lea	ecx, DWORD PTR $T2[ebp]
	push	ecx
	call	?eq_int_type@?$_Narrow_char_traits@DH@std@@SA_NABH0@Z ; std::_Narrow_char_traits<char,int>::eq_int_type
	add	esp, 8
	movzx	edx, al
	test	edx, edx
	je	SHORT $LN5@pbackfail
$LN7@pbackfail:

; 466  :             return _Traits::eof(); // no open C stream or EOF, fail

	call	?eof@?$_Narrow_char_traits@DH@std@@SAHXZ ; std::_Narrow_char_traits<char,int>::eof
	jmp	$LN1@pbackfail
	jmp	$LN1@pbackfail
$LN5@pbackfail:

; 467  :         } else if (!_Pcvt && _Ungetc(_Traits::to_char_type(_Meta), _Myfile)) {

	mov	eax, DWORD PTR _this$[ebp]
	cmp	DWORD PTR [eax+56], 0
	jne	SHORT $LN8@pbackfail
	mov	eax, DWORD PTR _this$[ebp]
	mov	ecx, DWORD PTR [eax+76]
	mov	DWORD PTR tv162[ebp], ecx
	lea	edx, DWORD PTR __Meta$[ebp]
	push	edx
	call	?to_char_type@?$_Narrow_char_traits@DH@std@@SADABH@Z ; std::_Narrow_char_traits<char,int>::to_char_type
	add	esp, 4
	mov	BYTE PTR $T1[ebp], al
	mov	eax, DWORD PTR tv162[ebp]
	push	eax
	lea	ecx, DWORD PTR $T1[ebp]
	push	ecx
	call	??$_Ungetc@D@std@@YA_NABDPAU_iobuf@@@Z	; std::_Ungetc<char>
	add	esp, 8
	movzx	edx, al
	test	edx, edx
	je	SHORT $LN8@pbackfail

; 468  :             return _Meta; // no facet and unget succeeded, return

	mov	eax, DWORD PTR __Meta$[ebp]
	jmp	SHORT $LN1@pbackfail
	jmp	SHORT $LN1@pbackfail
$LN8@pbackfail:

; 469  :         } else if (_Mysb::gptr() != &_Mychar) { // putback to _Mychar

	mov	esi, esp
	mov	ecx, DWORD PTR _this$[ebp]
	call	DWORD PTR __imp_?gptr@?$basic_streambuf@DU?$char_traits@D@std@@@std@@IBEPADXZ
	cmp	esi, esp
	call	__RTC_CheckEsp
	mov	ecx, DWORD PTR _this$[ebp]
	add	ecx, 60					; 0000003cH
	cmp	eax, ecx
	je	SHORT $LN10@pbackfail

; 470  :             _Mychar = _Traits::to_char_type(_Meta);

	lea	eax, DWORD PTR __Meta$[ebp]
	push	eax
	call	?to_char_type@?$_Narrow_char_traits@DH@std@@SADABH@Z ; std::_Narrow_char_traits<char,int>::to_char_type
	add	esp, 4
	mov	ecx, DWORD PTR _this$[ebp]
	mov	BYTE PTR [ecx+60], al

; 471  :             _Set_back(); // switch to _Mychar buffer

	mov	ecx, DWORD PTR _this$[ebp]
	call	?_Set_back@?$basic_filebuf@DU?$char_traits@D@std@@@std@@AAEXXZ ; std::basic_filebuf<char,std::char_traits<char> >::_Set_back

; 472  :             return _Meta;

	mov	eax, DWORD PTR __Meta$[ebp]
	jmp	SHORT $LN1@pbackfail

; 473  :         } else {

	jmp	SHORT $LN1@pbackfail
$LN10@pbackfail:

; 474  :             return _Traits::eof(); // nowhere to put back

	call	?eof@?$_Narrow_char_traits@DH@std@@SAHXZ ; std::_Narrow_char_traits<char,int>::eof
$LN1@pbackfail:

; 475  :         }
; 476  :     }

	pop	edi
	pop	esi
	pop	ebx
	add	esp, 256				; 00000100H
	cmp	ebp, esp
	call	__RTC_CheckEsp
	mov	esp, ebp
	pop	ebp
	ret	4
?pbackfail@?$basic_filebuf@DU?$char_traits@D@std@@@std@@MAEHH@Z ENDP ; std::basic_filebuf<char,std::char_traits<char> >::pbackfail
_TEXT	ENDS
; Function compile flags: /Odtp /RTCsu /ZI
; File C:\Program Files (x86)\Microsoft Visual Studio\2019\Professional\VC\Tools\MSVC\14.28.29333\include\fstream
;	COMDAT ?overflow@?$basic_filebuf@DU?$char_traits@D@std@@@std@@MAEHH@Z
_TEXT	SEGMENT
tv153 = -332						; size = 4
tv171 = -328						; size = 4
tv147 = -325						; size = 1
tv192 = -324						; size = 4
tv170 = -324						; size = 4
tv149 = -324						; size = 4
tv133 = -321						; size = 1
$T1 = -316						; size = 4
__Count$2 = -112					; size = 4
__Dest$ = -100						; size = 4
__Src$ = -88						; size = 4
__Ch$ = -73						; size = 1
__Str$ = -64						; size = 32
__Codecvt_temp_buf$ = -24				; size = 4
_this$ = -12						; size = 4
__$ArrayPad$ = -4					; size = 4
__Meta$ = 8						; size = 4
?overflow@?$basic_filebuf@DU?$char_traits@D@std@@@std@@MAEHH@Z PROC ; std::basic_filebuf<char,std::char_traits<char> >::overflow, COMDAT
; _this$ = ecx

; 406  :     virtual int_type __CLR_OR_THIS_CALL overflow(int_type _Meta = _Traits::eof()) override { // put an element to stream

	push	ebp
	mov	ebp, esp
	sub	esp, 332				; 0000014cH
	push	ebx
	push	esi
	push	edi
	push	ecx
	lea	edi, DWORD PTR [ebp-332]
	mov	ecx, 83					; 00000053H
	mov	eax, -858993460				; ccccccccH
	rep stosd
	pop	ecx
	mov	eax, DWORD PTR ___security_cookie
	xor	eax, ebp
	mov	DWORD PTR __$ArrayPad$[ebp], eax
	mov	DWORD PTR _this$[ebp], ecx
	mov	ecx, OFFSET __99BBE7C3_fstream
	call	@__CheckForDebuggerJustMyCode@4

; 407  :         if (_Traits::eq_int_type(_Traits::eof(), _Meta)) {

	call	?eof@?$_Narrow_char_traits@DH@std@@SAHXZ ; std::_Narrow_char_traits<char,int>::eof
	mov	DWORD PTR $T1[ebp], eax
	lea	eax, DWORD PTR __Meta$[ebp]
	push	eax
	lea	ecx, DWORD PTR $T1[ebp]
	push	ecx
	call	?eq_int_type@?$_Narrow_char_traits@DH@std@@SA_NABH0@Z ; std::_Narrow_char_traits<char,int>::eq_int_type
	add	esp, 8
	movzx	edx, al
	test	edx, edx
	je	SHORT $LN4@overflow

; 408  :             return _Traits::not_eof(_Meta); // EOF, return success code

	lea	eax, DWORD PTR __Meta$[ebp]
	push	eax
	call	?not_eof@?$_Narrow_char_traits@DH@std@@SAHABH@Z ; std::_Narrow_char_traits<char,int>::not_eof
	add	esp, 4
	jmp	$LN1@overflow
$LN4@overflow:

; 409  :         }
; 410  : 
; 411  :         if (_Mysb::pptr() && _Mysb::pptr() < _Mysb::epptr()) { // room in buffer, store it

	mov	esi, esp
	mov	ecx, DWORD PTR _this$[ebp]
	call	DWORD PTR __imp_?pptr@?$basic_streambuf@DU?$char_traits@D@std@@@std@@IBEPADXZ
	cmp	esi, esp
	call	__RTC_CheckEsp
	test	eax, eax
	je	SHORT $LN5@overflow
	mov	esi, esp
	mov	ecx, DWORD PTR _this$[ebp]
	call	DWORD PTR __imp_?pptr@?$basic_streambuf@DU?$char_traits@D@std@@@std@@IBEPADXZ
	cmp	esi, esp
	call	__RTC_CheckEsp
	mov	esi, eax
	mov	edi, esp
	mov	ecx, DWORD PTR _this$[ebp]
	call	DWORD PTR __imp_?epptr@?$basic_streambuf@DU?$char_traits@D@std@@@std@@IBEPADXZ
	cmp	edi, esp
	call	__RTC_CheckEsp
	cmp	esi, eax
	jae	SHORT $LN5@overflow

; 412  :             *_Mysb::_Pninc() = _Traits::to_char_type(_Meta);

	lea	eax, DWORD PTR __Meta$[ebp]
	push	eax
	call	?to_char_type@?$_Narrow_char_traits@DH@std@@SADABH@Z ; std::_Narrow_char_traits<char,int>::to_char_type
	add	esp, 4
	mov	BYTE PTR tv133[ebp], al
	mov	esi, esp
	mov	ecx, DWORD PTR _this$[ebp]
	call	DWORD PTR __imp_?_Pninc@?$basic_streambuf@DU?$char_traits@D@std@@@std@@IAEPADXZ
	cmp	esi, esp
	call	__RTC_CheckEsp
	mov	cl, BYTE PTR tv133[ebp]
	mov	BYTE PTR [eax], cl

; 413  :             return _Meta;

	mov	eax, DWORD PTR __Meta$[ebp]
	jmp	$LN1@overflow
$LN5@overflow:

; 414  :         }
; 415  : 
; 416  :         if (!_Myfile) {

	mov	eax, DWORD PTR _this$[ebp]
	cmp	DWORD PTR [eax+76], 0
	jne	SHORT $LN6@overflow

; 417  :             return _Traits::eof(); // no open C stream, fail

	call	?eof@?$_Narrow_char_traits@DH@std@@SAHXZ ; std::_Narrow_char_traits<char,int>::eof
	jmp	$LN1@overflow
$LN6@overflow:

; 418  :         }
; 419  : 
; 420  :         _Reset_back(); // revert from _Mychar buffer

	mov	ecx, DWORD PTR _this$[ebp]
	call	?_Reset_back@?$basic_filebuf@DU?$char_traits@D@std@@@std@@AAEXXZ ; std::basic_filebuf<char,std::char_traits<char> >::_Reset_back

; 421  :         if (!_Pcvt) { // no codecvt facet, put as is

	mov	eax, DWORD PTR _this$[ebp]
	cmp	DWORD PTR [eax+56], 0
	jne	SHORT $LN7@overflow

; 422  :             return _Fputc(_Traits::to_char_type(_Meta), _Myfile) ? _Meta : _Traits::eof();

	mov	eax, DWORD PTR _this$[ebp]
	mov	ecx, DWORD PTR [eax+76]
	mov	DWORD PTR tv149[ebp], ecx
	lea	edx, DWORD PTR __Meta$[ebp]
	push	edx
	call	?to_char_type@?$_Narrow_char_traits@DH@std@@SADABH@Z ; std::_Narrow_char_traits<char,int>::to_char_type
	add	esp, 4
	mov	BYTE PTR tv147[ebp], al
	mov	eax, DWORD PTR tv149[ebp]
	push	eax
	movzx	ecx, BYTE PTR tv147[ebp]
	push	ecx
	call	??$_Fputc@D@std@@YA_NDPAU_iobuf@@@Z	; std::_Fputc<char>
	add	esp, 8
	movzx	edx, al
	test	edx, edx
	je	SHORT $LN14@overflow
	mov	eax, DWORD PTR __Meta$[ebp]
	mov	DWORD PTR tv153[ebp], eax
	jmp	SHORT $LN15@overflow
$LN14@overflow:
	call	?eof@?$_Narrow_char_traits@DH@std@@SAHXZ ; std::_Narrow_char_traits<char,int>::eof
	mov	DWORD PTR tv153[ebp], eax
$LN15@overflow:
	mov	eax, DWORD PTR tv153[ebp]
	jmp	$LN1@overflow
$LN7@overflow:

; 423  :         }
; 424  : 
; 425  :         // put using codecvt facet
; 426  :         constexpr size_t _Codecvt_temp_buf = 32;

	mov	DWORD PTR __Codecvt_temp_buf$[ebp], 32	; 00000020H

; 427  :         char _Str[_Codecvt_temp_buf];
; 428  :         const _Elem _Ch = _Traits::to_char_type(_Meta);

	lea	eax, DWORD PTR __Meta$[ebp]
	push	eax
	call	?to_char_type@?$_Narrow_char_traits@DH@std@@SADABH@Z ; std::_Narrow_char_traits<char,int>::to_char_type
	add	esp, 4
	mov	BYTE PTR __Ch$[ebp], al

; 429  :         const _Elem* _Src;
; 430  :         char* _Dest;
; 431  :         switch (_Pcvt->out(_State, &_Ch, &_Ch + 1, _Src, _Str, _Str + _Codecvt_temp_buf,

	mov	eax, DWORD PTR _this$[ebp]
	mov	ecx, DWORD PTR [eax+56]
	mov	DWORD PTR tv170[ebp], ecx
	mov	esi, esp
	lea	edx, DWORD PTR __Dest$[ebp]
	push	edx
	lea	eax, DWORD PTR __Str$[ebp+32]
	push	eax
	lea	ecx, DWORD PTR __Str$[ebp]
	push	ecx
	lea	edx, DWORD PTR __Src$[ebp]
	push	edx
	lea	eax, DWORD PTR __Ch$[ebp+1]
	push	eax
	lea	ecx, DWORD PTR __Ch$[ebp]
	push	ecx
	mov	edx, DWORD PTR _this$[ebp]
	add	edx, 64					; 00000040H
	push	edx
	mov	ecx, DWORD PTR tv170[ebp]
	call	DWORD PTR __imp_?out@?$codecvt@DDU_Mbstatet@@@std@@QBEHAAU_Mbstatet@@PBD1AAPBDPAD3AAPAD@Z
	cmp	esi, esp
	call	__RTC_CheckEsp
	mov	DWORD PTR tv171[ebp], eax
	cmp	DWORD PTR tv171[ebp], 0
	jl	$LN12@overflow
	cmp	DWORD PTR tv171[ebp], 1
	jle	SHORT $LN8@overflow
	cmp	DWORD PTR tv171[ebp], 3
	je	SHORT $LN11@overflow
	jmp	$LN12@overflow
$LN8@overflow:

; 432  :             _Dest)) { // test result of converting one element
; 433  :         case codecvt_base::partial:
; 434  :         case codecvt_base::ok: { // converted something, try to put it out
; 435  :             const auto _Count = static_cast<size_t>(_Dest - _Str);

	mov	eax, DWORD PTR __Dest$[ebp]
	lea	ecx, DWORD PTR __Str$[ebp]
	sub	eax, ecx
	mov	DWORD PTR __Count$2[ebp], eax

; 436  :             if (0 < _Count && _Count != static_cast<size_t>(_CSTD fwrite(_Str, 1, _Count, _Myfile))) {

	je	SHORT $LN9@overflow
	mov	esi, esp
	mov	eax, DWORD PTR _this$[ebp]
	mov	ecx, DWORD PTR [eax+76]
	push	ecx
	mov	edx, DWORD PTR __Count$2[ebp]
	push	edx
	push	1
	lea	eax, DWORD PTR __Str$[ebp]
	push	eax
	call	DWORD PTR __imp__fwrite
	add	esp, 16					; 00000010H
	cmp	esi, esp
	call	__RTC_CheckEsp
	cmp	DWORD PTR __Count$2[ebp], eax
	je	SHORT $LN9@overflow

; 437  :                 return _Traits::eof(); // write failed

	call	?eof@?$_Narrow_char_traits@DH@std@@SAHXZ ; std::_Narrow_char_traits<char,int>::eof
	jmp	SHORT $LN1@overflow
$LN9@overflow:

; 438  :             }
; 439  : 
; 440  :             _Wrotesome = true; // write succeeded

	mov	eax, DWORD PTR _this$[ebp]
	mov	BYTE PTR [eax+61], 1

; 441  :             if (_Src != &_Ch) {

	lea	eax, DWORD PTR __Ch$[ebp]
	cmp	DWORD PTR __Src$[ebp], eax
	je	SHORT $LN10@overflow

; 442  :                 return _Meta; // converted whole element

	mov	eax, DWORD PTR __Meta$[ebp]
	jmp	SHORT $LN1@overflow
$LN10@overflow:

; 443  :             }
; 444  : 
; 445  :             return _Traits::eof(); // conversion failed

	call	?eof@?$_Narrow_char_traits@DH@std@@SAHXZ ; std::_Narrow_char_traits<char,int>::eof
	jmp	SHORT $LN1@overflow
$LN11@overflow:

; 446  :         }
; 447  : 
; 448  :         case codecvt_base::noconv:
; 449  :             // no conversion, put as is
; 450  :             return _Fputc(_Ch, _Myfile) ? _Meta : _Traits::eof();

	mov	eax, DWORD PTR _this$[ebp]
	mov	ecx, DWORD PTR [eax+76]
	push	ecx
	movzx	edx, BYTE PTR __Ch$[ebp]
	push	edx
	call	??$_Fputc@D@std@@YA_NDPAU_iobuf@@@Z	; std::_Fputc<char>
	add	esp, 8
	movzx	eax, al
	test	eax, eax
	je	SHORT $LN16@overflow
	mov	ecx, DWORD PTR __Meta$[ebp]
	mov	DWORD PTR tv192[ebp], ecx
	jmp	SHORT $LN17@overflow
$LN16@overflow:
	call	?eof@?$_Narrow_char_traits@DH@std@@SAHXZ ; std::_Narrow_char_traits<char,int>::eof
	mov	DWORD PTR tv192[ebp], eax
$LN17@overflow:
	mov	eax, DWORD PTR tv192[ebp]
	jmp	SHORT $LN1@overflow
$LN12@overflow:

; 451  : 
; 452  :         default:
; 453  :             return _Traits::eof(); // conversion failed

	call	?eof@?$_Narrow_char_traits@DH@std@@SAHXZ ; std::_Narrow_char_traits<char,int>::eof
$LN1@overflow:

; 454  :         }
; 455  :     }

	push	edx
	mov	ecx, ebp
	push	eax
	lea	edx, DWORD PTR $LN23@overflow
	call	@_RTC_CheckStackVars@8
	pop	eax
	pop	edx
	pop	edi
	pop	esi
	pop	ebx
	mov	ecx, DWORD PTR __$ArrayPad$[ebp]
	xor	ecx, ebp
	call	@__security_check_cookie@4
	add	esp, 332				; 0000014cH
	cmp	ebp, esp
	call	__RTC_CheckEsp
	mov	esp, ebp
	pop	ebp
	ret	4
$LN23@overflow:
	DD	4
	DD	$LN22@overflow
$LN22@overflow:
	DD	-64					; ffffffc0H
	DD	32					; 00000020H
	DD	$LN18@overflow
	DD	-73					; ffffffb7H
	DD	1
	DD	$LN19@overflow
	DD	-88					; ffffffa8H
	DD	4
	DD	$LN20@overflow
	DD	-100					; ffffff9cH
	DD	4
	DD	$LN21@overflow
$LN21@overflow:
	DB	95					; 0000005fH
	DB	68					; 00000044H
	DB	101					; 00000065H
	DB	115					; 00000073H
	DB	116					; 00000074H
	DB	0
$LN20@overflow:
	DB	95					; 0000005fH
	DB	83					; 00000053H
	DB	114					; 00000072H
	DB	99					; 00000063H
	DB	0
$LN19@overflow:
	DB	95					; 0000005fH
	DB	67					; 00000043H
	DB	104					; 00000068H
	DB	0
$LN18@overflow:
	DB	95					; 0000005fH
	DB	83					; 00000053H
	DB	116					; 00000074H
	DB	114					; 00000072H
	DB	0
?overflow@?$basic_filebuf@DU?$char_traits@D@std@@@std@@MAEHH@Z ENDP ; std::basic_filebuf<char,std::char_traits<char> >::overflow
_TEXT	ENDS
; Function compile flags: /Odtp /RTCsu /ZI
; File C:\Program Files (x86)\Microsoft Visual Studio\2019\Professional\VC\Tools\MSVC\14.28.29333\include\fstream
;	COMDAT ?_Unlock@?$basic_filebuf@DU?$char_traits@D@std@@@std@@UAEXXZ
_TEXT	SEGMENT
_this$ = -8						; size = 4
?_Unlock@?$basic_filebuf@DU?$char_traits@D@std@@@std@@UAEXXZ PROC ; std::basic_filebuf<char,std::char_traits<char> >::_Unlock, COMDAT
; _this$ = ecx

; 399  :     virtual void __CLR_OR_THIS_CALL _Unlock() override { // unlock file instead of stream buffer

	push	ebp
	mov	ebp, esp
	sub	esp, 204				; 000000ccH
	push	ebx
	push	esi
	push	edi
	push	ecx
	lea	edi, DWORD PTR [ebp-204]
	mov	ecx, 51					; 00000033H
	mov	eax, -858993460				; ccccccccH
	rep stosd
	pop	ecx
	mov	DWORD PTR _this$[ebp], ecx
	mov	ecx, OFFSET __99BBE7C3_fstream
	call	@__CheckForDebuggerJustMyCode@4

; 400  :         if (_Myfile) {

	mov	eax, DWORD PTR _this$[ebp]
	cmp	DWORD PTR [eax+76], 0
	je	SHORT $LN1@Unlock

; 401  :             _CSTD _unlock_file(_Myfile);

	mov	esi, esp
	mov	eax, DWORD PTR _this$[ebp]
	mov	ecx, DWORD PTR [eax+76]
	push	ecx
	call	DWORD PTR __imp___unlock_file
	add	esp, 4
	cmp	esi, esp
	call	__RTC_CheckEsp
$LN1@Unlock:

; 402  :         }
; 403  :     }

	pop	edi
	pop	esi
	pop	ebx
	add	esp, 204				; 000000ccH
	cmp	ebp, esp
	call	__RTC_CheckEsp
	mov	esp, ebp
	pop	ebp
	ret	0
?_Unlock@?$basic_filebuf@DU?$char_traits@D@std@@@std@@UAEXXZ ENDP ; std::basic_filebuf<char,std::char_traits<char> >::_Unlock
_TEXT	ENDS
; Function compile flags: /Odtp /RTCsu /ZI
; File C:\Program Files (x86)\Microsoft Visual Studio\2019\Professional\VC\Tools\MSVC\14.28.29333\include\fstream
;	COMDAT ?_Lock@?$basic_filebuf@DU?$char_traits@D@std@@@std@@UAEXXZ
_TEXT	SEGMENT
_this$ = -8						; size = 4
?_Lock@?$basic_filebuf@DU?$char_traits@D@std@@@std@@UAEXXZ PROC ; std::basic_filebuf<char,std::char_traits<char> >::_Lock, COMDAT
; _this$ = ecx

; 393  :     virtual void __CLR_OR_THIS_CALL _Lock() override { // lock file instead of stream buffer

	push	ebp
	mov	ebp, esp
	sub	esp, 204				; 000000ccH
	push	ebx
	push	esi
	push	edi
	push	ecx
	lea	edi, DWORD PTR [ebp-204]
	mov	ecx, 51					; 00000033H
	mov	eax, -858993460				; ccccccccH
	rep stosd
	pop	ecx
	mov	DWORD PTR _this$[ebp], ecx
	mov	ecx, OFFSET __99BBE7C3_fstream
	call	@__CheckForDebuggerJustMyCode@4

; 394  :         if (_Myfile) {

	mov	eax, DWORD PTR _this$[ebp]
	cmp	DWORD PTR [eax+76], 0
	je	SHORT $LN1@Lock

; 395  :             _CSTD _lock_file(_Myfile);

	mov	esi, esp
	mov	eax, DWORD PTR _this$[ebp]
	mov	ecx, DWORD PTR [eax+76]
	push	ecx
	call	DWORD PTR __imp___lock_file
	add	esp, 4
	cmp	esi, esp
	call	__RTC_CheckEsp
$LN1@Lock:

; 396  :         }
; 397  :     }

	pop	edi
	pop	esi
	pop	ebx
	add	esp, 204				; 000000ccH
	cmp	ebp, esp
	call	__RTC_CheckEsp
	mov	esp, ebp
	pop	ebp
	ret	0
?_Lock@?$basic_filebuf@DU?$char_traits@D@std@@@std@@UAEXXZ ENDP ; std::basic_filebuf<char,std::char_traits<char> >::_Lock
_TEXT	ENDS
; Function compile flags: /Odtp /RTCsu /ZI
; File C:\Program Files (x86)\Microsoft Visual Studio\2019\Professional\VC\Tools\MSVC\14.28.29333\include\fstream
;	COMDAT ?close@?$basic_filebuf@DU?$char_traits@D@std@@@std@@QAEPAV12@XZ
_TEXT	SEGMENT
__Ans$ = -20						; size = 4
_this$ = -8						; size = 4
?close@?$basic_filebuf@DU?$char_traits@D@std@@@std@@QAEPAV12@XZ PROC ; std::basic_filebuf<char,std::char_traits<char> >::close, COMDAT
; _this$ = ecx

; 374  :     basic_filebuf* close() {

	push	ebp
	mov	ebp, esp
	sub	esp, 216				; 000000d8H
	push	ebx
	push	esi
	push	edi
	push	ecx
	lea	edi, DWORD PTR [ebp-216]
	mov	ecx, 54					; 00000036H
	mov	eax, -858993460				; ccccccccH
	rep stosd
	pop	ecx
	mov	DWORD PTR _this$[ebp], ecx
	mov	ecx, OFFSET __99BBE7C3_fstream
	call	@__CheckForDebuggerJustMyCode@4

; 375  :         basic_filebuf* _Ans;
; 376  :         if (_Myfile) { // put any homing sequence and close file

	mov	eax, DWORD PTR _this$[ebp]
	cmp	DWORD PTR [eax+76], 0
	je	SHORT $LN2@close

; 377  :             _Ans = this;

	mov	eax, DWORD PTR _this$[ebp]
	mov	DWORD PTR __Ans$[ebp], eax

; 378  :             if (!_Endwrite()) {

	mov	ecx, DWORD PTR _this$[ebp]
	call	?_Endwrite@?$basic_filebuf@DU?$char_traits@D@std@@@std@@IAE_NXZ ; std::basic_filebuf<char,std::char_traits<char> >::_Endwrite
	movzx	eax, al
	test	eax, eax
	jne	SHORT $LN4@close

; 379  :                 _Ans = nullptr;

	mov	DWORD PTR __Ans$[ebp], 0
$LN4@close:

; 380  :             }
; 381  : 
; 382  :             if (_CSTD fclose(_Myfile) != 0) {

	mov	esi, esp
	mov	eax, DWORD PTR _this$[ebp]
	mov	ecx, DWORD PTR [eax+76]
	push	ecx
	call	DWORD PTR __imp__fclose
	add	esp, 4
	cmp	esi, esp
	call	__RTC_CheckEsp
	test	eax, eax
	je	SHORT $LN5@close

; 383  :                 _Ans = nullptr;

	mov	DWORD PTR __Ans$[ebp], 0
$LN5@close:

; 384  :             }
; 385  :         } else {

	jmp	SHORT $LN3@close
$LN2@close:

; 386  :             _Ans = nullptr;

	mov	DWORD PTR __Ans$[ebp], 0
$LN3@close:

; 387  :         }
; 388  : 
; 389  :         _Init(nullptr, _Closefl);

	push	2
	push	0
	mov	ecx, DWORD PTR _this$[ebp]
	call	?_Init@?$basic_filebuf@DU?$char_traits@D@std@@@std@@IAEXPAU_iobuf@@W4_Initfl@12@@Z ; std::basic_filebuf<char,std::char_traits<char> >::_Init

; 390  :         return _Ans;

	mov	eax, DWORD PTR __Ans$[ebp]

; 391  :     }

	pop	edi
	pop	esi
	pop	ebx
	add	esp, 216				; 000000d8H
	cmp	ebp, esp
	call	__RTC_CheckEsp
	mov	esp, ebp
	pop	ebp
	ret	0
?close@?$basic_filebuf@DU?$char_traits@D@std@@@std@@QAEPAV12@XZ ENDP ; std::basic_filebuf<char,std::char_traits<char> >::close
_TEXT	ENDS
; Function compile flags: /Odtp /RTCsu /ZI
; File C:\Program Files (x86)\Microsoft Visual Studio\2019\Professional\VC\Tools\MSVC\14.28.29333\include\fstream
;	COMDAT ?open@?$basic_filebuf@DU?$char_traits@D@std@@@std@@QAEPAV12@PBDHH@Z
_TEXT	SEGMENT
tv89 = -252						; size = 4
tv90 = -248						; size = 4
$T2 = -240						; size = 8
__File$ = -32						; size = 4
_this$ = -20						; size = 4
__$EHRec$ = -12						; size = 12
__Filename$ = 8						; size = 4
__Mode$ = 12						; size = 4
__Prot$ = 16						; size = 4
?open@?$basic_filebuf@DU?$char_traits@D@std@@@std@@QAEPAV12@PBDHH@Z PROC ; std::basic_filebuf<char,std::char_traits<char> >::open, COMDAT
; _this$ = ecx

; 275  :     basic_filebuf* open(const char* _Filename, ios_base::openmode _Mode, int _Prot = ios_base::_Default_open_prot) {

	push	ebp
	mov	ebp, esp
	push	-1
	push	__ehhandler$?open@?$basic_filebuf@DU?$char_traits@D@std@@@std@@QAEPAV12@PBDHH@Z
	mov	eax, DWORD PTR fs:0
	push	eax
	sub	esp, 240				; 000000f0H
	push	ebx
	push	esi
	push	edi
	push	ecx
	lea	edi, DWORD PTR [ebp-252]
	mov	ecx, 60					; 0000003cH
	mov	eax, -858993460				; ccccccccH
	rep stosd
	pop	ecx
	mov	eax, DWORD PTR ___security_cookie
	xor	eax, ebp
	push	eax
	lea	eax, DWORD PTR __$EHRec$[ebp]
	mov	DWORD PTR fs:0, eax
	mov	DWORD PTR _this$[ebp], ecx
	mov	ecx, OFFSET __99BBE7C3_fstream
	call	@__CheckForDebuggerJustMyCode@4

; 276  :         // _Prot is an extension
; 277  :         if (_Myfile) {

	mov	eax, DWORD PTR _this$[ebp]
	cmp	DWORD PTR [eax+76], 0
	je	SHORT $LN2@open

; 278  :             return nullptr;

	xor	eax, eax
	jmp	$LN1@open
$LN2@open:

; 279  :         }
; 280  : 
; 281  :         const auto _File = _Fiopen(_Filename, _Mode, _Prot);

	mov	eax, DWORD PTR __Prot$[ebp]
	push	eax
	mov	ecx, DWORD PTR __Mode$[ebp]
	push	ecx
	mov	edx, DWORD PTR __Filename$[ebp]
	push	edx
	call	?_Fiopen@std@@YAPAU_iobuf@@PBDHH@Z	; std::_Fiopen
	add	esp, 12					; 0000000cH
	mov	DWORD PTR __File$[ebp], eax

; 282  :         if (!_File) {

	cmp	DWORD PTR __File$[ebp], 0
	jne	SHORT $LN3@open

; 283  :             return nullptr; // open failed

	xor	eax, eax
	jmp	SHORT $LN1@open
$LN3@open:

; 284  :         }
; 285  : 
; 286  :         _Init(_File, _Openfl);

	push	1
	mov	eax, DWORD PTR __File$[ebp]
	push	eax
	mov	ecx, DWORD PTR _this$[ebp]
	call	?_Init@?$basic_filebuf@DU?$char_traits@D@std@@@std@@IAEXPAU_iobuf@@W4_Initfl@12@@Z ; std::basic_filebuf<char,std::char_traits<char> >::_Init

; 287  :         _Initcvt(_STD use_facet<_Cvt>(_Mysb::getloc()));

	mov	esi, esp
	lea	eax, DWORD PTR $T2[ebp]
	push	eax
	mov	ecx, DWORD PTR _this$[ebp]
	call	DWORD PTR __imp_?getloc@?$basic_streambuf@DU?$char_traits@D@std@@@std@@QBE?AVlocale@2@XZ
	cmp	esi, esp
	call	__RTC_CheckEsp
	mov	DWORD PTR tv90[ebp], eax
	mov	ecx, DWORD PTR tv90[ebp]
	mov	DWORD PTR tv89[ebp], ecx
	mov	DWORD PTR __$EHRec$[ebp+8], 0
	mov	edx, DWORD PTR tv89[ebp]
	push	edx
	call	??$use_facet@V?$codecvt@DDU_Mbstatet@@@std@@@std@@YAABV?$codecvt@DDU_Mbstatet@@@0@ABVlocale@0@@Z ; std::use_facet<std::codecvt<char,char,_Mbstatet> >
	add	esp, 4
	push	eax
	mov	ecx, DWORD PTR _this$[ebp]
	call	?_Initcvt@?$basic_filebuf@DU?$char_traits@D@std@@@std@@IAEXABV?$codecvt@DDU_Mbstatet@@@2@@Z ; std::basic_filebuf<char,std::char_traits<char> >::_Initcvt
	mov	DWORD PTR __$EHRec$[ebp+8], -1
	lea	ecx, DWORD PTR $T2[ebp]
	call	??1locale@std@@QAE@XZ			; std::locale::~locale

; 288  :         return this; // open succeeded

	mov	eax, DWORD PTR _this$[ebp]
$LN1@open:

; 289  :     }

	mov	ecx, DWORD PTR __$EHRec$[ebp]
	mov	DWORD PTR fs:0, ecx
	pop	ecx
	pop	edi
	pop	esi
	pop	ebx
	add	esp, 252				; 000000fcH
	cmp	ebp, esp
	call	__RTC_CheckEsp
	mov	esp, ebp
	pop	ebp
	ret	12					; 0000000cH
_TEXT	ENDS
;	COMDAT text$x
text$x	SEGMENT
__unwindfunclet$?open@?$basic_filebuf@DU?$char_traits@D@std@@@std@@QAEPAV12@PBDHH@Z$0:
	lea	ecx, DWORD PTR $T2[ebp]
	jmp	??1locale@std@@QAE@XZ			; std::locale::~locale
	int	3
	int	3
	int	3
	int	3
	int	3
__ehhandler$?open@?$basic_filebuf@DU?$char_traits@D@std@@@std@@QAEPAV12@PBDHH@Z:
	npad	1
	npad	1
	mov	edx, DWORD PTR [esp+8]
	lea	eax, DWORD PTR [edx+12]
	mov	ecx, DWORD PTR [edx-256]
	xor	ecx, eax
	call	@__security_check_cookie@4
	mov	eax, OFFSET __ehfuncinfo$?open@?$basic_filebuf@DU?$char_traits@D@std@@@std@@QAEPAV12@PBDHH@Z
	jmp	___CxxFrameHandler3
text$x	ENDS
?open@?$basic_filebuf@DU?$char_traits@D@std@@@std@@QAEPAV12@PBDHH@Z ENDP ; std::basic_filebuf<char,std::char_traits<char> >::open
; Function compile flags: /Odtp /RTCsu /ZI
; File C:\Program Files (x86)\Microsoft Visual Studio\2019\Professional\VC\Tools\MSVC\14.28.29333\include\fstream
;	COMDAT ?is_open@?$basic_filebuf@DU?$char_traits@D@std@@@std@@QBE_NXZ
_TEXT	SEGMENT
tv66 = -205						; size = 1
_this$ = -8						; size = 4
?is_open@?$basic_filebuf@DU?$char_traits@D@std@@@std@@QBE_NXZ PROC ; std::basic_filebuf<char,std::char_traits<char> >::is_open, COMDAT
; _this$ = ecx

; 271  :     _NODISCARD bool is_open() const {

	push	ebp
	mov	ebp, esp
	sub	esp, 208				; 000000d0H
	push	ebx
	push	esi
	push	edi
	push	ecx
	lea	edi, DWORD PTR [ebp-208]
	mov	ecx, 52					; 00000034H
	mov	eax, -858993460				; ccccccccH
	rep stosd
	pop	ecx
	mov	DWORD PTR _this$[ebp], ecx
	mov	ecx, OFFSET __99BBE7C3_fstream
	call	@__CheckForDebuggerJustMyCode@4

; 272  :         return static_cast<bool>(_Myfile);

	mov	eax, DWORD PTR _this$[ebp]
	cmp	DWORD PTR [eax+76], 0
	je	SHORT $LN3@is_open
	mov	BYTE PTR tv66[ebp], 1
	jmp	SHORT $LN4@is_open
$LN3@is_open:
	mov	BYTE PTR tv66[ebp], 0
$LN4@is_open:
	mov	al, BYTE PTR tv66[ebp]

; 273  :     }

	pop	edi
	pop	esi
	pop	ebx
	add	esp, 208				; 000000d0H
	cmp	ebp, esp
	call	__RTC_CheckEsp
	mov	esp, ebp
	pop	ebp
	ret	0
?is_open@?$basic_filebuf@DU?$char_traits@D@std@@@std@@QBE_NXZ ENDP ; std::basic_filebuf<char,std::char_traits<char> >::is_open
_TEXT	ENDS
; Function compile flags: /Odtp /RTCsu /ZI
; File C:\Program Files (x86)\Microsoft Visual Studio\2019\Professional\VC\Tools\MSVC\14.28.29333\include\fstream
;	COMDAT ??1?$basic_filebuf@DU?$char_traits@D@std@@@std@@UAE@XZ
_TEXT	SEGMENT
_this$ = -20						; size = 4
__$EHRec$ = -12						; size = 12
??1?$basic_filebuf@DU?$char_traits@D@std@@@std@@UAE@XZ PROC ; std::basic_filebuf<char,std::char_traits<char> >::~basic_filebuf<char,std::char_traits<char> >, COMDAT
; _this$ = ecx

; 170  :     virtual __CLR_OR_THIS_CALL ~basic_filebuf() noexcept {

	push	ebp
	mov	ebp, esp
	push	-1
	push	__ehhandler$??1?$basic_filebuf@DU?$char_traits@D@std@@@std@@UAE@XZ
	mov	eax, DWORD PTR fs:0
	push	eax
	sub	esp, 204				; 000000ccH
	push	ebx
	push	esi
	push	edi
	push	ecx
	lea	edi, DWORD PTR [ebp-216]
	mov	ecx, 51					; 00000033H
	mov	eax, -858993460				; ccccccccH
	rep stosd
	pop	ecx
	mov	eax, DWORD PTR ___security_cookie
	xor	eax, ebp
	push	eax
	lea	eax, DWORD PTR __$EHRec$[ebp]
	mov	DWORD PTR fs:0, eax
	mov	DWORD PTR _this$[ebp], ecx
	mov	ecx, OFFSET __99BBE7C3_fstream
	call	@__CheckForDebuggerJustMyCode@4
	mov	eax, DWORD PTR _this$[ebp]
	mov	DWORD PTR [eax], OFFSET ??_7?$basic_filebuf@DU?$char_traits@D@std@@@std@@6B@

; 171  :         if (_Myfile) {

	mov	eax, DWORD PTR _this$[ebp]
	cmp	DWORD PTR [eax+76], 0
	je	SHORT $LN2@basic_file

; 172  :             _Reset_back(); // revert from _Mychar buffer

	mov	ecx, DWORD PTR _this$[ebp]
	call	?_Reset_back@?$basic_filebuf@DU?$char_traits@D@std@@@std@@AAEXXZ ; std::basic_filebuf<char,std::char_traits<char> >::_Reset_back
$LN2@basic_file:

; 173  :         }
; 174  : 
; 175  :         if (_Closef) {

	mov	eax, DWORD PTR _this$[ebp]
	movzx	ecx, BYTE PTR [eax+72]
	test	ecx, ecx
	je	SHORT $LN1@basic_file

; 176  :             close();

	mov	ecx, DWORD PTR _this$[ebp]
	call	?close@?$basic_filebuf@DU?$char_traits@D@std@@@std@@QAEPAV12@XZ ; std::basic_filebuf<char,std::char_traits<char> >::close
$LN1@basic_file:

; 177  :         }
; 178  :     }

	mov	esi, esp
	mov	ecx, DWORD PTR _this$[ebp]
	call	DWORD PTR __imp_??1?$basic_streambuf@DU?$char_traits@D@std@@@std@@UAE@XZ
	cmp	esi, esp
	call	__RTC_CheckEsp
	mov	ecx, DWORD PTR __$EHRec$[ebp]
	mov	DWORD PTR fs:0, ecx
	pop	ecx
	pop	edi
	pop	esi
	pop	ebx
	add	esp, 216				; 000000d8H
	cmp	ebp, esp
	call	__RTC_CheckEsp
	mov	esp, ebp
	pop	ebp
	ret	0
	int	3
	int	3
	int	3
	int	3
	int	3
_TEXT	ENDS
;	COMDAT text$x
text$x	SEGMENT
__ehhandler$??1?$basic_filebuf@DU?$char_traits@D@std@@@std@@UAE@XZ:
	npad	1
	npad	1
	mov	edx, DWORD PTR [esp+8]
	lea	eax, DWORD PTR [edx+12]
	mov	ecx, DWORD PTR [edx-220]
	xor	ecx, eax
	call	@__security_check_cookie@4
	mov	eax, OFFSET __ehfuncinfo$??1?$basic_filebuf@DU?$char_traits@D@std@@@std@@UAE@XZ
	jmp	___CxxFrameHandler3
text$x	ENDS
??1?$basic_filebuf@DU?$char_traits@D@std@@@std@@UAE@XZ ENDP ; std::basic_filebuf<char,std::char_traits<char> >::~basic_filebuf<char,std::char_traits<char> >
; Function compile flags: /Odtp /RTCsu /ZI
; File C:\Program Files (x86)\Microsoft Visual Studio\2019\Professional\VC\Tools\MSVC\14.28.29333\include\fstream
;	COMDAT ??0?$basic_filebuf@DU?$char_traits@D@std@@@std@@QAE@XZ
_TEXT	SEGMENT
_this$ = -20						; size = 4
__$EHRec$ = -12						; size = 12
??0?$basic_filebuf@DU?$char_traits@D@std@@@std@@QAE@XZ PROC ; std::basic_filebuf<char,std::char_traits<char> >::basic_filebuf<char,std::char_traits<char> >, COMDAT
; _this$ = ecx

; 162  :     basic_filebuf() : _Mysb() {

	push	ebp
	mov	ebp, esp
	push	-1
	push	__ehhandler$??0?$basic_filebuf@DU?$char_traits@D@std@@@std@@QAE@XZ
	mov	eax, DWORD PTR fs:0
	push	eax
	sub	esp, 204				; 000000ccH
	push	ebx
	push	esi
	push	edi
	push	ecx
	lea	edi, DWORD PTR [ebp-216]
	mov	ecx, 51					; 00000033H
	mov	eax, -858993460				; ccccccccH
	rep stosd
	pop	ecx
	mov	eax, DWORD PTR ___security_cookie
	xor	eax, ebp
	push	eax
	lea	eax, DWORD PTR __$EHRec$[ebp]
	mov	DWORD PTR fs:0, eax
	mov	DWORD PTR _this$[ebp], ecx
	mov	ecx, OFFSET __99BBE7C3_fstream
	call	@__CheckForDebuggerJustMyCode@4
	mov	esi, esp
	mov	ecx, DWORD PTR _this$[ebp]
	call	DWORD PTR __imp_??0?$basic_streambuf@DU?$char_traits@D@std@@@std@@IAE@XZ
	cmp	esi, esp
	call	__RTC_CheckEsp
	mov	DWORD PTR __$EHRec$[ebp+8], 0
	mov	eax, DWORD PTR _this$[ebp]
	mov	DWORD PTR [eax], OFFSET ??_7?$basic_filebuf@DU?$char_traits@D@std@@@std@@6B@

; 163  :         _Init(nullptr, _Newfl);

	push	0
	push	0
	mov	ecx, DWORD PTR _this$[ebp]
	call	?_Init@?$basic_filebuf@DU?$char_traits@D@std@@@std@@IAEXPAU_iobuf@@W4_Initfl@12@@Z ; std::basic_filebuf<char,std::char_traits<char> >::_Init

; 164  :     }

	mov	DWORD PTR __$EHRec$[ebp+8], -1
	mov	eax, DWORD PTR _this$[ebp]
	mov	ecx, DWORD PTR __$EHRec$[ebp]
	mov	DWORD PTR fs:0, ecx
	pop	ecx
	pop	edi
	pop	esi
	pop	ebx
	add	esp, 216				; 000000d8H
	cmp	ebp, esp
	call	__RTC_CheckEsp
	mov	esp, ebp
	pop	ebp
	ret	0
_TEXT	ENDS
;	COMDAT text$x
text$x	SEGMENT
__unwindfunclet$??0?$basic_filebuf@DU?$char_traits@D@std@@@std@@QAE@XZ$0:
	mov	esi, esp
	mov	ecx, DWORD PTR _this$[ebp]
	call	DWORD PTR __imp_??1?$basic_streambuf@DU?$char_traits@D@std@@@std@@UAE@XZ
	cmp	esi, esp
	jmp	__RTC_CheckEsp
	int	3
	int	3
	int	3
	int	3
	int	3
__ehhandler$??0?$basic_filebuf@DU?$char_traits@D@std@@@std@@QAE@XZ:
	npad	1
	npad	1
	mov	edx, DWORD PTR [esp+8]
	lea	eax, DWORD PTR [edx+12]
	mov	ecx, DWORD PTR [edx-220]
	xor	ecx, eax
	call	@__security_check_cookie@4
	mov	eax, OFFSET __ehfuncinfo$??0?$basic_filebuf@DU?$char_traits@D@std@@@std@@QAE@XZ
	jmp	___CxxFrameHandler3
text$x	ENDS
??0?$basic_filebuf@DU?$char_traits@D@std@@@std@@QAE@XZ ENDP ; std::basic_filebuf<char,std::char_traits<char> >::basic_filebuf<char,std::char_traits<char> >
; Function compile flags: /Odtp /RTCsu /ZI
; File C:\Program Files (x86)\Microsoft Visual Studio\2019\Professional\VC\Tools\MSVC\14.28.29333\include\fstream
;	COMDAT ?close@?$basic_fstream@DU?$char_traits@D@std@@@std@@QAEXXZ
_TEXT	SEGMENT
tv81 = -208						; size = 4
_this$ = -8						; size = 4
?close@?$basic_fstream@DU?$char_traits@D@std@@@std@@QAEXXZ PROC ; std::basic_fstream<char,std::char_traits<char> >::close, COMDAT
; _this$ = ecx

; 1368 :     void close() {

	push	ebp
	mov	ebp, esp
	sub	esp, 208				; 000000d0H
	push	ebx
	push	esi
	push	edi
	push	ecx
	lea	edi, DWORD PTR [ebp-208]
	mov	ecx, 52					; 00000034H
	mov	eax, -858993460				; ccccccccH
	rep stosd
	pop	ecx
	mov	DWORD PTR _this$[ebp], ecx
	mov	ecx, OFFSET __99BBE7C3_fstream
	call	@__CheckForDebuggerJustMyCode@4

; 1369 :         if (!_Filebuffer.close()) {

	mov	ecx, DWORD PTR _this$[ebp]
	add	ecx, 24					; 00000018H
	call	?close@?$basic_filebuf@DU?$char_traits@D@std@@@std@@QAEPAV12@XZ ; std::basic_filebuf<char,std::char_traits<char> >::close
	test	eax, eax
	jne	SHORT $LN1@close

; 1370 :             _Myios::setstate(ios_base::failbit);

	mov	eax, DWORD PTR _this$[ebp]
	mov	ecx, DWORD PTR [eax]
	mov	edx, DWORD PTR _this$[ebp]
	add	edx, DWORD PTR [ecx+4]
	mov	DWORD PTR tv81[ebp], edx
	mov	esi, esp
	push	0
	push	2
	mov	ecx, DWORD PTR tv81[ebp]
	call	DWORD PTR __imp_?setstate@?$basic_ios@DU?$char_traits@D@std@@@std@@QAEXH_N@Z
	cmp	esi, esp
	call	__RTC_CheckEsp
$LN1@close:

; 1371 :         }
; 1372 :     }

	pop	edi
	pop	esi
	pop	ebx
	add	esp, 208				; 000000d0H
	cmp	ebp, esp
	call	__RTC_CheckEsp
	mov	esp, ebp
	pop	ebp
	ret	0
?close@?$basic_fstream@DU?$char_traits@D@std@@@std@@QAEXXZ ENDP ; std::basic_fstream<char,std::char_traits<char> >::close
_TEXT	ENDS
; Function compile flags: /Odtp /RTCsu /ZI
; File C:\Program Files (x86)\Microsoft Visual Studio\2019\Professional\VC\Tools\MSVC\14.28.29333\include\fstream
;	COMDAT ?is_open@?$basic_fstream@DU?$char_traits@D@std@@@std@@QBE_NXZ
_TEXT	SEGMENT
_this$ = -8						; size = 4
?is_open@?$basic_fstream@DU?$char_traits@D@std@@@std@@QBE_NXZ PROC ; std::basic_fstream<char,std::char_traits<char> >::is_open, COMDAT
; _this$ = ecx

; 1342 :     _NODISCARD bool is_open() const {

	push	ebp
	mov	ebp, esp
	sub	esp, 204				; 000000ccH
	push	ebx
	push	esi
	push	edi
	push	ecx
	lea	edi, DWORD PTR [ebp-204]
	mov	ecx, 51					; 00000033H
	mov	eax, -858993460				; ccccccccH
	rep stosd
	pop	ecx
	mov	DWORD PTR _this$[ebp], ecx
	mov	ecx, OFFSET __99BBE7C3_fstream
	call	@__CheckForDebuggerJustMyCode@4

; 1343 :         return _Filebuffer.is_open();

	mov	ecx, DWORD PTR _this$[ebp]
	add	ecx, 24					; 00000018H
	call	?is_open@?$basic_filebuf@DU?$char_traits@D@std@@@std@@QBE_NXZ ; std::basic_filebuf<char,std::char_traits<char> >::is_open

; 1344 :     }

	pop	edi
	pop	esi
	pop	ebx
	add	esp, 204				; 000000ccH
	cmp	ebp, esp
	call	__RTC_CheckEsp
	mov	esp, ebp
	pop	ebp
	ret	0
?is_open@?$basic_fstream@DU?$char_traits@D@std@@@std@@QBE_NXZ ENDP ; std::basic_fstream<char,std::char_traits<char> >::is_open
_TEXT	ENDS
; Function compile flags: /Odtp /RTCsu /ZI
; File C:\Program Files (x86)\Microsoft Visual Studio\2019\Professional\VC\Tools\MSVC\14.28.29333\include\fstream
;	COMDAT ??1?$basic_fstream@DU?$char_traits@D@std@@@std@@UAE@XZ
_TEXT	SEGMENT
_this$ = -8						; size = 4
??1?$basic_fstream@DU?$char_traits@D@std@@@std@@UAE@XZ PROC ; std::basic_fstream<char,std::char_traits<char> >::~basic_fstream<char,std::char_traits<char> >, COMDAT
; _this$ = ecx

; 1336 :     virtual __CLR_OR_THIS_CALL ~basic_fstream() noexcept {}

	push	ebp
	mov	ebp, esp
	sub	esp, 204				; 000000ccH
	push	ebx
	push	esi
	push	edi
	push	ecx
	lea	edi, DWORD PTR [ebp-204]
	mov	ecx, 51					; 00000033H
	mov	eax, -858993460				; ccccccccH
	rep stosd
	pop	ecx
	mov	DWORD PTR _this$[ebp], ecx
	mov	ecx, OFFSET __99BBE7C3_fstream
	call	@__CheckForDebuggerJustMyCode@4
	mov	eax, DWORD PTR _this$[ebp]
	mov	ecx, DWORD PTR [eax-120]
	mov	edx, DWORD PTR [ecx+4]
	mov	eax, DWORD PTR _this$[ebp]
	mov	DWORD PTR [eax+edx-120], OFFSET ??_7?$basic_fstream@DU?$char_traits@D@std@@@std@@6B@
	mov	eax, DWORD PTR _this$[ebp]
	mov	ecx, DWORD PTR [eax-120]
	mov	edx, DWORD PTR [ecx+4]
	sub	edx, 120				; 00000078H
	mov	eax, DWORD PTR _this$[ebp]
	mov	ecx, DWORD PTR [eax-120]
	mov	eax, DWORD PTR [ecx+4]
	mov	ecx, DWORD PTR _this$[ebp]
	mov	DWORD PTR [ecx+eax-124], edx
	mov	ecx, DWORD PTR _this$[ebp]
	sub	ecx, 96					; 00000060H
	call	??1?$basic_filebuf@DU?$char_traits@D@std@@@std@@UAE@XZ ; std::basic_filebuf<char,std::char_traits<char> >::~basic_filebuf<char,std::char_traits<char> >
	mov	ecx, DWORD PTR _this$[ebp]
	sub	ecx, 88					; 00000058H
	mov	esi, esp
	call	DWORD PTR __imp_??1?$basic_iostream@DU?$char_traits@D@std@@@std@@UAE@XZ
	cmp	esi, esp
	call	__RTC_CheckEsp
	pop	edi
	pop	esi
	pop	ebx
	add	esp, 204				; 000000ccH
	cmp	ebp, esp
	call	__RTC_CheckEsp
	mov	esp, ebp
	pop	ebp
	ret	0
??1?$basic_fstream@DU?$char_traits@D@std@@@std@@UAE@XZ ENDP ; std::basic_fstream<char,std::char_traits<char> >::~basic_fstream<char,std::char_traits<char> >
_TEXT	ENDS
; Function compile flags: /Odtp /RTCsu /ZI
; File C:\Program Files (x86)\Microsoft Visual Studio\2019\Professional\VC\Tools\MSVC\14.28.29333\include\fstream
;	COMDAT ??0?$basic_fstream@DU?$char_traits@D@std@@@std@@QAE@PBDHH@Z
_TEXT	SEGMENT
tv181 = -232						; size = 4
tv166 = -232						; size = 4
$T2 = -224						; size = 4
_this$ = -20						; size = 4
__$EHRec$ = -12						; size = 12
__Filename$ = 8						; size = 4
__Mode$ = 12						; size = 4
__Prot$ = 16						; size = 4
_$initVBases$ = 20					; size = 4
??0?$basic_fstream@DU?$char_traits@D@std@@@std@@QAE@PBDHH@Z PROC ; std::basic_fstream<char,std::char_traits<char> >::basic_fstream<char,std::char_traits<char> >, COMDAT
; _this$ = ecx

; 1198 :     explicit basic_fstream(const char* _Filename, ios_base::openmode _Mode = ios_base::in | ios_base::out,

	push	ebp
	mov	ebp, esp
	push	-1
	push	__ehhandler$??0?$basic_fstream@DU?$char_traits@D@std@@@std@@QAE@PBDHH@Z
	mov	eax, DWORD PTR fs:0
	push	eax
	sub	esp, 220				; 000000dcH
	push	ebx
	push	esi
	push	edi
	push	ecx
	lea	edi, DWORD PTR [ebp-232]
	mov	ecx, 55					; 00000037H
	mov	eax, -858993460				; ccccccccH
	rep stosd
	pop	ecx
	mov	eax, DWORD PTR ___security_cookie
	xor	eax, ebp
	push	eax
	lea	eax, DWORD PTR __$EHRec$[ebp]
	mov	DWORD PTR fs:0, eax
	mov	DWORD PTR _this$[ebp], ecx
	mov	DWORD PTR $T2[ebp], 0
	mov	ecx, OFFSET __99BBE7C3_fstream
	call	@__CheckForDebuggerJustMyCode@4

; 1199 :         int _Prot = ios_base::_Default_open_prot)
; 1200 :         : _Mybase(_STD addressof(_Filebuffer)) { // _Prot is an extension

	cmp	DWORD PTR _$initVBases$[ebp], 0
	je	SHORT $LN2@basic_fstr
	mov	eax, DWORD PTR _this$[ebp]
	mov	DWORD PTR [eax], OFFSET ??_8?$basic_fstream@DU?$char_traits@D@std@@@std@@7B?$basic_istream@DU?$char_traits@D@std@@@1@@
	mov	eax, DWORD PTR _this$[ebp]
	mov	DWORD PTR [eax+16], OFFSET ??_8?$basic_fstream@DU?$char_traits@D@std@@@std@@7B?$basic_ostream@DU?$char_traits@D@std@@@1@@
	mov	ecx, DWORD PTR _this$[ebp]
	add	ecx, 120				; 00000078H
	mov	esi, esp
	call	DWORD PTR __imp_??0?$basic_ios@DU?$char_traits@D@std@@@std@@IAE@XZ
	cmp	esi, esp
	call	__RTC_CheckEsp
	mov	DWORD PTR __$EHRec$[ebp+8], 0
	mov	eax, DWORD PTR $T2[ebp]
	or	eax, 1
	mov	DWORD PTR $T2[ebp], eax
$LN2@basic_fstr:
	mov	esi, esp
	push	0
	mov	eax, DWORD PTR _this$[ebp]
	add	eax, 24					; 00000018H
	push	eax
	call	??$addressof@V?$basic_filebuf@DU?$char_traits@D@std@@@std@@@std@@YAPAV?$basic_filebuf@DU?$char_traits@D@std@@@0@AAV10@@Z ; std::addressof<std::basic_filebuf<char,std::char_traits<char> > >
	add	esp, 4
	push	eax
	mov	ecx, DWORD PTR _this$[ebp]
	call	DWORD PTR __imp_??0?$basic_iostream@DU?$char_traits@D@std@@@std@@QAE@PAV?$basic_streambuf@DU?$char_traits@D@std@@@1@@Z
	cmp	esi, esp
	call	__RTC_CheckEsp
	mov	DWORD PTR __$EHRec$[ebp+8], 1
	mov	eax, DWORD PTR _this$[ebp]
	mov	ecx, DWORD PTR [eax]
	mov	edx, DWORD PTR [ecx+4]
	mov	eax, DWORD PTR _this$[ebp]
	mov	DWORD PTR [eax+edx], OFFSET ??_7?$basic_fstream@DU?$char_traits@D@std@@@std@@6B@
	mov	eax, DWORD PTR _this$[ebp]
	mov	ecx, DWORD PTR [eax]
	mov	edx, DWORD PTR [ecx+4]
	sub	edx, 120				; 00000078H
	mov	eax, DWORD PTR _this$[ebp]
	mov	ecx, DWORD PTR [eax]
	mov	eax, DWORD PTR [ecx+4]
	mov	ecx, DWORD PTR _this$[ebp]
	mov	DWORD PTR [ecx+eax-4], edx
	mov	ecx, DWORD PTR _this$[ebp]
	add	ecx, 24					; 00000018H
	call	??0?$basic_filebuf@DU?$char_traits@D@std@@@std@@QAE@XZ ; std::basic_filebuf<char,std::char_traits<char> >::basic_filebuf<char,std::char_traits<char> >
	mov	BYTE PTR __$EHRec$[ebp+8], 2

; 1201 :         if (!_Filebuffer.open(_Filename, _Mode, _Prot)) {

	mov	eax, DWORD PTR _this$[ebp]
	add	eax, 24					; 00000018H
	mov	DWORD PTR tv166[ebp], eax
	mov	ecx, DWORD PTR __Prot$[ebp]
	push	ecx
	mov	edx, DWORD PTR __Mode$[ebp]
	push	edx
	mov	eax, DWORD PTR __Filename$[ebp]
	push	eax
	mov	ecx, DWORD PTR tv166[ebp]
	call	?open@?$basic_filebuf@DU?$char_traits@D@std@@@std@@QAEPAV12@PBDHH@Z ; std::basic_filebuf<char,std::char_traits<char> >::open
	test	eax, eax
	jne	SHORT $LN1@basic_fstr

; 1202 :             _Myios::setstate(ios_base::failbit);

	mov	eax, DWORD PTR _this$[ebp]
	mov	ecx, DWORD PTR [eax]
	mov	edx, DWORD PTR _this$[ebp]
	add	edx, DWORD PTR [ecx+4]
	mov	DWORD PTR tv181[ebp], edx
	mov	esi, esp
	push	0
	push	2
	mov	ecx, DWORD PTR tv181[ebp]
	call	DWORD PTR __imp_?setstate@?$basic_ios@DU?$char_traits@D@std@@@std@@QAEXH_N@Z
	cmp	esi, esp
	call	__RTC_CheckEsp
$LN1@basic_fstr:

; 1203 :         }
; 1204 :     }

	mov	DWORD PTR __$EHRec$[ebp+8], -1
	mov	eax, DWORD PTR _this$[ebp]
	mov	ecx, DWORD PTR __$EHRec$[ebp]
	mov	DWORD PTR fs:0, ecx
	pop	ecx
	pop	edi
	pop	esi
	pop	ebx
	add	esp, 232				; 000000e8H
	cmp	ebp, esp
	call	__RTC_CheckEsp
	mov	esp, ebp
	pop	ebp
	ret	16					; 00000010H
_TEXT	ENDS
;	COMDAT text$x
text$x	SEGMENT
__unwindfunclet$??0?$basic_fstream@DU?$char_traits@D@std@@@std@@QAE@PBDHH@Z$0:
	mov	eax, DWORD PTR $T2[ebp]
	and	eax, 1
	je	$LN6@basic_fstr
	and	DWORD PTR $T2[ebp], -2			; fffffffeH
	mov	ecx, DWORD PTR _this$[ebp]
	add	ecx, 120				; 00000078H
	mov	esi, esp
	call	DWORD PTR __imp_??1?$basic_ios@DU?$char_traits@D@std@@@std@@UAE@XZ
	cmp	esi, esp
	jmp	__RTC_CheckEsp
$LN6@basic_fstr:
	ret	0
__unwindfunclet$??0?$basic_fstream@DU?$char_traits@D@std@@@std@@QAE@PBDHH@Z$1:
	mov	ecx, DWORD PTR _this$[ebp]
	add	ecx, 32					; 00000020H
	mov	esi, esp
	call	DWORD PTR __imp_??1?$basic_iostream@DU?$char_traits@D@std@@@std@@UAE@XZ
	cmp	esi, esp
	jmp	__RTC_CheckEsp
__unwindfunclet$??0?$basic_fstream@DU?$char_traits@D@std@@@std@@QAE@PBDHH@Z$2:
	mov	ecx, DWORD PTR _this$[ebp]
	add	ecx, 24					; 00000018H
	jmp	??1?$basic_filebuf@DU?$char_traits@D@std@@@std@@UAE@XZ ; std::basic_filebuf<char,std::char_traits<char> >::~basic_filebuf<char,std::char_traits<char> >
	int	3
	int	3
	int	3
	int	3
	int	3
__ehhandler$??0?$basic_fstream@DU?$char_traits@D@std@@@std@@QAE@PBDHH@Z:
	npad	1
	npad	1
	mov	edx, DWORD PTR [esp+8]
	lea	eax, DWORD PTR [edx+12]
	mov	ecx, DWORD PTR [edx-236]
	xor	ecx, eax
	call	@__security_check_cookie@4
	mov	eax, OFFSET __ehfuncinfo$??0?$basic_fstream@DU?$char_traits@D@std@@@std@@QAE@PBDHH@Z
	jmp	___CxxFrameHandler3
text$x	ENDS
??0?$basic_fstream@DU?$char_traits@D@std@@@std@@QAE@PBDHH@Z ENDP ; std::basic_fstream<char,std::char_traits<char> >::basic_fstream<char,std::char_traits<char> >
; Function compile flags: /Odtp /RTCsu /ZI
; File C:\Program Files (x86)\Microsoft Visual Studio\2019\Professional\VC\Tools\MSVC\14.28.29333\include\fstream
;	COMDAT ??$_Ungetc@D@std@@YA_NABDPAU_iobuf@@@Z
_TEXT	SEGMENT
tv69 = -196						; size = 4
__Byte$ = 8						; size = 4
__File$ = 12						; size = 4
??$_Ungetc@D@std@@YA_NABDPAU_iobuf@@@Z PROC		; std::_Ungetc<char>, COMDAT

; 129  : inline bool _Ungetc(const char& _Byte, FILE* _File) { // put back a char element to a C stream

	push	ebp
	mov	ebp, esp
	sub	esp, 196				; 000000c4H
	push	ebx
	push	esi
	push	edi
	lea	edi, DWORD PTR [ebp-196]
	mov	ecx, 49					; 00000031H
	mov	eax, -858993460				; ccccccccH
	rep stosd
	mov	ecx, OFFSET __99BBE7C3_fstream
	call	@__CheckForDebuggerJustMyCode@4

; 130  :     return _CSTD ungetc(static_cast<unsigned char>(_Byte), _File) != EOF;

	mov	esi, esp
	mov	eax, DWORD PTR __File$[ebp]
	push	eax
	mov	ecx, DWORD PTR __Byte$[ebp]
	movzx	edx, BYTE PTR [ecx]
	push	edx
	call	DWORD PTR __imp__ungetc
	add	esp, 8
	cmp	esi, esp
	call	__RTC_CheckEsp
	cmp	eax, -1
	je	SHORT $LN3@Ungetc
	mov	DWORD PTR tv69[ebp], 1
	jmp	SHORT $LN4@Ungetc
$LN3@Ungetc:
	mov	DWORD PTR tv69[ebp], 0
$LN4@Ungetc:
	mov	al, BYTE PTR tv69[ebp]

; 131  : }

	pop	edi
	pop	esi
	pop	ebx
	add	esp, 196				; 000000c4H
	cmp	ebp, esp
	call	__RTC_CheckEsp
	mov	esp, ebp
	pop	ebp
	ret	0
??$_Ungetc@D@std@@YA_NABDPAU_iobuf@@@Z ENDP		; std::_Ungetc<char>
_TEXT	ENDS
; Function compile flags: /Odtp /RTCsu /ZI
; File C:\Program Files (x86)\Microsoft Visual Studio\2019\Professional\VC\Tools\MSVC\14.28.29333\include\fstream
;	COMDAT ??$_Fputc@D@std@@YA_NDPAU_iobuf@@@Z
_TEXT	SEGMENT
tv69 = -196						; size = 4
__Byte$ = 8						; size = 1
__File$ = 12						; size = 4
??$_Fputc@D@std@@YA_NDPAU_iobuf@@@Z PROC		; std::_Fputc<char>, COMDAT

; 106  : inline bool _Fputc(char _Byte, FILE* _File) { // put a char element to a C stream

	push	ebp
	mov	ebp, esp
	sub	esp, 196				; 000000c4H
	push	ebx
	push	esi
	push	edi
	lea	edi, DWORD PTR [ebp-196]
	mov	ecx, 49					; 00000031H
	mov	eax, -858993460				; ccccccccH
	rep stosd
	mov	ecx, OFFSET __99BBE7C3_fstream
	call	@__CheckForDebuggerJustMyCode@4

; 107  :     return _CSTD fputc(_Byte, _File) != EOF;

	mov	esi, esp
	mov	eax, DWORD PTR __File$[ebp]
	push	eax
	movsx	ecx, BYTE PTR __Byte$[ebp]
	push	ecx
	call	DWORD PTR __imp__fputc
	add	esp, 8
	cmp	esi, esp
	call	__RTC_CheckEsp
	cmp	eax, -1
	je	SHORT $LN3@Fputc
	mov	DWORD PTR tv69[ebp], 1
	jmp	SHORT $LN4@Fputc
$LN3@Fputc:
	mov	DWORD PTR tv69[ebp], 0
$LN4@Fputc:
	mov	al, BYTE PTR tv69[ebp]

; 108  : }

	pop	edi
	pop	esi
	pop	ebx
	add	esp, 196				; 000000c4H
	cmp	ebp, esp
	call	__RTC_CheckEsp
	mov	esp, ebp
	pop	ebp
	ret	0
??$_Fputc@D@std@@YA_NDPAU_iobuf@@@Z ENDP		; std::_Fputc<char>
_TEXT	ENDS
; Function compile flags: /Odtp /RTCsu /ZI
; File C:\Program Files (x86)\Microsoft Visual Studio\2019\Professional\VC\Tools\MSVC\14.28.29333\include\fstream
;	COMDAT ??$_Fgetc@D@std@@YA_NAADPAU_iobuf@@@Z
_TEXT	SEGMENT
__Meta$ = -8						; size = 4
__Byte$ = 8						; size = 4
__File$ = 12						; size = 4
??$_Fgetc@D@std@@YA_NAADPAU_iobuf@@@Z PROC		; std::_Fgetc<char>, COMDAT

; 65   : inline bool _Fgetc(char& _Byte, FILE* _File) { // get a char element from a C stream

	push	ebp
	mov	ebp, esp
	sub	esp, 204				; 000000ccH
	push	ebx
	push	esi
	push	edi
	lea	edi, DWORD PTR [ebp-204]
	mov	ecx, 51					; 00000033H
	mov	eax, -858993460				; ccccccccH
	rep stosd
	mov	ecx, OFFSET __99BBE7C3_fstream
	call	@__CheckForDebuggerJustMyCode@4

; 66   :     int _Meta;
; 67   :     if ((_Meta = _CSTD fgetc(_File)) == EOF) {

	mov	esi, esp
	mov	eax, DWORD PTR __File$[ebp]
	push	eax
	call	DWORD PTR __imp__fgetc
	add	esp, 4
	cmp	esi, esp
	call	__RTC_CheckEsp
	mov	DWORD PTR __Meta$[ebp], eax
	cmp	DWORD PTR __Meta$[ebp], -1
	jne	SHORT $LN2@Fgetc

; 68   :         return false;

	xor	al, al
	jmp	SHORT $LN1@Fgetc

; 69   :     } else { // got one, convert to char

	jmp	SHORT $LN1@Fgetc
$LN2@Fgetc:

; 70   :         _Byte = static_cast<char>(_Meta);

	mov	eax, DWORD PTR __Byte$[ebp]
	mov	cl, BYTE PTR __Meta$[ebp]
	mov	BYTE PTR [eax], cl

; 71   :         return true;

	mov	al, 1
$LN1@Fgetc:

; 72   :     }
; 73   : }

	pop	edi
	pop	esi
	pop	ebx
	add	esp, 204				; 000000ccH
	cmp	ebp, esp
	call	__RTC_CheckEsp
	mov	esp, ebp
	pop	ebp
	ret	0
??$_Fgetc@D@std@@YA_NAADPAU_iobuf@@@Z ENDP		; std::_Fgetc<char>
_TEXT	ENDS
; Function compile flags: /Odtp /RTCsu /ZI
; File C:\Users\tim23\Documents\Visual Studio 2019\Projects\Project2D\Project2D\ResourceManager\ResourceName.h
;	COMDAT ?c_str@ResourceName@@QBEPBDXZ
_TEXT	SEGMENT
_this$ = -8						; size = 4
?c_str@ResourceName@@QBEPBDXZ PROC			; ResourceName::c_str, COMDAT
; _this$ = ecx

; 23   : 	const ResourceNameCharType* c_str() const { return name; }

	push	ebp
	mov	ebp, esp
	sub	esp, 204				; 000000ccH
	push	ebx
	push	esi
	push	edi
	push	ecx
	lea	edi, DWORD PTR [ebp-204]
	mov	ecx, 51					; 00000033H
	mov	eax, -858993460				; ccccccccH
	rep stosd
	pop	ecx
	mov	DWORD PTR _this$[ebp], ecx
	mov	ecx, OFFSET __2A0FE41E_ResourceName@h
	call	@__CheckForDebuggerJustMyCode@4
	mov	eax, DWORD PTR _this$[ebp]
	pop	edi
	pop	esi
	pop	ebx
	add	esp, 204				; 000000ccH
	cmp	ebp, esp
	call	__RTC_CheckEsp
	mov	esp, ebp
	pop	ebp
	ret	0
?c_str@ResourceName@@QBEPBDXZ ENDP			; ResourceName::c_str
_TEXT	ENDS
; Function compile flags: /Odtp /RTCsu /ZI
; File C:\Users\tim23\Documents\Visual Studio 2019\Projects\Project2D\Project2D\ResourceManager\NativeFileSystem.cpp
;	COMDAT ?getResourceBinaryData@NativeFileSystem@@UAE_NABVResourceName@@PAXI@Z
_TEXT	SEGMENT
_this$ = -8						; size = 4
_resourceName$ = 8					; size = 4
_data$ = 12						; size = 4
_resourceSize$ = 16					; size = 4
?getResourceBinaryData@NativeFileSystem@@UAE_NABVResourceName@@PAXI@Z PROC ; NativeFileSystem::getResourceBinaryData, COMDAT
; _this$ = ecx

; 28   : bool NativeFileSystem::getResourceBinaryData(const ResourceName& resourceName, void* data, size_t resourceSize) {

	push	ebp
	mov	ebp, esp
	sub	esp, 204				; 000000ccH
	push	ebx
	push	esi
	push	edi
	push	ecx
	lea	edi, DWORD PTR [ebp-204]
	mov	ecx, 51					; 00000033H
	mov	eax, -858993460				; ccccccccH
	rep stosd
	pop	ecx
	mov	DWORD PTR _this$[ebp], ecx
	mov	ecx, OFFSET __6AF8D130_NativeFileSystem@cpp
	call	@__CheckForDebuggerJustMyCode@4

; 29   :     return loadRawDataBase(resourceName, data, resourceSize, std::ios_base::in | std::ios_base::binary);

	push	33					; 00000021H
	mov	eax, DWORD PTR _resourceSize$[ebp]
	push	eax
	mov	ecx, DWORD PTR _data$[ebp]
	push	ecx
	mov	edx, DWORD PTR _resourceName$[ebp]
	push	edx
	mov	ecx, DWORD PTR _this$[ebp]
	call	?loadRawDataBase@NativeFileSystem@@AAE_NABVResourceName@@PAXIH@Z ; NativeFileSystem::loadRawDataBase

; 30   : }

	pop	edi
	pop	esi
	pop	ebx
	add	esp, 204				; 000000ccH
	cmp	ebp, esp
	call	__RTC_CheckEsp
	mov	esp, ebp
	pop	ebp
	ret	12					; 0000000cH
?getResourceBinaryData@NativeFileSystem@@UAE_NABVResourceName@@PAXI@Z ENDP ; NativeFileSystem::getResourceBinaryData
_TEXT	ENDS
; Function compile flags: /Odtp /RTCsu /ZI
; File C:\Users\tim23\Documents\Visual Studio 2019\Projects\Project2D\Project2D\ResourceManager\NativeFileSystem.cpp
;	COMDAT ?getResourceData@NativeFileSystem@@UAE_NABVResourceName@@PAXI@Z
_TEXT	SEGMENT
_this$ = -8						; size = 4
_resourceName$ = 8					; size = 4
_data$ = 12						; size = 4
_resourceSize$ = 16					; size = 4
?getResourceData@NativeFileSystem@@UAE_NABVResourceName@@PAXI@Z PROC ; NativeFileSystem::getResourceData, COMDAT
; _this$ = ecx

; 24   : bool NativeFileSystem::getResourceData(const ResourceName& resourceName, void* data, size_t resourceSize) {

	push	ebp
	mov	ebp, esp
	sub	esp, 204				; 000000ccH
	push	ebx
	push	esi
	push	edi
	push	ecx
	lea	edi, DWORD PTR [ebp-204]
	mov	ecx, 51					; 00000033H
	mov	eax, -858993460				; ccccccccH
	rep stosd
	pop	ecx
	mov	DWORD PTR _this$[ebp], ecx
	mov	ecx, OFFSET __6AF8D130_NativeFileSystem@cpp
	call	@__CheckForDebuggerJustMyCode@4

; 25   :     return loadRawDataBase(resourceName, data, resourceSize, std::ios_base::in);

	push	1
	mov	eax, DWORD PTR _resourceSize$[ebp]
	push	eax
	mov	ecx, DWORD PTR _data$[ebp]
	push	ecx
	mov	edx, DWORD PTR _resourceName$[ebp]
	push	edx
	mov	ecx, DWORD PTR _this$[ebp]
	call	?loadRawDataBase@NativeFileSystem@@AAE_NABVResourceName@@PAXIH@Z ; NativeFileSystem::loadRawDataBase

; 26   : }

	pop	edi
	pop	esi
	pop	ebx
	add	esp, 204				; 000000ccH
	cmp	ebp, esp
	call	__RTC_CheckEsp
	mov	esp, ebp
	pop	ebp
	ret	12					; 0000000cH
?getResourceData@NativeFileSystem@@UAE_NABVResourceName@@PAXI@Z ENDP ; NativeFileSystem::getResourceData
_TEXT	ENDS
; Function compile flags: /Odtp /RTCsu /ZI
; File C:\Users\tim23\Documents\Visual Studio 2019\Projects\Project2D\Project2D\ResourceManager\NativeFileSystem.cpp
;	COMDAT ?getResourceSize@NativeFileSystem@@UAE_NABVResourceName@@AAI@Z
_TEXT	SEGMENT
$T2 = -260						; size = 4
$T3 = -248						; size = 28
_this$ = -20						; size = 4
__$EHRec$ = -12						; size = 12
_resourceName$ = 8					; size = 4
_resourceSize$ = 12					; size = 4
?getResourceSize@NativeFileSystem@@UAE_NABVResourceName@@AAI@Z PROC ; NativeFileSystem::getResourceSize, COMDAT
; _this$ = ecx

; 19   : bool NativeFileSystem::getResourceSize(const ResourceName& resourceName, size_t& resourceSize) {

	push	ebp
	mov	ebp, esp
	push	-1
	push	__ehhandler$?getResourceSize@NativeFileSystem@@UAE_NABVResourceName@@AAI@Z
	mov	eax, DWORD PTR fs:0
	push	eax
	sub	esp, 252				; 000000fcH
	push	ebx
	push	esi
	push	edi
	push	ecx
	lea	edi, DWORD PTR [ebp-264]
	mov	ecx, 63					; 0000003fH
	mov	eax, -858993460				; ccccccccH
	rep stosd
	pop	ecx
	mov	eax, DWORD PTR ___security_cookie
	xor	eax, ebp
	push	eax
	lea	eax, DWORD PTR __$EHRec$[ebp]
	mov	DWORD PTR fs:0, eax
	mov	DWORD PTR _this$[ebp], ecx
	mov	ecx, OFFSET __6AF8D130_NativeFileSystem@cpp
	call	@__CheckForDebuggerJustMyCode@4

; 20   :     resourceSize = std::filesystem::file_size(resourceName.c_str());

	mov	ecx, DWORD PTR _resourceName$[ebp]
	call	?c_str@ResourceName@@QBEPBDXZ		; ResourceName::c_str
	mov	DWORD PTR $T2[ebp], eax
	push	0
	lea	eax, DWORD PTR $T2[ebp]
	push	eax
	lea	ecx, DWORD PTR $T3[ebp]
	call	??$?0PBD$0A@@path@filesystem@std@@QAE@ABQBDW4format@012@@Z ; std::filesystem::path::path<char const *,0>
	mov	DWORD PTR __$EHRec$[ebp+8], 0
	lea	ecx, DWORD PTR $T3[ebp]
	push	ecx
	call	?file_size@filesystem@std@@YA_KABVpath@12@@Z ; std::filesystem::file_size
	add	esp, 4
	mov	edx, DWORD PTR _resourceSize$[ebp]
	mov	DWORD PTR [edx], eax
	mov	DWORD PTR __$EHRec$[ebp+8], -1
	lea	ecx, DWORD PTR $T3[ebp]
	call	??1path@filesystem@std@@QAE@XZ		; std::filesystem::path::~path

; 21   :     return true;

	mov	al, 1

; 22   : }

	mov	ecx, DWORD PTR __$EHRec$[ebp]
	mov	DWORD PTR fs:0, ecx
	pop	ecx
	pop	edi
	pop	esi
	pop	ebx
	add	esp, 264				; 00000108H
	cmp	ebp, esp
	call	__RTC_CheckEsp
	mov	esp, ebp
	pop	ebp
	ret	8
_TEXT	ENDS
;	COMDAT text$x
text$x	SEGMENT
__unwindfunclet$?getResourceSize@NativeFileSystem@@UAE_NABVResourceName@@AAI@Z$0:
	lea	ecx, DWORD PTR $T3[ebp]
	jmp	??1path@filesystem@std@@QAE@XZ		; std::filesystem::path::~path
	int	3
	int	3
	int	3
	int	3
	int	3
__ehhandler$?getResourceSize@NativeFileSystem@@UAE_NABVResourceName@@AAI@Z:
	npad	1
	npad	1
	mov	edx, DWORD PTR [esp+8]
	lea	eax, DWORD PTR [edx+12]
	mov	ecx, DWORD PTR [edx-268]
	xor	ecx, eax
	call	@__security_check_cookie@4
	mov	eax, OFFSET __ehfuncinfo$?getResourceSize@NativeFileSystem@@UAE_NABVResourceName@@AAI@Z
	jmp	___CxxFrameHandler3
text$x	ENDS
?getResourceSize@NativeFileSystem@@UAE_NABVResourceName@@AAI@Z ENDP ; NativeFileSystem::getResourceSize
; Function compile flags: /Odtp /RTCsu /ZI
; File C:\Users\tim23\Documents\Visual Studio 2019\Projects\Project2D\Project2D\ResourceManager\NativeFileSystem.cpp
;	COMDAT ?loadRawDataBase@NativeFileSystem@@AAE_NABVResourceName@@PAXIH@Z
_TEXT	SEGMENT
$T2 = -425						; size = 1
_fileStream$ = -224					; size = 192
_this$ = -24						; size = 4
__$ArrayPad$ = -16					; size = 4
__$EHRec$ = -12						; size = 12
_resourceName$ = 8					; size = 4
_data$ = 12						; size = 4
_size$ = 16						; size = 4
_mode$ = 20						; size = 4
?loadRawDataBase@NativeFileSystem@@AAE_NABVResourceName@@PAXIH@Z PROC ; NativeFileSystem::loadRawDataBase, COMDAT
; _this$ = ecx

; 8    : bool NativeFileSystem::loadRawDataBase(const ResourceName& resourceName, void* data, size_t size, std::ios_base::openmode mode) {

	push	ebp
	mov	ebp, esp
	push	-1
	push	__ehhandler$?loadRawDataBase@NativeFileSystem@@AAE_NABVResourceName@@PAXIH@Z
	mov	eax, DWORD PTR fs:0
	push	eax
	sub	esp, 420				; 000001a4H
	push	ebx
	push	esi
	push	edi
	push	ecx
	lea	edi, DWORD PTR [ebp-432]
	mov	ecx, 105				; 00000069H
	mov	eax, -858993460				; ccccccccH
	rep stosd
	pop	ecx
	mov	eax, DWORD PTR ___security_cookie
	xor	eax, ebp
	mov	DWORD PTR __$ArrayPad$[ebp], eax
	push	eax
	lea	eax, DWORD PTR __$EHRec$[ebp]
	mov	DWORD PTR fs:0, eax
	mov	DWORD PTR _this$[ebp], ecx
	mov	ecx, OFFSET __6AF8D130_NativeFileSystem@cpp
	call	@__CheckForDebuggerJustMyCode@4

; 9    :     std::fstream fileStream(resourceName.c_str(), mode);

	push	192					; 000000c0H
	lea	ecx, DWORD PTR _fileStream$[ebp]
	call	?__autoclassinit2@?$basic_fstream@DU?$char_traits@D@std@@@std@@QAEXI@Z
	push	1
	push	64					; 00000040H
	mov	eax, DWORD PTR _mode$[ebp]
	push	eax
	mov	ecx, DWORD PTR _resourceName$[ebp]
	call	?c_str@ResourceName@@QBEPBDXZ		; ResourceName::c_str
	push	eax
	lea	ecx, DWORD PTR _fileStream$[ebp]
	call	??0?$basic_fstream@DU?$char_traits@D@std@@@std@@QAE@PBDHH@Z ; std::basic_fstream<char,std::char_traits<char> >::basic_fstream<char,std::char_traits<char> >
	mov	DWORD PTR __$EHRec$[ebp+8], 0

; 10   :     assert(fileStream.is_open());

	lea	ecx, DWORD PTR _fileStream$[ebp]
	call	?is_open@?$basic_fstream@DU?$char_traits@D@std@@@std@@QBE_NXZ ; std::basic_fstream<char,std::char_traits<char> >::is_open
	movzx	eax, al
	test	eax, eax
	jne	SHORT $LN3@loadRawDat
	mov	ecx, DWORD PTR ?__LINE__Var@?0??loadRawDataBase@NativeFileSystem@@AAE_NABVResourceName@@PAXIH@Z@4JA
	add	ecx, 2
	mov	esi, esp
	push	ecx
	push	OFFSET ??_C@_1NM@CJLEFO@?$AAC?$AA?3?$AA?2?$AAU?$AAs?$AAe?$AAr?$AAs?$AA?2?$AAt?$AAi?$AAm?$AA2?$AA3?$AA?2@
	push	OFFSET ??_C@_1CK@DGOAEMHM@?$AAf?$AAi?$AAl?$AAe?$AAS?$AAt?$AAr?$AAe?$AAa?$AAm?$AA?4?$AAi?$AAs?$AA_?$AAo@
	call	DWORD PTR __imp___wassert
	add	esp, 12					; 0000000cH
	cmp	esi, esp
	call	__RTC_CheckEsp
$LN3@loadRawDat:

; 11   : 
; 12   :     fileStream.read((char*)(data), size);

	mov	eax, DWORD PTR _size$[ebp]
	xor	ecx, ecx
	mov	esi, esp
	push	ecx
	push	eax
	mov	edx, DWORD PTR _data$[ebp]
	push	edx
	lea	ecx, DWORD PTR _fileStream$[ebp]
	call	DWORD PTR __imp_?read@?$basic_istream@DU?$char_traits@D@std@@@std@@QAEAAV12@PAD_J@Z
	cmp	esi, esp
	call	__RTC_CheckEsp

; 13   : 
; 14   :     fileStream.close();

	lea	ecx, DWORD PTR _fileStream$[ebp]
	call	?close@?$basic_fstream@DU?$char_traits@D@std@@@std@@QAEXXZ ; std::basic_fstream<char,std::char_traits<char> >::close

; 15   : 
; 16   :     return true;

	mov	BYTE PTR $T2[ebp], 1
	mov	DWORD PTR __$EHRec$[ebp+8], -1
	lea	ecx, DWORD PTR _fileStream$[ebp]
	call	??_D?$basic_fstream@DU?$char_traits@D@std@@@std@@QAEXXZ
	mov	al, BYTE PTR $T2[ebp]

; 17   : }

	push	edx
	mov	ecx, ebp
	push	eax
	lea	edx, DWORD PTR $LN8@loadRawDat
	call	@_RTC_CheckStackVars@8
	pop	eax
	pop	edx
	mov	ecx, DWORD PTR __$EHRec$[ebp]
	mov	DWORD PTR fs:0, ecx
	pop	ecx
	pop	edi
	pop	esi
	pop	ebx
	mov	ecx, DWORD PTR __$ArrayPad$[ebp]
	xor	ecx, ebp
	call	@__security_check_cookie@4
	add	esp, 432				; 000001b0H
	cmp	ebp, esp
	call	__RTC_CheckEsp
	mov	esp, ebp
	pop	ebp
	ret	16					; 00000010H
$LN8@loadRawDat:
	DD	1
	DD	$LN7@loadRawDat
$LN7@loadRawDat:
	DD	-224					; ffffff20H
	DD	192					; 000000c0H
	DD	$LN5@loadRawDat
$LN5@loadRawDat:
	DB	102					; 00000066H
	DB	105					; 00000069H
	DB	108					; 0000006cH
	DB	101					; 00000065H
	DB	83					; 00000053H
	DB	116					; 00000074H
	DB	114					; 00000072H
	DB	101					; 00000065H
	DB	97					; 00000061H
	DB	109					; 0000006dH
	DB	0
_TEXT	ENDS
;	COMDAT text$x
text$x	SEGMENT
__unwindfunclet$?loadRawDataBase@NativeFileSystem@@AAE_NABVResourceName@@PAXIH@Z$0:
	lea	ecx, DWORD PTR _fileStream$[ebp]
	jmp	??_D?$basic_fstream@DU?$char_traits@D@std@@@std@@QAEXXZ
	int	3
	int	3
	int	3
	int	3
	int	3
__ehhandler$?loadRawDataBase@NativeFileSystem@@AAE_NABVResourceName@@PAXIH@Z:
	npad	1
	npad	1
	mov	edx, DWORD PTR [esp+8]
	lea	eax, DWORD PTR [edx+12]
	mov	ecx, DWORD PTR [edx-436]
	xor	ecx, eax
	call	@__security_check_cookie@4
	mov	ecx, DWORD PTR [edx-4]
	xor	ecx, eax
	call	@__security_check_cookie@4
	mov	eax, OFFSET __ehfuncinfo$?loadRawDataBase@NativeFileSystem@@AAE_NABVResourceName@@PAXIH@Z
	jmp	___CxxFrameHandler3
text$x	ENDS
?loadRawDataBase@NativeFileSystem@@AAE_NABVResourceName@@PAXIH@Z ENDP ; NativeFileSystem::loadRawDataBase
; Function compile flags: /Odtp /RTCsu /ZI
; File C:\Program Files (x86)\Microsoft Visual Studio\2019\Professional\VC\Tools\MSVC\14.28.29333\include\filesystem
;	COMDAT ?file_size@filesystem@std@@YA_KABVpath@12@@Z
_TEXT	SEGMENT
__Error$ = -28						; size = 4
__Result$ = -16						; size = 8
__$ArrayPad$ = -4					; size = 4
__Path$ = 8						; size = 4
?file_size@filesystem@std@@YA_KABVpath@12@@Z PROC	; std::filesystem::file_size, COMDAT

; 3430 :     _NODISCARD inline uintmax_t file_size(const path& _Path) {

	push	ebp
	mov	ebp, esp
	sub	esp, 224				; 000000e0H
	push	ebx
	push	esi
	push	edi
	lea	edi, DWORD PTR [ebp-224]
	mov	ecx, 56					; 00000038H
	mov	eax, -858993460				; ccccccccH
	rep stosd
	mov	eax, DWORD PTR ___security_cookie
	xor	eax, ebp
	mov	DWORD PTR __$ArrayPad$[ebp], eax
	mov	ecx, OFFSET __A704387C_filesystem
	call	@__CheckForDebuggerJustMyCode@4

; 3431 :         uintmax_t _Result;
; 3432 :         const auto _Error = _File_size(_Path, _Result);

	lea	eax, DWORD PTR __Result$[ebp]
	push	eax
	mov	ecx, DWORD PTR __Path$[ebp]
	push	ecx
	call	?_File_size@filesystem@std@@YA?AW4__std_win_error@@ABVpath@12@AA_K@Z ; std::filesystem::_File_size
	add	esp, 8
	mov	DWORD PTR __Error$[ebp], eax

; 3433 :         if (_Error != __std_win_error::_Success) {

	cmp	DWORD PTR __Error$[ebp], 0
	je	SHORT $LN2@file_size

; 3434 :             _Throw_fs_error("file_size", _Error, _Path);

	mov	eax, DWORD PTR __Path$[ebp]
	push	eax
	mov	ecx, DWORD PTR __Error$[ebp]
	push	ecx
	push	OFFSET ??_C@_09CKOOOICH@file_size@
	call	?_Throw_fs_error@filesystem@std@@YAXPBDW4__std_win_error@@ABVpath@12@@Z ; std::filesystem::_Throw_fs_error
$LN2@file_size:

; 3435 :         }
; 3436 : 
; 3437 :         return _Result;

	mov	eax, DWORD PTR __Result$[ebp]
	mov	edx, DWORD PTR __Result$[ebp+4]
$LN3@file_size:

; 3438 :     }

	push	edx
	mov	ecx, ebp
	push	eax
	lea	edx, DWORD PTR $LN6@file_size
	call	@_RTC_CheckStackVars@8
	pop	eax
	pop	edx
	pop	edi
	pop	esi
	pop	ebx
	mov	ecx, DWORD PTR __$ArrayPad$[ebp]
	xor	ecx, ebp
	call	@__security_check_cookie@4
	add	esp, 224				; 000000e0H
	cmp	ebp, esp
	call	__RTC_CheckEsp
	mov	esp, ebp
	pop	ebp
	ret	0
	npad	2
$LN6@file_size:
	DD	1
	DD	$LN5@file_size
$LN5@file_size:
	DD	-16					; fffffff0H
	DD	8
	DD	$LN4@file_size
$LN4@file_size:
	DB	95					; 0000005fH
	DB	82					; 00000052H
	DB	101					; 00000065H
	DB	115					; 00000073H
	DB	117					; 00000075H
	DB	108					; 0000006cH
	DB	116					; 00000074H
	DB	0
?file_size@filesystem@std@@YA_KABVpath@12@@Z ENDP	; std::filesystem::file_size
_TEXT	ENDS
; Function compile flags: /Odtp /RTCsu /ZI
; File C:\Program Files (x86)\Microsoft Visual Studio\2019\Professional\VC\Tools\MSVC\14.28.29333\include\filesystem
;	COMDAT ?_File_size@filesystem@std@@YA?AW4__std_win_error@@ABVpath@12@AA_K@Z
_TEXT	SEGMENT
tv75 = -256						; size = 4
tv77 = -252						; size = 4
__Error$ = -52						; size = 4
__Stats$ = -40						; size = 32
__$ArrayPad$ = -4					; size = 4
__Path$ = 8						; size = 4
__Result$ = 12						; size = 4
?_File_size@filesystem@std@@YA?AW4__std_win_error@@ABVpath@12@AA_K@Z PROC ; std::filesystem::_File_size, COMDAT

; 3417 :     _NODISCARD inline __std_win_error _File_size(const path& _Path, uintmax_t& _Result) noexcept {

	push	ebp
	mov	ebp, esp
	sub	esp, 256				; 00000100H
	push	ebx
	push	esi
	push	edi
	lea	edi, DWORD PTR [ebp-256]
	mov	ecx, 64					; 00000040H
	mov	eax, -858993460				; ccccccccH
	rep stosd
	mov	eax, DWORD PTR ___security_cookie
	xor	eax, ebp
	mov	DWORD PTR __$ArrayPad$[ebp], eax
	mov	ecx, OFFSET __A704387C_filesystem
	call	@__CheckForDebuggerJustMyCode@4

; 3418 :         __std_fs_stats _Stats;
; 3419 :         const auto _Error = __std_fs_get_stats(

	push	8
	push	1
	call	??U@YA?AW4__std_fs_stats_flags@@W40@0@Z	; operator|
	add	esp, 8
	mov	DWORD PTR tv77[ebp], eax
	mov	ecx, DWORD PTR __Path$[ebp]
	call	?c_str@path@filesystem@std@@QBEPB_WXZ	; std::filesystem::path::c_str
	mov	DWORD PTR tv75[ebp], eax
	push	-1
	mov	eax, DWORD PTR tv77[ebp]
	push	eax
	lea	ecx, DWORD PTR __Stats$[ebp]
	push	ecx
	mov	edx, DWORD PTR tv75[ebp]
	push	edx
	call	___std_fs_get_stats@16
	mov	DWORD PTR __Error$[ebp], eax

; 3420 :             _Path.c_str(), &_Stats, __std_fs_stats_flags::_Follow_symlinks | __std_fs_stats_flags::_File_size);
; 3421 :         if (_Error == __std_win_error::_Success) {

	cmp	DWORD PTR __Error$[ebp], 0
	jne	SHORT $LN2@File_size

; 3422 :             _Result = _Stats._File_size;

	mov	eax, DWORD PTR __Result$[ebp]
	mov	ecx, DWORD PTR __Stats$[ebp+8]
	mov	edx, DWORD PTR __Stats$[ebp+12]
	mov	DWORD PTR [eax], ecx
	mov	DWORD PTR [eax+4], edx

; 3423 :         } else {

	jmp	SHORT $LN3@File_size
$LN2@File_size:

; 3424 :             _Result = static_cast<uintmax_t>(-1);

	mov	eax, DWORD PTR __Result$[ebp]
	or	ecx, -1
	mov	DWORD PTR [eax], -1
	mov	DWORD PTR [eax+4], ecx
$LN3@File_size:

; 3425 :         }
; 3426 : 
; 3427 :         return _Error;

	mov	eax, DWORD PTR __Error$[ebp]

; 3428 :     }

	push	edx
	mov	ecx, ebp
	push	eax
	lea	edx, DWORD PTR $LN7@File_size
	call	@_RTC_CheckStackVars@8
	pop	eax
	pop	edx
	pop	edi
	pop	esi
	pop	ebx
	mov	ecx, DWORD PTR __$ArrayPad$[ebp]
	xor	ecx, ebp
	call	@__security_check_cookie@4
	add	esp, 256				; 00000100H
	cmp	ebp, esp
	call	__RTC_CheckEsp
	mov	esp, ebp
	pop	ebp
	ret	0
	npad	3
$LN7@File_size:
	DD	1
	DD	$LN6@File_size
$LN6@File_size:
	DD	-40					; ffffffd8H
	DD	32					; 00000020H
	DD	$LN5@File_size
$LN5@File_size:
	DB	95					; 0000005fH
	DB	83					; 00000053H
	DB	116					; 00000074H
	DB	97					; 00000061H
	DB	116					; 00000074H
	DB	115					; 00000073H
	DB	0
?_File_size@filesystem@std@@YA?AW4__std_win_error@@ABVpath@12@AA_K@Z ENDP ; std::filesystem::_File_size
_TEXT	ENDS
; Function compile flags: /Odtp /RTCsu /ZI
; File C:\Program Files (x86)\Microsoft Visual Studio\2019\Professional\VC\Tools\MSVC\14.28.29333\include\filesystem
;	COMDAT ?_Throw_fs_error@filesystem@std@@YAXPBDW4__std_win_error@@ABVpath@12@@Z
_TEXT	SEGMENT
$T2 = -392						; size = 8
$T3 = -372						; size = 28
$T4 = -336						; size = 8
$T5 = -320						; size = 104
__$EHRec$ = -12						; size = 12
__Op$ = 8						; size = 4
__Error$ = 12						; size = 4
__Path1$ = 16						; size = 4
?_Throw_fs_error@filesystem@std@@YAXPBDW4__std_win_error@@ABVpath@12@@Z PROC ; std::filesystem::_Throw_fs_error, COMDAT

; 1849 :     [[noreturn]] inline void _Throw_fs_error(const char* _Op, __std_win_error _Error, const path& _Path1) {

	push	ebx
	mov	ebx, esp
	sub	esp, 8
	and	esp, -8					; fffffff8H
	add	esp, 4
	push	ebp
	mov	ebp, DWORD PTR [ebx+4]
	mov	DWORD PTR [esp+4], ebp
	mov	ebp, esp
	push	-1
	push	__ehhandler$?_Throw_fs_error@filesystem@std@@YAXPBDW4__std_win_error@@ABVpath@12@@Z
	mov	eax, DWORD PTR fs:0
	push	eax
	push	ebx
	sub	esp, 384				; 00000180H
	push	esi
	push	edi
	lea	edi, DWORD PTR [ebp-400]
	mov	ecx, 96					; 00000060H
	mov	eax, -858993460				; ccccccccH
	rep stosd
	mov	eax, DWORD PTR ___security_cookie
	xor	eax, ebp
	push	eax
	lea	eax, DWORD PTR __$EHRec$[ebp]
	mov	DWORD PTR fs:0, eax
	mov	ecx, OFFSET __A704387C_filesystem
	call	@__CheckForDebuggerJustMyCode@4

; 1850 :         _THROW(filesystem_error(_Op, _Path1, _Make_ec(_Error)));

	mov	eax, DWORD PTR __Error$[ebx]
	push	eax
	lea	ecx, DWORD PTR $T4[ebp]
	push	ecx
	call	?_Make_ec@filesystem@std@@YA?AVerror_code@2@W4__std_win_error@@@Z ; std::filesystem::_Make_ec
	add	esp, 8
	mov	edx, DWORD PTR [eax]
	mov	eax, DWORD PTR [eax+4]
	mov	DWORD PTR $T2[ebp], edx
	mov	DWORD PTR $T2[ebp+4], eax
	mov	ecx, DWORD PTR __Op$[ebx]
	push	ecx
	lea	ecx, DWORD PTR $T3[ebp]
	call	??0?$basic_string@DU?$char_traits@D@std@@V?$allocator@D@2@@std@@QAE@QBD@Z ; std::basic_string<char,std::char_traits<char>,std::allocator<char> >::basic_string<char,std::char_traits<char>,std::allocator<char> >
	mov	DWORD PTR __$EHRec$[ebp+8], 0
	mov	edx, DWORD PTR $T2[ebp+4]
	push	edx
	mov	eax, DWORD PTR $T2[ebp]
	push	eax
	mov	ecx, DWORD PTR __Path1$[ebx]
	push	ecx
	lea	edx, DWORD PTR $T3[ebp]
	push	edx
	lea	ecx, DWORD PTR $T5[ebp]
	call	??0filesystem_error@filesystem@std@@QAE@ABV?$basic_string@DU?$char_traits@D@std@@V?$allocator@D@2@@2@ABVpath@12@Verror_code@2@@Z ; std::filesystem::filesystem_error::filesystem_error
	push	OFFSET __TI5?AVfilesystem_error@filesystem@std@@
	lea	eax, DWORD PTR $T5[ebp]
	push	eax
	call	__CxxThrowException@8
	mov	DWORD PTR __$EHRec$[ebp+8], -1
	lea	ecx, DWORD PTR $T3[ebp]
	call	??1?$basic_string@DU?$char_traits@D@std@@V?$allocator@D@2@@std@@QAE@XZ ; std::basic_string<char,std::char_traits<char>,std::allocator<char> >::~basic_string<char,std::char_traits<char>,std::allocator<char> >
$LN2@Throw_fs_e:

; 1851 :     }

	mov	ecx, DWORD PTR __$EHRec$[ebp]
	mov	DWORD PTR fs:0, ecx
	pop	ecx
	pop	edi
	pop	esi
	mov	esp, ebp
	pop	ebp
	mov	esp, ebx
	pop	ebx
	ret	0
_TEXT	ENDS
;	COMDAT text$x
text$x	SEGMENT
__unwindfunclet$?_Throw_fs_error@filesystem@std@@YAXPBDW4__std_win_error@@ABVpath@12@@Z$0:
	lea	ecx, DWORD PTR $T3[ebp]
	jmp	??1?$basic_string@DU?$char_traits@D@std@@V?$allocator@D@2@@std@@QAE@XZ ; std::basic_string<char,std::char_traits<char>,std::allocator<char> >::~basic_string<char,std::char_traits<char>,std::allocator<char> >
	int	3
	int	3
	int	3
	int	3
	int	3
__ehhandler$?_Throw_fs_error@filesystem@std@@YAXPBDW4__std_win_error@@ABVpath@12@@Z:
	npad	1
	npad	1
	mov	edx, DWORD PTR [esp+8]
	lea	eax, DWORD PTR [edx+12]
	mov	ecx, DWORD PTR [edx-400]
	xor	ecx, eax
	call	@__security_check_cookie@4
	mov	eax, OFFSET __ehfuncinfo$?_Throw_fs_error@filesystem@std@@YAXPBDW4__std_win_error@@ABVpath@12@@Z
	jmp	___CxxFrameHandler3
text$x	ENDS
?_Throw_fs_error@filesystem@std@@YAXPBDW4__std_win_error@@ABVpath@12@@Z ENDP ; std::filesystem::_Throw_fs_error
; Function compile flags: /Odtp /RTCsu /ZI
; File C:\Program Files (x86)\Microsoft Visual Studio\2019\Professional\VC\Tools\MSVC\14.28.29333\include\xstring
;	COMDAT ??$?YV?$basic_string_view@DU?$char_traits@D@std@@@std@@$0A@@?$basic_string@DU?$char_traits@D@std@@V?$allocator@D@2@@std@@QAEAAV01@ABV?$basic_string_view@DU?$char_traits@D@std@@@1@@Z
_TEXT	SEGMENT
_this$ = -8						; size = 4
__Right$ = 8						; size = 4
??$?YV?$basic_string_view@DU?$char_traits@D@std@@@std@@$0A@@?$basic_string@DU?$char_traits@D@std@@V?$allocator@D@2@@std@@QAEAAV01@ABV?$basic_string_view@DU?$char_traits@D@std@@@1@@Z PROC ; std::basic_string<char,std::char_traits<char>,std::allocator<char> >::operator+=<std::basic_string_view<char,std::char_traits<char> >,0>, COMDAT
; _this$ = ecx

; 2895 :     basic_string& operator+=(const _StringViewIsh& _Right) {

	push	ebp
	mov	ebp, esp
	sub	esp, 204				; 000000ccH
	push	ebx
	push	esi
	push	edi
	push	ecx
	lea	edi, DWORD PTR [ebp-204]
	mov	ecx, 51					; 00000033H
	mov	eax, -858993460				; ccccccccH
	rep stosd
	pop	ecx
	mov	DWORD PTR _this$[ebp], ecx
	mov	ecx, OFFSET __C00D0CE5_xstring
	call	@__CheckForDebuggerJustMyCode@4

; 2896 :         return append(_Right);

	mov	eax, DWORD PTR __Right$[ebp]
	push	eax
	mov	ecx, DWORD PTR _this$[ebp]
	call	??$append@V?$basic_string_view@DU?$char_traits@D@std@@@std@@$0A@@?$basic_string@DU?$char_traits@D@std@@V?$allocator@D@2@@std@@QAEAAV01@ABV?$basic_string_view@DU?$char_traits@D@std@@@1@@Z ; std::basic_string<char,std::char_traits<char>,std::allocator<char> >::append<std::basic_string_view<char,std::char_traits<char> >,0>

; 2897 :     }

	pop	edi
	pop	esi
	pop	ebx
	add	esp, 204				; 000000ccH
	cmp	ebp, esp
	call	__RTC_CheckEsp
	mov	esp, ebp
	pop	ebp
	ret	4
??$?YV?$basic_string_view@DU?$char_traits@D@std@@@std@@$0A@@?$basic_string@DU?$char_traits@D@std@@V?$allocator@D@2@@std@@QAEAAV01@ABV?$basic_string_view@DU?$char_traits@D@std@@@1@@Z ENDP ; std::basic_string<char,std::char_traits<char>,std::allocator<char> >::operator+=<std::basic_string_view<char,std::char_traits<char> >,0>
_TEXT	ENDS
; Function compile flags: /Odtp /RTCsu /ZI
; File C:\Program Files (x86)\Microsoft Visual Studio\2019\Professional\VC\Tools\MSVC\14.28.29333\include\filesystem
;	COMDAT ??$_Convert_wide_to_narrow_replace_chars@U?$char_traits@D@std@@V?$allocator@D@2@@filesystem@std@@YA?AV?$basic_string@DU?$char_traits@D@std@@V?$allocator@D@2@@1@W4__std_code_page@@V?$basic_string_view@_WU?$char_traits@_W@std@@@1@ABV?$allocator@D@1@@Z
_TEXT	SEGMENT
tv141 = -320						; size = 4
tv88 = -320						; size = 4
tv143 = -316						; size = 4
tv90 = -316						; size = 4
$T2 = -308						; size = 4
$T3 = -296						; size = 8
$T4 = -280						; size = 8
__Data_as_char$5 = -72					; size = 4
__Len$6 = -60						; size = 4
__Output$ = -48						; size = 28
__$ArrayPad$ = -16					; size = 4
__$EHRec$ = -12						; size = 12
___$ReturnUdt$ = 8					; size = 4
__Code_page$ = 12					; size = 4
__Input$ = 16						; size = 8
__Al$ = 24						; size = 4
??$_Convert_wide_to_narrow_replace_chars@U?$char_traits@D@std@@V?$allocator@D@2@@filesystem@std@@YA?AV?$basic_string@DU?$char_traits@D@std@@V?$allocator@D@2@@1@W4__std_code_page@@V?$basic_string_view@_WU?$char_traits@_W@std@@@1@ABV?$allocator@D@1@@Z PROC ; std::filesystem::_Convert_wide_to_narrow_replace_chars<std::char_traits<char>,std::allocator<char> >, COMDAT

; 109  :         const __std_code_page _Code_page, const wstring_view _Input, const _Alloc& _Al) {

	push	ebp
	mov	ebp, esp
	push	-1
	push	__ehhandler$??$_Convert_wide_to_narrow_replace_chars@U?$char_traits@D@std@@V?$allocator@D@2@@filesystem@std@@YA?AV?$basic_string@DU?$char_traits@D@std@@V?$allocator@D@2@@1@W4__std_code_page@@V?$basic_string_view@_WU?$char_traits@_W@std@@@1@ABV?$allocator@D@1@@Z
	mov	eax, DWORD PTR fs:0
	push	eax
	sub	esp, 308				; 00000134H
	push	ebx
	push	esi
	push	edi
	lea	edi, DWORD PTR [ebp-320]
	mov	ecx, 77					; 0000004dH
	mov	eax, -858993460				; ccccccccH
	rep stosd
	mov	eax, DWORD PTR ___security_cookie
	xor	eax, ebp
	mov	DWORD PTR __$ArrayPad$[ebp], eax
	push	eax
	lea	eax, DWORD PTR __$EHRec$[ebp]
	mov	DWORD PTR fs:0, eax
	mov	DWORD PTR $T2[ebp], 0
	mov	ecx, OFFSET __A704387C_filesystem
	call	@__CheckForDebuggerJustMyCode@4

; 110  :         basic_string<typename _Traits::char_type, _Traits, _Alloc> _Output(_Al);

	mov	eax, DWORD PTR __Al$[ebp]
	push	eax
	lea	ecx, DWORD PTR __Output$[ebp]
	call	??0?$basic_string@DU?$char_traits@D@std@@V?$allocator@D@2@@std@@QAE@ABV?$allocator@D@1@@Z ; std::basic_string<char,std::char_traits<char>,std::allocator<char> >::basic_string<char,std::char_traits<char>,std::allocator<char> >
	mov	DWORD PTR __$EHRec$[ebp+8], 0

; 111  : 
; 112  :         if (!_Input.empty()) {

	lea	ecx, DWORD PTR __Input$[ebp]
	call	?empty@?$basic_string_view@_WU?$char_traits@_W@std@@@std@@QBE_NXZ ; std::basic_string_view<wchar_t,std::char_traits<wchar_t> >::empty
	movzx	eax, al
	test	eax, eax
	jne	$LN2@Convert_wi

; 113  :             if (_Input.size() > static_cast<size_t>(INT_MAX)) {

	lea	ecx, DWORD PTR __Input$[ebp]
	call	?size@?$basic_string_view@_WU?$char_traits@_W@std@@@std@@QBEIXZ ; std::basic_string_view<wchar_t,std::char_traits<wchar_t> >::size
	cmp	eax, 2147483647				; 7fffffffH
	jbe	SHORT $LN3@Convert_wi

; 114  :                 _Throw_system_error(errc::invalid_argument);

	push	22					; 00000016H
	call	?_Throw_system_error@std@@YAXW4errc@1@@Z ; std::_Throw_system_error
$LN3@Convert_wi:

; 115  :             }
; 116  : 
; 117  :             const int _Len = _Check_convert_result(__std_fs_convert_wide_to_narrow_replace_chars(

	lea	ecx, DWORD PTR __Input$[ebp]
	call	?size@?$basic_string_view@_WU?$char_traits@_W@std@@@std@@QBEIXZ ; std::basic_string_view<wchar_t,std::char_traits<wchar_t> >::size
	mov	DWORD PTR tv90[ebp], eax
	lea	ecx, DWORD PTR __Input$[ebp]
	call	?data@?$basic_string_view@_WU?$char_traits@_W@std@@@std@@QBEPB_WXZ ; std::basic_string_view<wchar_t,std::char_traits<wchar_t> >::data
	mov	DWORD PTR tv88[ebp], eax
	push	0
	push	0
	mov	eax, DWORD PTR tv90[ebp]
	push	eax
	mov	ecx, DWORD PTR tv88[ebp]
	push	ecx
	mov	edx, DWORD PTR __Code_page$[ebp]
	push	edx
	call	___std_fs_convert_wide_to_narrow_replace_chars@20
	mov	DWORD PTR $T4[ebp], eax
	mov	DWORD PTR $T4[ebp+4], edx
	mov	eax, DWORD PTR $T4[ebp+4]
	push	eax
	mov	ecx, DWORD PTR $T4[ebp]
	push	ecx
	call	?_Check_convert_result@filesystem@std@@YAHU__std_fs_convert_result@@@Z ; std::filesystem::_Check_convert_result
	add	esp, 8
	mov	DWORD PTR __Len$6[ebp], eax

; 118  :                 _Code_page, _Input.data(), static_cast<int>(_Input.size()), nullptr, 0));
; 119  : 
; 120  :             _Output.resize(static_cast<size_t>(_Len));

	push	0
	mov	eax, DWORD PTR __Len$6[ebp]
	push	eax
	lea	ecx, DWORD PTR __Output$[ebp]
	call	?resize@?$basic_string@DU?$char_traits@D@std@@V?$allocator@D@2@@std@@QAEXID@Z ; std::basic_string<char,std::char_traits<char>,std::allocator<char> >::resize

; 121  : 
; 122  :             const auto _Data_as_char = reinterpret_cast<char*>(_Output.data());

	lea	ecx, DWORD PTR __Output$[ebp]
	call	?data@?$basic_string@DU?$char_traits@D@std@@V?$allocator@D@2@@std@@QAEPADXZ ; std::basic_string<char,std::char_traits<char>,std::allocator<char> >::data
	mov	DWORD PTR __Data_as_char$5[ebp], eax

; 123  : 
; 124  :             (void) _Check_convert_result(__std_fs_convert_wide_to_narrow_replace_chars(

	lea	ecx, DWORD PTR __Input$[ebp]
	call	?size@?$basic_string_view@_WU?$char_traits@_W@std@@@std@@QBEIXZ ; std::basic_string_view<wchar_t,std::char_traits<wchar_t> >::size
	mov	DWORD PTR tv143[ebp], eax
	lea	ecx, DWORD PTR __Input$[ebp]
	call	?data@?$basic_string_view@_WU?$char_traits@_W@std@@@std@@QBEPB_WXZ ; std::basic_string_view<wchar_t,std::char_traits<wchar_t> >::data
	mov	DWORD PTR tv141[ebp], eax
	mov	eax, DWORD PTR __Len$6[ebp]
	push	eax
	mov	ecx, DWORD PTR __Data_as_char$5[ebp]
	push	ecx
	mov	edx, DWORD PTR tv143[ebp]
	push	edx
	mov	eax, DWORD PTR tv141[ebp]
	push	eax
	mov	ecx, DWORD PTR __Code_page$[ebp]
	push	ecx
	call	___std_fs_convert_wide_to_narrow_replace_chars@20
	mov	DWORD PTR $T3[ebp], eax
	mov	DWORD PTR $T3[ebp+4], edx
	mov	edx, DWORD PTR $T3[ebp+4]
	push	edx
	mov	eax, DWORD PTR $T3[ebp]
	push	eax
	call	?_Check_convert_result@filesystem@std@@YAHU__std_fs_convert_result@@@Z ; std::filesystem::_Check_convert_result
	add	esp, 8
$LN2@Convert_wi:

; 125  :                 _Code_page, _Input.data(), static_cast<int>(_Input.size()), _Data_as_char, _Len));
; 126  :         }
; 127  : 
; 128  :         return _Output;

	lea	eax, DWORD PTR __Output$[ebp]
	push	eax
	mov	ecx, DWORD PTR ___$ReturnUdt$[ebp]
	call	??0?$basic_string@DU?$char_traits@D@std@@V?$allocator@D@2@@std@@QAE@$$QAV01@@Z ; std::basic_string<char,std::char_traits<char>,std::allocator<char> >::basic_string<char,std::char_traits<char>,std::allocator<char> >
	mov	ecx, DWORD PTR $T2[ebp]
	or	ecx, 1
	mov	DWORD PTR $T2[ebp], ecx
	mov	DWORD PTR __$EHRec$[ebp+8], -1
	lea	ecx, DWORD PTR __Output$[ebp]
	call	??1?$basic_string@DU?$char_traits@D@std@@V?$allocator@D@2@@std@@QAE@XZ ; std::basic_string<char,std::char_traits<char>,std::allocator<char> >::~basic_string<char,std::char_traits<char>,std::allocator<char> >
	mov	eax, DWORD PTR ___$ReturnUdt$[ebp]
$LN4@Convert_wi:

; 129  :     }

	push	edx
	mov	ecx, ebp
	push	eax
	lea	edx, DWORD PTR $LN11@Convert_wi
	call	@_RTC_CheckStackVars@8
	pop	eax
	pop	edx
	mov	ecx, DWORD PTR __$EHRec$[ebp]
	mov	DWORD PTR fs:0, ecx
	pop	ecx
	pop	edi
	pop	esi
	pop	ebx
	mov	ecx, DWORD PTR __$ArrayPad$[ebp]
	xor	ecx, ebp
	call	@__security_check_cookie@4
	add	esp, 320				; 00000140H
	cmp	ebp, esp
	call	__RTC_CheckEsp
	mov	esp, ebp
	pop	ebp
	ret	0
	npad	3
$LN11@Convert_wi:
	DD	1
	DD	$LN10@Convert_wi
$LN10@Convert_wi:
	DD	-48					; ffffffd0H
	DD	28					; 0000001cH
	DD	$LN8@Convert_wi
$LN8@Convert_wi:
	DB	95					; 0000005fH
	DB	79					; 0000004fH
	DB	117					; 00000075H
	DB	116					; 00000074H
	DB	112					; 00000070H
	DB	117					; 00000075H
	DB	116					; 00000074H
	DB	0
_TEXT	ENDS
;	COMDAT text$x
text$x	SEGMENT
__unwindfunclet$??$_Convert_wide_to_narrow_replace_chars@U?$char_traits@D@std@@V?$allocator@D@2@@filesystem@std@@YA?AV?$basic_string@DU?$char_traits@D@std@@V?$allocator@D@2@@1@W4__std_code_page@@V?$basic_string_view@_WU?$char_traits@_W@std@@@1@ABV?$allocator@D@1@@Z$0:
	lea	ecx, DWORD PTR __Output$[ebp]
	jmp	??1?$basic_string@DU?$char_traits@D@std@@V?$allocator@D@2@@std@@QAE@XZ ; std::basic_string<char,std::char_traits<char>,std::allocator<char> >::~basic_string<char,std::char_traits<char>,std::allocator<char> >
	int	3
	int	3
	int	3
	int	3
	int	3
__ehhandler$??$_Convert_wide_to_narrow_replace_chars@U?$char_traits@D@std@@V?$allocator@D@2@@filesystem@std@@YA?AV?$basic_string@DU?$char_traits@D@std@@V?$allocator@D@2@@1@W4__std_code_page@@V?$basic_string_view@_WU?$char_traits@_W@std@@@1@ABV?$allocator@D@1@@Z:
	npad	1
	npad	1
	mov	edx, DWORD PTR [esp+8]
	lea	eax, DWORD PTR [edx+12]
	mov	ecx, DWORD PTR [edx-324]
	xor	ecx, eax
	call	@__security_check_cookie@4
	mov	ecx, DWORD PTR [edx-4]
	xor	ecx, eax
	call	@__security_check_cookie@4
	mov	eax, OFFSET __ehfuncinfo$??$_Convert_wide_to_narrow_replace_chars@U?$char_traits@D@std@@V?$allocator@D@2@@filesystem@std@@YA?AV?$basic_string@DU?$char_traits@D@std@@V?$allocator@D@2@@1@W4__std_code_page@@V?$basic_string_view@_WU?$char_traits@_W@std@@@1@ABV?$allocator@D@1@@Z
	jmp	___CxxFrameHandler3
text$x	ENDS
??$_Convert_wide_to_narrow_replace_chars@U?$char_traits@D@std@@V?$allocator@D@2@@filesystem@std@@YA?AV?$basic_string@DU?$char_traits@D@std@@V?$allocator@D@2@@1@W4__std_code_page@@V?$basic_string_view@_WU?$char_traits@_W@std@@@1@ABV?$allocator@D@1@@Z ENDP ; std::filesystem::_Convert_wide_to_narrow_replace_chars<std::char_traits<char>,std::allocator<char> >
; Function compile flags: /Odtp /RTCsu /ZI
;	COMDAT ??_Gfilesystem_error@filesystem@std@@UAEPAXI@Z
_TEXT	SEGMENT
_this$ = -8						; size = 4
___flags$ = 8						; size = 4
??_Gfilesystem_error@filesystem@std@@UAEPAXI@Z PROC	; std::filesystem::filesystem_error::`scalar deleting destructor', COMDAT
; _this$ = ecx
	push	ebp
	mov	ebp, esp
	sub	esp, 204				; 000000ccH
	push	ebx
	push	esi
	push	edi
	push	ecx
	lea	edi, DWORD PTR [ebp-204]
	mov	ecx, 51					; 00000033H
	mov	eax, -858993460				; ccccccccH
	rep stosd
	pop	ecx
	mov	DWORD PTR _this$[ebp], ecx
	mov	ecx, DWORD PTR _this$[ebp]
	call	??1filesystem_error@filesystem@std@@UAE@XZ
	mov	eax, DWORD PTR ___flags$[ebp]
	and	eax, 1
	je	SHORT $LN2@scalar
	push	104					; 00000068H
	mov	eax, DWORD PTR _this$[ebp]
	push	eax
	call	??3@YAXPAXI@Z				; operator delete
	add	esp, 8
$LN2@scalar:
	mov	eax, DWORD PTR _this$[ebp]
	pop	edi
	pop	esi
	pop	ebx
	add	esp, 204				; 000000ccH
	cmp	ebp, esp
	call	__RTC_CheckEsp
	mov	esp, ebp
	pop	ebp
	ret	4
??_Gfilesystem_error@filesystem@std@@UAEPAXI@Z ENDP	; std::filesystem::filesystem_error::`scalar deleting destructor'
_TEXT	ENDS
; Function compile flags: /Odtp /RTCsu /ZI
;	COMDAT ??0filesystem_error@filesystem@std@@QAE@ABV012@@Z
_TEXT	SEGMENT
tv141 = -220						; size = 4
tv132 = -220						; size = 4
tv91 = -220						; size = 4
_this$ = -20						; size = 4
__$EHRec$ = -12						; size = 12
___that$ = 8						; size = 4
??0filesystem_error@filesystem@std@@QAE@ABV012@@Z PROC	; std::filesystem::filesystem_error::filesystem_error, COMDAT
; _this$ = ecx
	push	ebp
	mov	ebp, esp
	push	-1
	push	__ehhandler$??0filesystem_error@filesystem@std@@QAE@ABV012@@Z
	mov	eax, DWORD PTR fs:0
	push	eax
	sub	esp, 208				; 000000d0H
	push	ebx
	push	esi
	push	edi
	push	ecx
	lea	edi, DWORD PTR [ebp-220]
	mov	ecx, 52					; 00000034H
	mov	eax, -858993460				; ccccccccH
	rep stosd
	pop	ecx
	mov	eax, DWORD PTR ___security_cookie
	xor	eax, ebp
	push	eax
	lea	eax, DWORD PTR __$EHRec$[ebp]
	mov	DWORD PTR fs:0, eax
	mov	DWORD PTR _this$[ebp], ecx
	mov	eax, DWORD PTR ___that$[ebp]
	push	eax
	mov	ecx, DWORD PTR _this$[ebp]
	call	??0system_error@std@@QAE@ABV01@@Z
	mov	DWORD PTR __$EHRec$[ebp+8], 0
	mov	eax, DWORD PTR _this$[ebp]
	mov	DWORD PTR [eax], OFFSET ??_7filesystem_error@filesystem@std@@6B@
	mov	eax, DWORD PTR _this$[ebp]
	add	eax, 20					; 00000014H
	mov	DWORD PTR tv91[ebp], eax
	mov	ecx, DWORD PTR ___that$[ebp]
	add	ecx, 20					; 00000014H
	push	ecx
	mov	ecx, DWORD PTR tv91[ebp]
	call	??0path@filesystem@std@@QAE@ABV012@@Z	; std::filesystem::path::path
	mov	BYTE PTR __$EHRec$[ebp+8], 1
	mov	eax, DWORD PTR _this$[ebp]
	add	eax, 48					; 00000030H
	mov	DWORD PTR tv132[ebp], eax
	mov	ecx, DWORD PTR ___that$[ebp]
	add	ecx, 48					; 00000030H
	push	ecx
	mov	ecx, DWORD PTR tv132[ebp]
	call	??0path@filesystem@std@@QAE@ABV012@@Z	; std::filesystem::path::path
	mov	BYTE PTR __$EHRec$[ebp+8], 2
	mov	eax, DWORD PTR _this$[ebp]
	add	eax, 76					; 0000004cH
	mov	DWORD PTR tv141[ebp], eax
	mov	ecx, DWORD PTR ___that$[ebp]
	add	ecx, 76					; 0000004cH
	push	ecx
	mov	ecx, DWORD PTR tv141[ebp]
	call	??0?$basic_string@DU?$char_traits@D@std@@V?$allocator@D@2@@std@@QAE@ABV01@@Z ; std::basic_string<char,std::char_traits<char>,std::allocator<char> >::basic_string<char,std::char_traits<char>,std::allocator<char> >
	mov	DWORD PTR __$EHRec$[ebp+8], -1
	mov	eax, DWORD PTR _this$[ebp]
	mov	ecx, DWORD PTR __$EHRec$[ebp]
	mov	DWORD PTR fs:0, ecx
	pop	ecx
	pop	edi
	pop	esi
	pop	ebx
	add	esp, 220				; 000000dcH
	cmp	ebp, esp
	call	__RTC_CheckEsp
	mov	esp, ebp
	pop	ebp
	ret	4
_TEXT	ENDS
;	COMDAT text$x
text$x	SEGMENT
__unwindfunclet$??0filesystem_error@filesystem@std@@QAE@ABV012@@Z$0:
	mov	ecx, DWORD PTR _this$[ebp]
	jmp	??1system_error@std@@UAE@XZ
__unwindfunclet$??0filesystem_error@filesystem@std@@QAE@ABV012@@Z$1:
	mov	ecx, DWORD PTR _this$[ebp]
	add	ecx, 20					; 00000014H
	jmp	??1path@filesystem@std@@QAE@XZ		; std::filesystem::path::~path
__unwindfunclet$??0filesystem_error@filesystem@std@@QAE@ABV012@@Z$2:
	mov	ecx, DWORD PTR _this$[ebp]
	add	ecx, 48					; 00000030H
	jmp	??1path@filesystem@std@@QAE@XZ		; std::filesystem::path::~path
	int	3
	int	3
	int	3
	int	3
	int	3
__ehhandler$??0filesystem_error@filesystem@std@@QAE@ABV012@@Z:
	npad	1
	npad	1
	mov	edx, DWORD PTR [esp+8]
	lea	eax, DWORD PTR [edx+12]
	mov	ecx, DWORD PTR [edx-224]
	xor	ecx, eax
	call	@__security_check_cookie@4
	mov	eax, OFFSET __ehfuncinfo$??0filesystem_error@filesystem@std@@QAE@ABV012@@Z
	jmp	___CxxFrameHandler3
text$x	ENDS
??0filesystem_error@filesystem@std@@QAE@ABV012@@Z ENDP	; std::filesystem::filesystem_error::filesystem_error
; Function compile flags: /Odtp /RTCsu /ZI
;	COMDAT ??1filesystem_error@filesystem@std@@UAE@XZ
_TEXT	SEGMENT
_this$ = -8						; size = 4
??1filesystem_error@filesystem@std@@UAE@XZ PROC		; std::filesystem::filesystem_error::~filesystem_error, COMDAT
; _this$ = ecx
	push	ebp
	mov	ebp, esp
	sub	esp, 204				; 000000ccH
	push	ebx
	push	esi
	push	edi
	push	ecx
	lea	edi, DWORD PTR [ebp-204]
	mov	ecx, 51					; 00000033H
	mov	eax, -858993460				; ccccccccH
	rep stosd
	pop	ecx
	mov	DWORD PTR _this$[ebp], ecx
	mov	ecx, DWORD PTR _this$[ebp]
	add	ecx, 76					; 0000004cH
	call	??1?$basic_string@DU?$char_traits@D@std@@V?$allocator@D@2@@std@@QAE@XZ ; std::basic_string<char,std::char_traits<char>,std::allocator<char> >::~basic_string<char,std::char_traits<char>,std::allocator<char> >
	mov	ecx, DWORD PTR _this$[ebp]
	add	ecx, 48					; 00000030H
	call	??1path@filesystem@std@@QAE@XZ		; std::filesystem::path::~path
	mov	ecx, DWORD PTR _this$[ebp]
	add	ecx, 20					; 00000014H
	call	??1path@filesystem@std@@QAE@XZ		; std::filesystem::path::~path
	mov	ecx, DWORD PTR _this$[ebp]
	call	??1system_error@std@@UAE@XZ
	pop	edi
	pop	esi
	pop	ebx
	add	esp, 204				; 000000ccH
	cmp	ebp, esp
	call	__RTC_CheckEsp
	mov	esp, ebp
	pop	ebp
	ret	0
??1filesystem_error@filesystem@std@@UAE@XZ ENDP		; std::filesystem::filesystem_error::~filesystem_error
_TEXT	ENDS
; Function compile flags: /Odtp /RTCsu /ZI
; File C:\Program Files (x86)\Microsoft Visual Studio\2019\Professional\VC\Tools\MSVC\14.28.29333\include\filesystem
;	COMDAT ?_Pretty_message@filesystem_error@filesystem@std@@CA?AV?$basic_string@DU?$char_traits@D@std@@V?$allocator@D@2@@3@V?$basic_string_view@DU?$char_traits@D@std@@@3@ABVpath@23@1@Z
_TEXT	SEGMENT
tv128 = -480						; size = 4
tv78 = -480						; size = 4
tv143 = -476						; size = 4
tv134 = -476						; size = 4
tv84 = -476						; size = 4
$T2 = -468						; size = 4
$T3 = -456						; size = 8
$T4 = -440						; size = 8
$T5 = -424						; size = 8
$T6 = -404						; size = 8
$T7 = -385						; size = 1
$T8 = -376						; size = 8
$T9 = -356						; size = 8
$T10 = -337						; size = 1
__Path2_str$ = -136					; size = 28
__Path1_str$ = -100					; size = 28
__Code_page$ = -64					; size = 4
__Result$ = -52						; size = 28
__$ArrayPad$ = -20					; size = 4
__$EHRec$ = -12						; size = 12
___$ReturnUdt$ = 8					; size = 4
__Op$ = 12						; size = 8
__Path1$ = 20						; size = 4
__Path2$ = 24						; size = 4
?_Pretty_message@filesystem_error@filesystem@std@@CA?AV?$basic_string@DU?$char_traits@D@std@@V?$allocator@D@2@@3@V?$basic_string_view@DU?$char_traits@D@std@@@3@ABVpath@23@1@Z PROC ; std::filesystem::filesystem_error::_Pretty_message, COMDAT

; 1812 :         static string _Pretty_message(const string_view _Op, const path& _Path1, const path& _Path2 = {}) {

	push	ebx
	mov	ebx, esp
	sub	esp, 8
	and	esp, -8					; fffffff8H
	add	esp, 4
	push	ebp
	mov	ebp, DWORD PTR [ebx+4]
	mov	DWORD PTR [esp+4], ebp
	mov	ebp, esp
	push	-1
	push	__ehhandler$?_Pretty_message@filesystem_error@filesystem@std@@CA?AV?$basic_string@DU?$char_traits@D@std@@V?$allocator@D@2@@3@V?$basic_string_view@DU?$char_traits@D@std@@@3@ABVpath@23@1@Z
	mov	eax, DWORD PTR fs:0
	push	eax
	push	ebx
	sub	esp, 464				; 000001d0H
	push	esi
	push	edi
	lea	edi, DWORD PTR [ebp-480]
	mov	ecx, 116				; 00000074H
	mov	eax, -858993460				; ccccccccH
	rep stosd
	mov	eax, DWORD PTR ___security_cookie
	xor	eax, ebp
	mov	DWORD PTR __$ArrayPad$[ebp], eax
	push	eax
	lea	eax, DWORD PTR __$EHRec$[ebp]
	mov	DWORD PTR fs:0, eax
	mov	DWORD PTR $T2[ebp], 0
	mov	ecx, OFFSET __A704387C_filesystem
	call	@__CheckForDebuggerJustMyCode@4

; 1813 :             using namespace _STD string_view_literals; // TRANSITION, VSO-571749
; 1814 :             string _Result;

	lea	ecx, DWORD PTR __Result$[ebp]
	call	??0?$basic_string@DU?$char_traits@D@std@@V?$allocator@D@2@@std@@QAE@XZ ; std::basic_string<char,std::char_traits<char>,std::allocator<char> >::basic_string<char,std::char_traits<char>,std::allocator<char> >
	mov	DWORD PTR __$EHRec$[ebp+8], 0

; 1815 :             // Convert the paths to narrow encoding in a way that gracefully handles non-encodable characters
; 1816 :             const auto _Code_page   = __std_fs_code_page();

	call	___std_fs_code_page@0
	mov	DWORD PTR __Code_page$[ebp], eax

; 1817 :             const string _Path1_str = _Convert_wide_to_narrow_replace_chars<char_traits<char>>(

	lea	ecx, DWORD PTR $T10[ebp]
	call	??0?$allocator@D@std@@QAE@XZ		; std::allocator<char>::allocator<char>
	mov	DWORD PTR tv84[ebp], eax
	mov	ecx, DWORD PTR __Path1$[ebx]
	call	?native@path@filesystem@std@@QBEABV?$basic_string@_WU?$char_traits@_W@std@@V?$allocator@_W@2@@3@XZ ; std::filesystem::path::native
	mov	DWORD PTR tv78[ebp], eax
	lea	eax, DWORD PTR $T9[ebp]
	push	eax
	mov	ecx, DWORD PTR tv78[ebp]
	call	??B?$basic_string@_WU?$char_traits@_W@std@@V?$allocator@_W@2@@std@@QBE?AV?$basic_string_view@_WU?$char_traits@_W@std@@@1@XZ ; std::basic_string<wchar_t,std::char_traits<wchar_t>,std::allocator<wchar_t> >::operator std::basic_string_view<wchar_t,std::char_traits<wchar_t> >
	mov	ecx, DWORD PTR [eax]
	mov	edx, DWORD PTR [eax+4]
	mov	DWORD PTR $T8[ebp], ecx
	mov	DWORD PTR $T8[ebp+4], edx
	mov	eax, DWORD PTR tv84[ebp]
	push	eax
	mov	ecx, DWORD PTR $T8[ebp+4]
	push	ecx
	mov	edx, DWORD PTR $T8[ebp]
	push	edx
	mov	eax, DWORD PTR __Code_page$[ebp]
	push	eax
	lea	ecx, DWORD PTR __Path1_str$[ebp]
	push	ecx
	call	??$_Convert_wide_to_narrow_replace_chars@U?$char_traits@D@std@@V?$allocator@D@2@@filesystem@std@@YA?AV?$basic_string@DU?$char_traits@D@std@@V?$allocator@D@2@@1@W4__std_code_page@@V?$basic_string_view@_WU?$char_traits@_W@std@@@1@ABV?$allocator@D@1@@Z ; std::filesystem::_Convert_wide_to_narrow_replace_chars<std::char_traits<char>,std::allocator<char> >
	add	esp, 20					; 00000014H
	mov	BYTE PTR __$EHRec$[ebp+8], 1

; 1818 :                 _Code_page, _Path1.native(), allocator<char>{});
; 1819 :             const string _Path2_str = _Convert_wide_to_narrow_replace_chars<char_traits<char>>(

	lea	ecx, DWORD PTR $T7[ebp]
	call	??0?$allocator@D@std@@QAE@XZ		; std::allocator<char>::allocator<char>
	mov	DWORD PTR tv134[ebp], eax
	mov	ecx, DWORD PTR __Path2$[ebx]
	call	?native@path@filesystem@std@@QBEABV?$basic_string@_WU?$char_traits@_W@std@@V?$allocator@_W@2@@3@XZ ; std::filesystem::path::native
	mov	DWORD PTR tv128[ebp], eax
	lea	eax, DWORD PTR $T6[ebp]
	push	eax
	mov	ecx, DWORD PTR tv128[ebp]
	call	??B?$basic_string@_WU?$char_traits@_W@std@@V?$allocator@_W@2@@std@@QBE?AV?$basic_string_view@_WU?$char_traits@_W@std@@@1@XZ ; std::basic_string<wchar_t,std::char_traits<wchar_t>,std::allocator<wchar_t> >::operator std::basic_string_view<wchar_t,std::char_traits<wchar_t> >
	mov	ecx, DWORD PTR [eax]
	mov	edx, DWORD PTR [eax+4]
	mov	DWORD PTR $T5[ebp], ecx
	mov	DWORD PTR $T5[ebp+4], edx
	mov	eax, DWORD PTR tv134[ebp]
	push	eax
	mov	ecx, DWORD PTR $T5[ebp+4]
	push	ecx
	mov	edx, DWORD PTR $T5[ebp]
	push	edx
	mov	eax, DWORD PTR __Code_page$[ebp]
	push	eax
	lea	ecx, DWORD PTR __Path2_str$[ebp]
	push	ecx
	call	??$_Convert_wide_to_narrow_replace_chars@U?$char_traits@D@std@@V?$allocator@D@2@@filesystem@std@@YA?AV?$basic_string@DU?$char_traits@D@std@@V?$allocator@D@2@@1@W4__std_code_page@@V?$basic_string_view@_WU?$char_traits@_W@std@@@1@ABV?$allocator@D@1@@Z ; std::filesystem::_Convert_wide_to_narrow_replace_chars<std::char_traits<char>,std::allocator<char> >
	add	esp, 20					; 00000014H
	mov	BYTE PTR __$EHRec$[ebp+8], 2

; 1820 :                 _Code_page, _Path2.native(), allocator<char>{});
; 1821 :             _Result.reserve(_Op.size() + (_Path2_str.empty() ? 4 : 8) + _Path1_str.size() + _Path2_str.size());

	lea	ecx, DWORD PTR __Path2_str$[ebp]
	call	?empty@?$basic_string@DU?$char_traits@D@std@@V?$allocator@D@2@@std@@QBE_NXZ ; std::basic_string<char,std::char_traits<char>,std::allocator<char> >::empty
	movzx	eax, al
	test	eax, eax
	je	SHORT $LN4@Pretty_mes
	mov	DWORD PTR tv143[ebp], 4
	jmp	SHORT $LN5@Pretty_mes
$LN4@Pretty_mes:
	mov	DWORD PTR tv143[ebp], 8
$LN5@Pretty_mes:
	lea	ecx, DWORD PTR __Op$[ebx]
	call	?size@?$basic_string_view@DU?$char_traits@D@std@@@std@@QBEIXZ ; std::basic_string_view<char,std::char_traits<char> >::size
	mov	esi, eax
	add	esi, DWORD PTR tv143[ebp]
	lea	ecx, DWORD PTR __Path1_str$[ebp]
	call	?size@?$basic_string@DU?$char_traits@D@std@@V?$allocator@D@2@@std@@QBEIXZ ; std::basic_string<char,std::char_traits<char>,std::allocator<char> >::size
	add	esi, eax
	lea	ecx, DWORD PTR __Path2_str$[ebp]
	call	?size@?$basic_string@DU?$char_traits@D@std@@V?$allocator@D@2@@std@@QBEIXZ ; std::basic_string<char,std::char_traits<char>,std::allocator<char> >::size
	add	esi, eax
	push	esi
	lea	ecx, DWORD PTR __Result$[ebp]
	call	?reserve@?$basic_string@DU?$char_traits@D@std@@V?$allocator@D@2@@std@@QAEXI@Z ; std::basic_string<char,std::char_traits<char>,std::allocator<char> >::reserve

; 1822 :             _Result += _Op;

	lea	eax, DWORD PTR __Op$[ebx]
	push	eax
	lea	ecx, DWORD PTR __Result$[ebp]
	call	??$?YV?$basic_string_view@DU?$char_traits@D@std@@@std@@$0A@@?$basic_string@DU?$char_traits@D@std@@V?$allocator@D@2@@std@@QAEAAV01@ABV?$basic_string_view@DU?$char_traits@D@std@@@1@@Z ; std::basic_string<char,std::char_traits<char>,std::allocator<char> >::operator+=<std::basic_string_view<char,std::char_traits<char> >,0>

; 1823 :             _Result += R"(: ")"sv; // 3 chars

	push	3
	push	OFFSET ??_C@_03NONCDIOG@?3?5?$CC@
	lea	eax, DWORD PTR $T4[ebp]
	push	eax
	call	??__Ksv@string_view_literals@literals@std@@YA?AV?$basic_string_view@DU?$char_traits@D@std@@@3@PBDI@Z ; std::literals::string_view_literals::operator "" sv
	add	esp, 12					; 0000000cH
	push	eax
	lea	ecx, DWORD PTR __Result$[ebp]
	call	??$?YV?$basic_string_view@DU?$char_traits@D@std@@@std@@$0A@@?$basic_string@DU?$char_traits@D@std@@V?$allocator@D@2@@std@@QAEAAV01@ABV?$basic_string_view@DU?$char_traits@D@std@@@1@@Z ; std::basic_string<char,std::char_traits<char>,std::allocator<char> >::operator+=<std::basic_string_view<char,std::char_traits<char> >,0>

; 1824 :             _Result += _Path1_str;

	lea	eax, DWORD PTR __Path1_str$[ebp]
	push	eax
	lea	ecx, DWORD PTR __Result$[ebp]
	call	??Y?$basic_string@DU?$char_traits@D@std@@V?$allocator@D@2@@std@@QAEAAV01@ABV01@@Z ; std::basic_string<char,std::char_traits<char>,std::allocator<char> >::operator+=

; 1825 :             if (!_Path2_str.empty()) {

	lea	ecx, DWORD PTR __Path2_str$[ebp]
	call	?empty@?$basic_string@DU?$char_traits@D@std@@V?$allocator@D@2@@std@@QBE_NXZ ; std::basic_string<char,std::char_traits<char>,std::allocator<char> >::empty
	movzx	eax, al
	test	eax, eax
	jne	SHORT $LN2@Pretty_mes

; 1826 :                 _Result += R"(", ")"sv; // 4 chars

	push	4
	push	OFFSET ??_C@_04PHMHGEMA@?$CC?0?5?$CC@
	lea	eax, DWORD PTR $T3[ebp]
	push	eax
	call	??__Ksv@string_view_literals@literals@std@@YA?AV?$basic_string_view@DU?$char_traits@D@std@@@3@PBDI@Z ; std::literals::string_view_literals::operator "" sv
	add	esp, 12					; 0000000cH
	push	eax
	lea	ecx, DWORD PTR __Result$[ebp]
	call	??$?YV?$basic_string_view@DU?$char_traits@D@std@@@std@@$0A@@?$basic_string@DU?$char_traits@D@std@@V?$allocator@D@2@@std@@QAEAAV01@ABV?$basic_string_view@DU?$char_traits@D@std@@@1@@Z ; std::basic_string<char,std::char_traits<char>,std::allocator<char> >::operator+=<std::basic_string_view<char,std::char_traits<char> >,0>

; 1827 :                 _Result += _Path2_str;

	lea	eax, DWORD PTR __Path2_str$[ebp]
	push	eax
	lea	ecx, DWORD PTR __Result$[ebp]
	call	??Y?$basic_string@DU?$char_traits@D@std@@V?$allocator@D@2@@std@@QAEAAV01@ABV01@@Z ; std::basic_string<char,std::char_traits<char>,std::allocator<char> >::operator+=
$LN2@Pretty_mes:

; 1828 :             }
; 1829 :             _Result += '"'; // 1 char

	push	34					; 00000022H
	lea	ecx, DWORD PTR __Result$[ebp]
	call	??Y?$basic_string@DU?$char_traits@D@std@@V?$allocator@D@2@@std@@QAEAAV01@D@Z ; std::basic_string<char,std::char_traits<char>,std::allocator<char> >::operator+=

; 1830 :             return _Result;

	lea	eax, DWORD PTR __Result$[ebp]
	push	eax
	mov	ecx, DWORD PTR ___$ReturnUdt$[ebx]
	call	??0?$basic_string@DU?$char_traits@D@std@@V?$allocator@D@2@@std@@QAE@$$QAV01@@Z ; std::basic_string<char,std::char_traits<char>,std::allocator<char> >::basic_string<char,std::char_traits<char>,std::allocator<char> >
	mov	ecx, DWORD PTR $T2[ebp]
	or	ecx, 1
	mov	DWORD PTR $T2[ebp], ecx
	mov	BYTE PTR __$EHRec$[ebp+8], 1
	lea	ecx, DWORD PTR __Path2_str$[ebp]
	call	??1?$basic_string@DU?$char_traits@D@std@@V?$allocator@D@2@@std@@QAE@XZ ; std::basic_string<char,std::char_traits<char>,std::allocator<char> >::~basic_string<char,std::char_traits<char>,std::allocator<char> >
	mov	BYTE PTR __$EHRec$[ebp+8], 0
	lea	ecx, DWORD PTR __Path1_str$[ebp]
	call	??1?$basic_string@DU?$char_traits@D@std@@V?$allocator@D@2@@std@@QAE@XZ ; std::basic_string<char,std::char_traits<char>,std::allocator<char> >::~basic_string<char,std::char_traits<char>,std::allocator<char> >
	mov	DWORD PTR __$EHRec$[ebp+8], -1
	lea	ecx, DWORD PTR __Result$[ebp]
	call	??1?$basic_string@DU?$char_traits@D@std@@V?$allocator@D@2@@std@@QAE@XZ ; std::basic_string<char,std::char_traits<char>,std::allocator<char> >::~basic_string<char,std::char_traits<char>,std::allocator<char> >
	mov	eax, DWORD PTR ___$ReturnUdt$[ebx]

; 1831 :         }

	push	edx
	mov	ecx, ebp
	push	eax
	lea	edx, DWORD PTR $LN16@Pretty_mes
	call	@_RTC_CheckStackVars@8
	pop	eax
	pop	edx
	mov	ecx, DWORD PTR __$EHRec$[ebp]
	mov	DWORD PTR fs:0, ecx
	pop	ecx
	pop	edi
	pop	esi
	mov	ecx, DWORD PTR __$ArrayPad$[ebp]
	xor	ecx, ebp
	call	@__security_check_cookie@4
	mov	esp, ebp
	pop	ebp
	mov	esp, ebx
	pop	ebx
	ret	0
	npad	1
$LN16@Pretty_mes:
	DD	3
	DD	$LN15@Pretty_mes
$LN15@Pretty_mes:
	DD	-52					; ffffffccH
	DD	28					; 0000001cH
	DD	$LN11@Pretty_mes
	DD	-100					; ffffff9cH
	DD	28					; 0000001cH
	DD	$LN12@Pretty_mes
	DD	-136					; ffffff78H
	DD	28					; 0000001cH
	DD	$LN13@Pretty_mes
$LN13@Pretty_mes:
	DB	95					; 0000005fH
	DB	80					; 00000050H
	DB	97					; 00000061H
	DB	116					; 00000074H
	DB	104					; 00000068H
	DB	50					; 00000032H
	DB	95					; 0000005fH
	DB	115					; 00000073H
	DB	116					; 00000074H
	DB	114					; 00000072H
	DB	0
$LN12@Pretty_mes:
	DB	95					; 0000005fH
	DB	80					; 00000050H
	DB	97					; 00000061H
	DB	116					; 00000074H
	DB	104					; 00000068H
	DB	49					; 00000031H
	DB	95					; 0000005fH
	DB	115					; 00000073H
	DB	116					; 00000074H
	DB	114					; 00000072H
	DB	0
$LN11@Pretty_mes:
	DB	95					; 0000005fH
	DB	82					; 00000052H
	DB	101					; 00000065H
	DB	115					; 00000073H
	DB	117					; 00000075H
	DB	108					; 0000006cH
	DB	116					; 00000074H
	DB	0
_TEXT	ENDS
;	COMDAT text$x
text$x	SEGMENT
__unwindfunclet$?_Pretty_message@filesystem_error@filesystem@std@@CA?AV?$basic_string@DU?$char_traits@D@std@@V?$allocator@D@2@@3@V?$basic_string_view@DU?$char_traits@D@std@@@3@ABVpath@23@1@Z$0:
	lea	ecx, DWORD PTR __Result$[ebp]
	jmp	??1?$basic_string@DU?$char_traits@D@std@@V?$allocator@D@2@@std@@QAE@XZ ; std::basic_string<char,std::char_traits<char>,std::allocator<char> >::~basic_string<char,std::char_traits<char>,std::allocator<char> >
__unwindfunclet$?_Pretty_message@filesystem_error@filesystem@std@@CA?AV?$basic_string@DU?$char_traits@D@std@@V?$allocator@D@2@@3@V?$basic_string_view@DU?$char_traits@D@std@@@3@ABVpath@23@1@Z$1:
	lea	ecx, DWORD PTR __Path1_str$[ebp]
	jmp	??1?$basic_string@DU?$char_traits@D@std@@V?$allocator@D@2@@std@@QAE@XZ ; std::basic_string<char,std::char_traits<char>,std::allocator<char> >::~basic_string<char,std::char_traits<char>,std::allocator<char> >
__unwindfunclet$?_Pretty_message@filesystem_error@filesystem@std@@CA?AV?$basic_string@DU?$char_traits@D@std@@V?$allocator@D@2@@3@V?$basic_string_view@DU?$char_traits@D@std@@@3@ABVpath@23@1@Z$2:
	lea	ecx, DWORD PTR __Path2_str$[ebp]
	jmp	??1?$basic_string@DU?$char_traits@D@std@@V?$allocator@D@2@@std@@QAE@XZ ; std::basic_string<char,std::char_traits<char>,std::allocator<char> >::~basic_string<char,std::char_traits<char>,std::allocator<char> >
	int	3
	int	3
	int	3
	int	3
	int	3
__ehhandler$?_Pretty_message@filesystem_error@filesystem@std@@CA?AV?$basic_string@DU?$char_traits@D@std@@V?$allocator@D@2@@3@V?$basic_string_view@DU?$char_traits@D@std@@@3@ABVpath@23@1@Z:
	npad	1
	npad	1
	mov	edx, DWORD PTR [esp+8]
	lea	eax, DWORD PTR [edx+12]
	mov	ecx, DWORD PTR [edx-480]
	xor	ecx, eax
	call	@__security_check_cookie@4
	mov	ecx, DWORD PTR [edx-8]
	xor	ecx, eax
	call	@__security_check_cookie@4
	mov	eax, OFFSET __ehfuncinfo$?_Pretty_message@filesystem_error@filesystem@std@@CA?AV?$basic_string@DU?$char_traits@D@std@@V?$allocator@D@2@@3@V?$basic_string_view@DU?$char_traits@D@std@@@3@ABVpath@23@1@Z
	jmp	___CxxFrameHandler3
text$x	ENDS
?_Pretty_message@filesystem_error@filesystem@std@@CA?AV?$basic_string@DU?$char_traits@D@std@@V?$allocator@D@2@@3@V?$basic_string_view@DU?$char_traits@D@std@@@3@ABVpath@23@1@Z ENDP ; std::filesystem::filesystem_error::_Pretty_message
; Function compile flags: /Odtp /RTCsu /ZI
; File C:\Program Files (x86)\Microsoft Visual Studio\2019\Professional\VC\Tools\MSVC\14.28.29333\include\filesystem
;	COMDAT ?what@filesystem_error@filesystem@std@@UBEPBDXZ
_TEXT	SEGMENT
_this$ = -8						; size = 4
?what@filesystem_error@filesystem@std@@UBEPBDXZ PROC	; std::filesystem::filesystem_error::what, COMDAT
; _this$ = ecx

; 1807 :         _NODISCARD virtual const char* what() const noexcept override {

	push	ebp
	mov	ebp, esp
	sub	esp, 204				; 000000ccH
	push	ebx
	push	esi
	push	edi
	push	ecx
	lea	edi, DWORD PTR [ebp-204]
	mov	ecx, 51					; 00000033H
	mov	eax, -858993460				; ccccccccH
	rep stosd
	pop	ecx
	mov	DWORD PTR _this$[ebp], ecx
	mov	ecx, OFFSET __A704387C_filesystem
	call	@__CheckForDebuggerJustMyCode@4

; 1808 :             return _What.c_str();

	mov	ecx, DWORD PTR _this$[ebp]
	add	ecx, 76					; 0000004cH
	call	?c_str@?$basic_string@DU?$char_traits@D@std@@V?$allocator@D@2@@std@@QBEPBDXZ ; std::basic_string<char,std::char_traits<char>,std::allocator<char> >::c_str

; 1809 :         }

	pop	edi
	pop	esi
	pop	ebx
	add	esp, 204				; 000000ccH
	cmp	ebp, esp
	call	__RTC_CheckEsp
	mov	esp, ebp
	pop	ebp
	ret	0
?what@filesystem_error@filesystem@std@@UBEPBDXZ ENDP	; std::filesystem::filesystem_error::what
_TEXT	ENDS
; Function compile flags: /Odtp /RTCsu /ZI
; File C:\Program Files (x86)\Microsoft Visual Studio\2019\Professional\VC\Tools\MSVC\14.28.29333\include\filesystem
;	COMDAT ??0filesystem_error@filesystem@std@@QAE@ABV?$basic_string@DU?$char_traits@D@std@@V?$allocator@D@2@@2@ABVpath@12@Verror_code@2@@Z
_TEXT	SEGMENT
tv87 = -268						; size = 4
$T2 = -260						; size = 4
$T3 = -248						; size = 28
_this$ = -20						; size = 4
__$EHRec$ = -12						; size = 12
__Message$ = 8						; size = 4
__Path1_arg$ = 12					; size = 4
__Errcode$ = 16						; size = 8
??0filesystem_error@filesystem@std@@QAE@ABV?$basic_string@DU?$char_traits@D@std@@V?$allocator@D@2@@2@ABVpath@12@Verror_code@2@@Z PROC ; std::filesystem::filesystem_error::filesystem_error, COMDAT
; _this$ = ecx

; 1792 :               _What(_Pretty_message(runtime_error::what(), _Path1_arg)) {}

	push	ebp
	mov	ebp, esp
	push	-1
	push	__ehhandler$??0filesystem_error@filesystem@std@@QAE@ABV?$basic_string@DU?$char_traits@D@std@@V?$allocator@D@2@@2@ABVpath@12@Verror_code@2@@Z
	mov	eax, DWORD PTR fs:0
	push	eax
	sub	esp, 256				; 00000100H
	push	ebx
	push	esi
	push	edi
	push	ecx
	lea	edi, DWORD PTR [ebp-268]
	mov	ecx, 64					; 00000040H
	mov	eax, -858993460				; ccccccccH
	rep stosd
	pop	ecx
	mov	eax, DWORD PTR ___security_cookie
	xor	eax, ebp
	push	eax
	lea	eax, DWORD PTR __$EHRec$[ebp]
	mov	DWORD PTR fs:0, eax
	mov	DWORD PTR _this$[ebp], ecx
	mov	ecx, OFFSET __A704387C_filesystem
	call	@__CheckForDebuggerJustMyCode@4

; 1791 :             : system_error(_Errcode, _Message), _Path1(_Path1_arg), _Path2(),

	mov	eax, DWORD PTR __Message$[ebp]
	push	eax
	mov	ecx, DWORD PTR __Errcode$[ebp+4]
	push	ecx
	mov	edx, DWORD PTR __Errcode$[ebp]
	push	edx
	mov	ecx, DWORD PTR _this$[ebp]
	call	??0system_error@std@@QAE@Verror_code@1@ABV?$basic_string@DU?$char_traits@D@std@@V?$allocator@D@2@@1@@Z ; std::system_error::system_error
	mov	DWORD PTR __$EHRec$[ebp+8], 0

; 1792 :               _What(_Pretty_message(runtime_error::what(), _Path1_arg)) {}

	mov	eax, DWORD PTR _this$[ebp]
	mov	DWORD PTR [eax], OFFSET ??_7filesystem_error@filesystem@std@@6B@

; 1791 :             : system_error(_Errcode, _Message), _Path1(_Path1_arg), _Path2(),

	mov	eax, DWORD PTR _this$[ebp]
	add	eax, 20					; 00000014H
	mov	DWORD PTR tv87[ebp], eax
	mov	ecx, DWORD PTR __Path1_arg$[ebp]
	push	ecx
	mov	ecx, DWORD PTR tv87[ebp]
	call	??0path@filesystem@std@@QAE@ABV012@@Z	; std::filesystem::path::path
	mov	BYTE PTR __$EHRec$[ebp+8], 1
	xor	eax, eax
	mov	ecx, DWORD PTR _this$[ebp]
	add	ecx, 48					; 00000030H
	mov	DWORD PTR [ecx], eax
	mov	DWORD PTR [ecx+4], eax
	mov	DWORD PTR [ecx+8], eax
	mov	DWORD PTR [ecx+12], eax
	mov	DWORD PTR [ecx+16], eax
	mov	DWORD PTR [ecx+20], eax
	mov	DWORD PTR [ecx+24], eax
	mov	ecx, DWORD PTR _this$[ebp]
	add	ecx, 48					; 00000030H
	call	??0path@filesystem@std@@QAE@XZ		; std::filesystem::path::path
	mov	BYTE PTR __$EHRec$[ebp+8], 2

; 1792 :               _What(_Pretty_message(runtime_error::what(), _Path1_arg)) {}

	xor	eax, eax
	mov	DWORD PTR $T3[ebp], eax
	mov	DWORD PTR $T3[ebp+4], eax
	mov	DWORD PTR $T3[ebp+8], eax
	mov	DWORD PTR $T3[ebp+12], eax
	mov	DWORD PTR $T3[ebp+16], eax
	mov	DWORD PTR $T3[ebp+20], eax
	mov	DWORD PTR $T3[ebp+24], eax
	lea	ecx, DWORD PTR $T3[ebp]
	call	??0path@filesystem@std@@QAE@XZ		; std::filesystem::path::path
	mov	BYTE PTR __$EHRec$[ebp+8], 3
	lea	ecx, DWORD PTR $T3[ebp]
	push	ecx
	mov	edx, DWORD PTR __Path1_arg$[ebp]
	push	edx
	sub	esp, 8
	mov	esi, esp
	mov	DWORD PTR $T2[ebp], esp
	mov	ecx, DWORD PTR _this$[ebp]
	call	?what@exception@std@@UBEPBDXZ		; std::exception::what
	push	eax
	mov	ecx, esi
	call	??0?$basic_string_view@DU?$char_traits@D@std@@@std@@QAE@QBD@Z ; std::basic_string_view<char,std::char_traits<char> >::basic_string_view<char,std::char_traits<char> >
	mov	eax, DWORD PTR _this$[ebp]
	add	eax, 76					; 0000004cH
	push	eax
	call	?_Pretty_message@filesystem_error@filesystem@std@@CA?AV?$basic_string@DU?$char_traits@D@std@@V?$allocator@D@2@@3@V?$basic_string_view@DU?$char_traits@D@std@@@3@ABVpath@23@1@Z ; std::filesystem::filesystem_error::_Pretty_message
	add	esp, 20					; 00000014H
	mov	BYTE PTR __$EHRec$[ebp+8], 2
	lea	ecx, DWORD PTR $T3[ebp]
	call	??1path@filesystem@std@@QAE@XZ		; std::filesystem::path::~path
	mov	DWORD PTR __$EHRec$[ebp+8], -1
	mov	eax, DWORD PTR _this$[ebp]
	mov	ecx, DWORD PTR __$EHRec$[ebp]
	mov	DWORD PTR fs:0, ecx
	pop	ecx
	pop	edi
	pop	esi
	pop	ebx
	add	esp, 268				; 0000010cH
	cmp	ebp, esp
	call	__RTC_CheckEsp
	mov	esp, ebp
	pop	ebp
	ret	16					; 00000010H
_TEXT	ENDS
;	COMDAT text$x
text$x	SEGMENT
__unwindfunclet$??0filesystem_error@filesystem@std@@QAE@ABV?$basic_string@DU?$char_traits@D@std@@V?$allocator@D@2@@2@ABVpath@12@Verror_code@2@@Z$0:
	mov	ecx, DWORD PTR _this$[ebp]
	jmp	??1system_error@std@@UAE@XZ
__unwindfunclet$??0filesystem_error@filesystem@std@@QAE@ABV?$basic_string@DU?$char_traits@D@std@@V?$allocator@D@2@@2@ABVpath@12@Verror_code@2@@Z$1:
	mov	ecx, DWORD PTR _this$[ebp]
	add	ecx, 20					; 00000014H
	jmp	??1path@filesystem@std@@QAE@XZ		; std::filesystem::path::~path
__unwindfunclet$??0filesystem_error@filesystem@std@@QAE@ABV?$basic_string@DU?$char_traits@D@std@@V?$allocator@D@2@@2@ABVpath@12@Verror_code@2@@Z$2:
	mov	ecx, DWORD PTR _this$[ebp]
	add	ecx, 48					; 00000030H
	jmp	??1path@filesystem@std@@QAE@XZ		; std::filesystem::path::~path
__unwindfunclet$??0filesystem_error@filesystem@std@@QAE@ABV?$basic_string@DU?$char_traits@D@std@@V?$allocator@D@2@@2@ABVpath@12@Verror_code@2@@Z$3:
	lea	ecx, DWORD PTR $T3[ebp]
	jmp	??1path@filesystem@std@@QAE@XZ		; std::filesystem::path::~path
	int	3
	int	3
	int	3
	int	3
	int	3
__ehhandler$??0filesystem_error@filesystem@std@@QAE@ABV?$basic_string@DU?$char_traits@D@std@@V?$allocator@D@2@@2@ABVpath@12@Verror_code@2@@Z:
	npad	1
	npad	1
	mov	edx, DWORD PTR [esp+8]
	lea	eax, DWORD PTR [edx+12]
	mov	ecx, DWORD PTR [edx-272]
	xor	ecx, eax
	call	@__security_check_cookie@4
	mov	eax, OFFSET __ehfuncinfo$??0filesystem_error@filesystem@std@@QAE@ABV?$basic_string@DU?$char_traits@D@std@@V?$allocator@D@2@@2@ABVpath@12@Verror_code@2@@Z
	jmp	___CxxFrameHandler3
text$x	ENDS
??0filesystem_error@filesystem@std@@QAE@ABV?$basic_string@DU?$char_traits@D@std@@V?$allocator@D@2@@2@ABVpath@12@Verror_code@2@@Z ENDP ; std::filesystem::filesystem_error::filesystem_error
; Function compile flags: /Odtp /RTCsu /ZI
; File C:\Program Files (x86)\Microsoft Visual Studio\2019\Professional\VC\Tools\MSVC\14.28.29333\include\filesystem
;	COMDAT ?c_str@path@filesystem@std@@QBEPB_WXZ
_TEXT	SEGMENT
_this$ = -8						; size = 4
?c_str@path@filesystem@std@@QBEPB_WXZ PROC		; std::filesystem::path::c_str, COMDAT
; _this$ = ecx

; 982  :         _NODISCARD const value_type* c_str() const noexcept {

	push	ebp
	mov	ebp, esp
	sub	esp, 204				; 000000ccH
	push	ebx
	push	esi
	push	edi
	push	ecx
	lea	edi, DWORD PTR [ebp-204]
	mov	ecx, 51					; 00000033H
	mov	eax, -858993460				; ccccccccH
	rep stosd
	pop	ecx
	mov	DWORD PTR _this$[ebp], ecx
	mov	ecx, OFFSET __A704387C_filesystem
	call	@__CheckForDebuggerJustMyCode@4

; 983  :             // return a NTCTS to the internally stored path in the native format
; 984  :             return _Text.c_str();

	mov	ecx, DWORD PTR _this$[ebp]
	call	?c_str@?$basic_string@_WU?$char_traits@_W@std@@V?$allocator@_W@2@@std@@QBEPB_WXZ ; std::basic_string<wchar_t,std::char_traits<wchar_t>,std::allocator<wchar_t> >::c_str

; 985  :         }

	pop	edi
	pop	esi
	pop	ebx
	add	esp, 204				; 000000ccH
	cmp	ebp, esp
	call	__RTC_CheckEsp
	mov	esp, ebp
	pop	ebp
	ret	0
?c_str@path@filesystem@std@@QBEPB_WXZ ENDP		; std::filesystem::path::c_str
_TEXT	ENDS
; Function compile flags: /Odtp /RTCsu /ZI
; File C:\Program Files (x86)\Microsoft Visual Studio\2019\Professional\VC\Tools\MSVC\14.28.29333\include\filesystem
;	COMDAT ?native@path@filesystem@std@@QBEABV?$basic_string@_WU?$char_traits@_W@std@@V?$allocator@_W@2@@3@XZ
_TEXT	SEGMENT
_this$ = -8						; size = 4
?native@path@filesystem@std@@QBEABV?$basic_string@_WU?$char_traits@_W@std@@V?$allocator@_W@2@@3@XZ PROC ; std::filesystem::path::native, COMDAT
; _this$ = ecx

; 977  :         _NODISCARD const string_type& native() const noexcept {

	push	ebp
	mov	ebp, esp
	sub	esp, 204				; 000000ccH
	push	ebx
	push	esi
	push	edi
	push	ecx
	lea	edi, DWORD PTR [ebp-204]
	mov	ecx, 51					; 00000033H
	mov	eax, -858993460				; ccccccccH
	rep stosd
	pop	ecx
	mov	DWORD PTR _this$[ebp], ecx
	mov	ecx, OFFSET __A704387C_filesystem
	call	@__CheckForDebuggerJustMyCode@4

; 978  :             // return a reference to the internally stored wstring in the native format
; 979  :             return _Text;

	mov	eax, DWORD PTR _this$[ebp]

; 980  :         }

	pop	edi
	pop	esi
	pop	ebx
	add	esp, 204				; 000000ccH
	cmp	ebp, esp
	call	__RTC_CheckEsp
	mov	esp, ebp
	pop	ebp
	ret	0
?native@path@filesystem@std@@QBEABV?$basic_string@_WU?$char_traits@_W@std@@V?$allocator@_W@2@@3@XZ ENDP ; std::filesystem::path::native
_TEXT	ENDS
; Function compile flags: /Odtp /RTCsu /ZI
; File C:\Program Files (x86)\Microsoft Visual Studio\2019\Professional\VC\Tools\MSVC\14.28.29333\include\filesystem
;	COMDAT ??1path@filesystem@std@@QAE@XZ
_TEXT	SEGMENT
_this$ = -8						; size = 4
??1path@filesystem@std@@QAE@XZ PROC			; std::filesystem::path::~path, COMDAT
; _this$ = ecx

; 1431 :     };

	push	ebp
	mov	ebp, esp
	sub	esp, 204				; 000000ccH
	push	ebx
	push	esi
	push	edi
	push	ecx
	lea	edi, DWORD PTR [ebp-204]
	mov	ecx, 51					; 00000033H
	mov	eax, -858993460				; ccccccccH
	rep stosd
	pop	ecx
	mov	DWORD PTR _this$[ebp], ecx
	mov	ecx, OFFSET __A704387C_filesystem
	call	@__CheckForDebuggerJustMyCode@4
	mov	ecx, DWORD PTR _this$[ebp]
	call	??1?$basic_string@_WU?$char_traits@_W@std@@V?$allocator@_W@2@@std@@QAE@XZ ; std::basic_string<wchar_t,std::char_traits<wchar_t>,std::allocator<wchar_t> >::~basic_string<wchar_t,std::char_traits<wchar_t>,std::allocator<wchar_t> >
	pop	edi
	pop	esi
	pop	ebx
	add	esp, 204				; 000000ccH
	cmp	ebp, esp
	call	__RTC_CheckEsp
	mov	esp, ebp
	pop	ebp
	ret	0
??1path@filesystem@std@@QAE@XZ ENDP			; std::filesystem::path::~path
_TEXT	ENDS
; Function compile flags: /Odtp /RTCsu /ZI
; File C:\Program Files (x86)\Microsoft Visual Studio\2019\Professional\VC\Tools\MSVC\14.28.29333\include\filesystem
;	COMDAT ??0path@filesystem@std@@QAE@ABV012@@Z
_TEXT	SEGMENT
tv70 = -208						; size = 4
_this$ = -8						; size = 4
___that$ = 8						; size = 4
??0path@filesystem@std@@QAE@ABV012@@Z PROC		; std::filesystem::path::path, COMDAT
; _this$ = ecx

; 1431 :     };

	push	ebp
	mov	ebp, esp
	sub	esp, 208				; 000000d0H
	push	ebx
	push	esi
	push	edi
	push	ecx
	lea	edi, DWORD PTR [ebp-208]
	mov	ecx, 52					; 00000034H
	mov	eax, -858993460				; ccccccccH
	rep stosd
	pop	ecx
	mov	DWORD PTR _this$[ebp], ecx
	mov	ecx, OFFSET __A704387C_filesystem
	call	@__CheckForDebuggerJustMyCode@4
	mov	eax, DWORD PTR _this$[ebp]
	mov	DWORD PTR tv70[ebp], eax
	mov	ecx, DWORD PTR ___that$[ebp]
	push	ecx
	mov	ecx, DWORD PTR tv70[ebp]
	call	??0?$basic_string@_WU?$char_traits@_W@std@@V?$allocator@_W@2@@std@@QAE@ABV01@@Z ; std::basic_string<wchar_t,std::char_traits<wchar_t>,std::allocator<wchar_t> >::basic_string<wchar_t,std::char_traits<wchar_t>,std::allocator<wchar_t> >
	mov	eax, DWORD PTR _this$[ebp]
	pop	edi
	pop	esi
	pop	ebx
	add	esp, 208				; 000000d0H
	cmp	ebp, esp
	call	__RTC_CheckEsp
	mov	esp, ebp
	pop	ebp
	ret	4
??0path@filesystem@std@@QAE@ABV012@@Z ENDP		; std::filesystem::path::path
_TEXT	ENDS
; Function compile flags: /Odtp /RTCsu /ZI
; File C:\Program Files (x86)\Microsoft Visual Studio\2019\Professional\VC\Tools\MSVC\14.28.29333\include\filesystem
;	COMDAT ??0path@filesystem@std@@QAE@XZ
_TEXT	SEGMENT
_this$ = -8						; size = 4
??0path@filesystem@std@@QAE@XZ PROC			; std::filesystem::path::path, COMDAT
; _this$ = ecx

; 1431 :     };

	push	ebp
	mov	ebp, esp
	sub	esp, 204				; 000000ccH
	push	ebx
	push	esi
	push	edi
	push	ecx
	lea	edi, DWORD PTR [ebp-204]
	mov	ecx, 51					; 00000033H
	mov	eax, -858993460				; ccccccccH
	rep stosd
	pop	ecx
	mov	DWORD PTR _this$[ebp], ecx
	mov	ecx, OFFSET __A704387C_filesystem
	call	@__CheckForDebuggerJustMyCode@4
	mov	ecx, DWORD PTR _this$[ebp]
	call	??0?$basic_string@_WU?$char_traits@_W@std@@V?$allocator@_W@2@@std@@QAE@XZ ; std::basic_string<wchar_t,std::char_traits<wchar_t>,std::allocator<wchar_t> >::basic_string<wchar_t,std::char_traits<wchar_t>,std::allocator<wchar_t> >
	mov	eax, DWORD PTR _this$[ebp]
	pop	edi
	pop	esi
	pop	ebx
	add	esp, 204				; 000000ccH
	cmp	ebp, esp
	call	__RTC_CheckEsp
	mov	esp, ebp
	pop	ebp
	ret	0
??0path@filesystem@std@@QAE@XZ ENDP			; std::filesystem::path::path
_TEXT	ENDS
; Function compile flags: /Odtp /RTCsu /ZI
; File C:\Program Files (x86)\Microsoft Visual Studio\2019\Professional\VC\Tools\MSVC\14.28.29333\include\filesystem
;	COMDAT ?_Convert_narrow_to_wide@filesystem@std@@YA?AV?$basic_string@_WU?$char_traits@_W@std@@V?$allocator@_W@2@@2@W4__std_code_page@@V?$basic_string_view@DU?$char_traits@D@std@@@2@@Z
_TEXT	SEGMENT
tv140 = -312						; size = 4
tv142 = -308						; size = 4
tv87 = -308						; size = 4
tv144 = -304						; size = 4
tv89 = -304						; size = 4
$T2 = -296						; size = 4
$T3 = -284						; size = 8
$T4 = -268						; size = 8
__Len$5 = -60						; size = 4
__Output$ = -48						; size = 28
__$ArrayPad$ = -16					; size = 4
__$EHRec$ = -12						; size = 12
___$ReturnUdt$ = 8					; size = 4
__Code_page$ = 12					; size = 4
__Input$ = 16						; size = 8
?_Convert_narrow_to_wide@filesystem@std@@YA?AV?$basic_string@_WU?$char_traits@_W@std@@V?$allocator@_W@2@@2@W4__std_code_page@@V?$basic_string_view@DU?$char_traits@D@std@@@2@@Z PROC ; std::filesystem::_Convert_narrow_to_wide, COMDAT

; 61   :     _NODISCARD inline wstring _Convert_narrow_to_wide(const __std_code_page _Code_page, const string_view _Input) {

	push	ebp
	mov	ebp, esp
	push	-1
	push	__ehhandler$?_Convert_narrow_to_wide@filesystem@std@@YA?AV?$basic_string@_WU?$char_traits@_W@std@@V?$allocator@_W@2@@2@W4__std_code_page@@V?$basic_string_view@DU?$char_traits@D@std@@@2@@Z
	mov	eax, DWORD PTR fs:0
	push	eax
	sub	esp, 300				; 0000012cH
	push	ebx
	push	esi
	push	edi
	lea	edi, DWORD PTR [ebp-312]
	mov	ecx, 75					; 0000004bH
	mov	eax, -858993460				; ccccccccH
	rep stosd
	mov	eax, DWORD PTR ___security_cookie
	xor	eax, ebp
	mov	DWORD PTR __$ArrayPad$[ebp], eax
	push	eax
	lea	eax, DWORD PTR __$EHRec$[ebp]
	mov	DWORD PTR fs:0, eax
	mov	DWORD PTR $T2[ebp], 0
	mov	ecx, OFFSET __A704387C_filesystem
	call	@__CheckForDebuggerJustMyCode@4

; 62   :         wstring _Output;

	lea	ecx, DWORD PTR __Output$[ebp]
	call	??0?$basic_string@_WU?$char_traits@_W@std@@V?$allocator@_W@2@@std@@QAE@XZ ; std::basic_string<wchar_t,std::char_traits<wchar_t>,std::allocator<wchar_t> >::basic_string<wchar_t,std::char_traits<wchar_t>,std::allocator<wchar_t> >
	mov	DWORD PTR __$EHRec$[ebp+8], 0

; 63   : 
; 64   :         if (!_Input.empty()) {

	lea	ecx, DWORD PTR __Input$[ebp]
	call	?empty@?$basic_string_view@DU?$char_traits@D@std@@@std@@QBE_NXZ ; std::basic_string_view<char,std::char_traits<char> >::empty
	movzx	eax, al
	test	eax, eax
	jne	$LN2@Convert_na

; 65   :             if (_Input.size() > static_cast<size_t>(INT_MAX)) {

	lea	ecx, DWORD PTR __Input$[ebp]
	call	?size@?$basic_string_view@DU?$char_traits@D@std@@@std@@QBEIXZ ; std::basic_string_view<char,std::char_traits<char> >::size
	cmp	eax, 2147483647				; 7fffffffH
	jbe	SHORT $LN3@Convert_na

; 66   :                 _Throw_system_error(errc::invalid_argument);

	push	22					; 00000016H
	call	?_Throw_system_error@std@@YAXW4errc@1@@Z ; std::_Throw_system_error
$LN3@Convert_na:

; 67   :             }
; 68   : 
; 69   :             const int _Len = _Check_convert_result(__std_fs_convert_narrow_to_wide(

	lea	ecx, DWORD PTR __Input$[ebp]
	call	?size@?$basic_string_view@DU?$char_traits@D@std@@@std@@QBEIXZ ; std::basic_string_view<char,std::char_traits<char> >::size
	mov	DWORD PTR tv89[ebp], eax
	lea	ecx, DWORD PTR __Input$[ebp]
	call	?data@?$basic_string_view@DU?$char_traits@D@std@@@std@@QBEPBDXZ ; std::basic_string_view<char,std::char_traits<char> >::data
	mov	DWORD PTR tv87[ebp], eax
	push	0
	push	0
	mov	eax, DWORD PTR tv89[ebp]
	push	eax
	mov	ecx, DWORD PTR tv87[ebp]
	push	ecx
	mov	edx, DWORD PTR __Code_page$[ebp]
	push	edx
	call	___std_fs_convert_narrow_to_wide@20
	mov	DWORD PTR $T4[ebp], eax
	mov	DWORD PTR $T4[ebp+4], edx
	mov	eax, DWORD PTR $T4[ebp+4]
	push	eax
	mov	ecx, DWORD PTR $T4[ebp]
	push	ecx
	call	?_Check_convert_result@filesystem@std@@YAHU__std_fs_convert_result@@@Z ; std::filesystem::_Check_convert_result
	add	esp, 8
	mov	DWORD PTR __Len$5[ebp], eax

; 70   :                 _Code_page, _Input.data(), static_cast<int>(_Input.size()), nullptr, 0));
; 71   : 
; 72   :             _Output.resize(static_cast<size_t>(_Len));

	push	0
	mov	eax, DWORD PTR __Len$5[ebp]
	push	eax
	lea	ecx, DWORD PTR __Output$[ebp]
	call	?resize@?$basic_string@_WU?$char_traits@_W@std@@V?$allocator@_W@2@@std@@QAEXI_W@Z ; std::basic_string<wchar_t,std::char_traits<wchar_t>,std::allocator<wchar_t> >::resize

; 73   : 
; 74   :             (void) _Check_convert_result(__std_fs_convert_narrow_to_wide(

	lea	ecx, DWORD PTR __Output$[ebp]
	call	?data@?$basic_string@_WU?$char_traits@_W@std@@V?$allocator@_W@2@@std@@QAEPA_WXZ ; std::basic_string<wchar_t,std::char_traits<wchar_t>,std::allocator<wchar_t> >::data
	mov	DWORD PTR tv144[ebp], eax
	lea	ecx, DWORD PTR __Input$[ebp]
	call	?size@?$basic_string_view@DU?$char_traits@D@std@@@std@@QBEIXZ ; std::basic_string_view<char,std::char_traits<char> >::size
	mov	DWORD PTR tv142[ebp], eax
	lea	ecx, DWORD PTR __Input$[ebp]
	call	?data@?$basic_string_view@DU?$char_traits@D@std@@@std@@QBEPBDXZ ; std::basic_string_view<char,std::char_traits<char> >::data
	mov	DWORD PTR tv140[ebp], eax
	mov	eax, DWORD PTR __Len$5[ebp]
	push	eax
	mov	ecx, DWORD PTR tv144[ebp]
	push	ecx
	mov	edx, DWORD PTR tv142[ebp]
	push	edx
	mov	eax, DWORD PTR tv140[ebp]
	push	eax
	mov	ecx, DWORD PTR __Code_page$[ebp]
	push	ecx
	call	___std_fs_convert_narrow_to_wide@20
	mov	DWORD PTR $T3[ebp], eax
	mov	DWORD PTR $T3[ebp+4], edx
	mov	edx, DWORD PTR $T3[ebp+4]
	push	edx
	mov	eax, DWORD PTR $T3[ebp]
	push	eax
	call	?_Check_convert_result@filesystem@std@@YAHU__std_fs_convert_result@@@Z ; std::filesystem::_Check_convert_result
	add	esp, 8
$LN2@Convert_na:

; 75   :                 _Code_page, _Input.data(), static_cast<int>(_Input.size()), _Output.data(), _Len));
; 76   :         }
; 77   : 
; 78   :         return _Output;

	lea	eax, DWORD PTR __Output$[ebp]
	push	eax
	mov	ecx, DWORD PTR ___$ReturnUdt$[ebp]
	call	??0?$basic_string@_WU?$char_traits@_W@std@@V?$allocator@_W@2@@std@@QAE@$$QAV01@@Z ; std::basic_string<wchar_t,std::char_traits<wchar_t>,std::allocator<wchar_t> >::basic_string<wchar_t,std::char_traits<wchar_t>,std::allocator<wchar_t> >
	mov	ecx, DWORD PTR $T2[ebp]
	or	ecx, 1
	mov	DWORD PTR $T2[ebp], ecx
	mov	DWORD PTR __$EHRec$[ebp+8], -1
	lea	ecx, DWORD PTR __Output$[ebp]
	call	??1?$basic_string@_WU?$char_traits@_W@std@@V?$allocator@_W@2@@std@@QAE@XZ ; std::basic_string<wchar_t,std::char_traits<wchar_t>,std::allocator<wchar_t> >::~basic_string<wchar_t,std::char_traits<wchar_t>,std::allocator<wchar_t> >
	mov	eax, DWORD PTR ___$ReturnUdt$[ebp]
$LN4@Convert_na:

; 79   :     }

	push	edx
	mov	ecx, ebp
	push	eax
	lea	edx, DWORD PTR $LN11@Convert_na
	call	@_RTC_CheckStackVars@8
	pop	eax
	pop	edx
	mov	ecx, DWORD PTR __$EHRec$[ebp]
	mov	DWORD PTR fs:0, ecx
	pop	ecx
	pop	edi
	pop	esi
	pop	ebx
	mov	ecx, DWORD PTR __$ArrayPad$[ebp]
	xor	ecx, ebp
	call	@__security_check_cookie@4
	add	esp, 312				; 00000138H
	cmp	ebp, esp
	call	__RTC_CheckEsp
	mov	esp, ebp
	pop	ebp
	ret	0
	npad	1
$LN11@Convert_na:
	DD	1
	DD	$LN10@Convert_na
$LN10@Convert_na:
	DD	-48					; ffffffd0H
	DD	28					; 0000001cH
	DD	$LN8@Convert_na
$LN8@Convert_na:
	DB	95					; 0000005fH
	DB	79					; 0000004fH
	DB	117					; 00000075H
	DB	116					; 00000074H
	DB	112					; 00000070H
	DB	117					; 00000075H
	DB	116					; 00000074H
	DB	0
_TEXT	ENDS
;	COMDAT text$x
text$x	SEGMENT
__unwindfunclet$?_Convert_narrow_to_wide@filesystem@std@@YA?AV?$basic_string@_WU?$char_traits@_W@std@@V?$allocator@_W@2@@2@W4__std_code_page@@V?$basic_string_view@DU?$char_traits@D@std@@@2@@Z$0:
	lea	ecx, DWORD PTR __Output$[ebp]
	jmp	??1?$basic_string@_WU?$char_traits@_W@std@@V?$allocator@_W@2@@std@@QAE@XZ ; std::basic_string<wchar_t,std::char_traits<wchar_t>,std::allocator<wchar_t> >::~basic_string<wchar_t,std::char_traits<wchar_t>,std::allocator<wchar_t> >
	int	3
	int	3
	int	3
	int	3
	int	3
__ehhandler$?_Convert_narrow_to_wide@filesystem@std@@YA?AV?$basic_string@_WU?$char_traits@_W@std@@V?$allocator@_W@2@@2@W4__std_code_page@@V?$basic_string_view@DU?$char_traits@D@std@@@2@@Z:
	npad	1
	npad	1
	mov	edx, DWORD PTR [esp+8]
	lea	eax, DWORD PTR [edx+12]
	mov	ecx, DWORD PTR [edx-316]
	xor	ecx, eax
	call	@__security_check_cookie@4
	mov	ecx, DWORD PTR [edx-4]
	xor	ecx, eax
	call	@__security_check_cookie@4
	mov	eax, OFFSET __ehfuncinfo$?_Convert_narrow_to_wide@filesystem@std@@YA?AV?$basic_string@_WU?$char_traits@_W@std@@V?$allocator@_W@2@@2@W4__std_code_page@@V?$basic_string_view@DU?$char_traits@D@std@@@2@@Z
	jmp	___CxxFrameHandler3
text$x	ENDS
?_Convert_narrow_to_wide@filesystem@std@@YA?AV?$basic_string@_WU?$char_traits@_W@std@@V?$allocator@_W@2@@2@W4__std_code_page@@V?$basic_string_view@DU?$char_traits@D@std@@@2@@Z ENDP ; std::filesystem::_Convert_narrow_to_wide
; Function compile flags: /Odtp /RTCsu /ZI
; File C:\Program Files (x86)\Microsoft Visual Studio\2019\Professional\VC\Tools\MSVC\14.28.29333\include\filesystem
;	COMDAT ?_Check_convert_result@filesystem@std@@YAHU__std_fs_convert_result@@@Z
_TEXT	SEGMENT
__Result$ = 8						; size = 8
?_Check_convert_result@filesystem@std@@YAHU__std_fs_convert_result@@@Z PROC ; std::filesystem::_Check_convert_result, COMDAT

; 53   :     _NODISCARD inline int _Check_convert_result(const __std_fs_convert_result _Result) {

	push	ebp
	mov	ebp, esp
	sub	esp, 192				; 000000c0H
	push	ebx
	push	esi
	push	edi
	lea	edi, DWORD PTR [ebp-192]
	mov	ecx, 48					; 00000030H
	mov	eax, -858993460				; ccccccccH
	rep stosd
	mov	ecx, OFFSET __A704387C_filesystem
	call	@__CheckForDebuggerJustMyCode@4

; 54   :         if (_Result._Err != __std_win_error::_Success) {

	cmp	DWORD PTR __Result$[ebp+4], 0
	je	SHORT $LN2@Check_conv

; 55   :             _Throw_system_error_from_std_win_error(_Result._Err);

	mov	eax, DWORD PTR __Result$[ebp+4]
	push	eax
	call	?_Throw_system_error_from_std_win_error@filesystem@std@@YAXW4__std_win_error@@@Z ; std::filesystem::_Throw_system_error_from_std_win_error
$LN2@Check_conv:

; 56   :         }
; 57   : 
; 58   :         return _Result._Len;

	mov	eax, DWORD PTR __Result$[ebp]
$LN3@Check_conv:

; 59   :     }

	pop	edi
	pop	esi
	pop	ebx
	add	esp, 192				; 000000c0H
	cmp	ebp, esp
	call	__RTC_CheckEsp
	mov	esp, ebp
	pop	ebp
	ret	0
?_Check_convert_result@filesystem@std@@YAHU__std_fs_convert_result@@@Z ENDP ; std::filesystem::_Check_convert_result
_TEXT	ENDS
; Function compile flags: /Odtp /RTCsu /ZI
; File C:\Program Files (x86)\Microsoft Visual Studio\2019\Professional\VC\Tools\MSVC\14.28.29333\include\filesystem
;	COMDAT ?_Throw_system_error_from_std_win_error@filesystem@std@@YAXW4__std_win_error@@@Z
_TEXT	SEGMENT
$T1 = -232						; size = 8
$T2 = -216						; size = 20
__Errno$ = 8						; size = 4
?_Throw_system_error_from_std_win_error@filesystem@std@@YAXW4__std_win_error@@@Z PROC ; std::filesystem::_Throw_system_error_from_std_win_error, COMDAT

; 49   :     [[noreturn]] inline void _Throw_system_error_from_std_win_error(const __std_win_error _Errno) {

	push	ebp
	mov	ebp, esp
	sub	esp, 236				; 000000ecH
	push	ebx
	push	esi
	push	edi
	lea	edi, DWORD PTR [ebp-236]
	mov	ecx, 59					; 0000003bH
	mov	eax, -858993460				; ccccccccH
	rep stosd
	mov	ecx, OFFSET __A704387C_filesystem
	call	@__CheckForDebuggerJustMyCode@4

; 50   :         _THROW(system_error{_Make_ec(_Errno)});

	mov	eax, DWORD PTR __Errno$[ebp]
	push	eax
	lea	ecx, DWORD PTR $T1[ebp]
	push	ecx
	call	?_Make_ec@filesystem@std@@YA?AVerror_code@2@W4__std_win_error@@@Z ; std::filesystem::_Make_ec
	add	esp, 8
	mov	edx, DWORD PTR [eax+4]
	push	edx
	mov	eax, DWORD PTR [eax]
	push	eax
	lea	ecx, DWORD PTR $T2[ebp]
	call	??0system_error@std@@QAE@Verror_code@1@@Z ; std::system_error::system_error
	push	OFFSET __TI4?AVsystem_error@std@@
	lea	ecx, DWORD PTR $T2[ebp]
	push	ecx
	call	__CxxThrowException@8
$LN2@Throw_syst:

; 51   :     }

	pop	edi
	pop	esi
	pop	ebx
	add	esp, 236				; 000000ecH
	cmp	ebp, esp
	call	__RTC_CheckEsp
	mov	esp, ebp
	pop	ebp
	ret	0
?_Throw_system_error_from_std_win_error@filesystem@std@@YAXW4__std_win_error@@@Z ENDP ; std::filesystem::_Throw_system_error_from_std_win_error
_TEXT	ENDS
; Function compile flags: /Odtp /RTCsu /ZI
; File C:\Program Files (x86)\Microsoft Visual Studio\2019\Professional\VC\Tools\MSVC\14.28.29333\include\filesystem
;	COMDAT ?_Make_ec@filesystem@std@@YA?AVerror_code@2@W4__std_win_error@@@Z
_TEXT	SEGMENT
___$ReturnUdt$ = 8					; size = 4
__Errno$ = 12						; size = 4
?_Make_ec@filesystem@std@@YA?AVerror_code@2@W4__std_win_error@@@Z PROC ; std::filesystem::_Make_ec, COMDAT

; 45   :     _NODISCARD inline error_code _Make_ec(__std_win_error _Errno) noexcept { // make an error_code

	push	ebp
	mov	ebp, esp
	sub	esp, 192				; 000000c0H
	push	ebx
	push	esi
	push	edi
	lea	edi, DWORD PTR [ebp-192]
	mov	ecx, 48					; 00000030H
	mov	eax, -858993460				; ccccccccH
	rep stosd
	mov	ecx, OFFSET __A704387C_filesystem
	call	@__CheckForDebuggerJustMyCode@4

; 46   :         return {static_cast<int>(_Errno), _STD system_category()};

	call	?system_category@std@@YAABVerror_category@1@XZ ; std::system_category
	push	eax
	mov	eax, DWORD PTR __Errno$[ebp]
	push	eax
	mov	ecx, DWORD PTR ___$ReturnUdt$[ebp]
	call	??0error_code@std@@QAE@HABVerror_category@1@@Z ; std::error_code::error_code
	mov	eax, DWORD PTR ___$ReturnUdt$[ebp]

; 47   :     }

	pop	edi
	pop	esi
	pop	ebx
	add	esp, 192				; 000000c0H
	cmp	ebp, esp
	call	__RTC_CheckEsp
	mov	esp, ebp
	pop	ebp
	ret	0
?_Make_ec@filesystem@std@@YA?AVerror_code@2@W4__std_win_error@@@Z ENDP ; std::filesystem::_Make_ec
_TEXT	ENDS
; Function compile flags: /Odtp /RTCsu /ZI
; File C:\Program Files (x86)\Microsoft Visual Studio\2019\Professional\VC\Tools\MSVC\14.28.29333\include\xfilesystem_abi.h
;	COMDAT ??U@YA?AW4__std_fs_stats_flags@@W40@0@Z
_TEXT	SEGMENT
__Left$ = 8						; size = 4
__Right$ = 12						; size = 4
??U@YA?AW4__std_fs_stats_flags@@W40@0@Z PROC		; operator|, COMDAT

; 123  : _BITMASK_OPS(__std_fs_stats_flags)

	push	ebp
	mov	ebp, esp
	sub	esp, 192				; 000000c0H
	push	ebx
	push	esi
	push	edi
	lea	edi, DWORD PTR [ebp-192]
	mov	ecx, 48					; 00000030H
	mov	eax, -858993460				; ccccccccH
	rep stosd
	mov	ecx, OFFSET __18C7867E_xfilesystem_abi@h
	call	@__CheckForDebuggerJustMyCode@4
	mov	eax, DWORD PTR __Left$[ebp]
	or	eax, DWORD PTR __Right$[ebp]
	pop	edi
	pop	esi
	pop	ebx
	add	esp, 192				; 000000c0H
	cmp	ebp, esp
	call	__RTC_CheckEsp
	mov	esp, ebp
	pop	ebp
	ret	0
??U@YA?AW4__std_fs_stats_flags@@W40@0@Z ENDP		; operator|
_TEXT	ENDS
; Function compile flags: /Odtp /RTCsu /ZI
; File C:\Program Files (x86)\Microsoft Visual Studio\2019\Professional\VC\Tools\MSVC\14.28.29333\include\xloctime
;	COMDAT ??$_Getvals@_W@?$time_get@_WV?$istreambuf_iterator@_WU?$char_traits@_W@std@@@std@@@std@@IAEX_WABV_Locinfo@1@@Z
_TEXT	SEGMENT
$T1 = -252						; size = 44
_this$ = -8						; size = 4
___formal$ = 8						; size = 2
__Lobj$ = 12						; size = 4
??$_Getvals@_W@?$time_get@_WV?$istreambuf_iterator@_WU?$char_traits@_W@std@@@std@@@std@@IAEX_WABV_Locinfo@1@@Z PROC ; std::time_get<wchar_t,std::istreambuf_iterator<wchar_t,std::char_traits<wchar_t> > >::_Getvals<wchar_t>, COMDAT
; _this$ = ecx

; 181  :     void __CLR_OR_THIS_CALL _Getvals(_Elem2, const _Locinfo& _Lobj) { // get values

	push	ebp
	mov	ebp, esp
	sub	esp, 256				; 00000100H
	push	ebx
	push	esi
	push	edi
	push	ecx
	lea	edi, DWORD PTR [ebp-256]
	mov	ecx, 64					; 00000040H
	mov	eax, -858993460				; ccccccccH
	rep stosd
	pop	ecx
	mov	DWORD PTR _this$[ebp], ecx
	mov	ecx, OFFSET __15AC5F2C_xloctime
	call	@__CheckForDebuggerJustMyCode@4

; 182  :         _Cvt = _Lobj._Getcvt();

	mov	esi, esp
	lea	eax, DWORD PTR $T1[ebp]
	push	eax
	mov	ecx, DWORD PTR __Lobj$[ebp]
	call	DWORD PTR __imp_?_Getcvt@_Locinfo@std@@QBE?AU_Cvtvec@@XZ
	cmp	esi, esp
	call	__RTC_CheckEsp
	mov	edi, DWORD PTR _this$[ebp]
	add	edi, 24					; 00000018H
	mov	ecx, 11					; 0000000bH
	mov	esi, eax
	rep movsd

; 183  : 
; 184  :         if (is_same_v<_Elem2, wchar_t>) {

	mov	eax, 1
	test	eax, eax
	je	SHORT $LN2@Getvals

; 185  :             _Days = reinterpret_cast<const _Elem*>(_Maklocwcs(reinterpret_cast<const wchar_t*>(_Lobj._W_Getdays())));

	mov	esi, esp
	mov	ecx, DWORD PTR __Lobj$[ebp]
	call	DWORD PTR __imp_?_W_Getdays@_Locinfo@std@@QBEPBGXZ
	cmp	esi, esp
	call	__RTC_CheckEsp
	push	eax
	call	?_Maklocwcs@std@@YAPA_WPB_W@Z		; std::_Maklocwcs
	add	esp, 4
	mov	ecx, DWORD PTR _this$[ebp]
	mov	DWORD PTR [ecx+8], eax

; 186  :             _Months =

	mov	esi, esp
	mov	ecx, DWORD PTR __Lobj$[ebp]
	call	DWORD PTR __imp_?_W_Getmonths@_Locinfo@std@@QBEPBGXZ
	cmp	esi, esp
	call	__RTC_CheckEsp
	push	eax
	call	?_Maklocwcs@std@@YAPA_WPB_W@Z		; std::_Maklocwcs
	add	esp, 4
	mov	ecx, DWORD PTR _this$[ebp]
	mov	DWORD PTR [ecx+12], eax

; 187  :                 reinterpret_cast<const _Elem*>(_Maklocwcs(reinterpret_cast<const wchar_t*>(_Lobj._W_Getmonths())));
; 188  :             _Ampm = reinterpret_cast<const _Elem*>(_Maklocwcs(L":AM:am:PM:pm"));

	push	OFFSET ??_C@_1BK@MHIKGOKE@?$AA?3?$AAA?$AAM?$AA?3?$AAa?$AAm?$AA?3?$AAP?$AAM?$AA?3?$AAp?$AAm@
	call	?_Maklocwcs@std@@YAPA_WPB_W@Z		; std::_Maklocwcs
	add	esp, 4
	mov	ecx, DWORD PTR _this$[ebp]
	mov	DWORD PTR [ecx+16], eax

; 189  :         } else {

	jmp	SHORT $LN1@Getvals
$LN2@Getvals:

; 190  :             _Days   = _Maklocstr(_Lobj._Getdays(), static_cast<_Elem*>(nullptr), _Cvt);

	mov	eax, DWORD PTR _this$[ebp]
	add	eax, 24					; 00000018H
	push	eax
	push	0
	mov	esi, esp
	mov	ecx, DWORD PTR __Lobj$[ebp]
	call	DWORD PTR __imp_?_Getdays@_Locinfo@std@@QBEPBDXZ
	cmp	esi, esp
	call	__RTC_CheckEsp
	push	eax
	call	??$_Maklocstr@_W@std@@YAPA_WPBDPA_WABU_Cvtvec@@@Z ; std::_Maklocstr<wchar_t>
	add	esp, 12					; 0000000cH
	mov	ecx, DWORD PTR _this$[ebp]
	mov	DWORD PTR [ecx+8], eax

; 191  :             _Months = _Maklocstr(_Lobj._Getmonths(), static_cast<_Elem*>(nullptr), _Cvt);

	mov	eax, DWORD PTR _this$[ebp]
	add	eax, 24					; 00000018H
	push	eax
	push	0
	mov	esi, esp
	mov	ecx, DWORD PTR __Lobj$[ebp]
	call	DWORD PTR __imp_?_Getmonths@_Locinfo@std@@QBEPBDXZ
	cmp	esi, esp
	call	__RTC_CheckEsp
	push	eax
	call	??$_Maklocstr@_W@std@@YAPA_WPBDPA_WABU_Cvtvec@@@Z ; std::_Maklocstr<wchar_t>
	add	esp, 12					; 0000000cH
	mov	ecx, DWORD PTR _this$[ebp]
	mov	DWORD PTR [ecx+12], eax

; 192  :             _Ampm   = _Maklocstr(":AM:am:PM:pm", static_cast<_Elem*>(nullptr), _Cvt);

	mov	eax, DWORD PTR _this$[ebp]
	add	eax, 24					; 00000018H
	push	eax
	push	0
	push	OFFSET ??_C@_0N@LPFKKEBD@?3AM?3am?3PM?3pm@
	call	??$_Maklocstr@_W@std@@YAPA_WPBDPA_WABU_Cvtvec@@@Z ; std::_Maklocstr<wchar_t>
	add	esp, 12					; 0000000cH
	mov	ecx, DWORD PTR _this$[ebp]
	mov	DWORD PTR [ecx+16], eax
$LN1@Getvals:

; 193  :         }
; 194  :     }

	pop	edi
	pop	esi
	pop	ebx
	add	esp, 256				; 00000100H
	cmp	ebp, esp
	call	__RTC_CheckEsp
	mov	esp, ebp
	pop	ebp
	ret	8
??$_Getvals@_W@?$time_get@_WV?$istreambuf_iterator@_WU?$char_traits@_W@std@@@std@@@std@@IAEX_WABV_Locinfo@1@@Z ENDP ; std::time_get<wchar_t,std::istreambuf_iterator<wchar_t,std::char_traits<wchar_t> > >::_Getvals<wchar_t>
_TEXT	ENDS
; Function compile flags: /Odtp /RTCsu /ZI
; File C:\Program Files (x86)\Microsoft Visual Studio\2019\Professional\VC\Tools\MSVC\14.28.29333\include\xloctime
;	COMDAT ??$_Getvals@_W@?$time_get@DV?$istreambuf_iterator@DU?$char_traits@D@std@@@std@@@std@@IAEX_WABV_Locinfo@1@@Z
_TEXT	SEGMENT
$T1 = -252						; size = 44
_this$ = -8						; size = 4
___formal$ = 8						; size = 2
__Lobj$ = 12						; size = 4
??$_Getvals@_W@?$time_get@DV?$istreambuf_iterator@DU?$char_traits@D@std@@@std@@@std@@IAEX_WABV_Locinfo@1@@Z PROC ; std::time_get<char,std::istreambuf_iterator<char,std::char_traits<char> > >::_Getvals<wchar_t>, COMDAT
; _this$ = ecx

; 181  :     void __CLR_OR_THIS_CALL _Getvals(_Elem2, const _Locinfo& _Lobj) { // get values

	push	ebp
	mov	ebp, esp
	sub	esp, 256				; 00000100H
	push	ebx
	push	esi
	push	edi
	push	ecx
	lea	edi, DWORD PTR [ebp-256]
	mov	ecx, 64					; 00000040H
	mov	eax, -858993460				; ccccccccH
	rep stosd
	pop	ecx
	mov	DWORD PTR _this$[ebp], ecx
	mov	ecx, OFFSET __15AC5F2C_xloctime
	call	@__CheckForDebuggerJustMyCode@4

; 182  :         _Cvt = _Lobj._Getcvt();

	mov	esi, esp
	lea	eax, DWORD PTR $T1[ebp]
	push	eax
	mov	ecx, DWORD PTR __Lobj$[ebp]
	call	DWORD PTR __imp_?_Getcvt@_Locinfo@std@@QBE?AU_Cvtvec@@XZ
	cmp	esi, esp
	call	__RTC_CheckEsp
	mov	edi, DWORD PTR _this$[ebp]
	add	edi, 24					; 00000018H
	mov	ecx, 11					; 0000000bH
	mov	esi, eax
	rep movsd

; 183  : 
; 184  :         if (is_same_v<_Elem2, wchar_t>) {

	mov	eax, 1
	test	eax, eax
	je	SHORT $LN2@Getvals

; 185  :             _Days = reinterpret_cast<const _Elem*>(_Maklocwcs(reinterpret_cast<const wchar_t*>(_Lobj._W_Getdays())));

	mov	esi, esp
	mov	ecx, DWORD PTR __Lobj$[ebp]
	call	DWORD PTR __imp_?_W_Getdays@_Locinfo@std@@QBEPBGXZ
	cmp	esi, esp
	call	__RTC_CheckEsp
	push	eax
	call	?_Maklocwcs@std@@YAPA_WPB_W@Z		; std::_Maklocwcs
	add	esp, 4
	mov	ecx, DWORD PTR _this$[ebp]
	mov	DWORD PTR [ecx+8], eax

; 186  :             _Months =

	mov	esi, esp
	mov	ecx, DWORD PTR __Lobj$[ebp]
	call	DWORD PTR __imp_?_W_Getmonths@_Locinfo@std@@QBEPBGXZ
	cmp	esi, esp
	call	__RTC_CheckEsp
	push	eax
	call	?_Maklocwcs@std@@YAPA_WPB_W@Z		; std::_Maklocwcs
	add	esp, 4
	mov	ecx, DWORD PTR _this$[ebp]
	mov	DWORD PTR [ecx+12], eax

; 187  :                 reinterpret_cast<const _Elem*>(_Maklocwcs(reinterpret_cast<const wchar_t*>(_Lobj._W_Getmonths())));
; 188  :             _Ampm = reinterpret_cast<const _Elem*>(_Maklocwcs(L":AM:am:PM:pm"));

	push	OFFSET ??_C@_1BK@MHIKGOKE@?$AA?3?$AAA?$AAM?$AA?3?$AAa?$AAm?$AA?3?$AAP?$AAM?$AA?3?$AAp?$AAm@
	call	?_Maklocwcs@std@@YAPA_WPB_W@Z		; std::_Maklocwcs
	add	esp, 4
	mov	ecx, DWORD PTR _this$[ebp]
	mov	DWORD PTR [ecx+16], eax

; 189  :         } else {

	jmp	SHORT $LN1@Getvals
$LN2@Getvals:

; 190  :             _Days   = _Maklocstr(_Lobj._Getdays(), static_cast<_Elem*>(nullptr), _Cvt);

	mov	eax, DWORD PTR _this$[ebp]
	add	eax, 24					; 00000018H
	push	eax
	push	0
	mov	esi, esp
	mov	ecx, DWORD PTR __Lobj$[ebp]
	call	DWORD PTR __imp_?_Getdays@_Locinfo@std@@QBEPBDXZ
	cmp	esi, esp
	call	__RTC_CheckEsp
	push	eax
	call	??$_Maklocstr@D@std@@YAPADPBDPADABU_Cvtvec@@@Z ; std::_Maklocstr<char>
	add	esp, 12					; 0000000cH
	mov	ecx, DWORD PTR _this$[ebp]
	mov	DWORD PTR [ecx+8], eax

; 191  :             _Months = _Maklocstr(_Lobj._Getmonths(), static_cast<_Elem*>(nullptr), _Cvt);

	mov	eax, DWORD PTR _this$[ebp]
	add	eax, 24					; 00000018H
	push	eax
	push	0
	mov	esi, esp
	mov	ecx, DWORD PTR __Lobj$[ebp]
	call	DWORD PTR __imp_?_Getmonths@_Locinfo@std@@QBEPBDXZ
	cmp	esi, esp
	call	__RTC_CheckEsp
	push	eax
	call	??$_Maklocstr@D@std@@YAPADPBDPADABU_Cvtvec@@@Z ; std::_Maklocstr<char>
	add	esp, 12					; 0000000cH
	mov	ecx, DWORD PTR _this$[ebp]
	mov	DWORD PTR [ecx+12], eax

; 192  :             _Ampm   = _Maklocstr(":AM:am:PM:pm", static_cast<_Elem*>(nullptr), _Cvt);

	mov	eax, DWORD PTR _this$[ebp]
	add	eax, 24					; 00000018H
	push	eax
	push	0
	push	OFFSET ??_C@_0N@LPFKKEBD@?3AM?3am?3PM?3pm@
	call	??$_Maklocstr@D@std@@YAPADPBDPADABU_Cvtvec@@@Z ; std::_Maklocstr<char>
	add	esp, 12					; 0000000cH
	mov	ecx, DWORD PTR _this$[ebp]
	mov	DWORD PTR [ecx+16], eax
$LN1@Getvals:

; 193  :         }
; 194  :     }

	pop	edi
	pop	esi
	pop	ebx
	add	esp, 256				; 00000100H
	cmp	ebp, esp
	call	__RTC_CheckEsp
	mov	esp, ebp
	pop	ebp
	ret	8
??$_Getvals@_W@?$time_get@DV?$istreambuf_iterator@DU?$char_traits@D@std@@@std@@@std@@IAEX_WABV_Locinfo@1@@Z ENDP ; std::time_get<char,std::istreambuf_iterator<char,std::char_traits<char> > >::_Getvals<wchar_t>
_TEXT	ENDS
; Function compile flags: /Odtp /RTCsu /ZI
; File C:\Program Files (x86)\Microsoft Visual Studio\2019\Professional\VC\Tools\MSVC\14.28.29333\include\xlocale
;	COMDAT ??$_Maklocstr@D@std@@YAPADPBDPADABU_Cvtvec@@@Z
_TEXT	SEGMENT
__Ptrnext$1 = -32					; size = 4
__Ptrdest$ = -20					; size = 4
__Count$ = -8						; size = 4
__Ptr$ = 8						; size = 4
___formal$ = 12						; size = 4
___formal$ = 16						; size = 4
??$_Maklocstr@D@std@@YAPADPBDPADABU_Cvtvec@@@Z PROC	; std::_Maklocstr<char>, COMDAT

; 520  : _Elem* __CRTDECL _Maklocstr(const char* _Ptr, _Elem*, const _Locinfo::_Cvtvec&) {

	push	ebp
	mov	ebp, esp
	sub	esp, 228				; 000000e4H
	push	ebx
	push	esi
	push	edi
	lea	edi, DWORD PTR [ebp-228]
	mov	ecx, 57					; 00000039H
	mov	eax, -858993460				; ccccccccH
	rep stosd
	mov	ecx, OFFSET __1F3378D4_xlocale
	call	@__CheckForDebuggerJustMyCode@4

; 521  :     // convert C string to _Elem sequence using _Cvtvec
; 522  :     size_t _Count = _CSTD strlen(_Ptr) + 1;

	mov	eax, DWORD PTR __Ptr$[ebp]
	push	eax
	call	_strlen
	add	esp, 4
	add	eax, 1
	mov	DWORD PTR __Count$[ebp], eax

; 523  : 
; 524  :     _Elem* _Ptrdest = static_cast<_Elem*>(_calloc_dbg(_Count, sizeof(_Elem), _CRT_BLOCK, __FILE__, __LINE__));

	mov	esi, esp
	push	524					; 0000020cH
	push	OFFSET ??_C@_0GL@NDAGNCF@C?3?2Program?5Files?5?$CIx86?$CJ?2Microsof@
	push	2
	push	1
	mov	eax, DWORD PTR __Count$[ebp]
	push	eax
	call	DWORD PTR __imp___calloc_dbg
	add	esp, 20					; 00000014H
	cmp	esi, esp
	call	__RTC_CheckEsp
	mov	DWORD PTR __Ptrdest$[ebp], eax

; 525  : 
; 526  :     if (!_Ptrdest) {

	cmp	DWORD PTR __Ptrdest$[ebp], 0
	jne	SHORT $LN5@Maklocstr

; 527  :         _Xbad_alloc();

	call	?_Xbad_alloc@std@@YAXXZ			; std::_Xbad_alloc
$LN5@Maklocstr:

; 528  :     }
; 529  : 
; 530  :     for (_Elem* _Ptrnext = _Ptrdest; 0 < _Count; --_Count, ++_Ptrnext, ++_Ptr) {

	mov	eax, DWORD PTR __Ptrdest$[ebp]
	mov	DWORD PTR __Ptrnext$1[ebp], eax
	jmp	SHORT $LN4@Maklocstr
$LN2@Maklocstr:
	mov	eax, DWORD PTR __Count$[ebp]
	sub	eax, 1
	mov	DWORD PTR __Count$[ebp], eax
	mov	ecx, DWORD PTR __Ptrnext$1[ebp]
	add	ecx, 1
	mov	DWORD PTR __Ptrnext$1[ebp], ecx
	mov	edx, DWORD PTR __Ptr$[ebp]
	add	edx, 1
	mov	DWORD PTR __Ptr$[ebp], edx
$LN4@Maklocstr:
	cmp	DWORD PTR __Count$[ebp], 0
	jbe	SHORT $LN3@Maklocstr

; 531  :         *_Ptrnext = static_cast<_Elem>(static_cast<unsigned char>(*_Ptr));

	mov	eax, DWORD PTR __Ptrnext$1[ebp]
	mov	ecx, DWORD PTR __Ptr$[ebp]
	mov	dl, BYTE PTR [ecx]
	mov	BYTE PTR [eax], dl

; 532  :     }

	jmp	SHORT $LN2@Maklocstr
$LN3@Maklocstr:

; 533  : 
; 534  :     return _Ptrdest;

	mov	eax, DWORD PTR __Ptrdest$[ebp]
$LN6@Maklocstr:

; 535  : }

	pop	edi
	pop	esi
	pop	ebx
	add	esp, 228				; 000000e4H
	cmp	ebp, esp
	call	__RTC_CheckEsp
	mov	esp, ebp
	pop	ebp
	ret	0
??$_Maklocstr@D@std@@YAPADPBDPADABU_Cvtvec@@@Z ENDP	; std::_Maklocstr<char>
_TEXT	ENDS
; Function compile flags: /Odtp /RTCsu /ZI
; File C:\Program Files (x86)\Microsoft Visual Studio\2019\Professional\VC\Tools\MSVC\14.28.29333\include\xlocnum
;	COMDAT ?_Maklocwcs@std@@YAPA_WPB_W@Z
_TEXT	SEGMENT
__Ptrdest$ = -20					; size = 4
__Count$ = -8						; size = 4
__Ptr$ = 8						; size = 4
?_Maklocwcs@std@@YAPA_WPB_W@Z PROC			; std::_Maklocwcs, COMDAT

; 90   : inline wchar_t* _Maklocwcs(const wchar_t* _Ptr) { // copy NTWCS to allocated storage

	push	ebp
	mov	ebp, esp
	sub	esp, 216				; 000000d8H
	push	ebx
	push	esi
	push	edi
	lea	edi, DWORD PTR [ebp-216]
	mov	ecx, 54					; 00000036H
	mov	eax, -858993460				; ccccccccH
	rep stosd
	mov	ecx, OFFSET __81B41EC3_xlocnum
	call	@__CheckForDebuggerJustMyCode@4

; 91   :     const size_t _Count = _CSTD wcslen(_Ptr) + 1;

	mov	esi, esp
	mov	eax, DWORD PTR __Ptr$[ebp]
	push	eax
	call	DWORD PTR __imp__wcslen
	add	esp, 4
	cmp	esi, esp
	call	__RTC_CheckEsp
	add	eax, 1
	mov	DWORD PTR __Count$[ebp], eax

; 92   : 
; 93   :     wchar_t* _Ptrdest = static_cast<wchar_t*>(_calloc_dbg(_Count, sizeof(wchar_t), _CRT_BLOCK, __FILE__, __LINE__));

	mov	eax, DWORD PTR ?__LINE__Var@?0??_Maklocwcs@std@@YAPA_WPB_W@Z@4JA
	add	eax, 3
	mov	esi, esp
	push	eax
	push	OFFSET ??_C@_0GL@IOHNGPIE@C?3?2Program?5Files?5?$CIx86?$CJ?2Microsof@
	push	2
	push	2
	mov	ecx, DWORD PTR __Count$[ebp]
	push	ecx
	call	DWORD PTR __imp___calloc_dbg
	add	esp, 20					; 00000014H
	cmp	esi, esp
	call	__RTC_CheckEsp
	mov	DWORD PTR __Ptrdest$[ebp], eax

; 94   : 
; 95   :     if (!_Ptrdest) {

	cmp	DWORD PTR __Ptrdest$[ebp], 0
	jne	SHORT $LN2@Maklocwcs

; 96   :         _Xbad_alloc();

	call	?_Xbad_alloc@std@@YAXXZ			; std::_Xbad_alloc
$LN2@Maklocwcs:

; 97   :     }
; 98   : 
; 99   :     _CSTD wmemcpy(_Ptrdest, _Ptr, _Count);

	mov	eax, DWORD PTR __Count$[ebp]
	push	eax
	mov	ecx, DWORD PTR __Ptr$[ebp]
	push	ecx
	mov	edx, DWORD PTR __Ptrdest$[ebp]
	push	edx
	call	_wmemcpy
	add	esp, 12					; 0000000cH

; 100  :     return _Ptrdest;

	mov	eax, DWORD PTR __Ptrdest$[ebp]
$LN3@Maklocwcs:

; 101  : }

	pop	edi
	pop	esi
	pop	ebx
	add	esp, 216				; 000000d8H
	cmp	ebp, esp
	call	__RTC_CheckEsp
	mov	esp, ebp
	pop	ebp
	ret	0
?_Maklocwcs@std@@YAPA_WPB_W@Z ENDP			; std::_Maklocwcs
_TEXT	ENDS
; Function compile flags: /Odtp /RTCsu /ZI
; File C:\Program Files (x86)\Microsoft Visual Studio\2019\Professional\VC\Tools\MSVC\14.28.29333\include\iosfwd
;	COMDAT ??B?$fpos@U_Mbstatet@@@std@@QBE_JXZ
_TEXT	SEGMENT
_this$ = -8						; size = 4
??B?$fpos@U_Mbstatet@@@std@@QBE_JXZ PROC		; std::fpos<_Mbstatet>::operator __int64, COMDAT
; _this$ = ecx

; 67   :     operator streamoff() const {

	push	ebp
	mov	ebp, esp
	sub	esp, 204				; 000000ccH
	push	ebx
	push	esi
	push	edi
	push	ecx
	lea	edi, DWORD PTR [ebp-204]
	mov	ecx, 51					; 00000033H
	mov	eax, -858993460				; ccccccccH
	rep stosd
	pop	ecx
	mov	DWORD PTR _this$[ebp], ecx
	mov	ecx, OFFSET __68960671_iosfwd
	call	@__CheckForDebuggerJustMyCode@4

; 68   :         // TRANSITION, ABI: We currently always set _Fpos to 0 but older .objs containing old
; 69   :         // basic_filebuf would set _Fpos.
; 70   :         return _Myoff + _Fpos;

	mov	eax, DWORD PTR _this$[ebp]
	mov	ecx, DWORD PTR _this$[ebp]
	mov	edx, DWORD PTR [eax]
	add	edx, DWORD PTR [ecx+8]
	mov	esi, DWORD PTR [eax+4]
	adc	esi, DWORD PTR [ecx+12]
	mov	eax, edx
	mov	edx, esi

; 71   :     }

	pop	edi
	pop	esi
	pop	ebx
	add	esp, 204				; 000000ccH
	cmp	ebp, esp
	call	__RTC_CheckEsp
	mov	esp, ebp
	pop	ebp
	ret	0
??B?$fpos@U_Mbstatet@@@std@@QBE_JXZ ENDP		; std::fpos<_Mbstatet>::operator __int64
_TEXT	ENDS
; Function compile flags: /Odtp /RTCsu /ZI
; File C:\Program Files (x86)\Microsoft Visual Studio\2019\Professional\VC\Tools\MSVC\14.28.29333\include\iosfwd
;	COMDAT ?state@?$fpos@U_Mbstatet@@@std@@QBE?AU_Mbstatet@@XZ
_TEXT	SEGMENT
_this$ = -8						; size = 4
___$ReturnUdt$ = 8					; size = 4
?state@?$fpos@U_Mbstatet@@@std@@QBE?AU_Mbstatet@@XZ PROC ; std::fpos<_Mbstatet>::state, COMDAT
; _this$ = ecx

; 59   :     _NODISCARD _Statetype state() const {

	push	ebp
	mov	ebp, esp
	sub	esp, 204				; 000000ccH
	push	ebx
	push	esi
	push	edi
	push	ecx
	lea	edi, DWORD PTR [ebp-204]
	mov	ecx, 51					; 00000033H
	mov	eax, -858993460				; ccccccccH
	rep stosd
	pop	ecx
	mov	DWORD PTR _this$[ebp], ecx
	mov	ecx, OFFSET __68960671_iosfwd
	call	@__CheckForDebuggerJustMyCode@4

; 60   :         return _Mystate;

	mov	eax, DWORD PTR _this$[ebp]
	mov	ecx, DWORD PTR [eax+16]
	mov	edx, DWORD PTR [eax+20]
	mov	eax, DWORD PTR ___$ReturnUdt$[ebp]
	mov	DWORD PTR [eax], ecx
	mov	DWORD PTR [eax+4], edx
	mov	eax, DWORD PTR ___$ReturnUdt$[ebp]

; 61   :     }

	pop	edi
	pop	esi
	pop	ebx
	add	esp, 204				; 000000ccH
	cmp	ebp, esp
	call	__RTC_CheckEsp
	mov	esp, ebp
	pop	ebp
	ret	4
?state@?$fpos@U_Mbstatet@@@std@@QBE?AU_Mbstatet@@XZ ENDP ; std::fpos<_Mbstatet>::state
_TEXT	ENDS
; Function compile flags: /Odtp /RTCsu /ZI
; File C:\Program Files (x86)\Microsoft Visual Studio\2019\Professional\VC\Tools\MSVC\14.28.29333\include\iosfwd
;	COMDAT ??0?$fpos@U_Mbstatet@@@std@@QAE@U_Mbstatet@@_J@Z
_TEXT	SEGMENT
_this$ = -8						; size = 4
__State$ = 8						; size = 8
__Fileposition$ = 16					; size = 8
??0?$fpos@U_Mbstatet@@@std@@QAE@U_Mbstatet@@_J@Z PROC	; std::fpos<_Mbstatet>::fpos<_Mbstatet>, COMDAT
; _this$ = ecx

; 57   :     fpos(_Statetype _State, fpos_t _Fileposition) : _Myoff(_Fileposition), _Fpos(0), _Mystate(_State) {}

	push	ebp
	mov	ebp, esp
	sub	esp, 204				; 000000ccH
	push	ebx
	push	esi
	push	edi
	push	ecx
	lea	edi, DWORD PTR [ebp-204]
	mov	ecx, 51					; 00000033H
	mov	eax, -858993460				; ccccccccH
	rep stosd
	pop	ecx
	mov	DWORD PTR _this$[ebp], ecx
	mov	ecx, OFFSET __68960671_iosfwd
	call	@__CheckForDebuggerJustMyCode@4
	mov	eax, DWORD PTR _this$[ebp]
	mov	ecx, DWORD PTR __Fileposition$[ebp]
	mov	edx, DWORD PTR __Fileposition$[ebp+4]
	mov	DWORD PTR [eax], ecx
	mov	DWORD PTR [eax+4], edx
	mov	eax, DWORD PTR _this$[ebp]
	xor	ecx, ecx
	xor	edx, edx
	mov	DWORD PTR [eax+8], ecx
	mov	DWORD PTR [eax+12], edx
	mov	eax, DWORD PTR _this$[ebp]
	mov	ecx, DWORD PTR __State$[ebp]
	mov	edx, DWORD PTR __State$[ebp+4]
	mov	DWORD PTR [eax+16], ecx
	mov	DWORD PTR [eax+20], edx
	mov	eax, DWORD PTR _this$[ebp]
	pop	edi
	pop	esi
	pop	ebx
	add	esp, 204				; 000000ccH
	cmp	ebp, esp
	call	__RTC_CheckEsp
	mov	esp, ebp
	pop	ebp
	ret	16					; 00000010H
??0?$fpos@U_Mbstatet@@@std@@QAE@U_Mbstatet@@_J@Z ENDP	; std::fpos<_Mbstatet>::fpos<_Mbstatet>
_TEXT	ENDS
; Function compile flags: /Odtp /RTCsu /ZI
; File C:\Program Files (x86)\Microsoft Visual Studio\2019\Professional\VC\Tools\MSVC\14.28.29333\include\iosfwd
;	COMDAT ??0?$fpos@U_Mbstatet@@@std@@QAE@_J@Z
_TEXT	SEGMENT
_this$ = -8						; size = 4
__Off$ = 8						; size = 8
??0?$fpos@U_Mbstatet@@@std@@QAE@_J@Z PROC		; std::fpos<_Mbstatet>::fpos<_Mbstatet>, COMDAT
; _this$ = ecx

; 55   :     /* implicit */ fpos(streamoff _Off = 0) : _Myoff(_Off), _Fpos(0), _Mystate() {}

	push	ebp
	mov	ebp, esp
	sub	esp, 204				; 000000ccH
	push	ebx
	push	esi
	push	edi
	push	ecx
	lea	edi, DWORD PTR [ebp-204]
	mov	ecx, 51					; 00000033H
	mov	eax, -858993460				; ccccccccH
	rep stosd
	pop	ecx
	mov	DWORD PTR _this$[ebp], ecx
	mov	ecx, OFFSET __68960671_iosfwd
	call	@__CheckForDebuggerJustMyCode@4
	mov	eax, DWORD PTR _this$[ebp]
	mov	ecx, DWORD PTR __Off$[ebp]
	mov	edx, DWORD PTR __Off$[ebp+4]
	mov	DWORD PTR [eax], ecx
	mov	DWORD PTR [eax+4], edx
	mov	eax, DWORD PTR _this$[ebp]
	xor	ecx, ecx
	xor	edx, edx
	mov	DWORD PTR [eax+8], ecx
	mov	DWORD PTR [eax+12], edx
	xor	eax, eax
	mov	ecx, DWORD PTR _this$[ebp]
	add	ecx, 16					; 00000010H
	mov	DWORD PTR [ecx], eax
	mov	DWORD PTR [ecx+4], eax
	mov	eax, DWORD PTR _this$[ebp]
	pop	edi
	pop	esi
	pop	ebx
	add	esp, 204				; 000000ccH
	cmp	ebp, esp
	call	__RTC_CheckEsp
	mov	esp, ebp
	pop	ebp
	ret	8
??0?$fpos@U_Mbstatet@@@std@@QAE@_J@Z ENDP		; std::fpos<_Mbstatet>::fpos<_Mbstatet>
_TEXT	ENDS
; Function compile flags: /Odtp /RTCsu /ZI
; File C:\Program Files (x86)\Microsoft Visual Studio\2019\Professional\VC\Tools\MSVC\14.28.29333\include\xlocale
;	COMDAT ??$_Maklocstr@_W@std@@YAPA_WPBDPA_WABU_Cvtvec@@@Z
_TEXT	SEGMENT
__Mbst2$ = -128						; size = 8
__Ptrnext$ = -112					; size = 4
__Ptrdest$ = -100					; size = 4
__Mbst1$ = -88						; size = 8
__Wc$ = -72						; size = 2
__Bytes$ = -60						; size = 4
__Ptr1$ = -48						; size = 4
__Wchars$ = -36						; size = 4
__Count1$ = -24						; size = 4
__Count$ = -12						; size = 4
__$ArrayPad$ = -4					; size = 4
__Ptr$ = 8						; size = 4
___formal$ = 12						; size = 4
__Cvt$ = 16						; size = 4
??$_Maklocstr@_W@std@@YAPA_WPBDPA_WABU_Cvtvec@@@Z PROC	; std::_Maklocstr<wchar_t>, COMDAT

; 538  : inline wchar_t* __CRTDECL _Maklocstr(const char* _Ptr, wchar_t*, const _Locinfo::_Cvtvec& _Cvt) {

	push	ebp
	mov	ebp, esp
	sub	esp, 324				; 00000144H
	push	ebx
	push	esi
	push	edi
	lea	edi, DWORD PTR [ebp-324]
	mov	ecx, 81					; 00000051H
	mov	eax, -858993460				; ccccccccH
	rep stosd
	mov	eax, DWORD PTR ___security_cookie
	xor	eax, ebp
	mov	DWORD PTR __$ArrayPad$[ebp], eax
	mov	ecx, OFFSET __1F3378D4_xlocale
	call	@__CheckForDebuggerJustMyCode@4

; 539  :     // convert C string to wchar_t sequence using _Cvtvec
; 540  :     size_t _Count;
; 541  :     size_t _Count1;
; 542  :     size_t _Wchars;
; 543  :     const char* _Ptr1;
; 544  :     int _Bytes;
; 545  :     wchar_t _Wc;
; 546  :     mbstate_t _Mbst1 = {};

	xor	eax, eax
	mov	DWORD PTR __Mbst1$[ebp], eax
	mov	DWORD PTR __Mbst1$[ebp+4], eax

; 547  : 
; 548  :     _Count1 = _CSTD strlen(_Ptr) + 1;

	mov	eax, DWORD PTR __Ptr$[ebp]
	push	eax
	call	_strlen
	add	esp, 4
	add	eax, 1
	mov	DWORD PTR __Count1$[ebp], eax

; 549  :     for (_Count = _Count1, _Wchars = 0, _Ptr1 = _Ptr; 0 < _Count; _Count -= _Bytes, _Ptr1 += _Bytes, ++_Wchars) {

	mov	eax, DWORD PTR __Count1$[ebp]
	mov	DWORD PTR __Count$[ebp], eax
	mov	DWORD PTR __Wchars$[ebp], 0
	mov	ecx, DWORD PTR __Ptr$[ebp]
	mov	DWORD PTR __Ptr1$[ebp], ecx
	jmp	SHORT $LN4@Maklocstr
$LN2@Maklocstr:
	mov	eax, DWORD PTR __Count$[ebp]
	sub	eax, DWORD PTR __Bytes$[ebp]
	mov	DWORD PTR __Count$[ebp], eax
	mov	ecx, DWORD PTR __Ptr1$[ebp]
	add	ecx, DWORD PTR __Bytes$[ebp]
	mov	DWORD PTR __Ptr1$[ebp], ecx
	mov	edx, DWORD PTR __Wchars$[ebp]
	add	edx, 1
	mov	DWORD PTR __Wchars$[ebp], edx
$LN4@Maklocstr:
	cmp	DWORD PTR __Count$[ebp], 0
	jbe	SHORT $LN3@Maklocstr

; 550  :         if ((_Bytes = _Mbrtowc(&_Wc, _Ptr1, _Count, &_Mbst1, &_Cvt)) <= 0) {

	mov	eax, DWORD PTR __Cvt$[ebp]
	push	eax
	lea	ecx, DWORD PTR __Mbst1$[ebp]
	push	ecx
	mov	edx, DWORD PTR __Count$[ebp]
	push	edx
	mov	eax, DWORD PTR __Ptr1$[ebp]
	push	eax
	lea	ecx, DWORD PTR __Wc$[ebp]
	push	ecx
	call	__Mbrtowc
	add	esp, 20					; 00000014H
	mov	DWORD PTR __Bytes$[ebp], eax
	cmp	DWORD PTR __Bytes$[ebp], 0
	jg	SHORT $LN8@Maklocstr

; 551  :             break;

	jmp	SHORT $LN3@Maklocstr
$LN8@Maklocstr:

; 552  :         }
; 553  :     }

	jmp	SHORT $LN2@Maklocstr
$LN3@Maklocstr:

; 554  : 
; 555  :     ++_Wchars; // count terminating nul

	mov	eax, DWORD PTR __Wchars$[ebp]
	add	eax, 1
	mov	DWORD PTR __Wchars$[ebp], eax

; 556  : 
; 557  :     wchar_t* _Ptrdest = static_cast<wchar_t*>(_calloc_dbg(_Wchars, sizeof(wchar_t), _CRT_BLOCK, __FILE__, __LINE__));

	mov	esi, esp
	push	557					; 0000022dH
	push	OFFSET ??_C@_0GL@NDAGNCF@C?3?2Program?5Files?5?$CIx86?$CJ?2Microsof@
	push	2
	push	2
	mov	eax, DWORD PTR __Wchars$[ebp]
	push	eax
	call	DWORD PTR __imp___calloc_dbg
	add	esp, 20					; 00000014H
	cmp	esi, esp
	call	__RTC_CheckEsp
	mov	DWORD PTR __Ptrdest$[ebp], eax

; 558  : 
; 559  :     if (!_Ptrdest) {

	cmp	DWORD PTR __Ptrdest$[ebp], 0
	jne	SHORT $LN9@Maklocstr

; 560  :         _Xbad_alloc();

	call	?_Xbad_alloc@std@@YAXXZ			; std::_Xbad_alloc
$LN9@Maklocstr:

; 561  :     }
; 562  : 
; 563  :     wchar_t* _Ptrnext = _Ptrdest;

	mov	eax, DWORD PTR __Ptrdest$[ebp]
	mov	DWORD PTR __Ptrnext$[ebp], eax

; 564  :     mbstate_t _Mbst2  = {};

	xor	eax, eax
	mov	DWORD PTR __Mbst2$[ebp], eax
	mov	DWORD PTR __Mbst2$[ebp+4], eax

; 565  : 
; 566  :     for (; 0 < _Wchars; _Count -= _Bytes, _Ptr += _Bytes, --_Wchars, ++_Ptrnext) {

	jmp	SHORT $LN7@Maklocstr
$LN5@Maklocstr:
	mov	eax, DWORD PTR __Count$[ebp]
	sub	eax, DWORD PTR __Bytes$[ebp]
	mov	DWORD PTR __Count$[ebp], eax
	mov	ecx, DWORD PTR __Ptr$[ebp]
	add	ecx, DWORD PTR __Bytes$[ebp]
	mov	DWORD PTR __Ptr$[ebp], ecx
	mov	edx, DWORD PTR __Wchars$[ebp]
	sub	edx, 1
	mov	DWORD PTR __Wchars$[ebp], edx
	mov	eax, DWORD PTR __Ptrnext$[ebp]
	add	eax, 2
	mov	DWORD PTR __Ptrnext$[ebp], eax
$LN7@Maklocstr:
	cmp	DWORD PTR __Wchars$[ebp], 0
	jbe	SHORT $LN6@Maklocstr

; 567  :         if ((_Bytes = _Mbrtowc(_Ptrnext, _Ptr, _Count1, &_Mbst2, &_Cvt)) <= 0) {

	mov	eax, DWORD PTR __Cvt$[ebp]
	push	eax
	lea	ecx, DWORD PTR __Mbst2$[ebp]
	push	ecx
	mov	edx, DWORD PTR __Count1$[ebp]
	push	edx
	mov	eax, DWORD PTR __Ptr$[ebp]
	push	eax
	mov	ecx, DWORD PTR __Ptrnext$[ebp]
	push	ecx
	call	__Mbrtowc
	add	esp, 20					; 00000014H
	mov	DWORD PTR __Bytes$[ebp], eax
	cmp	DWORD PTR __Bytes$[ebp], 0
	jg	SHORT $LN10@Maklocstr

; 568  :             break;

	jmp	SHORT $LN6@Maklocstr
$LN10@Maklocstr:

; 569  :         }
; 570  :     }

	jmp	SHORT $LN5@Maklocstr
$LN6@Maklocstr:

; 571  : 
; 572  :     *_Ptrnext = L'\0';

	xor	eax, eax
	mov	ecx, DWORD PTR __Ptrnext$[ebp]
	mov	WORD PTR [ecx], ax

; 573  : 
; 574  :     return _Ptrdest;

	mov	eax, DWORD PTR __Ptrdest$[ebp]
$LN11@Maklocstr:

; 575  : }

	push	edx
	mov	ecx, ebp
	push	eax
	lea	edx, DWORD PTR $LN16@Maklocstr
	call	@_RTC_CheckStackVars@8
	pop	eax
	pop	edx
	pop	edi
	pop	esi
	pop	ebx
	mov	ecx, DWORD PTR __$ArrayPad$[ebp]
	xor	ecx, ebp
	call	@__security_check_cookie@4
	add	esp, 324				; 00000144H
	cmp	ebp, esp
	call	__RTC_CheckEsp
	mov	esp, ebp
	pop	ebp
	ret	0
	npad	1
$LN16@Maklocstr:
	DD	3
	DD	$LN15@Maklocstr
$LN15@Maklocstr:
	DD	-72					; ffffffb8H
	DD	2
	DD	$LN12@Maklocstr
	DD	-88					; ffffffa8H
	DD	8
	DD	$LN13@Maklocstr
	DD	-128					; ffffff80H
	DD	8
	DD	$LN14@Maklocstr
$LN14@Maklocstr:
	DB	95					; 0000005fH
	DB	77					; 0000004dH
	DB	98					; 00000062H
	DB	115					; 00000073H
	DB	116					; 00000074H
	DB	50					; 00000032H
	DB	0
$LN13@Maklocstr:
	DB	95					; 0000005fH
	DB	77					; 0000004dH
	DB	98					; 00000062H
	DB	115					; 00000073H
	DB	116					; 00000074H
	DB	49					; 00000031H
	DB	0
$LN12@Maklocstr:
	DB	95					; 0000005fH
	DB	87					; 00000057H
	DB	99					; 00000063H
	DB	0
??$_Maklocstr@_W@std@@YAPA_WPBDPA_WABU_Cvtvec@@@Z ENDP	; std::_Maklocstr<wchar_t>
_TEXT	ENDS
; Function compile flags: /Odtp /RTCsu /ZI
; File C:\Program Files (x86)\Microsoft Visual Studio\2019\Professional\VC\Tools\MSVC\14.28.29333\include\xlocale
;	COMDAT ?_Getfacet@locale@std@@QBEPBVfacet@12@I@Z
_TEXT	SEGMENT
tv71 = -232						; size = 4
__Ptr0$ = -32						; size = 4
__Facptr$ = -20						; size = 4
_this$ = -8						; size = 4
__Id$ = 8						; size = 4
?_Getfacet@locale@std@@QBEPBVfacet@12@I@Z PROC		; std::locale::_Getfacet, COMDAT
; _this$ = ecx

; 373  :     const facet* _Getfacet(size_t _Id) const { // look up a facet in locale object

	push	ebp
	mov	ebp, esp
	sub	esp, 232				; 000000e8H
	push	ebx
	push	esi
	push	edi
	push	ecx
	lea	edi, DWORD PTR [ebp-232]
	mov	ecx, 58					; 0000003aH
	mov	eax, -858993460				; ccccccccH
	rep stosd
	pop	ecx
	mov	DWORD PTR _this$[ebp], ecx
	mov	ecx, OFFSET __1F3378D4_xlocale
	call	@__CheckForDebuggerJustMyCode@4

; 374  :         const facet* _Facptr = _Id < _Ptr->_Facetcount ? _Ptr->_Facetvec[_Id] : nullptr; // null if id off end

	mov	eax, DWORD PTR _this$[ebp]
	mov	ecx, DWORD PTR [eax+4]
	mov	edx, DWORD PTR __Id$[ebp]
	cmp	edx, DWORD PTR [ecx+12]
	jae	SHORT $LN6@Getfacet
	mov	eax, DWORD PTR _this$[ebp]
	mov	ecx, DWORD PTR [eax+4]
	mov	edx, DWORD PTR [ecx+8]
	mov	eax, DWORD PTR __Id$[ebp]
	mov	ecx, DWORD PTR [edx+eax*4]
	mov	DWORD PTR tv71[ebp], ecx
	jmp	SHORT $LN7@Getfacet
$LN6@Getfacet:
	mov	DWORD PTR tv71[ebp], 0
$LN7@Getfacet:
	mov	edx, DWORD PTR tv71[ebp]
	mov	DWORD PTR __Facptr$[ebp], edx

; 375  :         if (_Facptr || !_Ptr->_Xparent) {

	cmp	DWORD PTR __Facptr$[ebp], 0
	jne	SHORT $LN3@Getfacet
	mov	eax, DWORD PTR _this$[ebp]
	mov	ecx, DWORD PTR [eax+4]
	movzx	edx, BYTE PTR [ecx+20]
	test	edx, edx
	jne	SHORT $LN2@Getfacet
$LN3@Getfacet:

; 376  :             return _Facptr; // found facet or not transparent

	mov	eax, DWORD PTR __Facptr$[ebp]
	jmp	SHORT $LN1@Getfacet
$LN2@Getfacet:

; 377  :         }
; 378  : 
; 379  :         // look in current locale
; 380  :         locale::_Locimp* _Ptr0 = _Getgloballocale();

	call	?_Getgloballocale@locale@std@@CAPAV_Locimp@12@XZ ; std::locale::_Getgloballocale
	mov	DWORD PTR __Ptr0$[ebp], eax

; 381  :         if (_Id < _Ptr0->_Facetcount) {

	mov	eax, DWORD PTR __Ptr0$[ebp]
	mov	ecx, DWORD PTR __Id$[ebp]
	cmp	ecx, DWORD PTR [eax+12]
	jae	SHORT $LN4@Getfacet

; 382  :             return _Ptr0->_Facetvec[_Id]; // get from current locale

	mov	eax, DWORD PTR __Ptr0$[ebp]
	mov	ecx, DWORD PTR [eax+8]
	mov	edx, DWORD PTR __Id$[ebp]
	mov	eax, DWORD PTR [ecx+edx*4]
	jmp	SHORT $LN1@Getfacet
$LN4@Getfacet:

; 383  :         }
; 384  : 
; 385  :         return nullptr; // no entry in current locale

	xor	eax, eax
$LN1@Getfacet:

; 386  :     }

	pop	edi
	pop	esi
	pop	ebx
	add	esp, 232				; 000000e8H
	cmp	ebp, esp
	call	__RTC_CheckEsp
	mov	esp, ebp
	pop	ebp
	ret	4
?_Getfacet@locale@std@@QBEPBVfacet@12@I@Z ENDP		; std::locale::_Getfacet
_TEXT	ENDS
; Function compile flags: /Odtp /RTCsu /ZI
; File C:\Program Files (x86)\Microsoft Visual Studio\2019\Professional\VC\Tools\MSVC\14.28.29333\include\xlocale
;	COMDAT ??1locale@std@@QAE@XZ
_TEXT	SEGMENT
tv86 = -224						; size = 4
tv85 = -220						; size = 4
$T1 = -212						; size = 4
_this$ = -8						; size = 4
??1locale@std@@QAE@XZ PROC				; std::locale::~locale, COMDAT
; _this$ = ecx

; 350  :     ~locale() noexcept {

	push	ebp
	mov	ebp, esp
	sub	esp, 224				; 000000e0H
	push	ebx
	push	esi
	push	edi
	push	ecx
	lea	edi, DWORD PTR [ebp-224]
	mov	ecx, 56					; 00000038H
	mov	eax, -858993460				; ccccccccH
	rep stosd
	pop	ecx
	mov	DWORD PTR _this$[ebp], ecx
	mov	ecx, OFFSET __1F3378D4_xlocale
	call	@__CheckForDebuggerJustMyCode@4

; 351  :         if (_Ptr) {

	mov	eax, DWORD PTR _this$[ebp]
	cmp	DWORD PTR [eax+4], 0
	je	SHORT $LN3@locale

; 352  :             delete _Ptr->_Decref();

	mov	eax, DWORD PTR _this$[ebp]
	mov	ecx, DWORD PTR [eax+4]
	mov	edx, DWORD PTR _this$[ebp]
	mov	eax, DWORD PTR [ecx]
	mov	esi, esp
	mov	ecx, DWORD PTR [edx+4]
	mov	edx, DWORD PTR [eax+8]
	call	edx
	cmp	esi, esp
	call	__RTC_CheckEsp
	mov	DWORD PTR $T1[ebp], eax
	cmp	DWORD PTR $T1[ebp], 0
	je	SHORT $LN4@locale
	mov	eax, DWORD PTR $T1[ebp]
	mov	ecx, DWORD PTR [eax]
	mov	edx, DWORD PTR [ecx]
	mov	DWORD PTR tv85[ebp], edx
	mov	esi, esp
	push	1
	mov	ecx, DWORD PTR $T1[ebp]
	call	DWORD PTR tv85[ebp]
	cmp	esi, esp
	call	__RTC_CheckEsp
	mov	DWORD PTR tv86[ebp], eax
	jmp	SHORT $LN3@locale
$LN4@locale:
	mov	DWORD PTR tv86[ebp], 0
$LN3@locale:

; 353  :         }
; 354  :     }

	pop	edi
	pop	esi
	pop	ebx
	add	esp, 224				; 000000e0H
	cmp	ebp, esp
	call	__RTC_CheckEsp
	mov	esp, ebp
	pop	ebp
	ret	0
??1locale@std@@QAE@XZ ENDP				; std::locale::~locale
_TEXT	ENDS
; Function compile flags: /Odtp /RTCsu /ZI
; File C:\Program Files (x86)\Microsoft Visual Studio\2019\Professional\VC\Tools\MSVC\14.28.29333\include\typeinfo
;	COMDAT ?_Throw_bad_cast@std@@YAXXZ
_TEXT	SEGMENT
$T1 = -208						; size = 12
?_Throw_bad_cast@std@@YAXXZ PROC			; std::_Throw_bad_cast, COMDAT

; 64   : [[noreturn]] inline void _Throw_bad_cast() {

	push	ebp
	mov	ebp, esp
	sub	esp, 212				; 000000d4H
	push	ebx
	push	esi
	push	edi
	lea	edi, DWORD PTR [ebp-212]
	mov	ecx, 53					; 00000035H
	mov	eax, -858993460				; ccccccccH
	rep stosd
	mov	ecx, OFFSET __AE3815F6_typeinfo
	call	@__CheckForDebuggerJustMyCode@4

; 65   :     _THROW(bad_cast{});

	lea	ecx, DWORD PTR $T1[ebp]
	call	??0bad_cast@std@@QAE@XZ			; std::bad_cast::bad_cast
	push	OFFSET __TI2?AVbad_cast@std@@
	lea	eax, DWORD PTR $T1[ebp]
	push	eax
	call	__CxxThrowException@8
$LN2@Throw_bad_:

; 66   : }

	pop	edi
	pop	esi
	pop	ebx
	add	esp, 212				; 000000d4H
	cmp	ebp, esp
	call	__RTC_CheckEsp
	mov	esp, ebp
	pop	ebp
	ret	0
?_Throw_bad_cast@std@@YAXXZ ENDP			; std::_Throw_bad_cast
_TEXT	ENDS
; Function compile flags: /Odtp /RTCsu /ZI
;	COMDAT ??_Gbad_cast@std@@UAEPAXI@Z
_TEXT	SEGMENT
_this$ = -8						; size = 4
___flags$ = 8						; size = 4
??_Gbad_cast@std@@UAEPAXI@Z PROC			; std::bad_cast::`scalar deleting destructor', COMDAT
; _this$ = ecx
	push	ebp
	mov	ebp, esp
	sub	esp, 204				; 000000ccH
	push	ebx
	push	esi
	push	edi
	push	ecx
	lea	edi, DWORD PTR [ebp-204]
	mov	ecx, 51					; 00000033H
	mov	eax, -858993460				; ccccccccH
	rep stosd
	pop	ecx
	mov	DWORD PTR _this$[ebp], ecx
	mov	ecx, DWORD PTR _this$[ebp]
	call	??1bad_cast@std@@UAE@XZ
	mov	eax, DWORD PTR ___flags$[ebp]
	and	eax, 1
	je	SHORT $LN2@scalar
	push	12					; 0000000cH
	mov	eax, DWORD PTR _this$[ebp]
	push	eax
	call	??3@YAXPAXI@Z				; operator delete
	add	esp, 8
$LN2@scalar:
	mov	eax, DWORD PTR _this$[ebp]
	pop	edi
	pop	esi
	pop	ebx
	add	esp, 204				; 000000ccH
	cmp	ebp, esp
	call	__RTC_CheckEsp
	mov	esp, ebp
	pop	ebp
	ret	4
??_Gbad_cast@std@@UAEPAXI@Z ENDP			; std::bad_cast::`scalar deleting destructor'
_TEXT	ENDS
; Function compile flags: /Odtp /RTCsu /ZI
;	COMDAT ??0bad_cast@std@@QAE@ABV01@@Z
_TEXT	SEGMENT
_this$ = -8						; size = 4
___that$ = 8						; size = 4
??0bad_cast@std@@QAE@ABV01@@Z PROC			; std::bad_cast::bad_cast, COMDAT
; _this$ = ecx
	push	ebp
	mov	ebp, esp
	sub	esp, 204				; 000000ccH
	push	ebx
	push	esi
	push	edi
	push	ecx
	lea	edi, DWORD PTR [ebp-204]
	mov	ecx, 51					; 00000033H
	mov	eax, -858993460				; ccccccccH
	rep stosd
	pop	ecx
	mov	DWORD PTR _this$[ebp], ecx
	mov	eax, DWORD PTR ___that$[ebp]
	push	eax
	mov	ecx, DWORD PTR _this$[ebp]
	call	??0exception@std@@QAE@ABV01@@Z		; std::exception::exception
	mov	eax, DWORD PTR _this$[ebp]
	mov	DWORD PTR [eax], OFFSET ??_7bad_cast@std@@6B@
	mov	eax, DWORD PTR _this$[ebp]
	pop	edi
	pop	esi
	pop	ebx
	add	esp, 204				; 000000ccH
	cmp	ebp, esp
	call	__RTC_CheckEsp
	mov	esp, ebp
	pop	ebp
	ret	4
??0bad_cast@std@@QAE@ABV01@@Z ENDP			; std::bad_cast::bad_cast
_TEXT	ENDS
; Function compile flags: /Odtp /RTCsu /ZI
;	COMDAT ??1bad_cast@std@@UAE@XZ
_TEXT	SEGMENT
_this$ = -8						; size = 4
??1bad_cast@std@@UAE@XZ PROC				; std::bad_cast::~bad_cast, COMDAT
; _this$ = ecx
	push	ebp
	mov	ebp, esp
	sub	esp, 204				; 000000ccH
	push	ebx
	push	esi
	push	edi
	push	ecx
	lea	edi, DWORD PTR [ebp-204]
	mov	ecx, 51					; 00000033H
	mov	eax, -858993460				; ccccccccH
	rep stosd
	pop	ecx
	mov	DWORD PTR _this$[ebp], ecx
	mov	ecx, DWORD PTR _this$[ebp]
	call	??1exception@std@@UAE@XZ		; std::exception::~exception
	pop	edi
	pop	esi
	pop	ebx
	add	esp, 204				; 000000ccH
	cmp	ebp, esp
	call	__RTC_CheckEsp
	mov	esp, ebp
	pop	ebp
	ret	0
??1bad_cast@std@@UAE@XZ ENDP				; std::bad_cast::~bad_cast
_TEXT	ENDS
; Function compile flags: /Odtp /RTCsu /ZI
; File C:\Program Files (x86)\Microsoft Visual Studio\2019\Professional\VC\Tools\MSVC\14.28.29333\include\vcruntime_typeinfo.h
;	COMDAT ??0bad_cast@std@@QAE@XZ
_TEXT	SEGMENT
_this$ = -8						; size = 4
??0bad_cast@std@@QAE@XZ PROC				; std::bad_cast::bad_cast, COMDAT
; _this$ = ecx

; 135  :     {

	push	ebp
	mov	ebp, esp
	sub	esp, 204				; 000000ccH
	push	ebx
	push	esi
	push	edi
	push	ecx
	lea	edi, DWORD PTR [ebp-204]
	mov	ecx, 51					; 00000033H
	mov	eax, -858993460				; ccccccccH
	rep stosd
	pop	ecx
	mov	DWORD PTR _this$[ebp], ecx
	mov	ecx, OFFSET __EC89C42C_vcruntime_typeinfo@h
	call	@__CheckForDebuggerJustMyCode@4

; 134  :         : exception("bad cast", 1)

	push	1
	push	OFFSET ??_C@_08EPJLHIJG@bad?5cast@
	mov	ecx, DWORD PTR _this$[ebp]
	call	??0exception@std@@QAE@QBDH@Z		; std::exception::exception

; 135  :     {

	mov	eax, DWORD PTR _this$[ebp]
	mov	DWORD PTR [eax], OFFSET ??_7bad_cast@std@@6B@

; 136  :     }

	mov	eax, DWORD PTR _this$[ebp]
	pop	edi
	pop	esi
	pop	ebx
	add	esp, 204				; 000000ccH
	cmp	ebp, esp
	call	__RTC_CheckEsp
	mov	esp, ebp
	pop	ebp
	ret	0
??0bad_cast@std@@QAE@XZ ENDP				; std::bad_cast::bad_cast
_TEXT	ENDS
; Function compile flags: /Odtp /RTCsu /ZI
; File C:\Program Files (x86)\Microsoft Visual Studio\2019\Professional\VC\Tools\MSVC\14.28.29333\include\system_error
;	COMDAT ??$_Immortalize_memcpy_image@V_System_error_category@std@@@std@@YAABV_System_error_category@0@XZ
_TEXT	SEGMENT
??$_Immortalize_memcpy_image@V_System_error_category@std@@@std@@YAABV_System_error_category@0@XZ PROC ; std::_Immortalize_memcpy_image<std::_System_error_category>, COMDAT

; 582  : _NODISCARD const _Ty& _Immortalize_memcpy_image() noexcept {

	push	ebp
	mov	ebp, esp
	sub	esp, 192				; 000000c0H
	push	ebx
	push	esi
	push	edi
	lea	edi, DWORD PTR [ebp-192]
	mov	ecx, 48					; 00000030H
	mov	eax, -858993460				; ccccccccH
	rep stosd
	mov	ecx, OFFSET __7EAAEC0D_system_error
	call	@__CheckForDebuggerJustMyCode@4

; 583  :     static _Constexpr_immortalize_impl<_Ty> _Static;
; 584  :     return _Static._Storage;

	mov	eax, OFFSET ?_Static@?1???$_Immortalize_memcpy_image@V_System_error_category@std@@@std@@YAABV_System_error_category@1@XZ@4U?$_Constexpr_immortalize_impl@V_System_error_category@std@@@1@A ; `std::_Immortalize_memcpy_image<std::_System_error_category>'::`2'::_Static

; 585  : }

	pop	edi
	pop	esi
	pop	ebx
	add	esp, 192				; 000000c0H
	cmp	ebp, esp
	call	__RTC_CheckEsp
	mov	esp, ebp
	pop	ebp
	ret	0
??$_Immortalize_memcpy_image@V_System_error_category@std@@@std@@YAABV_System_error_category@0@XZ ENDP ; std::_Immortalize_memcpy_image<std::_System_error_category>
_TEXT	ENDS
; Function compile flags: /Odtp /RTCsu /ZI
; File C:\Program Files (x86)\Microsoft Visual Studio\2019\Professional\VC\Tools\MSVC\14.28.29333\include\system_error
;	COMDAT ??$_Immortalize_memcpy_image@V_Generic_error_category@std@@@std@@YAABV_Generic_error_category@0@XZ
_TEXT	SEGMENT
??$_Immortalize_memcpy_image@V_Generic_error_category@std@@@std@@YAABV_Generic_error_category@0@XZ PROC ; std::_Immortalize_memcpy_image<std::_Generic_error_category>, COMDAT

; 582  : _NODISCARD const _Ty& _Immortalize_memcpy_image() noexcept {

	push	ebp
	mov	ebp, esp
	sub	esp, 192				; 000000c0H
	push	ebx
	push	esi
	push	edi
	lea	edi, DWORD PTR [ebp-192]
	mov	ecx, 48					; 00000030H
	mov	eax, -858993460				; ccccccccH
	rep stosd
	mov	ecx, OFFSET __7EAAEC0D_system_error
	call	@__CheckForDebuggerJustMyCode@4

; 583  :     static _Constexpr_immortalize_impl<_Ty> _Static;
; 584  :     return _Static._Storage;

	mov	eax, OFFSET ?_Static@?1???$_Immortalize_memcpy_image@V_Generic_error_category@std@@@std@@YAABV_Generic_error_category@1@XZ@4U?$_Constexpr_immortalize_impl@V_Generic_error_category@std@@@1@A ; `std::_Immortalize_memcpy_image<std::_Generic_error_category>'::`2'::_Static

; 585  : }

	pop	edi
	pop	esi
	pop	ebx
	add	esp, 192				; 000000c0H
	cmp	ebp, esp
	call	__RTC_CheckEsp
	mov	esp, ebp
	pop	ebp
	ret	0
??$_Immortalize_memcpy_image@V_Generic_error_category@std@@@std@@YAABV_Generic_error_category@0@XZ ENDP ; std::_Immortalize_memcpy_image<std::_Generic_error_category>
_TEXT	ENDS
; Function compile flags: /Odtp /RTCsu /ZI
;	COMDAT ??_G_System_error_category@std@@UAEPAXI@Z
_TEXT	SEGMENT
_this$ = -8						; size = 4
___flags$ = 8						; size = 4
??_G_System_error_category@std@@UAEPAXI@Z PROC		; std::_System_error_category::`scalar deleting destructor', COMDAT
; _this$ = ecx
	push	ebp
	mov	ebp, esp
	sub	esp, 204				; 000000ccH
	push	ebx
	push	esi
	push	edi
	push	ecx
	lea	edi, DWORD PTR [ebp-204]
	mov	ecx, 51					; 00000033H
	mov	eax, -858993460				; ccccccccH
	rep stosd
	pop	ecx
	mov	DWORD PTR _this$[ebp], ecx
	mov	ecx, DWORD PTR _this$[ebp]
	call	??1_System_error_category@std@@UAE@XZ
	mov	eax, DWORD PTR ___flags$[ebp]
	and	eax, 1
	je	SHORT $LN2@scalar
	push	8
	mov	eax, DWORD PTR _this$[ebp]
	push	eax
	call	??3@YAXPAXI@Z				; operator delete
	add	esp, 8
$LN2@scalar:
	mov	eax, DWORD PTR _this$[ebp]
	pop	edi
	pop	esi
	pop	ebx
	add	esp, 204				; 000000ccH
	cmp	ebp, esp
	call	__RTC_CheckEsp
	mov	esp, ebp
	pop	ebp
	ret	4
??_G_System_error_category@std@@UAEPAXI@Z ENDP		; std::_System_error_category::`scalar deleting destructor'
_TEXT	ENDS
; Function compile flags: /Odtp /RTCsu /ZI
;	COMDAT ??1_System_error_category@std@@UAE@XZ
_TEXT	SEGMENT
_this$ = -8						; size = 4
??1_System_error_category@std@@UAE@XZ PROC		; std::_System_error_category::~_System_error_category, COMDAT
; _this$ = ecx
	push	ebp
	mov	ebp, esp
	sub	esp, 204				; 000000ccH
	push	ebx
	push	esi
	push	edi
	push	ecx
	lea	edi, DWORD PTR [ebp-204]
	mov	ecx, 51					; 00000033H
	mov	eax, -858993460				; ccccccccH
	rep stosd
	pop	ecx
	mov	DWORD PTR _this$[ebp], ecx
	mov	ecx, DWORD PTR _this$[ebp]
	call	??1error_category@std@@UAE@XZ		; std::error_category::~error_category
	pop	edi
	pop	esi
	pop	ebx
	add	esp, 204				; 000000ccH
	cmp	ebp, esp
	call	__RTC_CheckEsp
	mov	esp, ebp
	pop	ebp
	ret	0
??1_System_error_category@std@@UAE@XZ ENDP		; std::_System_error_category::~_System_error_category
_TEXT	ENDS
; Function compile flags: /Odtp /RTCsu /ZI
; File C:\Program Files (x86)\Microsoft Visual Studio\2019\Professional\VC\Tools\MSVC\14.28.29333\include\system_error
;	COMDAT ?default_error_condition@_System_error_category@std@@UBE?AVerror_condition@2@H@Z
_TEXT	SEGMENT
__Posv$ = -32						; size = 4
_this$ = -20						; size = 4
__$EHRec$ = -12						; size = 12
___$ReturnUdt$ = 8					; size = 4
__Errval$ = 12						; size = 4
?default_error_condition@_System_error_category@std@@UBE?AVerror_condition@2@H@Z PROC ; std::_System_error_category::default_error_condition, COMDAT
; _this$ = ecx

; 505  :     _NODISCARD virtual error_condition default_error_condition(int _Errval) const noexcept override {

	push	ebp
	mov	ebp, esp
	push	-1
	push	__ehhandler$?default_error_condition@_System_error_category@std@@UBE?AVerror_condition@2@H@Z
	mov	eax, DWORD PTR fs:0
	push	eax
	sub	esp, 216				; 000000d8H
	push	ebx
	push	esi
	push	edi
	push	ecx
	lea	edi, DWORD PTR [ebp-228]
	mov	ecx, 54					; 00000036H
	mov	eax, -858993460				; ccccccccH
	rep stosd
	pop	ecx
	mov	eax, DWORD PTR ___security_cookie
	xor	eax, ebp
	push	eax
	lea	eax, DWORD PTR __$EHRec$[ebp]
	mov	DWORD PTR fs:0, eax
	mov	DWORD PTR _this$[ebp], ecx
	mov	ecx, OFFSET __7EAAEC0D_system_error
	call	@__CheckForDebuggerJustMyCode@4

; 506  :         // make error_condition for error code (generic if possible)
; 507  :         const int _Posv = _Winerror_map(_Errval);

	mov	eax, DWORD PTR __Errval$[ebp]
	push	eax
	call	?_Winerror_map@std@@YAHH@Z		; std::_Winerror_map
	add	esp, 4
	mov	DWORD PTR __Posv$[ebp], eax

; 508  :         if (_Posv == 0) {

	cmp	DWORD PTR __Posv$[ebp], 0
	jne	SHORT $LN2@default_er

; 509  :             return error_condition(_Errval, _STD system_category());

	call	?system_category@std@@YAABVerror_category@1@XZ ; std::system_category
	push	eax
	mov	eax, DWORD PTR __Errval$[ebp]
	push	eax
	mov	ecx, DWORD PTR ___$ReturnUdt$[ebp]
	call	??0error_condition@std@@QAE@HABVerror_category@1@@Z ; std::error_condition::error_condition
	mov	eax, DWORD PTR ___$ReturnUdt$[ebp]
	jmp	SHORT $LN4@default_er

; 510  :         } else {

	jmp	SHORT $LN4@default_er
$LN2@default_er:

; 511  :             return error_condition(_Posv, _STD generic_category());

	call	?generic_category@std@@YAABVerror_category@1@XZ ; std::generic_category
	push	eax
	mov	eax, DWORD PTR __Posv$[ebp]
	push	eax
	mov	ecx, DWORD PTR ___$ReturnUdt$[ebp]
	call	??0error_condition@std@@QAE@HABVerror_category@1@@Z ; std::error_condition::error_condition
	mov	eax, DWORD PTR ___$ReturnUdt$[ebp]
$LN4@default_er:

; 512  :         }
; 513  :     }

	mov	ecx, DWORD PTR __$EHRec$[ebp]
	mov	DWORD PTR fs:0, ecx
	pop	ecx
	pop	edi
	pop	esi
	pop	ebx
	add	esp, 228				; 000000e4H
	cmp	ebp, esp
	call	__RTC_CheckEsp
	mov	esp, ebp
	pop	ebp
	ret	8
	int	3
	int	3
	int	3
	int	3
	int	3
_TEXT	ENDS
;	COMDAT text$x
text$x	SEGMENT
__ehhandler$?default_error_condition@_System_error_category@std@@UBE?AVerror_condition@2@H@Z:
	npad	1
	npad	1
	mov	edx, DWORD PTR [esp+8]
	lea	eax, DWORD PTR [edx+12]
	mov	ecx, DWORD PTR [edx-232]
	xor	ecx, eax
	call	@__security_check_cookie@4
	mov	eax, OFFSET __ehfuncinfo$?default_error_condition@_System_error_category@std@@UBE?AVerror_condition@2@H@Z
	jmp	___CxxFrameHandler3
text$x	ENDS
?default_error_condition@_System_error_category@std@@UBE?AVerror_condition@2@H@Z ENDP ; std::_System_error_category::default_error_condition
; Function compile flags: /Odtp /RTCsu /ZI
; File C:\Program Files (x86)\Microsoft Visual Studio\2019\Professional\VC\Tools\MSVC\14.28.29333\include\system_error
;	COMDAT ?message@_System_error_category@std@@UBE?AV?$basic_string@DU?$char_traits@D@std@@V?$allocator@D@2@@2@H@Z
_TEXT	SEGMENT
$T2 = -256						; size = 4
__Unknown_error_length$3 = -52				; size = 4
__Msg$ = -40						; size = 8
_this$ = -24						; size = 4
__$ArrayPad$ = -16					; size = 4
__$EHRec$ = -12						; size = 12
___$ReturnUdt$ = 8					; size = 4
__Errcode$ = 12						; size = 4
?message@_System_error_category@std@@UBE?AV?$basic_string@DU?$char_traits@D@std@@V?$allocator@D@2@@2@H@Z PROC ; std::_System_error_category::message, COMDAT
; _this$ = ecx

; 494  :     _NODISCARD virtual string message(int _Errcode) const override {

	push	ebp
	mov	ebp, esp
	push	-1
	push	__ehhandler$?message@_System_error_category@std@@UBE?AV?$basic_string@DU?$char_traits@D@std@@V?$allocator@D@2@@2@H@Z
	mov	eax, DWORD PTR fs:0
	push	eax
	sub	esp, 248				; 000000f8H
	push	ebx
	push	esi
	push	edi
	push	ecx
	lea	edi, DWORD PTR [ebp-260]
	mov	ecx, 62					; 0000003eH
	mov	eax, -858993460				; ccccccccH
	rep stosd
	pop	ecx
	mov	eax, DWORD PTR ___security_cookie
	xor	eax, ebp
	mov	DWORD PTR __$ArrayPad$[ebp], eax
	push	eax
	lea	eax, DWORD PTR __$EHRec$[ebp]
	mov	DWORD PTR fs:0, eax
	mov	DWORD PTR _this$[ebp], ecx
	mov	DWORD PTR $T2[ebp], 0
	mov	ecx, OFFSET __7EAAEC0D_system_error
	call	@__CheckForDebuggerJustMyCode@4

; 495  :         const _System_error_message _Msg(static_cast<unsigned long>(_Errcode));

	mov	eax, DWORD PTR __Errcode$[ebp]
	push	eax
	lea	ecx, DWORD PTR __Msg$[ebp]
	call	??0_System_error_message@std@@QAE@K@Z	; std::_System_error_message::_System_error_message
	mov	DWORD PTR __$EHRec$[ebp+8], 0

; 496  :         if (_Msg._Length == 0) {

	cmp	DWORD PTR __Msg$[ebp+4], 0
	jne	SHORT $LN2@message

; 497  :             static constexpr char _Unknown_error[] = "unknown error";
; 498  :             constexpr size_t _Unknown_error_length = sizeof(_Unknown_error) - 1; // TRANSITION, DevCom-906503

	mov	DWORD PTR __Unknown_error_length$3[ebp], 13 ; 0000000dH

; 499  :             return string(_Unknown_error, _Unknown_error_length);

	push	13					; 0000000dH
	push	OFFSET ?_Unknown_error@?4??message@_System_error_category@std@@UBE?AV?$basic_string@DU?$char_traits@D@std@@V?$allocator@D@2@@3@H@Z@4QBDB ; `std::_System_error_category::message'::`5'::_Unknown_error
	mov	ecx, DWORD PTR ___$ReturnUdt$[ebp]
	call	??0?$basic_string@DU?$char_traits@D@std@@V?$allocator@D@2@@std@@QAE@QBDI@Z ; std::basic_string<char,std::char_traits<char>,std::allocator<char> >::basic_string<char,std::char_traits<char>,std::allocator<char> >
	mov	eax, DWORD PTR $T2[ebp]
	or	eax, 1
	mov	DWORD PTR $T2[ebp], eax
	mov	DWORD PTR __$EHRec$[ebp+8], -1
	lea	ecx, DWORD PTR __Msg$[ebp]
	call	??1_System_error_message@std@@QAE@XZ	; std::_System_error_message::~_System_error_message
	mov	eax, DWORD PTR ___$ReturnUdt$[ebp]
	jmp	SHORT $LN1@message

; 500  :         } else {

	jmp	SHORT $LN3@message
$LN2@message:

; 501  :             return string(_Msg._Str, _Msg._Length);

	mov	eax, DWORD PTR __Msg$[ebp+4]
	push	eax
	mov	ecx, DWORD PTR __Msg$[ebp]
	push	ecx
	mov	ecx, DWORD PTR ___$ReturnUdt$[ebp]
	call	??0?$basic_string@DU?$char_traits@D@std@@V?$allocator@D@2@@std@@QAE@QBDI@Z ; std::basic_string<char,std::char_traits<char>,std::allocator<char> >::basic_string<char,std::char_traits<char>,std::allocator<char> >
	mov	edx, DWORD PTR $T2[ebp]
	or	edx, 1
	mov	DWORD PTR $T2[ebp], edx
	mov	DWORD PTR __$EHRec$[ebp+8], -1
	lea	ecx, DWORD PTR __Msg$[ebp]
	call	??1_System_error_message@std@@QAE@XZ	; std::_System_error_message::~_System_error_message
	mov	eax, DWORD PTR ___$ReturnUdt$[ebp]
	jmp	SHORT $LN1@message
$LN3@message:

; 502  :         }
; 503  :     }

	mov	DWORD PTR __$EHRec$[ebp+8], -1
	lea	ecx, DWORD PTR __Msg$[ebp]
	call	??1_System_error_message@std@@QAE@XZ	; std::_System_error_message::~_System_error_message
$LN1@message:
	push	edx
	mov	ecx, ebp
	push	eax
	lea	edx, DWORD PTR $LN11@message
	call	@_RTC_CheckStackVars@8
	pop	eax
	pop	edx
	mov	ecx, DWORD PTR __$EHRec$[ebp]
	mov	DWORD PTR fs:0, ecx
	pop	ecx
	pop	edi
	pop	esi
	pop	ebx
	mov	ecx, DWORD PTR __$ArrayPad$[ebp]
	xor	ecx, ebp
	call	@__security_check_cookie@4
	add	esp, 260				; 00000104H
	cmp	ebp, esp
	call	__RTC_CheckEsp
	mov	esp, ebp
	pop	ebp
	ret	8
	npad	1
$LN11@message:
	DD	1
	DD	$LN10@message
$LN10@message:
	DD	-40					; ffffffd8H
	DD	8
	DD	$LN8@message
$LN8@message:
	DB	95					; 0000005fH
	DB	77					; 0000004dH
	DB	115					; 00000073H
	DB	103					; 00000067H
	DB	0
_TEXT	ENDS
;	COMDAT text$x
text$x	SEGMENT
__unwindfunclet$?message@_System_error_category@std@@UBE?AV?$basic_string@DU?$char_traits@D@std@@V?$allocator@D@2@@2@H@Z$0:
	lea	ecx, DWORD PTR __Msg$[ebp]
	jmp	??1_System_error_message@std@@QAE@XZ	; std::_System_error_message::~_System_error_message
	int	3
	int	3
	int	3
	int	3
	int	3
__ehhandler$?message@_System_error_category@std@@UBE?AV?$basic_string@DU?$char_traits@D@std@@V?$allocator@D@2@@2@H@Z:
	npad	1
	npad	1
	mov	edx, DWORD PTR [esp+8]
	lea	eax, DWORD PTR [edx+12]
	mov	ecx, DWORD PTR [edx-264]
	xor	ecx, eax
	call	@__security_check_cookie@4
	mov	ecx, DWORD PTR [edx-4]
	xor	ecx, eax
	call	@__security_check_cookie@4
	mov	eax, OFFSET __ehfuncinfo$?message@_System_error_category@std@@UBE?AV?$basic_string@DU?$char_traits@D@std@@V?$allocator@D@2@@2@H@Z
	jmp	___CxxFrameHandler3
text$x	ENDS
?message@_System_error_category@std@@UBE?AV?$basic_string@DU?$char_traits@D@std@@V?$allocator@D@2@@2@H@Z ENDP ; std::_System_error_category::message
; Function compile flags: /Odtp /RTCsu /ZI
; File C:\Program Files (x86)\Microsoft Visual Studio\2019\Professional\VC\Tools\MSVC\14.28.29333\include\system_error
;	COMDAT ?name@_System_error_category@std@@UBEPBDXZ
_TEXT	SEGMENT
_this$ = -8						; size = 4
?name@_System_error_category@std@@UBEPBDXZ PROC		; std::_System_error_category::name, COMDAT
; _this$ = ecx

; 490  :     _NODISCARD virtual const char* name() const noexcept override {

	push	ebp
	mov	ebp, esp
	sub	esp, 204				; 000000ccH
	push	ebx
	push	esi
	push	edi
	push	ecx
	lea	edi, DWORD PTR [ebp-204]
	mov	ecx, 51					; 00000033H
	mov	eax, -858993460				; ccccccccH
	rep stosd
	pop	ecx
	mov	DWORD PTR _this$[ebp], ecx
	mov	ecx, OFFSET __7EAAEC0D_system_error
	call	@__CheckForDebuggerJustMyCode@4

; 491  :         return "system";

	mov	eax, OFFSET ??_C@_06FHFOAHML@system@

; 492  :     }

	pop	edi
	pop	esi
	pop	ebx
	add	esp, 204				; 000000ccH
	cmp	ebp, esp
	call	__RTC_CheckEsp
	mov	esp, ebp
	pop	ebp
	ret	0
?name@_System_error_category@std@@UBEPBDXZ ENDP		; std::_System_error_category::name
_TEXT	ENDS
; Function compile flags: /Odtp /RTCsu /ZI
;	COMDAT ??_G_Generic_error_category@std@@UAEPAXI@Z
_TEXT	SEGMENT
_this$ = -8						; size = 4
___flags$ = 8						; size = 4
??_G_Generic_error_category@std@@UAEPAXI@Z PROC		; std::_Generic_error_category::`scalar deleting destructor', COMDAT
; _this$ = ecx
	push	ebp
	mov	ebp, esp
	sub	esp, 204				; 000000ccH
	push	ebx
	push	esi
	push	edi
	push	ecx
	lea	edi, DWORD PTR [ebp-204]
	mov	ecx, 51					; 00000033H
	mov	eax, -858993460				; ccccccccH
	rep stosd
	pop	ecx
	mov	DWORD PTR _this$[ebp], ecx
	mov	ecx, DWORD PTR _this$[ebp]
	call	??1_Generic_error_category@std@@UAE@XZ
	mov	eax, DWORD PTR ___flags$[ebp]
	and	eax, 1
	je	SHORT $LN2@scalar
	push	8
	mov	eax, DWORD PTR _this$[ebp]
	push	eax
	call	??3@YAXPAXI@Z				; operator delete
	add	esp, 8
$LN2@scalar:
	mov	eax, DWORD PTR _this$[ebp]
	pop	edi
	pop	esi
	pop	ebx
	add	esp, 204				; 000000ccH
	cmp	ebp, esp
	call	__RTC_CheckEsp
	mov	esp, ebp
	pop	ebp
	ret	4
??_G_Generic_error_category@std@@UAEPAXI@Z ENDP		; std::_Generic_error_category::`scalar deleting destructor'
_TEXT	ENDS
; Function compile flags: /Odtp /RTCsu /ZI
;	COMDAT ??1_Generic_error_category@std@@UAE@XZ
_TEXT	SEGMENT
_this$ = -8						; size = 4
??1_Generic_error_category@std@@UAE@XZ PROC		; std::_Generic_error_category::~_Generic_error_category, COMDAT
; _this$ = ecx
	push	ebp
	mov	ebp, esp
	sub	esp, 204				; 000000ccH
	push	ebx
	push	esi
	push	edi
	push	ecx
	lea	edi, DWORD PTR [ebp-204]
	mov	ecx, 51					; 00000033H
	mov	eax, -858993460				; ccccccccH
	rep stosd
	pop	ecx
	mov	DWORD PTR _this$[ebp], ecx
	mov	ecx, DWORD PTR _this$[ebp]
	call	??1error_category@std@@UAE@XZ		; std::error_category::~error_category
	pop	edi
	pop	esi
	pop	ebx
	add	esp, 204				; 000000ccH
	cmp	ebp, esp
	call	__RTC_CheckEsp
	mov	esp, ebp
	pop	ebp
	ret	0
??1_Generic_error_category@std@@UAE@XZ ENDP		; std::_Generic_error_category::~_Generic_error_category
_TEXT	ENDS
; Function compile flags: /Odtp /RTCsu /ZI
; File C:\Program Files (x86)\Microsoft Visual Studio\2019\Professional\VC\Tools\MSVC\14.28.29333\include\system_error
;	COMDAT ?message@_Generic_error_category@std@@UBE?AV?$basic_string@DU?$char_traits@D@std@@V?$allocator@D@2@@2@H@Z
_TEXT	SEGMENT
$T1 = -212						; size = 4
_this$ = -8						; size = 4
___$ReturnUdt$ = 8					; size = 4
__Errcode$ = 12						; size = 4
?message@_Generic_error_category@std@@UBE?AV?$basic_string@DU?$char_traits@D@std@@V?$allocator@D@2@@2@H@Z PROC ; std::_Generic_error_category::message, COMDAT
; _this$ = ecx

; 462  :     _NODISCARD virtual string message(int _Errcode) const override {

	push	ebp
	mov	ebp, esp
	sub	esp, 216				; 000000d8H
	push	ebx
	push	esi
	push	edi
	push	ecx
	lea	edi, DWORD PTR [ebp-216]
	mov	ecx, 54					; 00000036H
	mov	eax, -858993460				; ccccccccH
	rep stosd
	pop	ecx
	mov	DWORD PTR _this$[ebp], ecx
	mov	DWORD PTR $T1[ebp], 0
	mov	ecx, OFFSET __7EAAEC0D_system_error
	call	@__CheckForDebuggerJustMyCode@4

; 463  :         return _Syserror_map(_Errcode);

	mov	eax, DWORD PTR __Errcode$[ebp]
	push	eax
	call	?_Syserror_map@std@@YAPBDH@Z		; std::_Syserror_map
	add	esp, 4
	push	eax
	mov	ecx, DWORD PTR ___$ReturnUdt$[ebp]
	call	??0?$basic_string@DU?$char_traits@D@std@@V?$allocator@D@2@@std@@QAE@QBD@Z ; std::basic_string<char,std::char_traits<char>,std::allocator<char> >::basic_string<char,std::char_traits<char>,std::allocator<char> >
	mov	ecx, DWORD PTR $T1[ebp]
	or	ecx, 1
	mov	DWORD PTR $T1[ebp], ecx
	mov	eax, DWORD PTR ___$ReturnUdt$[ebp]

; 464  :     }

	pop	edi
	pop	esi
	pop	ebx
	add	esp, 216				; 000000d8H
	cmp	ebp, esp
	call	__RTC_CheckEsp
	mov	esp, ebp
	pop	ebp
	ret	8
?message@_Generic_error_category@std@@UBE?AV?$basic_string@DU?$char_traits@D@std@@V?$allocator@D@2@@2@H@Z ENDP ; std::_Generic_error_category::message
_TEXT	ENDS
; Function compile flags: /Odtp /RTCsu /ZI
; File C:\Program Files (x86)\Microsoft Visual Studio\2019\Professional\VC\Tools\MSVC\14.28.29333\include\system_error
;	COMDAT ?name@_Generic_error_category@std@@UBEPBDXZ
_TEXT	SEGMENT
_this$ = -8						; size = 4
?name@_Generic_error_category@std@@UBEPBDXZ PROC	; std::_Generic_error_category::name, COMDAT
; _this$ = ecx

; 458  :     _NODISCARD virtual const char* name() const noexcept override {

	push	ebp
	mov	ebp, esp
	sub	esp, 204				; 000000ccH
	push	ebx
	push	esi
	push	edi
	push	ecx
	lea	edi, DWORD PTR [ebp-204]
	mov	ecx, 51					; 00000033H
	mov	eax, -858993460				; ccccccccH
	rep stosd
	pop	ecx
	mov	DWORD PTR _this$[ebp], ecx
	mov	ecx, OFFSET __7EAAEC0D_system_error
	call	@__CheckForDebuggerJustMyCode@4

; 459  :         return "generic";

	mov	eax, OFFSET ??_C@_07DCLBNMLN@generic@

; 460  :     }

	pop	edi
	pop	esi
	pop	ebx
	add	esp, 204				; 000000ccH
	cmp	ebp, esp
	call	__RTC_CheckEsp
	mov	esp, ebp
	pop	ebp
	ret	0
?name@_Generic_error_category@std@@UBEPBDXZ ENDP	; std::_Generic_error_category::name
_TEXT	ENDS
; Function compile flags: /Odtp /RTCsu /ZI
; File C:\Program Files (x86)\Microsoft Visual Studio\2019\Professional\VC\Tools\MSVC\14.28.29333\include\system_error
;	COMDAT ??1_System_error_message@std@@QAE@XZ
_TEXT	SEGMENT
_this$ = -8						; size = 4
??1_System_error_message@std@@QAE@XZ PROC		; std::_System_error_message::~_System_error_message, COMDAT
; _this$ = ecx

; 449  :     ~_System_error_message() {

	push	ebp
	mov	ebp, esp
	sub	esp, 204				; 000000ccH
	push	ebx
	push	esi
	push	edi
	push	ecx
	lea	edi, DWORD PTR [ebp-204]
	mov	ecx, 51					; 00000033H
	mov	eax, -858993460				; ccccccccH
	rep stosd
	pop	ecx
	mov	DWORD PTR _this$[ebp], ecx
	mov	ecx, OFFSET __7EAAEC0D_system_error
	call	@__CheckForDebuggerJustMyCode@4

; 450  :         _CSTD __std_system_error_deallocate_message(_Str);

	mov	eax, DWORD PTR _this$[ebp]
	mov	ecx, DWORD PTR [eax]
	push	ecx
	call	___std_system_error_deallocate_message@4

; 451  :     }

	pop	edi
	pop	esi
	pop	ebx
	add	esp, 204				; 000000ccH
	cmp	ebp, esp
	call	__RTC_CheckEsp
	mov	esp, ebp
	pop	ebp
	ret	0
??1_System_error_message@std@@QAE@XZ ENDP		; std::_System_error_message::~_System_error_message
_TEXT	ENDS
; Function compile flags: /Odtp /RTCsu /ZI
; File C:\Program Files (x86)\Microsoft Visual Studio\2019\Professional\VC\Tools\MSVC\14.28.29333\include\system_error
;	COMDAT ??0_System_error_message@std@@QAE@K@Z
_TEXT	SEGMENT
_this$ = -8						; size = 4
__Ec$ = 8						; size = 4
??0_System_error_message@std@@QAE@K@Z PROC		; std::_System_error_message::_System_error_message, COMDAT
; _this$ = ecx

; 443  :     explicit _System_error_message(const unsigned long _Ec) noexcept

	push	ebp
	mov	ebp, esp
	sub	esp, 204				; 000000ccH
	push	ebx
	push	esi
	push	edi
	push	ecx
	lea	edi, DWORD PTR [ebp-204]
	mov	ecx, 51					; 00000033H
	mov	eax, -858993460				; ccccccccH
	rep stosd
	pop	ecx
	mov	DWORD PTR _this$[ebp], ecx
	mov	ecx, OFFSET __7EAAEC0D_system_error
	call	@__CheckForDebuggerJustMyCode@4

; 444  :         : _Str(nullptr), _Length(_CSTD __std_system_error_allocate_message(_Ec, &_Str)) {}

	mov	eax, DWORD PTR _this$[ebp]
	mov	DWORD PTR [eax], 0
	mov	eax, DWORD PTR _this$[ebp]
	push	eax
	mov	ecx, DWORD PTR __Ec$[ebp]
	push	ecx
	call	___std_system_error_allocate_message@8
	mov	edx, DWORD PTR _this$[ebp]
	mov	DWORD PTR [edx+4], eax
	mov	eax, DWORD PTR _this$[ebp]
	pop	edi
	pop	esi
	pop	ebx
	add	esp, 204				; 000000ccH
	cmp	ebp, esp
	call	__RTC_CheckEsp
	mov	esp, ebp
	pop	ebp
	ret	4
??0_System_error_message@std@@QAE@K@Z ENDP		; std::_System_error_message::_System_error_message
_TEXT	ENDS
; Function compile flags: /Odtp /RTCsu /ZI
; File C:\Program Files (x86)\Microsoft Visual Studio\2019\Professional\VC\Tools\MSVC\14.28.29333\include\system_error
;	COMDAT ?_Throw_system_error@std@@YAXW4errc@1@@Z
_TEXT	SEGMENT
$T1 = -232						; size = 8
$T2 = -216						; size = 20
__Errno$ = 8						; size = 4
?_Throw_system_error@std@@YAXW4errc@1@@Z PROC		; std::_Throw_system_error, COMDAT

; 432  : [[noreturn]] inline void _Throw_system_error(const errc _Errno) {

	push	ebp
	mov	ebp, esp
	sub	esp, 236				; 000000ecH
	push	ebx
	push	esi
	push	edi
	lea	edi, DWORD PTR [ebp-236]
	mov	ecx, 59					; 0000003bH
	mov	eax, -858993460				; ccccccccH
	rep stosd
	mov	ecx, OFFSET __7EAAEC0D_system_error
	call	@__CheckForDebuggerJustMyCode@4

; 433  :     _THROW(system_error{_STD make_error_code(_Errno)});

	mov	eax, DWORD PTR __Errno$[ebp]
	push	eax
	lea	ecx, DWORD PTR $T1[ebp]
	push	ecx
	call	?make_error_code@std@@YA?AVerror_code@1@W4errc@1@@Z ; std::make_error_code
	add	esp, 8
	mov	edx, DWORD PTR [eax+4]
	push	edx
	mov	eax, DWORD PTR [eax]
	push	eax
	lea	ecx, DWORD PTR $T2[ebp]
	call	??0system_error@std@@QAE@Verror_code@1@@Z ; std::system_error::system_error
	push	OFFSET __TI4?AVsystem_error@std@@
	lea	ecx, DWORD PTR $T2[ebp]
	push	ecx
	call	__CxxThrowException@8
$LN2@Throw_syst:

; 434  : }

	pop	edi
	pop	esi
	pop	ebx
	add	esp, 236				; 000000ecH
	cmp	ebp, esp
	call	__RTC_CheckEsp
	mov	esp, ebp
	pop	ebp
	ret	0
?_Throw_system_error@std@@YAXW4errc@1@@Z ENDP		; std::_Throw_system_error
_TEXT	ENDS
; Function compile flags: /Odtp /RTCsu /ZI
;	COMDAT ??_Gsystem_error@std@@UAEPAXI@Z
_TEXT	SEGMENT
_this$ = -8						; size = 4
___flags$ = 8						; size = 4
??_Gsystem_error@std@@UAEPAXI@Z PROC			; std::system_error::`scalar deleting destructor', COMDAT
; _this$ = ecx
	push	ebp
	mov	ebp, esp
	sub	esp, 204				; 000000ccH
	push	ebx
	push	esi
	push	edi
	push	ecx
	lea	edi, DWORD PTR [ebp-204]
	mov	ecx, 51					; 00000033H
	mov	eax, -858993460				; ccccccccH
	rep stosd
	pop	ecx
	mov	DWORD PTR _this$[ebp], ecx
	mov	ecx, DWORD PTR _this$[ebp]
	call	??1system_error@std@@UAE@XZ
	mov	eax, DWORD PTR ___flags$[ebp]
	and	eax, 1
	je	SHORT $LN2@scalar
	push	20					; 00000014H
	mov	eax, DWORD PTR _this$[ebp]
	push	eax
	call	??3@YAXPAXI@Z				; operator delete
	add	esp, 8
$LN2@scalar:
	mov	eax, DWORD PTR _this$[ebp]
	pop	edi
	pop	esi
	pop	ebx
	add	esp, 204				; 000000ccH
	cmp	ebp, esp
	call	__RTC_CheckEsp
	mov	esp, ebp
	pop	ebp
	ret	4
??_Gsystem_error@std@@UAEPAXI@Z ENDP			; std::system_error::`scalar deleting destructor'
_TEXT	ENDS
; Function compile flags: /Odtp /RTCsu /ZI
;	COMDAT ??0system_error@std@@QAE@ABV01@@Z
_TEXT	SEGMENT
_this$ = -8						; size = 4
___that$ = 8						; size = 4
??0system_error@std@@QAE@ABV01@@Z PROC			; std::system_error::system_error, COMDAT
; _this$ = ecx
	push	ebp
	mov	ebp, esp
	sub	esp, 204				; 000000ccH
	push	ebx
	push	esi
	push	edi
	push	ecx
	lea	edi, DWORD PTR [ebp-204]
	mov	ecx, 51					; 00000033H
	mov	eax, -858993460				; ccccccccH
	rep stosd
	pop	ecx
	mov	DWORD PTR _this$[ebp], ecx
	mov	eax, DWORD PTR ___that$[ebp]
	push	eax
	mov	ecx, DWORD PTR _this$[ebp]
	call	??0_System_error@std@@QAE@ABV01@@Z
	mov	eax, DWORD PTR _this$[ebp]
	mov	DWORD PTR [eax], OFFSET ??_7system_error@std@@6B@
	mov	eax, DWORD PTR _this$[ebp]
	pop	edi
	pop	esi
	pop	ebx
	add	esp, 204				; 000000ccH
	cmp	ebp, esp
	call	__RTC_CheckEsp
	mov	esp, ebp
	pop	ebp
	ret	4
??0system_error@std@@QAE@ABV01@@Z ENDP			; std::system_error::system_error
_TEXT	ENDS
; Function compile flags: /Odtp /RTCsu /ZI
;	COMDAT ??1system_error@std@@UAE@XZ
_TEXT	SEGMENT
_this$ = -8						; size = 4
??1system_error@std@@UAE@XZ PROC			; std::system_error::~system_error, COMDAT
; _this$ = ecx
	push	ebp
	mov	ebp, esp
	sub	esp, 204				; 000000ccH
	push	ebx
	push	esi
	push	edi
	push	ecx
	lea	edi, DWORD PTR [ebp-204]
	mov	ecx, 51					; 00000033H
	mov	eax, -858993460				; ccccccccH
	rep stosd
	pop	ecx
	mov	DWORD PTR _this$[ebp], ecx
	mov	ecx, DWORD PTR _this$[ebp]
	call	??1_System_error@std@@UAE@XZ
	pop	edi
	pop	esi
	pop	ebx
	add	esp, 204				; 000000ccH
	cmp	ebp, esp
	call	__RTC_CheckEsp
	mov	esp, ebp
	pop	ebp
	ret	0
??1system_error@std@@UAE@XZ ENDP			; std::system_error::~system_error
_TEXT	ENDS
; Function compile flags: /Odtp /RTCsu /ZI
; File C:\Program Files (x86)\Microsoft Visual Studio\2019\Professional\VC\Tools\MSVC\14.28.29333\include\system_error
;	COMDAT ??0system_error@std@@QAE@Verror_code@1@ABV?$basic_string@DU?$char_traits@D@std@@V?$allocator@D@2@@1@@Z
_TEXT	SEGMENT
_this$ = -8						; size = 4
__Errcode$ = 8						; size = 8
__Message$ = 16						; size = 4
??0system_error@std@@QAE@Verror_code@1@ABV?$basic_string@DU?$char_traits@D@std@@V?$allocator@D@2@@1@@Z PROC ; std::system_error::system_error, COMDAT
; _this$ = ecx

; 408  :     system_error(error_code _Errcode, const string& _Message) : _Mybase(_Errcode, _Message) {}

	push	ebp
	mov	ebp, esp
	sub	esp, 204				; 000000ccH
	push	ebx
	push	esi
	push	edi
	push	ecx
	lea	edi, DWORD PTR [ebp-204]
	mov	ecx, 51					; 00000033H
	mov	eax, -858993460				; ccccccccH
	rep stosd
	pop	ecx
	mov	DWORD PTR _this$[ebp], ecx
	mov	ecx, OFFSET __7EAAEC0D_system_error
	call	@__CheckForDebuggerJustMyCode@4
	mov	eax, DWORD PTR __Message$[ebp]
	push	eax
	mov	ecx, DWORD PTR __Errcode$[ebp+4]
	push	ecx
	mov	edx, DWORD PTR __Errcode$[ebp]
	push	edx
	mov	ecx, DWORD PTR _this$[ebp]
	call	??0_System_error@std@@IAE@Verror_code@1@ABV?$basic_string@DU?$char_traits@D@std@@V?$allocator@D@2@@1@@Z ; std::_System_error::_System_error
	mov	eax, DWORD PTR _this$[ebp]
	mov	DWORD PTR [eax], OFFSET ??_7system_error@std@@6B@
	mov	eax, DWORD PTR _this$[ebp]
	pop	edi
	pop	esi
	pop	ebx
	add	esp, 204				; 000000ccH
	cmp	ebp, esp
	call	__RTC_CheckEsp
	mov	esp, ebp
	pop	ebp
	ret	12					; 0000000cH
??0system_error@std@@QAE@Verror_code@1@ABV?$basic_string@DU?$char_traits@D@std@@V?$allocator@D@2@@1@@Z ENDP ; std::system_error::system_error
_TEXT	ENDS
; Function compile flags: /Odtp /RTCsu /ZI
; File C:\Program Files (x86)\Microsoft Visual Studio\2019\Professional\VC\Tools\MSVC\14.28.29333\include\system_error
;	COMDAT ??0system_error@std@@QAE@Verror_code@1@@Z
_TEXT	SEGMENT
$T2 = -248						; size = 28
_this$ = -20						; size = 4
__$EHRec$ = -12						; size = 12
__Errcode$ = 8						; size = 8
??0system_error@std@@QAE@Verror_code@1@@Z PROC		; std::system_error::system_error, COMDAT
; _this$ = ecx

; 406  :     system_error(error_code _Errcode) : _Mybase(_Errcode, "") {}

	push	ebp
	mov	ebp, esp
	push	-1
	push	__ehhandler$??0system_error@std@@QAE@Verror_code@1@@Z
	mov	eax, DWORD PTR fs:0
	push	eax
	sub	esp, 240				; 000000f0H
	push	ebx
	push	esi
	push	edi
	push	ecx
	lea	edi, DWORD PTR [ebp-252]
	mov	ecx, 60					; 0000003cH
	mov	eax, -858993460				; ccccccccH
	rep stosd
	pop	ecx
	mov	eax, DWORD PTR ___security_cookie
	xor	eax, ebp
	push	eax
	lea	eax, DWORD PTR __$EHRec$[ebp]
	mov	DWORD PTR fs:0, eax
	mov	DWORD PTR _this$[ebp], ecx
	mov	ecx, OFFSET __7EAAEC0D_system_error
	call	@__CheckForDebuggerJustMyCode@4
	push	OFFSET ??_C@_00CNPNBAHC@@
	lea	ecx, DWORD PTR $T2[ebp]
	call	??0?$basic_string@DU?$char_traits@D@std@@V?$allocator@D@2@@std@@QAE@QBD@Z ; std::basic_string<char,std::char_traits<char>,std::allocator<char> >::basic_string<char,std::char_traits<char>,std::allocator<char> >
	mov	DWORD PTR __$EHRec$[ebp+8], 0
	lea	eax, DWORD PTR $T2[ebp]
	push	eax
	mov	ecx, DWORD PTR __Errcode$[ebp+4]
	push	ecx
	mov	edx, DWORD PTR __Errcode$[ebp]
	push	edx
	mov	ecx, DWORD PTR _this$[ebp]
	call	??0_System_error@std@@IAE@Verror_code@1@ABV?$basic_string@DU?$char_traits@D@std@@V?$allocator@D@2@@1@@Z ; std::_System_error::_System_error
	mov	DWORD PTR __$EHRec$[ebp+8], -1
	lea	ecx, DWORD PTR $T2[ebp]
	call	??1?$basic_string@DU?$char_traits@D@std@@V?$allocator@D@2@@std@@QAE@XZ ; std::basic_string<char,std::char_traits<char>,std::allocator<char> >::~basic_string<char,std::char_traits<char>,std::allocator<char> >
	mov	eax, DWORD PTR _this$[ebp]
	mov	DWORD PTR [eax], OFFSET ??_7system_error@std@@6B@
	mov	eax, DWORD PTR _this$[ebp]
	mov	ecx, DWORD PTR __$EHRec$[ebp]
	mov	DWORD PTR fs:0, ecx
	pop	ecx
	pop	edi
	pop	esi
	pop	ebx
	add	esp, 252				; 000000fcH
	cmp	ebp, esp
	call	__RTC_CheckEsp
	mov	esp, ebp
	pop	ebp
	ret	8
_TEXT	ENDS
;	COMDAT text$x
text$x	SEGMENT
__unwindfunclet$??0system_error@std@@QAE@Verror_code@1@@Z$0:
	lea	ecx, DWORD PTR $T2[ebp]
	jmp	??1?$basic_string@DU?$char_traits@D@std@@V?$allocator@D@2@@std@@QAE@XZ ; std::basic_string<char,std::char_traits<char>,std::allocator<char> >::~basic_string<char,std::char_traits<char>,std::allocator<char> >
	int	3
	int	3
	int	3
	int	3
	int	3
__ehhandler$??0system_error@std@@QAE@Verror_code@1@@Z:
	npad	1
	npad	1
	mov	edx, DWORD PTR [esp+8]
	lea	eax, DWORD PTR [edx+12]
	mov	ecx, DWORD PTR [edx-256]
	xor	ecx, eax
	call	@__security_check_cookie@4
	mov	eax, OFFSET __ehfuncinfo$??0system_error@std@@QAE@Verror_code@1@@Z
	jmp	___CxxFrameHandler3
text$x	ENDS
??0system_error@std@@QAE@Verror_code@1@@Z ENDP		; std::system_error::system_error
; Function compile flags: /Odtp /RTCsu /ZI
;	COMDAT ??_G_System_error@std@@UAEPAXI@Z
_TEXT	SEGMENT
_this$ = -8						; size = 4
___flags$ = 8						; size = 4
??_G_System_error@std@@UAEPAXI@Z PROC			; std::_System_error::`scalar deleting destructor', COMDAT
; _this$ = ecx
	push	ebp
	mov	ebp, esp
	sub	esp, 204				; 000000ccH
	push	ebx
	push	esi
	push	edi
	push	ecx
	lea	edi, DWORD PTR [ebp-204]
	mov	ecx, 51					; 00000033H
	mov	eax, -858993460				; ccccccccH
	rep stosd
	pop	ecx
	mov	DWORD PTR _this$[ebp], ecx
	mov	ecx, DWORD PTR _this$[ebp]
	call	??1_System_error@std@@UAE@XZ
	mov	eax, DWORD PTR ___flags$[ebp]
	and	eax, 1
	je	SHORT $LN2@scalar
	push	20					; 00000014H
	mov	eax, DWORD PTR _this$[ebp]
	push	eax
	call	??3@YAXPAXI@Z				; operator delete
	add	esp, 8
$LN2@scalar:
	mov	eax, DWORD PTR _this$[ebp]
	pop	edi
	pop	esi
	pop	ebx
	add	esp, 204				; 000000ccH
	cmp	ebp, esp
	call	__RTC_CheckEsp
	mov	esp, ebp
	pop	ebp
	ret	4
??_G_System_error@std@@UAEPAXI@Z ENDP			; std::_System_error::`scalar deleting destructor'
_TEXT	ENDS
; Function compile flags: /Odtp /RTCsu /ZI
;	COMDAT ??0_System_error@std@@QAE@ABV01@@Z
_TEXT	SEGMENT
_this$ = -8						; size = 4
___that$ = 8						; size = 4
??0_System_error@std@@QAE@ABV01@@Z PROC			; std::_System_error::_System_error, COMDAT
; _this$ = ecx
	push	ebp
	mov	ebp, esp
	sub	esp, 204				; 000000ccH
	push	ebx
	push	esi
	push	edi
	push	ecx
	lea	edi, DWORD PTR [ebp-204]
	mov	ecx, 51					; 00000033H
	mov	eax, -858993460				; ccccccccH
	rep stosd
	pop	ecx
	mov	DWORD PTR _this$[ebp], ecx
	mov	eax, DWORD PTR ___that$[ebp]
	push	eax
	mov	ecx, DWORD PTR _this$[ebp]
	call	??0runtime_error@std@@QAE@ABV01@@Z
	mov	eax, DWORD PTR _this$[ebp]
	mov	DWORD PTR [eax], OFFSET ??_7_System_error@std@@6B@
	mov	eax, DWORD PTR ___that$[ebp]
	mov	ecx, DWORD PTR [eax+12]
	mov	edx, DWORD PTR [eax+16]
	mov	eax, DWORD PTR _this$[ebp]
	mov	DWORD PTR [eax+12], ecx
	mov	DWORD PTR [eax+16], edx
	mov	eax, DWORD PTR _this$[ebp]
	pop	edi
	pop	esi
	pop	ebx
	add	esp, 204				; 000000ccH
	cmp	ebp, esp
	call	__RTC_CheckEsp
	mov	esp, ebp
	pop	ebp
	ret	4
??0_System_error@std@@QAE@ABV01@@Z ENDP			; std::_System_error::_System_error
_TEXT	ENDS
; Function compile flags: /Odtp /RTCsu /ZI
;	COMDAT ??1_System_error@std@@UAE@XZ
_TEXT	SEGMENT
_this$ = -8						; size = 4
??1_System_error@std@@UAE@XZ PROC			; std::_System_error::~_System_error, COMDAT
; _this$ = ecx
	push	ebp
	mov	ebp, esp
	sub	esp, 204				; 000000ccH
	push	ebx
	push	esi
	push	edi
	push	ecx
	lea	edi, DWORD PTR [ebp-204]
	mov	ecx, 51					; 00000033H
	mov	eax, -858993460				; ccccccccH
	rep stosd
	pop	ecx
	mov	DWORD PTR _this$[ebp], ecx
	mov	ecx, DWORD PTR _this$[ebp]
	call	??1runtime_error@std@@UAE@XZ
	pop	edi
	pop	esi
	pop	ebx
	add	esp, 204				; 000000ccH
	cmp	ebp, esp
	call	__RTC_CheckEsp
	mov	esp, ebp
	pop	ebp
	ret	0
??1_System_error@std@@UAE@XZ ENDP			; std::_System_error::~_System_error
_TEXT	ENDS
; Function compile flags: /Odtp /RTCsu /ZI
; File C:\Program Files (x86)\Microsoft Visual Studio\2019\Professional\VC\Tools\MSVC\14.28.29333\include\system_error
;	COMDAT ??0_System_error@std@@IAE@Verror_code@1@ABV?$basic_string@DU?$char_traits@D@std@@V?$allocator@D@2@@1@@Z
_TEXT	SEGMENT
tv138 = -272						; size = 4
tv136 = -268						; size = 4
$T2 = -260						; size = 28
$T3 = -224						; size = 4
_this$ = -20						; size = 4
__$EHRec$ = -12						; size = 12
__Errcode$ = 8						; size = 8
__Message$ = 16						; size = 4
??0_System_error@std@@IAE@Verror_code@1@ABV?$basic_string@DU?$char_traits@D@std@@V?$allocator@D@2@@1@@Z PROC ; std::_System_error::_System_error, COMDAT
; _this$ = ecx

; 395  :     _System_error(error_code _Errcode, const string& _Message)

	push	ebp
	mov	ebp, esp
	push	-1
	push	__ehhandler$??0_System_error@std@@IAE@Verror_code@1@ABV?$basic_string@DU?$char_traits@D@std@@V?$allocator@D@2@@1@@Z
	mov	eax, DWORD PTR fs:0
	push	eax
	sub	esp, 260				; 00000104H
	push	ebx
	push	esi
	push	edi
	push	ecx
	lea	edi, DWORD PTR [ebp-272]
	mov	ecx, 65					; 00000041H
	mov	eax, -858993460				; ccccccccH
	rep stosd
	pop	ecx
	mov	eax, DWORD PTR ___security_cookie
	xor	eax, ebp
	push	eax
	lea	eax, DWORD PTR __$EHRec$[ebp]
	mov	DWORD PTR fs:0, eax
	mov	DWORD PTR _this$[ebp], ecx
	mov	ecx, OFFSET __7EAAEC0D_system_error
	call	@__CheckForDebuggerJustMyCode@4

; 396  :         : runtime_error(_Makestr(_Errcode, _Message)), _Mycode(_Errcode) {}

	sub	esp, 28					; 0000001cH
	mov	ecx, esp
	mov	DWORD PTR $T3[ebp], esp
	mov	eax, DWORD PTR __Message$[ebp]
	push	eax
	call	??0?$basic_string@DU?$char_traits@D@std@@V?$allocator@D@2@@std@@QAE@ABV01@@Z ; std::basic_string<char,std::char_traits<char>,std::allocator<char> >::basic_string<char,std::char_traits<char>,std::allocator<char> >
	mov	ecx, DWORD PTR __Errcode$[ebp+4]
	push	ecx
	mov	edx, DWORD PTR __Errcode$[ebp]
	push	edx
	lea	eax, DWORD PTR $T2[ebp]
	push	eax
	call	?_Makestr@_System_error@std@@CA?AV?$basic_string@DU?$char_traits@D@std@@V?$allocator@D@2@@2@Verror_code@2@V32@@Z ; std::_System_error::_Makestr
	add	esp, 40					; 00000028H
	mov	DWORD PTR tv136[ebp], eax
	mov	ecx, DWORD PTR tv136[ebp]
	mov	DWORD PTR tv138[ebp], ecx
	mov	DWORD PTR __$EHRec$[ebp+8], 0
	mov	edx, DWORD PTR tv138[ebp]
	push	edx
	mov	ecx, DWORD PTR _this$[ebp]
	call	??0runtime_error@std@@QAE@ABV?$basic_string@DU?$char_traits@D@std@@V?$allocator@D@2@@1@@Z ; std::runtime_error::runtime_error
	mov	DWORD PTR __$EHRec$[ebp+8], -1
	lea	ecx, DWORD PTR $T2[ebp]
	call	??1?$basic_string@DU?$char_traits@D@std@@V?$allocator@D@2@@std@@QAE@XZ ; std::basic_string<char,std::char_traits<char>,std::allocator<char> >::~basic_string<char,std::char_traits<char>,std::allocator<char> >
	mov	eax, DWORD PTR _this$[ebp]
	mov	DWORD PTR [eax], OFFSET ??_7_System_error@std@@6B@
	mov	eax, DWORD PTR _this$[ebp]
	mov	ecx, DWORD PTR __Errcode$[ebp]
	mov	edx, DWORD PTR __Errcode$[ebp+4]
	mov	DWORD PTR [eax+12], ecx
	mov	DWORD PTR [eax+16], edx
	mov	eax, DWORD PTR _this$[ebp]
	mov	ecx, DWORD PTR __$EHRec$[ebp]
	mov	DWORD PTR fs:0, ecx
	pop	ecx
	pop	edi
	pop	esi
	pop	ebx
	add	esp, 272				; 00000110H
	cmp	ebp, esp
	call	__RTC_CheckEsp
	mov	esp, ebp
	pop	ebp
	ret	12					; 0000000cH
_TEXT	ENDS
;	COMDAT text$x
text$x	SEGMENT
__unwindfunclet$??0_System_error@std@@IAE@Verror_code@1@ABV?$basic_string@DU?$char_traits@D@std@@V?$allocator@D@2@@1@@Z$1:
	lea	ecx, DWORD PTR $T2[ebp]
	jmp	??1?$basic_string@DU?$char_traits@D@std@@V?$allocator@D@2@@std@@QAE@XZ ; std::basic_string<char,std::char_traits<char>,std::allocator<char> >::~basic_string<char,std::char_traits<char>,std::allocator<char> >
	int	3
	int	3
	int	3
	int	3
	int	3
__ehhandler$??0_System_error@std@@IAE@Verror_code@1@ABV?$basic_string@DU?$char_traits@D@std@@V?$allocator@D@2@@1@@Z:
	npad	1
	npad	1
	mov	edx, DWORD PTR [esp+8]
	lea	eax, DWORD PTR [edx+12]
	mov	ecx, DWORD PTR [edx-276]
	xor	ecx, eax
	call	@__security_check_cookie@4
	mov	eax, OFFSET __ehfuncinfo$??0_System_error@std@@IAE@Verror_code@1@ABV?$basic_string@DU?$char_traits@D@std@@V?$allocator@D@2@@1@@Z
	jmp	___CxxFrameHandler3
text$x	ENDS
??0_System_error@std@@IAE@Verror_code@1@ABV?$basic_string@DU?$char_traits@D@std@@V?$allocator@D@2@@1@@Z ENDP ; std::_System_error::_System_error
; Function compile flags: /Odtp /RTCsu /ZI
; File C:\Program Files (x86)\Microsoft Visual Studio\2019\Professional\VC\Tools\MSVC\14.28.29333\include\system_error
;	COMDAT ?_Makestr@_System_error@std@@CA?AV?$basic_string@DU?$char_traits@D@std@@V?$allocator@D@2@@2@Verror_code@2@V32@@Z
_TEXT	SEGMENT
tv85 = -260						; size = 4
tv79 = -256						; size = 4
$T2 = -248						; size = 4
$T3 = -236						; size = 28
__$EHRec$ = -12						; size = 12
___$ReturnUdt$ = 8					; size = 4
__Errcode$ = 12						; size = 8
__Message$ = 20						; size = 28
?_Makestr@_System_error@std@@CA?AV?$basic_string@DU?$char_traits@D@std@@V?$allocator@D@2@@2@Verror_code@2@V32@@Z PROC ; std::_System_error::_Makestr, COMDAT

; 385  :     static string _Makestr(error_code _Errcode, string _Message) { // compose error message

	push	ebp
	mov	ebp, esp
	push	-1
	push	__ehhandler$?_Makestr@_System_error@std@@CA?AV?$basic_string@DU?$char_traits@D@std@@V?$allocator@D@2@@2@Verror_code@2@V32@@Z
	mov	eax, DWORD PTR fs:0
	push	eax
	sub	esp, 248				; 000000f8H
	push	ebx
	push	esi
	push	edi
	lea	edi, DWORD PTR [ebp-260]
	mov	ecx, 62					; 0000003eH
	mov	eax, -858993460				; ccccccccH
	rep stosd
	mov	eax, DWORD PTR ___security_cookie
	xor	eax, ebp
	push	eax
	lea	eax, DWORD PTR __$EHRec$[ebp]
	mov	DWORD PTR fs:0, eax
	mov	DWORD PTR $T2[ebp], 0
	mov	DWORD PTR __$EHRec$[ebp+8], 0
	mov	ecx, OFFSET __7EAAEC0D_system_error
	call	@__CheckForDebuggerJustMyCode@4

; 386  :         if (!_Message.empty()) {

	lea	ecx, DWORD PTR __Message$[ebp]
	call	?empty@?$basic_string@DU?$char_traits@D@std@@V?$allocator@D@2@@std@@QBE_NXZ ; std::basic_string<char,std::char_traits<char>,std::allocator<char> >::empty
	movzx	eax, al
	test	eax, eax
	jne	SHORT $LN2@Makestr

; 387  :             _Message.append(": ");

	push	OFFSET ??_C@_02LMMGGCAJ@?3?5@
	lea	ecx, DWORD PTR __Message$[ebp]
	call	?append@?$basic_string@DU?$char_traits@D@std@@V?$allocator@D@2@@std@@QAEAAV12@QBD@Z ; std::basic_string<char,std::char_traits<char>,std::allocator<char> >::append
$LN2@Makestr:

; 388  :         }
; 389  : 
; 390  :         _Message.append(_Errcode.message());

	lea	eax, DWORD PTR $T3[ebp]
	push	eax
	lea	ecx, DWORD PTR __Errcode$[ebp]
	call	?message@error_code@std@@QBE?AV?$basic_string@DU?$char_traits@D@std@@V?$allocator@D@2@@2@XZ ; std::error_code::message
	mov	DWORD PTR tv79[ebp], eax
	mov	ecx, DWORD PTR tv79[ebp]
	mov	DWORD PTR tv85[ebp], ecx
	mov	BYTE PTR __$EHRec$[ebp+8], 1
	mov	edx, DWORD PTR tv85[ebp]
	push	edx
	lea	ecx, DWORD PTR __Message$[ebp]
	call	?append@?$basic_string@DU?$char_traits@D@std@@V?$allocator@D@2@@std@@QAEAAV12@ABV12@@Z ; std::basic_string<char,std::char_traits<char>,std::allocator<char> >::append
	mov	BYTE PTR __$EHRec$[ebp+8], 0
	lea	ecx, DWORD PTR $T3[ebp]
	call	??1?$basic_string@DU?$char_traits@D@std@@V?$allocator@D@2@@std@@QAE@XZ ; std::basic_string<char,std::char_traits<char>,std::allocator<char> >::~basic_string<char,std::char_traits<char>,std::allocator<char> >

; 391  :         return _Message;

	lea	eax, DWORD PTR __Message$[ebp]
	push	eax
	mov	ecx, DWORD PTR ___$ReturnUdt$[ebp]
	call	??0?$basic_string@DU?$char_traits@D@std@@V?$allocator@D@2@@std@@QAE@$$QAV01@@Z ; std::basic_string<char,std::char_traits<char>,std::allocator<char> >::basic_string<char,std::char_traits<char>,std::allocator<char> >
	mov	ecx, DWORD PTR $T2[ebp]
	or	ecx, 1
	mov	DWORD PTR $T2[ebp], ecx
	mov	DWORD PTR __$EHRec$[ebp+8], -1
	lea	ecx, DWORD PTR __Message$[ebp]
	call	??1?$basic_string@DU?$char_traits@D@std@@V?$allocator@D@2@@std@@QAE@XZ ; std::basic_string<char,std::char_traits<char>,std::allocator<char> >::~basic_string<char,std::char_traits<char>,std::allocator<char> >
	mov	eax, DWORD PTR ___$ReturnUdt$[ebp]

; 392  :     }

	mov	ecx, DWORD PTR __$EHRec$[ebp]
	mov	DWORD PTR fs:0, ecx
	pop	ecx
	pop	edi
	pop	esi
	pop	ebx
	add	esp, 260				; 00000104H
	cmp	ebp, esp
	call	__RTC_CheckEsp
	mov	esp, ebp
	pop	ebp
	ret	0
_TEXT	ENDS
;	COMDAT text$x
text$x	SEGMENT
__unwindfunclet$?_Makestr@_System_error@std@@CA?AV?$basic_string@DU?$char_traits@D@std@@V?$allocator@D@2@@2@Verror_code@2@V32@@Z$0:
	lea	ecx, DWORD PTR __Message$[ebp]
	jmp	??1?$basic_string@DU?$char_traits@D@std@@V?$allocator@D@2@@std@@QAE@XZ ; std::basic_string<char,std::char_traits<char>,std::allocator<char> >::~basic_string<char,std::char_traits<char>,std::allocator<char> >
__unwindfunclet$?_Makestr@_System_error@std@@CA?AV?$basic_string@DU?$char_traits@D@std@@V?$allocator@D@2@@2@Verror_code@2@V32@@Z$1:
	lea	ecx, DWORD PTR $T3[ebp]
	jmp	??1?$basic_string@DU?$char_traits@D@std@@V?$allocator@D@2@@std@@QAE@XZ ; std::basic_string<char,std::char_traits<char>,std::allocator<char> >::~basic_string<char,std::char_traits<char>,std::allocator<char> >
	int	3
	int	3
	int	3
	int	3
	int	3
__ehhandler$?_Makestr@_System_error@std@@CA?AV?$basic_string@DU?$char_traits@D@std@@V?$allocator@D@2@@2@Verror_code@2@V32@@Z:
	npad	1
	npad	1
	mov	edx, DWORD PTR [esp+8]
	lea	eax, DWORD PTR [edx+12]
	mov	ecx, DWORD PTR [edx-264]
	xor	ecx, eax
	call	@__security_check_cookie@4
	mov	eax, OFFSET __ehfuncinfo$?_Makestr@_System_error@std@@CA?AV?$basic_string@DU?$char_traits@D@std@@V?$allocator@D@2@@2@Verror_code@2@V32@@Z
	jmp	___CxxFrameHandler3
text$x	ENDS
?_Makestr@_System_error@std@@CA?AV?$basic_string@DU?$char_traits@D@std@@V?$allocator@D@2@@2@Verror_code@2@V32@@Z ENDP ; std::_System_error::_Makestr
; Function compile flags: /Odtp /RTCsu /ZI
; File C:\Program Files (x86)\Microsoft Visual Studio\2019\Professional\VC\Tools\MSVC\14.28.29333\include\system_error
;	COMDAT ??8std@@YA_NABVerror_condition@0@0@Z
_TEXT	SEGMENT
tv82 = -204						; size = 4
tv72 = -200						; size = 4
tv74 = -196						; size = 4
__Left$ = 8						; size = 4
__Right$ = 12						; size = 4
??8std@@YA_NABVerror_condition@0@0@Z PROC		; std::operator==, COMDAT

; 248  :     _NODISCARD friend bool operator==(const error_condition& _Left, const error_condition& _Right) noexcept {

	push	ebp
	mov	ebp, esp
	sub	esp, 204				; 000000ccH
	push	ebx
	push	esi
	push	edi
	lea	edi, DWORD PTR [ebp-204]
	mov	ecx, 51					; 00000033H
	mov	eax, -858993460				; ccccccccH
	rep stosd
	mov	ecx, OFFSET __7EAAEC0D_system_error
	call	@__CheckForDebuggerJustMyCode@4

; 249  :         return _Left.category() == _Right.category() && _Left.value() == _Right.value();

	mov	ecx, DWORD PTR __Left$[ebp]
	call	?category@error_condition@std@@QBEABVerror_category@2@XZ ; std::error_condition::category
	mov	DWORD PTR tv74[ebp], eax
	mov	ecx, DWORD PTR __Right$[ebp]
	call	?category@error_condition@std@@QBEABVerror_category@2@XZ ; std::error_condition::category
	mov	DWORD PTR tv72[ebp], eax
	mov	eax, DWORD PTR tv72[ebp]
	push	eax
	mov	ecx, DWORD PTR tv74[ebp]
	call	??8error_category@std@@QBE_NABV01@@Z	; std::error_category::operator==
	movzx	ecx, al
	test	ecx, ecx
	je	SHORT $LN3@operator
	mov	ecx, DWORD PTR __Left$[ebp]
	call	?value@error_condition@std@@QBEHXZ	; std::error_condition::value
	mov	esi, eax
	mov	ecx, DWORD PTR __Right$[ebp]
	call	?value@error_condition@std@@QBEHXZ	; std::error_condition::value
	cmp	esi, eax
	jne	SHORT $LN3@operator
	mov	DWORD PTR tv82[ebp], 1
	jmp	SHORT $LN4@operator
$LN3@operator:
	mov	DWORD PTR tv82[ebp], 0
$LN4@operator:
	mov	al, BYTE PTR tv82[ebp]

; 250  :     }

	pop	edi
	pop	esi
	pop	ebx
	add	esp, 204				; 000000ccH
	cmp	ebp, esp
	call	__RTC_CheckEsp
	mov	esp, ebp
	pop	ebp
	ret	0
??8std@@YA_NABVerror_condition@0@0@Z ENDP		; std::operator==
_TEXT	ENDS
; Function compile flags: /Odtp /RTCsu /ZI
; File C:\Program Files (x86)\Microsoft Visual Studio\2019\Professional\VC\Tools\MSVC\14.28.29333\include\system_error
;	COMDAT ?category@error_condition@std@@QBEABVerror_category@2@XZ
_TEXT	SEGMENT
_this$ = -8						; size = 4
?category@error_condition@std@@QBEABVerror_category@2@XZ PROC ; std::error_condition::category, COMDAT
; _this$ = ecx

; 235  :     _NODISCARD const error_category& category() const noexcept {

	push	ebp
	mov	ebp, esp
	sub	esp, 204				; 000000ccH
	push	ebx
	push	esi
	push	edi
	push	ecx
	lea	edi, DWORD PTR [ebp-204]
	mov	ecx, 51					; 00000033H
	mov	eax, -858993460				; ccccccccH
	rep stosd
	pop	ecx
	mov	DWORD PTR _this$[ebp], ecx
	mov	ecx, OFFSET __7EAAEC0D_system_error
	call	@__CheckForDebuggerJustMyCode@4

; 236  :         return *_Mycat;

	mov	eax, DWORD PTR _this$[ebp]
	mov	eax, DWORD PTR [eax+4]

; 237  :     }

	pop	edi
	pop	esi
	pop	ebx
	add	esp, 204				; 000000ccH
	cmp	ebp, esp
	call	__RTC_CheckEsp
	mov	esp, ebp
	pop	ebp
	ret	0
?category@error_condition@std@@QBEABVerror_category@2@XZ ENDP ; std::error_condition::category
_TEXT	ENDS
; Function compile flags: /Odtp /RTCsu /ZI
; File C:\Program Files (x86)\Microsoft Visual Studio\2019\Professional\VC\Tools\MSVC\14.28.29333\include\system_error
;	COMDAT ?value@error_condition@std@@QBEHXZ
_TEXT	SEGMENT
_this$ = -8						; size = 4
?value@error_condition@std@@QBEHXZ PROC			; std::error_condition::value, COMDAT
; _this$ = ecx

; 231  :     _NODISCARD int value() const noexcept {

	push	ebp
	mov	ebp, esp
	sub	esp, 204				; 000000ccH
	push	ebx
	push	esi
	push	edi
	push	ecx
	lea	edi, DWORD PTR [ebp-204]
	mov	ecx, 51					; 00000033H
	mov	eax, -858993460				; ccccccccH
	rep stosd
	pop	ecx
	mov	DWORD PTR _this$[ebp], ecx
	mov	ecx, OFFSET __7EAAEC0D_system_error
	call	@__CheckForDebuggerJustMyCode@4

; 232  :         return _Myval;

	mov	eax, DWORD PTR _this$[ebp]
	mov	eax, DWORD PTR [eax]

; 233  :     }

	pop	edi
	pop	esi
	pop	ebx
	add	esp, 204				; 000000ccH
	cmp	ebp, esp
	call	__RTC_CheckEsp
	mov	esp, ebp
	pop	ebp
	ret	0
?value@error_condition@std@@QBEHXZ ENDP			; std::error_condition::value
_TEXT	ENDS
; Function compile flags: /Odtp /RTCsu /ZI
; File C:\Program Files (x86)\Microsoft Visual Studio\2019\Professional\VC\Tools\MSVC\14.28.29333\include\system_error
;	COMDAT ??0error_condition@std@@QAE@HABVerror_category@1@@Z
_TEXT	SEGMENT
_this$ = -8						; size = 4
__Val$ = 8						; size = 4
__Cat$ = 12						; size = 4
??0error_condition@std@@QAE@HABVerror_category@1@@Z PROC ; std::error_condition::error_condition, COMDAT
; _this$ = ecx

; 208  :     error_condition(int _Val, const error_category& _Cat) noexcept : _Myval(_Val), _Mycat(&_Cat) {}

	push	ebp
	mov	ebp, esp
	sub	esp, 204				; 000000ccH
	push	ebx
	push	esi
	push	edi
	push	ecx
	lea	edi, DWORD PTR [ebp-204]
	mov	ecx, 51					; 00000033H
	mov	eax, -858993460				; ccccccccH
	rep stosd
	pop	ecx
	mov	DWORD PTR _this$[ebp], ecx
	mov	ecx, OFFSET __7EAAEC0D_system_error
	call	@__CheckForDebuggerJustMyCode@4
	mov	eax, DWORD PTR _this$[ebp]
	mov	ecx, DWORD PTR __Val$[ebp]
	mov	DWORD PTR [eax], ecx
	mov	eax, DWORD PTR _this$[ebp]
	mov	ecx, DWORD PTR __Cat$[ebp]
	mov	DWORD PTR [eax+4], ecx
	mov	eax, DWORD PTR _this$[ebp]
	pop	edi
	pop	esi
	pop	ebx
	add	esp, 204				; 000000ccH
	cmp	ebp, esp
	call	__RTC_CheckEsp
	mov	esp, ebp
	pop	ebp
	ret	8
??0error_condition@std@@QAE@HABVerror_category@1@@Z ENDP ; std::error_condition::error_condition
_TEXT	ENDS
; Function compile flags: /Odtp /RTCsu /ZI
; File C:\Program Files (x86)\Microsoft Visual Studio\2019\Professional\VC\Tools\MSVC\14.28.29333\include\system_error
;	COMDAT ?message@error_code@std@@QBE?AV?$basic_string@DU?$char_traits@D@std@@V?$allocator@D@2@@2@XZ
_TEXT	SEGMENT
tv76 = -228						; size = 4
tv78 = -224						; size = 4
tv67 = -220						; size = 4
$T1 = -212						; size = 4
_this$ = -8						; size = 4
___$ReturnUdt$ = 8					; size = 4
?message@error_code@std@@QBE?AV?$basic_string@DU?$char_traits@D@std@@V?$allocator@D@2@@2@XZ PROC ; std::error_code::message, COMDAT
; _this$ = ecx

; 159  :     _NODISCARD string message() const {

	push	ebp
	mov	ebp, esp
	sub	esp, 228				; 000000e4H
	push	ebx
	push	esi
	push	edi
	push	ecx
	lea	edi, DWORD PTR [ebp-228]
	mov	ecx, 57					; 00000039H
	mov	eax, -858993460				; ccccccccH
	rep stosd
	pop	ecx
	mov	DWORD PTR _this$[ebp], ecx
	mov	DWORD PTR $T1[ebp], 0
	mov	ecx, OFFSET __7EAAEC0D_system_error
	call	@__CheckForDebuggerJustMyCode@4

; 160  :         return category().message(value());

	mov	ecx, DWORD PTR _this$[ebp]
	call	?category@error_code@std@@QBEABVerror_category@2@XZ ; std::error_code::category
	mov	DWORD PTR tv67[ebp], eax
	mov	eax, DWORD PTR tv67[ebp]
	mov	ecx, DWORD PTR [eax]
	mov	edx, DWORD PTR [ecx+8]
	mov	DWORD PTR tv78[ebp], edx
	mov	ecx, DWORD PTR _this$[ebp]
	call	?value@error_code@std@@QBEHXZ		; std::error_code::value
	mov	DWORD PTR tv76[ebp], eax
	mov	esi, esp
	mov	eax, DWORD PTR tv76[ebp]
	push	eax
	mov	ecx, DWORD PTR ___$ReturnUdt$[ebp]
	push	ecx
	mov	ecx, DWORD PTR tv67[ebp]
	call	DWORD PTR tv78[ebp]
	cmp	esi, esp
	call	__RTC_CheckEsp
	mov	edx, DWORD PTR $T1[ebp]
	or	edx, 1
	mov	DWORD PTR $T1[ebp], edx
	mov	eax, DWORD PTR ___$ReturnUdt$[ebp]

; 161  :     }

	pop	edi
	pop	esi
	pop	ebx
	add	esp, 228				; 000000e4H
	cmp	ebp, esp
	call	__RTC_CheckEsp
	mov	esp, ebp
	pop	ebp
	ret	4
?message@error_code@std@@QBE?AV?$basic_string@DU?$char_traits@D@std@@V?$allocator@D@2@@2@XZ ENDP ; std::error_code::message
_TEXT	ENDS
; Function compile flags: /Odtp /RTCsu /ZI
; File C:\Program Files (x86)\Microsoft Visual Studio\2019\Professional\VC\Tools\MSVC\14.28.29333\include\system_error
;	COMDAT ?category@error_code@std@@QBEABVerror_category@2@XZ
_TEXT	SEGMENT
_this$ = -8						; size = 4
?category@error_code@std@@QBEABVerror_category@2@XZ PROC ; std::error_code::category, COMDAT
; _this$ = ecx

; 153  :     _NODISCARD const error_category& category() const noexcept {

	push	ebp
	mov	ebp, esp
	sub	esp, 204				; 000000ccH
	push	ebx
	push	esi
	push	edi
	push	ecx
	lea	edi, DWORD PTR [ebp-204]
	mov	ecx, 51					; 00000033H
	mov	eax, -858993460				; ccccccccH
	rep stosd
	pop	ecx
	mov	DWORD PTR _this$[ebp], ecx
	mov	ecx, OFFSET __7EAAEC0D_system_error
	call	@__CheckForDebuggerJustMyCode@4

; 154  :         return *_Mycat;

	mov	eax, DWORD PTR _this$[ebp]
	mov	eax, DWORD PTR [eax+4]

; 155  :     }

	pop	edi
	pop	esi
	pop	ebx
	add	esp, 204				; 000000ccH
	cmp	ebp, esp
	call	__RTC_CheckEsp
	mov	esp, ebp
	pop	ebp
	ret	0
?category@error_code@std@@QBEABVerror_category@2@XZ ENDP ; std::error_code::category
_TEXT	ENDS
; Function compile flags: /Odtp /RTCsu /ZI
; File C:\Program Files (x86)\Microsoft Visual Studio\2019\Professional\VC\Tools\MSVC\14.28.29333\include\system_error
;	COMDAT ?value@error_code@std@@QBEHXZ
_TEXT	SEGMENT
_this$ = -8						; size = 4
?value@error_code@std@@QBEHXZ PROC			; std::error_code::value, COMDAT
; _this$ = ecx

; 149  :     _NODISCARD int value() const noexcept {

	push	ebp
	mov	ebp, esp
	sub	esp, 204				; 000000ccH
	push	ebx
	push	esi
	push	edi
	push	ecx
	lea	edi, DWORD PTR [ebp-204]
	mov	ecx, 51					; 00000033H
	mov	eax, -858993460				; ccccccccH
	rep stosd
	pop	ecx
	mov	DWORD PTR _this$[ebp], ecx
	mov	ecx, OFFSET __7EAAEC0D_system_error
	call	@__CheckForDebuggerJustMyCode@4

; 150  :         return _Myval;

	mov	eax, DWORD PTR _this$[ebp]
	mov	eax, DWORD PTR [eax]

; 151  :     }

	pop	edi
	pop	esi
	pop	ebx
	add	esp, 204				; 000000ccH
	cmp	ebp, esp
	call	__RTC_CheckEsp
	mov	esp, ebp
	pop	ebp
	ret	0
?value@error_code@std@@QBEHXZ ENDP			; std::error_code::value
_TEXT	ENDS
; Function compile flags: /Odtp /RTCsu /ZI
; File C:\Program Files (x86)\Microsoft Visual Studio\2019\Professional\VC\Tools\MSVC\14.28.29333\include\system_error
;	COMDAT ??0error_code@std@@QAE@HABVerror_category@1@@Z
_TEXT	SEGMENT
_this$ = -8						; size = 4
__Val$ = 8						; size = 4
__Cat$ = 12						; size = 4
??0error_code@std@@QAE@HABVerror_category@1@@Z PROC	; std::error_code::error_code, COMDAT
; _this$ = ecx

; 126  :     error_code(int _Val, const error_category& _Cat) noexcept : _Myval(_Val), _Mycat(&_Cat) {}

	push	ebp
	mov	ebp, esp
	sub	esp, 204				; 000000ccH
	push	ebx
	push	esi
	push	edi
	push	ecx
	lea	edi, DWORD PTR [ebp-204]
	mov	ecx, 51					; 00000033H
	mov	eax, -858993460				; ccccccccH
	rep stosd
	pop	ecx
	mov	DWORD PTR _this$[ebp], ecx
	mov	ecx, OFFSET __7EAAEC0D_system_error
	call	@__CheckForDebuggerJustMyCode@4
	mov	eax, DWORD PTR _this$[ebp]
	mov	ecx, DWORD PTR __Val$[ebp]
	mov	DWORD PTR [eax], ecx
	mov	eax, DWORD PTR _this$[ebp]
	mov	ecx, DWORD PTR __Cat$[ebp]
	mov	DWORD PTR [eax+4], ecx
	mov	eax, DWORD PTR _this$[ebp]
	pop	edi
	pop	esi
	pop	ebx
	add	esp, 204				; 000000ccH
	cmp	ebp, esp
	call	__RTC_CheckEsp
	mov	esp, ebp
	pop	ebp
	ret	8
??0error_code@std@@QAE@HABVerror_category@1@@Z ENDP	; std::error_code::error_code
_TEXT	ENDS
; Function compile flags: /Odtp /RTCsu /ZI
; File C:\Program Files (x86)\Microsoft Visual Studio\2019\Professional\VC\Tools\MSVC\14.28.29333\include\system_error
;	COMDAT ??8error_category@std@@QBE_NABV01@@Z
_TEXT	SEGMENT
tv67 = -208						; size = 4
_this$ = -8						; size = 4
__Right$ = 8						; size = 4
??8error_category@std@@QBE_NABV01@@Z PROC		; std::error_category::operator==, COMDAT
; _this$ = ecx

; 89   :     _NODISCARD bool operator==(const error_category& _Right) const noexcept {

	push	ebp
	mov	ebp, esp
	sub	esp, 208				; 000000d0H
	push	ebx
	push	esi
	push	edi
	push	ecx
	lea	edi, DWORD PTR [ebp-208]
	mov	ecx, 52					; 00000034H
	mov	eax, -858993460				; ccccccccH
	rep stosd
	pop	ecx
	mov	DWORD PTR _this$[ebp], ecx
	mov	ecx, OFFSET __7EAAEC0D_system_error
	call	@__CheckForDebuggerJustMyCode@4

; 90   :         return _Addr == _Right._Addr;

	mov	eax, DWORD PTR _this$[ebp]
	mov	ecx, DWORD PTR __Right$[ebp]
	mov	edx, DWORD PTR [eax+4]
	cmp	edx, DWORD PTR [ecx+4]
	jne	SHORT $LN3@operator
	mov	DWORD PTR tv67[ebp], 1
	jmp	SHORT $LN4@operator
$LN3@operator:
	mov	DWORD PTR tv67[ebp], 0
$LN4@operator:
	mov	al, BYTE PTR tv67[ebp]

; 91   :     }

	pop	edi
	pop	esi
	pop	ebx
	add	esp, 208				; 000000d0H
	cmp	ebp, esp
	call	__RTC_CheckEsp
	mov	esp, ebp
	pop	ebp
	ret	4
??8error_category@std@@QBE_NABV01@@Z ENDP		; std::error_category::operator==
_TEXT	ENDS
; Function compile flags: /Odtp /RTCsu /ZI
; File C:\Program Files (x86)\Microsoft Visual Studio\2019\Professional\VC\Tools\MSVC\14.28.29333\include\system_error
;	COMDAT ?equivalent@error_category@std@@UBE_NABVerror_code@2@H@Z
_TEXT	SEGMENT
tv74 = -208						; size = 4
_this$ = -8						; size = 4
__Code$ = 8						; size = 4
__Errval$ = 12						; size = 4
?equivalent@error_category@std@@UBE_NABVerror_code@2@H@Z PROC ; std::error_category::equivalent, COMDAT
; _this$ = ecx

; 333  : _NODISCARD inline bool error_category::equivalent(const error_code& _Code, int _Errval) const noexcept {

	push	ebp
	mov	ebp, esp
	sub	esp, 208				; 000000d0H
	push	ebx
	push	esi
	push	edi
	push	ecx
	lea	edi, DWORD PTR [ebp-208]
	mov	ecx, 52					; 00000034H
	mov	eax, -858993460				; ccccccccH
	rep stosd
	pop	ecx
	mov	DWORD PTR _this$[ebp], ecx
	mov	ecx, OFFSET __7EAAEC0D_system_error
	call	@__CheckForDebuggerJustMyCode@4

; 334  :     return *this == _Code.category() && _Code.value() == _Errval;

	mov	ecx, DWORD PTR __Code$[ebp]
	call	?category@error_code@std@@QBEABVerror_category@2@XZ ; std::error_code::category
	push	eax
	mov	ecx, DWORD PTR _this$[ebp]
	call	??8error_category@std@@QBE_NABV01@@Z	; std::error_category::operator==
	movzx	eax, al
	test	eax, eax
	je	SHORT $LN3@equivalent
	mov	ecx, DWORD PTR __Code$[ebp]
	call	?value@error_code@std@@QBEHXZ		; std::error_code::value
	cmp	eax, DWORD PTR __Errval$[ebp]
	jne	SHORT $LN3@equivalent
	mov	DWORD PTR tv74[ebp], 1
	jmp	SHORT $LN4@equivalent
$LN3@equivalent:
	mov	DWORD PTR tv74[ebp], 0
$LN4@equivalent:
	mov	al, BYTE PTR tv74[ebp]

; 335  : }

	pop	edi
	pop	esi
	pop	ebx
	add	esp, 208				; 000000d0H
	cmp	ebp, esp
	call	__RTC_CheckEsp
	mov	esp, ebp
	pop	ebp
	ret	8
?equivalent@error_category@std@@UBE_NABVerror_code@2@H@Z ENDP ; std::error_category::equivalent
_TEXT	ENDS
; Function compile flags: /Odtp /RTCsu /ZI
; File C:\Program Files (x86)\Microsoft Visual Studio\2019\Professional\VC\Tools\MSVC\14.28.29333\include\system_error
;	COMDAT ?equivalent@error_category@std@@UBE_NHABVerror_condition@2@@Z
_TEXT	SEGMENT
tv73 = -224						; size = 4
$T1 = -216						; size = 8
_this$ = -8						; size = 4
__Errval$ = 8						; size = 4
__Cond$ = 12						; size = 4
?equivalent@error_category@std@@UBE_NHABVerror_condition@2@@Z PROC ; std::error_category::equivalent, COMDAT
; _this$ = ecx

; 329  : _NODISCARD inline bool error_category::equivalent(int _Errval, const error_condition& _Cond) const noexcept {

	push	ebp
	mov	ebp, esp
	sub	esp, 224				; 000000e0H
	push	ebx
	push	esi
	push	edi
	push	ecx
	lea	edi, DWORD PTR [ebp-224]
	mov	ecx, 56					; 00000038H
	mov	eax, -858993460				; ccccccccH
	rep stosd
	pop	ecx
	mov	DWORD PTR _this$[ebp], ecx
	mov	ecx, OFFSET __7EAAEC0D_system_error
	call	@__CheckForDebuggerJustMyCode@4

; 330  :     return default_error_condition(_Errval) == _Cond;

	mov	eax, DWORD PTR _this$[ebp]
	mov	ecx, DWORD PTR [eax]
	mov	edx, DWORD PTR [ecx+12]
	mov	DWORD PTR tv73[ebp], edx
	mov	eax, DWORD PTR __Cond$[ebp]
	push	eax
	mov	esi, esp
	mov	ecx, DWORD PTR __Errval$[ebp]
	push	ecx
	lea	edx, DWORD PTR $T1[ebp]
	push	edx
	mov	ecx, DWORD PTR _this$[ebp]
	call	DWORD PTR tv73[ebp]
	cmp	esi, esp
	call	__RTC_CheckEsp
	push	eax
	call	??8std@@YA_NABVerror_condition@0@0@Z	; std::operator==
	add	esp, 8

; 331  : }

	pop	edi
	pop	esi
	pop	ebx
	add	esp, 224				; 000000e0H
	cmp	ebp, esp
	call	__RTC_CheckEsp
	mov	esp, ebp
	pop	ebp
	ret	8
?equivalent@error_category@std@@UBE_NHABVerror_condition@2@@Z ENDP ; std::error_category::equivalent
_TEXT	ENDS
; Function compile flags: /Odtp /RTCsu /ZI
; File C:\Program Files (x86)\Microsoft Visual Studio\2019\Professional\VC\Tools\MSVC\14.28.29333\include\system_error
;	COMDAT ?default_error_condition@error_category@std@@UBE?AVerror_condition@2@H@Z
_TEXT	SEGMENT
_this$ = -8						; size = 4
___$ReturnUdt$ = 8					; size = 4
__Errval$ = 12						; size = 4
?default_error_condition@error_category@std@@UBE?AVerror_condition@2@H@Z PROC ; std::error_category::default_error_condition, COMDAT
; _this$ = ecx

; 324  : _NODISCARD inline error_condition error_category::default_error_condition(int _Errval) const noexcept {

	push	ebp
	mov	ebp, esp
	sub	esp, 204				; 000000ccH
	push	ebx
	push	esi
	push	edi
	push	ecx
	lea	edi, DWORD PTR [ebp-204]
	mov	ecx, 51					; 00000033H
	mov	eax, -858993460				; ccccccccH
	rep stosd
	pop	ecx
	mov	DWORD PTR _this$[ebp], ecx
	mov	ecx, OFFSET __7EAAEC0D_system_error
	call	@__CheckForDebuggerJustMyCode@4

; 325  :     // make error_condition for error code
; 326  :     return error_condition(_Errval, *this);

	mov	eax, DWORD PTR _this$[ebp]
	push	eax
	mov	ecx, DWORD PTR __Errval$[ebp]
	push	ecx
	mov	ecx, DWORD PTR ___$ReturnUdt$[ebp]
	call	??0error_condition@std@@QAE@HABVerror_category@1@@Z ; std::error_condition::error_condition
	mov	eax, DWORD PTR ___$ReturnUdt$[ebp]

; 327  : }

	pop	edi
	pop	esi
	pop	ebx
	add	esp, 204				; 000000ccH
	cmp	ebp, esp
	call	__RTC_CheckEsp
	mov	esp, ebp
	pop	ebp
	ret	8
?default_error_condition@error_category@std@@UBE?AVerror_condition@2@H@Z ENDP ; std::error_category::default_error_condition
_TEXT	ENDS
; Function compile flags: /Odtp /RTCsu /ZI
; File C:\Program Files (x86)\Microsoft Visual Studio\2019\Professional\VC\Tools\MSVC\14.28.29333\include\system_error
;	COMDAT ??1error_category@std@@UAE@XZ
_TEXT	SEGMENT
_this$ = -8						; size = 4
??1error_category@std@@UAE@XZ PROC			; std::error_category::~error_category, COMDAT
; _this$ = ecx

; 115  : };

	push	ebp
	mov	ebp, esp
	sub	esp, 204				; 000000ccH
	push	ebx
	push	esi
	push	edi
	push	ecx
	lea	edi, DWORD PTR [ebp-204]
	mov	ecx, 51					; 00000033H
	mov	eax, -858993460				; ccccccccH
	rep stosd
	pop	ecx
	mov	DWORD PTR _this$[ebp], ecx
	mov	ecx, OFFSET __7EAAEC0D_system_error
	call	@__CheckForDebuggerJustMyCode@4
	pop	edi
	pop	esi
	pop	ebx
	add	esp, 204				; 000000ccH
	cmp	ebp, esp
	call	__RTC_CheckEsp
	mov	esp, ebp
	pop	ebp
	ret	0
??1error_category@std@@UAE@XZ ENDP			; std::error_category::~error_category
_TEXT	ENDS
; Function compile flags: /Odtp /RTCsu /ZI
; File C:\Program Files (x86)\Microsoft Visual Studio\2019\Professional\VC\Tools\MSVC\14.28.29333\include\system_error
;	COMDAT ?system_category@std@@YAABVerror_category@1@XZ
_TEXT	SEGMENT
?system_category@std@@YAABVerror_category@1@XZ PROC	; std::system_category, COMDAT

; 615  : _NODISCARD inline const error_category& system_category() noexcept {

	push	ebp
	mov	ebp, esp
	sub	esp, 192				; 000000c0H
	push	ebx
	push	esi
	push	edi
	lea	edi, DWORD PTR [ebp-192]
	mov	ecx, 48					; 00000030H
	mov	eax, -858993460				; ccccccccH
	rep stosd
	mov	ecx, OFFSET __7EAAEC0D_system_error
	call	@__CheckForDebuggerJustMyCode@4

; 616  :     return _Immortalize_memcpy_image<_System_error_category>();

	call	??$_Immortalize_memcpy_image@V_System_error_category@std@@@std@@YAABV_System_error_category@0@XZ ; std::_Immortalize_memcpy_image<std::_System_error_category>

; 617  : }

	pop	edi
	pop	esi
	pop	ebx
	add	esp, 192				; 000000c0H
	cmp	ebp, esp
	call	__RTC_CheckEsp
	mov	esp, ebp
	pop	ebp
	ret	0
?system_category@std@@YAABVerror_category@1@XZ ENDP	; std::system_category
_TEXT	ENDS
; Function compile flags: /Odtp /RTCsu /ZI
; File C:\Program Files (x86)\Microsoft Visual Studio\2019\Professional\VC\Tools\MSVC\14.28.29333\include\system_error
;	COMDAT ?generic_category@std@@YAABVerror_category@1@XZ
_TEXT	SEGMENT
?generic_category@std@@YAABVerror_category@1@XZ PROC	; std::generic_category, COMDAT

; 607  : _NODISCARD inline const error_category& generic_category() noexcept {

	push	ebp
	mov	ebp, esp
	sub	esp, 192				; 000000c0H
	push	ebx
	push	esi
	push	edi
	lea	edi, DWORD PTR [ebp-192]
	mov	ecx, 48					; 00000030H
	mov	eax, -858993460				; ccccccccH
	rep stosd
	mov	ecx, OFFSET __7EAAEC0D_system_error
	call	@__CheckForDebuggerJustMyCode@4

; 608  :     return _Immortalize_memcpy_image<_Generic_error_category>();

	call	??$_Immortalize_memcpy_image@V_Generic_error_category@std@@@std@@YAABV_Generic_error_category@0@XZ ; std::_Immortalize_memcpy_image<std::_Generic_error_category>

; 609  : }

	pop	edi
	pop	esi
	pop	ebx
	add	esp, 192				; 000000c0H
	cmp	ebp, esp
	call	__RTC_CheckEsp
	mov	esp, ebp
	pop	ebp
	ret	0
?generic_category@std@@YAABVerror_category@1@XZ ENDP	; std::generic_category
_TEXT	ENDS
; Function compile flags: /Odtp /RTCsu /ZI
; File C:\Program Files (x86)\Microsoft Visual Studio\2019\Professional\VC\Tools\MSVC\14.28.29333\include\system_error
;	COMDAT ?make_error_code@std@@YA?AVerror_code@1@W4errc@1@@Z
_TEXT	SEGMENT
___$ReturnUdt$ = 8					; size = 4
__Errno$ = 12						; size = 4
?make_error_code@std@@YA?AVerror_code@1@W4errc@1@@Z PROC ; std::make_error_code, COMDAT

; 344  : _NODISCARD inline error_code make_error_code(errc _Errno) noexcept {

	push	ebp
	mov	ebp, esp
	sub	esp, 192				; 000000c0H
	push	ebx
	push	esi
	push	edi
	lea	edi, DWORD PTR [ebp-192]
	mov	ecx, 48					; 00000030H
	mov	eax, -858993460				; ccccccccH
	rep stosd
	mov	ecx, OFFSET __7EAAEC0D_system_error
	call	@__CheckForDebuggerJustMyCode@4

; 345  :     return error_code(static_cast<int>(_Errno), _STD generic_category());

	call	?generic_category@std@@YAABVerror_category@1@XZ ; std::generic_category
	push	eax
	mov	eax, DWORD PTR __Errno$[ebp]
	push	eax
	mov	ecx, DWORD PTR ___$ReturnUdt$[ebp]
	call	??0error_code@std@@QAE@HABVerror_category@1@@Z ; std::error_code::error_code
	mov	eax, DWORD PTR ___$ReturnUdt$[ebp]

; 346  : }

	pop	edi
	pop	esi
	pop	ebx
	add	esp, 192				; 000000c0H
	cmp	ebp, esp
	call	__RTC_CheckEsp
	mov	esp, ebp
	pop	ebp
	ret	0
?make_error_code@std@@YA?AVerror_code@1@W4errc@1@@Z ENDP ; std::make_error_code
_TEXT	ENDS
; Function compile flags: /Odtp /RTCsu /ZI
;	COMDAT ??_Gruntime_error@std@@UAEPAXI@Z
_TEXT	SEGMENT
_this$ = -8						; size = 4
___flags$ = 8						; size = 4
??_Gruntime_error@std@@UAEPAXI@Z PROC			; std::runtime_error::`scalar deleting destructor', COMDAT
; _this$ = ecx
	push	ebp
	mov	ebp, esp
	sub	esp, 204				; 000000ccH
	push	ebx
	push	esi
	push	edi
	push	ecx
	lea	edi, DWORD PTR [ebp-204]
	mov	ecx, 51					; 00000033H
	mov	eax, -858993460				; ccccccccH
	rep stosd
	pop	ecx
	mov	DWORD PTR _this$[ebp], ecx
	mov	ecx, DWORD PTR _this$[ebp]
	call	??1runtime_error@std@@UAE@XZ
	mov	eax, DWORD PTR ___flags$[ebp]
	and	eax, 1
	je	SHORT $LN2@scalar
	push	12					; 0000000cH
	mov	eax, DWORD PTR _this$[ebp]
	push	eax
	call	??3@YAXPAXI@Z				; operator delete
	add	esp, 8
$LN2@scalar:
	mov	eax, DWORD PTR _this$[ebp]
	pop	edi
	pop	esi
	pop	ebx
	add	esp, 204				; 000000ccH
	cmp	ebp, esp
	call	__RTC_CheckEsp
	mov	esp, ebp
	pop	ebp
	ret	4
??_Gruntime_error@std@@UAEPAXI@Z ENDP			; std::runtime_error::`scalar deleting destructor'
_TEXT	ENDS
; Function compile flags: /Odtp /RTCsu /ZI
;	COMDAT ??0runtime_error@std@@QAE@ABV01@@Z
_TEXT	SEGMENT
_this$ = -8						; size = 4
___that$ = 8						; size = 4
??0runtime_error@std@@QAE@ABV01@@Z PROC			; std::runtime_error::runtime_error, COMDAT
; _this$ = ecx
	push	ebp
	mov	ebp, esp
	sub	esp, 204				; 000000ccH
	push	ebx
	push	esi
	push	edi
	push	ecx
	lea	edi, DWORD PTR [ebp-204]
	mov	ecx, 51					; 00000033H
	mov	eax, -858993460				; ccccccccH
	rep stosd
	pop	ecx
	mov	DWORD PTR _this$[ebp], ecx
	mov	eax, DWORD PTR ___that$[ebp]
	push	eax
	mov	ecx, DWORD PTR _this$[ebp]
	call	??0exception@std@@QAE@ABV01@@Z		; std::exception::exception
	mov	eax, DWORD PTR _this$[ebp]
	mov	DWORD PTR [eax], OFFSET ??_7runtime_error@std@@6B@
	mov	eax, DWORD PTR _this$[ebp]
	pop	edi
	pop	esi
	pop	ebx
	add	esp, 204				; 000000ccH
	cmp	ebp, esp
	call	__RTC_CheckEsp
	mov	esp, ebp
	pop	ebp
	ret	4
??0runtime_error@std@@QAE@ABV01@@Z ENDP			; std::runtime_error::runtime_error
_TEXT	ENDS
; Function compile flags: /Odtp /RTCsu /ZI
;	COMDAT ??1runtime_error@std@@UAE@XZ
_TEXT	SEGMENT
_this$ = -8						; size = 4
??1runtime_error@std@@UAE@XZ PROC			; std::runtime_error::~runtime_error, COMDAT
; _this$ = ecx
	push	ebp
	mov	ebp, esp
	sub	esp, 204				; 000000ccH
	push	ebx
	push	esi
	push	edi
	push	ecx
	lea	edi, DWORD PTR [ebp-204]
	mov	ecx, 51					; 00000033H
	mov	eax, -858993460				; ccccccccH
	rep stosd
	pop	ecx
	mov	DWORD PTR _this$[ebp], ecx
	mov	ecx, DWORD PTR _this$[ebp]
	call	??1exception@std@@UAE@XZ		; std::exception::~exception
	pop	edi
	pop	esi
	pop	ebx
	add	esp, 204				; 000000ccH
	cmp	ebp, esp
	call	__RTC_CheckEsp
	mov	esp, ebp
	pop	ebp
	ret	0
??1runtime_error@std@@UAE@XZ ENDP			; std::runtime_error::~runtime_error
_TEXT	ENDS
; Function compile flags: /Odtp /RTCsu /ZI
; File C:\Program Files (x86)\Microsoft Visual Studio\2019\Professional\VC\Tools\MSVC\14.28.29333\include\stdexcept
;	COMDAT ??0runtime_error@std@@QAE@ABV?$basic_string@DU?$char_traits@D@std@@V?$allocator@D@2@@1@@Z
_TEXT	SEGMENT
_this$ = -8						; size = 4
__Message$ = 8						; size = 4
??0runtime_error@std@@QAE@ABV?$basic_string@DU?$char_traits@D@std@@V?$allocator@D@2@@1@@Z PROC ; std::runtime_error::runtime_error, COMDAT
; _this$ = ecx

; 111  :     explicit runtime_error(const string& _Message) : _Mybase(_Message.c_str()) {}

	push	ebp
	mov	ebp, esp
	sub	esp, 204				; 000000ccH
	push	ebx
	push	esi
	push	edi
	push	ecx
	lea	edi, DWORD PTR [ebp-204]
	mov	ecx, 51					; 00000033H
	mov	eax, -858993460				; ccccccccH
	rep stosd
	pop	ecx
	mov	DWORD PTR _this$[ebp], ecx
	mov	ecx, OFFSET __0F1BCCF4_stdexcept
	call	@__CheckForDebuggerJustMyCode@4
	mov	ecx, DWORD PTR __Message$[ebp]
	call	?c_str@?$basic_string@DU?$char_traits@D@std@@V?$allocator@D@2@@std@@QBEPBDXZ ; std::basic_string<char,std::char_traits<char>,std::allocator<char> >::c_str
	push	eax
	mov	ecx, DWORD PTR _this$[ebp]
	call	??0exception@std@@QAE@QBD@Z		; std::exception::exception
	mov	eax, DWORD PTR _this$[ebp]
	mov	DWORD PTR [eax], OFFSET ??_7runtime_error@std@@6B@
	mov	eax, DWORD PTR _this$[ebp]
	pop	edi
	pop	esi
	pop	ebx
	add	esp, 204				; 000000ccH
	cmp	ebp, esp
	call	__RTC_CheckEsp
	mov	esp, ebp
	pop	ebp
	ret	4
??0runtime_error@std@@QAE@ABV?$basic_string@DU?$char_traits@D@std@@V?$allocator@D@2@@1@@Z ENDP ; std::runtime_error::runtime_error
_TEXT	ENDS
; Function compile flags: /Odtp /RTCsu /ZI
;	COMDAT ??1?$_Compressed_pair@V?$allocator@_W@std@@V?$_String_val@U?$_Simple_types@_W@std@@@2@$00@std@@QAE@XZ
_TEXT	SEGMENT
_this$ = -8						; size = 4
??1?$_Compressed_pair@V?$allocator@_W@std@@V?$_String_val@U?$_Simple_types@_W@std@@@2@$00@std@@QAE@XZ PROC ; std::_Compressed_pair<std::allocator<wchar_t>,std::_String_val<std::_Simple_types<wchar_t> >,1>::~_Compressed_pair<std::allocator<wchar_t>,std::_String_val<std::_Simple_types<wchar_t> >,1>, COMDAT
; _this$ = ecx
	push	ebp
	mov	ebp, esp
	sub	esp, 204				; 000000ccH
	push	ebx
	push	esi
	push	edi
	push	ecx
	lea	edi, DWORD PTR [ebp-204]
	mov	ecx, 51					; 00000033H
	mov	eax, -858993460				; ccccccccH
	rep stosd
	pop	ecx
	mov	DWORD PTR _this$[ebp], ecx
	mov	ecx, DWORD PTR _this$[ebp]
	call	??1?$_String_val@U?$_Simple_types@_W@std@@@std@@QAE@XZ
	pop	edi
	pop	esi
	pop	ebx
	add	esp, 204				; 000000ccH
	cmp	ebp, esp
	call	__RTC_CheckEsp
	mov	esp, ebp
	pop	ebp
	ret	0
??1?$_Compressed_pair@V?$allocator@_W@std@@V?$_String_val@U?$_Simple_types@_W@std@@@2@$00@std@@QAE@XZ ENDP ; std::_Compressed_pair<std::allocator<wchar_t>,std::_String_val<std::_Simple_types<wchar_t> >,1>::~_Compressed_pair<std::allocator<wchar_t>,std::_String_val<std::_Simple_types<wchar_t> >,1>
_TEXT	ENDS
; Function compile flags: /Odtp /RTCsu /ZI
; File C:\Program Files (x86)\Microsoft Visual Studio\2019\Professional\VC\Tools\MSVC\14.28.29333\include\xmemory
;	COMDAT ?_Get_first@?$_Compressed_pair@V?$allocator@_W@std@@V?$_String_val@U?$_Simple_types@_W@std@@@2@$00@std@@QBEABV?$allocator@_W@2@XZ
_TEXT	SEGMENT
_this$ = -8						; size = 4
?_Get_first@?$_Compressed_pair@V?$allocator@_W@std@@V?$_String_val@U?$_Simple_types@_W@std@@@2@$00@std@@QBEABV?$allocator@_W@2@XZ PROC ; std::_Compressed_pair<std::allocator<wchar_t>,std::_String_val<std::_Simple_types<wchar_t> >,1>::_Get_first, COMDAT
; _this$ = ecx

; 1350 :     constexpr const _Ty1& _Get_first() const noexcept {

	push	ebp
	mov	ebp, esp
	sub	esp, 204				; 000000ccH
	push	ebx
	push	esi
	push	edi
	push	ecx
	lea	edi, DWORD PTR [ebp-204]
	mov	ecx, 51					; 00000033H
	mov	eax, -858993460				; ccccccccH
	rep stosd
	pop	ecx
	mov	DWORD PTR _this$[ebp], ecx
	mov	ecx, OFFSET __B4DE8A79_xmemory
	call	@__CheckForDebuggerJustMyCode@4

; 1351 :         return *this;

	mov	eax, DWORD PTR _this$[ebp]

; 1352 :     }

	pop	edi
	pop	esi
	pop	ebx
	add	esp, 204				; 000000ccH
	cmp	ebp, esp
	call	__RTC_CheckEsp
	mov	esp, ebp
	pop	ebp
	ret	0
?_Get_first@?$_Compressed_pair@V?$allocator@_W@std@@V?$_String_val@U?$_Simple_types@_W@std@@@2@$00@std@@QBEABV?$allocator@_W@2@XZ ENDP ; std::_Compressed_pair<std::allocator<wchar_t>,std::_String_val<std::_Simple_types<wchar_t> >,1>::_Get_first
_TEXT	ENDS
; Function compile flags: /Odtp /RTCsu /ZI
; File C:\Program Files (x86)\Microsoft Visual Studio\2019\Professional\VC\Tools\MSVC\14.28.29333\include\xmemory
;	COMDAT ?_Get_first@?$_Compressed_pair@V?$allocator@_W@std@@V?$_String_val@U?$_Simple_types@_W@std@@@2@$00@std@@QAEAAV?$allocator@_W@2@XZ
_TEXT	SEGMENT
_this$ = -8						; size = 4
?_Get_first@?$_Compressed_pair@V?$allocator@_W@std@@V?$_String_val@U?$_Simple_types@_W@std@@@2@$00@std@@QAEAAV?$allocator@_W@2@XZ PROC ; std::_Compressed_pair<std::allocator<wchar_t>,std::_String_val<std::_Simple_types<wchar_t> >,1>::_Get_first, COMDAT
; _this$ = ecx

; 1346 :     constexpr _Ty1& _Get_first() noexcept {

	push	ebp
	mov	ebp, esp
	sub	esp, 204				; 000000ccH
	push	ebx
	push	esi
	push	edi
	push	ecx
	lea	edi, DWORD PTR [ebp-204]
	mov	ecx, 51					; 00000033H
	mov	eax, -858993460				; ccccccccH
	rep stosd
	pop	ecx
	mov	DWORD PTR _this$[ebp], ecx
	mov	ecx, OFFSET __B4DE8A79_xmemory
	call	@__CheckForDebuggerJustMyCode@4

; 1347 :         return *this;

	mov	eax, DWORD PTR _this$[ebp]

; 1348 :     }

	pop	edi
	pop	esi
	pop	ebx
	add	esp, 204				; 000000ccH
	cmp	ebp, esp
	call	__RTC_CheckEsp
	mov	esp, ebp
	pop	ebp
	ret	0
?_Get_first@?$_Compressed_pair@V?$allocator@_W@std@@V?$_String_val@U?$_Simple_types@_W@std@@@2@$00@std@@QAEAAV?$allocator@_W@2@XZ ENDP ; std::_Compressed_pair<std::allocator<wchar_t>,std::_String_val<std::_Simple_types<wchar_t> >,1>::_Get_first
_TEXT	ENDS
; Function compile flags: /Odtp /RTCsu /ZI
; File C:\Program Files (x86)\Microsoft Visual Studio\2019\Professional\VC\Tools\MSVC\14.28.29333\include\xstring
;	COMDAT ?_Getal@?$basic_string@_WU?$char_traits@_W@std@@V?$allocator@_W@2@@std@@ABEABV?$allocator@_W@2@XZ
_TEXT	SEGMENT
_this$ = -8						; size = 4
?_Getal@?$basic_string@_WU?$char_traits@_W@std@@V?$allocator@_W@2@@std@@ABEABV?$allocator@_W@2@XZ PROC ; std::basic_string<wchar_t,std::char_traits<wchar_t>,std::allocator<wchar_t> >::_Getal, COMDAT
; _this$ = ecx

; 4412 :     const _Alty& _Getal() const noexcept {

	push	ebp
	mov	ebp, esp
	sub	esp, 204				; 000000ccH
	push	ebx
	push	esi
	push	edi
	push	ecx
	lea	edi, DWORD PTR [ebp-204]
	mov	ecx, 51					; 00000033H
	mov	eax, -858993460				; ccccccccH
	rep stosd
	pop	ecx
	mov	DWORD PTR _this$[ebp], ecx
	mov	ecx, OFFSET __C00D0CE5_xstring
	call	@__CheckForDebuggerJustMyCode@4

; 4413 :         return _Mypair._Get_first();

	mov	ecx, DWORD PTR _this$[ebp]
	call	?_Get_first@?$_Compressed_pair@V?$allocator@_W@std@@V?$_String_val@U?$_Simple_types@_W@std@@@2@$00@std@@QBEABV?$allocator@_W@2@XZ ; std::_Compressed_pair<std::allocator<wchar_t>,std::_String_val<std::_Simple_types<wchar_t> >,1>::_Get_first

; 4414 :     }

	pop	edi
	pop	esi
	pop	ebx
	add	esp, 204				; 000000ccH
	cmp	ebp, esp
	call	__RTC_CheckEsp
	mov	esp, ebp
	pop	ebp
	ret	0
?_Getal@?$basic_string@_WU?$char_traits@_W@std@@V?$allocator@_W@2@@std@@ABEABV?$allocator@_W@2@XZ ENDP ; std::basic_string<wchar_t,std::char_traits<wchar_t>,std::allocator<wchar_t> >::_Getal
_TEXT	ENDS
; Function compile flags: /Odtp /RTCsu /ZI
; File C:\Program Files (x86)\Microsoft Visual Studio\2019\Professional\VC\Tools\MSVC\14.28.29333\include\xstring
;	COMDAT ?_Getal@?$basic_string@_WU?$char_traits@_W@std@@V?$allocator@_W@2@@std@@AAEAAV?$allocator@_W@2@XZ
_TEXT	SEGMENT
_this$ = -8						; size = 4
?_Getal@?$basic_string@_WU?$char_traits@_W@std@@V?$allocator@_W@2@@std@@AAEAAV?$allocator@_W@2@XZ PROC ; std::basic_string<wchar_t,std::char_traits<wchar_t>,std::allocator<wchar_t> >::_Getal, COMDAT
; _this$ = ecx

; 4408 :     _Alty& _Getal() noexcept {

	push	ebp
	mov	ebp, esp
	sub	esp, 204				; 000000ccH
	push	ebx
	push	esi
	push	edi
	push	ecx
	lea	edi, DWORD PTR [ebp-204]
	mov	ecx, 51					; 00000033H
	mov	eax, -858993460				; ccccccccH
	rep stosd
	pop	ecx
	mov	DWORD PTR _this$[ebp], ecx
	mov	ecx, OFFSET __C00D0CE5_xstring
	call	@__CheckForDebuggerJustMyCode@4

; 4409 :         return _Mypair._Get_first();

	mov	ecx, DWORD PTR _this$[ebp]
	call	?_Get_first@?$_Compressed_pair@V?$allocator@_W@std@@V?$_String_val@U?$_Simple_types@_W@std@@@2@$00@std@@QAEAAV?$allocator@_W@2@XZ ; std::_Compressed_pair<std::allocator<wchar_t>,std::_String_val<std::_Simple_types<wchar_t> >,1>::_Get_first

; 4410 :     }

	pop	edi
	pop	esi
	pop	ebx
	add	esp, 204				; 000000ccH
	cmp	ebp, esp
	call	__RTC_CheckEsp
	mov	esp, ebp
	pop	ebp
	ret	0
?_Getal@?$basic_string@_WU?$char_traits@_W@std@@V?$allocator@_W@2@@std@@AAEAAV?$allocator@_W@2@XZ ENDP ; std::basic_string<wchar_t,std::char_traits<wchar_t>,std::allocator<wchar_t> >::_Getal
_TEXT	ENDS
; Function compile flags: /Odtp /RTCsu /ZI
; File C:\Program Files (x86)\Microsoft Visual Studio\2019\Professional\VC\Tools\MSVC\14.28.29333\include\xstring
;	COMDAT ?_Swap_proxy_and_iterators@?$basic_string@_WU?$char_traits@_W@std@@V?$allocator@_W@2@@std@@AAEXAAV12@@Z
_TEXT	SEGMENT
tv79 = -208						; size = 4
_this$ = -8						; size = 4
__Right$ = 8						; size = 4
?_Swap_proxy_and_iterators@?$basic_string@_WU?$char_traits@_W@std@@V?$allocator@_W@2@@std@@AAEXAAV12@@Z PROC ; std::basic_string<wchar_t,std::char_traits<wchar_t>,std::allocator<wchar_t> >::_Swap_proxy_and_iterators, COMDAT
; _this$ = ecx

; 4404 :     void _Swap_proxy_and_iterators(basic_string& _Right) {

	push	ebp
	mov	ebp, esp
	sub	esp, 208				; 000000d0H
	push	ebx
	push	esi
	push	edi
	push	ecx
	lea	edi, DWORD PTR [ebp-208]
	mov	ecx, 52					; 00000034H
	mov	eax, -858993460				; ccccccccH
	rep stosd
	pop	ecx
	mov	DWORD PTR _this$[ebp], ecx
	mov	ecx, OFFSET __C00D0CE5_xstring
	call	@__CheckForDebuggerJustMyCode@4

; 4405 :         _Mypair._Myval2._Swap_proxy_and_iterators(_Right._Mypair._Myval2);

	mov	eax, DWORD PTR _this$[ebp]
	mov	DWORD PTR tv79[ebp], eax
	mov	ecx, DWORD PTR __Right$[ebp]
	push	ecx
	mov	ecx, DWORD PTR tv79[ebp]
	call	?_Swap_proxy_and_iterators@_Container_base12@std@@QAEXAAU12@@Z ; std::_Container_base12::_Swap_proxy_and_iterators

; 4406 :     }

	pop	edi
	pop	esi
	pop	ebx
	add	esp, 208				; 000000d0H
	cmp	ebp, esp
	call	__RTC_CheckEsp
	mov	esp, ebp
	pop	ebp
	ret	4
?_Swap_proxy_and_iterators@?$basic_string@_WU?$char_traits@_W@std@@V?$allocator@_W@2@@std@@AAEXAAV12@@Z ENDP ; std::basic_string<wchar_t,std::char_traits<wchar_t>,std::allocator<wchar_t> >::_Swap_proxy_and_iterators
_TEXT	ENDS
; Function compile flags: /Odtp /RTCsu /ZI
; File C:\Program Files (x86)\Microsoft Visual Studio\2019\Professional\VC\Tools\MSVC\14.28.29333\include\xstring
;	COMDAT ?_Tidy_deallocate@?$basic_string@_WU?$char_traits@_W@std@@V?$allocator@_W@2@@std@@AAEXXZ
_TEXT	SEGMENT
$T2 = -246						; size = 2
__Al$3 = -44						; size = 4
__Ptr$4 = -32						; size = 4
_this$ = -20						; size = 4
__$EHRec$ = -12						; size = 12
?_Tidy_deallocate@?$basic_string@_WU?$char_traits@_W@std@@V?$allocator@_W@2@@std@@AAEXXZ PROC ; std::basic_string<wchar_t,std::char_traits<wchar_t>,std::allocator<wchar_t> >::_Tidy_deallocate, COMDAT
; _this$ = ecx

; 4383 :     void _Tidy_deallocate() noexcept { // initialize buffer, deallocating any storage

	push	ebp
	mov	ebp, esp
	push	-1
	push	__ehhandler$?_Tidy_deallocate@?$basic_string@_WU?$char_traits@_W@std@@V?$allocator@_W@2@@std@@AAEXXZ
	mov	eax, DWORD PTR fs:0
	push	eax
	sub	esp, 240				; 000000f0H
	push	ebx
	push	esi
	push	edi
	push	ecx
	lea	edi, DWORD PTR [ebp-252]
	mov	ecx, 60					; 0000003cH
	mov	eax, -858993460				; ccccccccH
	rep stosd
	pop	ecx
	mov	eax, DWORD PTR ___security_cookie
	xor	eax, ebp
	push	eax
	lea	eax, DWORD PTR __$EHRec$[ebp]
	mov	DWORD PTR fs:0, eax
	mov	DWORD PTR _this$[ebp], ecx
	mov	ecx, OFFSET __C00D0CE5_xstring
	call	@__CheckForDebuggerJustMyCode@4

; 4384 :         _Mypair._Myval2._Orphan_all();

	mov	ecx, DWORD PTR _this$[ebp]
	call	?_Orphan_all@_Container_base12@std@@QAEXXZ ; std::_Container_base12::_Orphan_all

; 4385 :         if (_Mypair._Myval2._Large_string_engaged()) {

	mov	ecx, DWORD PTR _this$[ebp]
	call	?_Large_string_engaged@?$_String_val@U?$_Simple_types@_W@std@@@std@@QBE_NXZ ; std::_String_val<std::_Simple_types<wchar_t> >::_Large_string_engaged
	movzx	eax, al
	test	eax, eax
	je	SHORT $LN2@Tidy_deall

; 4386 :             const pointer _Ptr = _Mypair._Myval2._Bx._Ptr;

	mov	eax, DWORD PTR _this$[ebp]
	mov	ecx, DWORD PTR [eax+4]
	mov	DWORD PTR __Ptr$4[ebp], ecx

; 4387 :             auto& _Al          = _Getal();

	mov	ecx, DWORD PTR _this$[ebp]
	call	?_Getal@?$basic_string@_WU?$char_traits@_W@std@@V?$allocator@_W@2@@std@@AAEAAV?$allocator@_W@2@XZ ; std::basic_string<wchar_t,std::char_traits<wchar_t>,std::allocator<wchar_t> >::_Getal
	mov	DWORD PTR __Al$3[ebp], eax

; 4388 :             _Destroy_in_place(_Mypair._Myval2._Bx._Ptr);

	mov	eax, DWORD PTR _this$[ebp]
	add	eax, 4
	push	eax
	call	??$_Destroy_in_place@PA_W@std@@YAXAAPA_W@Z ; std::_Destroy_in_place<wchar_t *>
	add	esp, 4

; 4389 :             _Al.deallocate(_Ptr, _Mypair._Myval2._Myres + 1);

	mov	eax, DWORD PTR _this$[ebp]
	mov	ecx, DWORD PTR [eax+24]
	add	ecx, 1
	push	ecx
	mov	edx, DWORD PTR __Ptr$4[ebp]
	push	edx
	mov	ecx, DWORD PTR __Al$3[ebp]
	call	?deallocate@?$allocator@_W@std@@QAEXQA_WI@Z ; std::allocator<wchar_t>::deallocate
$LN2@Tidy_deall:

; 4390 :         }
; 4391 : 
; 4392 :         _Mypair._Myval2._Mysize = 0;

	mov	eax, DWORD PTR _this$[ebp]
	mov	DWORD PTR [eax+20], 0

; 4393 :         _Mypair._Myval2._Myres  = _BUF_SIZE - 1;

	mov	eax, DWORD PTR _this$[ebp]
	mov	DWORD PTR [eax+24], 7

; 4394 :         // the _Traits::assign is last so the codegen doesn't think the char write can alias this
; 4395 :         _Traits::assign(_Mypair._Myval2._Bx._Buf[0], _Elem());

	xor	eax, eax
	mov	WORD PTR $T2[ebp], ax
	lea	ecx, DWORD PTR $T2[ebp]
	push	ecx
	mov	edx, 2
	imul	eax, edx, 0
	mov	ecx, DWORD PTR _this$[ebp]
	lea	edx, DWORD PTR [ecx+eax+4]
	push	edx
	call	?assign@?$_WChar_traits@_W@std@@SAXAA_WAB_W@Z ; std::_WChar_traits<wchar_t>::assign
	add	esp, 8

; 4396 :     }

	mov	ecx, DWORD PTR __$EHRec$[ebp]
	mov	DWORD PTR fs:0, ecx
	pop	ecx
	pop	edi
	pop	esi
	pop	ebx
	add	esp, 252				; 000000fcH
	cmp	ebp, esp
	call	__RTC_CheckEsp
	mov	esp, ebp
	pop	ebp
	ret	0
	int	3
	int	3
	int	3
	int	3
	int	3
_TEXT	ENDS
;	COMDAT text$x
text$x	SEGMENT
__ehhandler$?_Tidy_deallocate@?$basic_string@_WU?$char_traits@_W@std@@V?$allocator@_W@2@@std@@AAEXXZ:
	npad	1
	npad	1
	mov	edx, DWORD PTR [esp+8]
	lea	eax, DWORD PTR [edx+12]
	mov	ecx, DWORD PTR [edx-256]
	xor	ecx, eax
	call	@__security_check_cookie@4
	mov	eax, OFFSET __ehfuncinfo$?_Tidy_deallocate@?$basic_string@_WU?$char_traits@_W@std@@V?$allocator@_W@2@@std@@AAEXXZ
	jmp	___CxxFrameHandler3
text$x	ENDS
?_Tidy_deallocate@?$basic_string@_WU?$char_traits@_W@std@@V?$allocator@_W@2@@std@@AAEXXZ ENDP ; std::basic_string<wchar_t,std::char_traits<wchar_t>,std::allocator<wchar_t> >::_Tidy_deallocate
; Function compile flags: /Odtp /RTCsu /ZI
; File C:\Program Files (x86)\Microsoft Visual Studio\2019\Professional\VC\Tools\MSVC\14.28.29333\include\xstring
;	COMDAT ?_Tidy_init@?$basic_string@_WU?$char_traits@_W@std@@V?$allocator@_W@2@@std@@AAEXXZ
_TEXT	SEGMENT
$T1 = -210						; size = 2
_this$ = -8						; size = 4
?_Tidy_init@?$basic_string@_WU?$char_traits@_W@std@@V?$allocator@_W@2@@std@@AAEXXZ PROC ; std::basic_string<wchar_t,std::char_traits<wchar_t>,std::allocator<wchar_t> >::_Tidy_init, COMDAT
; _this$ = ecx

; 4376 :     void _Tidy_init() noexcept { // initialize basic_string data members

	push	ebp
	mov	ebp, esp
	sub	esp, 216				; 000000d8H
	push	ebx
	push	esi
	push	edi
	push	ecx
	lea	edi, DWORD PTR [ebp-216]
	mov	ecx, 54					; 00000036H
	mov	eax, -858993460				; ccccccccH
	rep stosd
	pop	ecx
	mov	DWORD PTR _this$[ebp], ecx
	mov	ecx, OFFSET __C00D0CE5_xstring
	call	@__CheckForDebuggerJustMyCode@4

; 4377 :         _Mypair._Myval2._Mysize = 0;

	mov	eax, DWORD PTR _this$[ebp]
	mov	DWORD PTR [eax+20], 0

; 4378 :         _Mypair._Myval2._Myres  = _BUF_SIZE - 1;

	mov	eax, DWORD PTR _this$[ebp]
	mov	DWORD PTR [eax+24], 7

; 4379 :         // the _Traits::assign is last so the codegen doesn't think the char write can alias this
; 4380 :         _Traits::assign(_Mypair._Myval2._Bx._Buf[0], _Elem());

	xor	eax, eax
	mov	WORD PTR $T1[ebp], ax
	lea	ecx, DWORD PTR $T1[ebp]
	push	ecx
	mov	edx, 2
	imul	eax, edx, 0
	mov	ecx, DWORD PTR _this$[ebp]
	lea	edx, DWORD PTR [ecx+eax+4]
	push	edx
	call	?assign@?$_WChar_traits@_W@std@@SAXAA_WAB_W@Z ; std::_WChar_traits<wchar_t>::assign
	add	esp, 8

; 4381 :     }

	pop	edi
	pop	esi
	pop	ebx
	add	esp, 216				; 000000d8H
	cmp	ebp, esp
	call	__RTC_CheckEsp
	mov	esp, ebp
	pop	ebp
	ret	0
?_Tidy_init@?$basic_string@_WU?$char_traits@_W@std@@V?$allocator@_W@2@@std@@AAEXXZ ENDP ; std::basic_string<wchar_t,std::char_traits<wchar_t>,std::allocator<wchar_t> >::_Tidy_init
_TEXT	ENDS
; Function compile flags: /Odtp /RTCsu /ZI
; File C:\Program Files (x86)\Microsoft Visual Studio\2019\Professional\VC\Tools\MSVC\14.28.29333\include\xstring
;	COMDAT ?_Eos@?$basic_string@_WU?$char_traits@_W@std@@V?$allocator@_W@2@@std@@AAEXI@Z
_TEXT	SEGMENT
tv75 = -224						; size = 4
tv77 = -220						; size = 4
$T1 = -210						; size = 2
_this$ = -8						; size = 4
__Newsize$ = 8						; size = 4
?_Eos@?$basic_string@_WU?$char_traits@_W@std@@V?$allocator@_W@2@@std@@AAEXI@Z PROC ; std::basic_string<wchar_t,std::char_traits<wchar_t>,std::allocator<wchar_t> >::_Eos, COMDAT
; _this$ = ecx

; 4372 :     void _Eos(const size_type _Newsize) { // set new length and null terminator

	push	ebp
	mov	ebp, esp
	sub	esp, 224				; 000000e0H
	push	ebx
	push	esi
	push	edi
	push	ecx
	lea	edi, DWORD PTR [ebp-224]
	mov	ecx, 56					; 00000038H
	mov	eax, -858993460				; ccccccccH
	rep stosd
	pop	ecx
	mov	DWORD PTR _this$[ebp], ecx
	mov	ecx, OFFSET __C00D0CE5_xstring
	call	@__CheckForDebuggerJustMyCode@4

; 4373 :         _Traits::assign(_Mypair._Myval2._Myptr()[_Mypair._Myval2._Mysize = _Newsize], _Elem());

	xor	eax, eax
	mov	WORD PTR $T1[ebp], ax
	mov	ecx, DWORD PTR _this$[ebp]
	call	?_Myptr@?$_String_val@U?$_Simple_types@_W@std@@@std@@QAEPA_WXZ ; std::_String_val<std::_Simple_types<wchar_t> >::_Myptr
	mov	DWORD PTR tv77[ebp], eax
	mov	ecx, DWORD PTR _this$[ebp]
	mov	edx, DWORD PTR __Newsize$[ebp]
	mov	DWORD PTR [ecx+20], edx
	mov	eax, DWORD PTR __Newsize$[ebp]
	shl	eax, 1
	mov	DWORD PTR tv75[ebp], eax
	lea	ecx, DWORD PTR $T1[ebp]
	push	ecx
	mov	edx, DWORD PTR tv77[ebp]
	add	edx, DWORD PTR tv75[ebp]
	push	edx
	call	?assign@?$_WChar_traits@_W@std@@SAXAA_WAB_W@Z ; std::_WChar_traits<wchar_t>::assign
	add	esp, 8

; 4374 :     }

	pop	edi
	pop	esi
	pop	ebx
	add	esp, 224				; 000000e0H
	cmp	ebp, esp
	call	__RTC_CheckEsp
	mov	esp, ebp
	pop	ebp
	ret	4
?_Eos@?$basic_string@_WU?$char_traits@_W@std@@V?$allocator@_W@2@@std@@AAEXI@Z ENDP ; std::basic_string<wchar_t,std::char_traits<wchar_t>,std::allocator<wchar_t> >::_Eos
_TEXT	ENDS
; Function compile flags: /Odtp /RTCsu /ZI
; File C:\Program Files (x86)\Microsoft Visual Studio\2019\Professional\VC\Tools\MSVC\14.28.29333\include\xstring
;	COMDAT ?_Calculate_growth@?$basic_string@_WU?$char_traits@_W@std@@V?$allocator@_W@2@@std@@ABEII@Z
_TEXT	SEGMENT
tv74 = -212						; size = 4
tv76 = -208						; size = 4
_this$ = -8						; size = 4
__Requested$ = 8					; size = 4
?_Calculate_growth@?$basic_string@_WU?$char_traits@_W@std@@V?$allocator@_W@2@@std@@ABEII@Z PROC ; std::basic_string<wchar_t,std::char_traits<wchar_t>,std::allocator<wchar_t> >::_Calculate_growth, COMDAT
; _this$ = ecx

; 4297 :     _NODISCARD size_type _Calculate_growth(const size_type _Requested) const noexcept {

	push	ebp
	mov	ebp, esp
	sub	esp, 212				; 000000d4H
	push	ebx
	push	esi
	push	edi
	push	ecx
	lea	edi, DWORD PTR [ebp-212]
	mov	ecx, 53					; 00000035H
	mov	eax, -858993460				; ccccccccH
	rep stosd
	pop	ecx
	mov	DWORD PTR _this$[ebp], ecx
	mov	ecx, OFFSET __C00D0CE5_xstring
	call	@__CheckForDebuggerJustMyCode@4

; 4298 :         return _Calculate_growth(_Requested, _Mypair._Myval2._Myres, max_size());

	mov	ecx, DWORD PTR _this$[ebp]
	call	?max_size@?$basic_string@_WU?$char_traits@_W@std@@V?$allocator@_W@2@@std@@QBEIXZ ; std::basic_string<wchar_t,std::char_traits<wchar_t>,std::allocator<wchar_t> >::max_size
	mov	DWORD PTR tv76[ebp], eax
	mov	eax, DWORD PTR _this$[ebp]
	mov	ecx, DWORD PTR [eax+24]
	mov	DWORD PTR tv74[ebp], ecx
	mov	edx, DWORD PTR tv76[ebp]
	push	edx
	mov	eax, DWORD PTR tv74[ebp]
	push	eax
	mov	ecx, DWORD PTR __Requested$[ebp]
	push	ecx
	call	?_Calculate_growth@?$basic_string@_WU?$char_traits@_W@std@@V?$allocator@_W@2@@std@@CAIIII@Z ; std::basic_string<wchar_t,std::char_traits<wchar_t>,std::allocator<wchar_t> >::_Calculate_growth
	add	esp, 12					; 0000000cH

; 4299 :     }

	pop	edi
	pop	esi
	pop	ebx
	add	esp, 212				; 000000d4H
	cmp	ebp, esp
	call	__RTC_CheckEsp
	mov	esp, ebp
	pop	ebp
	ret	4
?_Calculate_growth@?$basic_string@_WU?$char_traits@_W@std@@V?$allocator@_W@2@@std@@ABEII@Z ENDP ; std::basic_string<wchar_t,std::char_traits<wchar_t>,std::allocator<wchar_t> >::_Calculate_growth
_TEXT	ENDS
; Function compile flags: /Odtp /RTCsu /ZI
; File C:\Program Files (x86)\Microsoft Visual Studio\2019\Professional\VC\Tools\MSVC\14.28.29333\include\xstring
;	COMDAT ?_Calculate_growth@?$basic_string@_WU?$char_traits@_W@std@@V?$allocator@_W@2@@std@@CAIIII@Z
_TEXT	SEGMENT
$T1 = -216						; size = 4
__Masked$ = -12						; size = 4
__$ArrayPad$ = -4					; size = 4
__Requested$ = 8					; size = 4
__Old$ = 12						; size = 4
__Max$ = 16						; size = 4
?_Calculate_growth@?$basic_string@_WU?$char_traits@_W@std@@V?$allocator@_W@2@@std@@CAIIII@Z PROC ; std::basic_string<wchar_t,std::char_traits<wchar_t>,std::allocator<wchar_t> >::_Calculate_growth, COMDAT

; 4284 :         const size_type _Requested, const size_type _Old, const size_type _Max) noexcept {

	push	ebp
	mov	ebp, esp
	sub	esp, 220				; 000000dcH
	push	ebx
	push	esi
	push	edi
	lea	edi, DWORD PTR [ebp-220]
	mov	ecx, 55					; 00000037H
	mov	eax, -858993460				; ccccccccH
	rep stosd
	mov	eax, DWORD PTR ___security_cookie
	xor	eax, ebp
	mov	DWORD PTR __$ArrayPad$[ebp], eax
	mov	ecx, OFFSET __C00D0CE5_xstring
	call	@__CheckForDebuggerJustMyCode@4

; 4285 :         const size_type _Masked = _Requested | _ALLOC_MASK;

	mov	eax, DWORD PTR __Requested$[ebp]
	or	eax, 7
	mov	DWORD PTR __Masked$[ebp], eax

; 4286 :         if (_Masked > _Max) { // the mask overflows, settle for max_size()

	mov	eax, DWORD PTR __Masked$[ebp]
	cmp	eax, DWORD PTR __Max$[ebp]
	jbe	SHORT $LN2@Calculate_

; 4287 :             return _Max;

	mov	eax, DWORD PTR __Max$[ebp]
	jmp	SHORT $LN4@Calculate_
$LN2@Calculate_:

; 4288 :         }
; 4289 : 
; 4290 :         if (_Old > _Max - _Old / 2) { // similarly, geometric overflows

	mov	eax, DWORD PTR __Old$[ebp]
	shr	eax, 1
	mov	ecx, DWORD PTR __Max$[ebp]
	sub	ecx, eax
	cmp	DWORD PTR __Old$[ebp], ecx
	jbe	SHORT $LN3@Calculate_

; 4291 :             return _Max;

	mov	eax, DWORD PTR __Max$[ebp]
	jmp	SHORT $LN4@Calculate_
$LN3@Calculate_:

; 4292 :         }
; 4293 : 
; 4294 :         return (_STD max)(_Masked, _Old + _Old / 2);

	mov	eax, DWORD PTR __Old$[ebp]
	shr	eax, 1
	add	eax, DWORD PTR __Old$[ebp]
	mov	DWORD PTR $T1[ebp], eax
	lea	ecx, DWORD PTR $T1[ebp]
	push	ecx
	lea	edx, DWORD PTR __Masked$[ebp]
	push	edx
	call	??$max@I@std@@YAABIABI0@Z		; std::max<unsigned int>
	add	esp, 8
	mov	eax, DWORD PTR [eax]
$LN4@Calculate_:

; 4295 :     }

	push	edx
	mov	ecx, ebp
	push	eax
	lea	edx, DWORD PTR $LN7@Calculate_
	call	@_RTC_CheckStackVars@8
	pop	eax
	pop	edx
	pop	edi
	pop	esi
	pop	ebx
	mov	ecx, DWORD PTR __$ArrayPad$[ebp]
	xor	ecx, ebp
	call	@__security_check_cookie@4
	add	esp, 220				; 000000dcH
	cmp	ebp, esp
	call	__RTC_CheckEsp
	mov	esp, ebp
	pop	ebp
	ret	0
	npad	2
$LN7@Calculate_:
	DD	1
	DD	$LN6@Calculate_
$LN6@Calculate_:
	DD	-12					; fffffff4H
	DD	4
	DD	$LN5@Calculate_
$LN5@Calculate_:
	DB	95					; 0000005fH
	DB	77					; 0000004dH
	DB	97					; 00000061H
	DB	115					; 00000073H
	DB	107					; 0000006bH
	DB	101					; 00000065H
	DB	100					; 00000064H
	DB	0
?_Calculate_growth@?$basic_string@_WU?$char_traits@_W@std@@V?$allocator@_W@2@@std@@CAIIII@Z ENDP ; std::basic_string<wchar_t,std::char_traits<wchar_t>,std::allocator<wchar_t> >::_Calculate_growth
_TEXT	ENDS
; Function compile flags: /Odtp /RTCsu /ZI
; File C:\Program Files (x86)\Microsoft Visual Studio\2019\Professional\VC\Tools\MSVC\14.28.29333\include\xstring
;	COMDAT ?resize@?$basic_string@_WU?$char_traits@_W@std@@V?$allocator@_W@2@@std@@QAEXI_W@Z
_TEXT	SEGMENT
__Old_size$ = -20					; size = 4
_this$ = -8						; size = 4
__Newsize$ = 8						; size = 4
__Ch$ = 12						; size = 2
?resize@?$basic_string@_WU?$char_traits@_W@std@@V?$allocator@_W@2@@std@@QAEXI_W@Z PROC ; std::basic_string<wchar_t,std::char_traits<wchar_t>,std::allocator<wchar_t> >::resize, COMDAT
; _this$ = ecx

; 3782 :     void resize(_CRT_GUARDOVERFLOW const size_type _Newsize, const _Elem _Ch = _Elem()) {

	push	ebp
	mov	ebp, esp
	sub	esp, 216				; 000000d8H
	push	ebx
	push	esi
	push	edi
	push	ecx
	lea	edi, DWORD PTR [ebp-216]
	mov	ecx, 54					; 00000036H
	mov	eax, -858993460				; ccccccccH
	rep stosd
	pop	ecx
	mov	DWORD PTR _this$[ebp], ecx
	mov	ecx, OFFSET __C00D0CE5_xstring
	call	@__CheckForDebuggerJustMyCode@4

; 3783 :         // determine new length, padding with _Ch elements as needed
; 3784 :         const size_type _Old_size = size();

	mov	ecx, DWORD PTR _this$[ebp]
	call	?size@?$basic_string@_WU?$char_traits@_W@std@@V?$allocator@_W@2@@std@@QBEIXZ ; std::basic_string<wchar_t,std::char_traits<wchar_t>,std::allocator<wchar_t> >::size
	mov	DWORD PTR __Old_size$[ebp], eax

; 3785 :         if (_Newsize <= _Old_size) {

	mov	eax, DWORD PTR __Newsize$[ebp]
	cmp	eax, DWORD PTR __Old_size$[ebp]
	ja	SHORT $LN2@resize

; 3786 :             _Eos(_Newsize);

	mov	eax, DWORD PTR __Newsize$[ebp]
	push	eax
	mov	ecx, DWORD PTR _this$[ebp]
	call	?_Eos@?$basic_string@_WU?$char_traits@_W@std@@V?$allocator@_W@2@@std@@AAEXI@Z ; std::basic_string<wchar_t,std::char_traits<wchar_t>,std::allocator<wchar_t> >::_Eos

; 3787 :         } else {

	jmp	SHORT $LN1@resize
$LN2@resize:

; 3788 :             append(_Newsize - _Old_size, _Ch);

	movzx	eax, WORD PTR __Ch$[ebp]
	push	eax
	mov	ecx, DWORD PTR __Newsize$[ebp]
	sub	ecx, DWORD PTR __Old_size$[ebp]
	push	ecx
	mov	ecx, DWORD PTR _this$[ebp]
	call	?append@?$basic_string@_WU?$char_traits@_W@std@@V?$allocator@_W@2@@std@@QAEAAV12@I_W@Z ; std::basic_string<wchar_t,std::char_traits<wchar_t>,std::allocator<wchar_t> >::append
$LN1@resize:

; 3789 :         }
; 3790 :     }

	pop	edi
	pop	esi
	pop	ebx
	add	esp, 216				; 000000d8H
	cmp	ebp, esp
	call	__RTC_CheckEsp
	mov	esp, ebp
	pop	ebp
	ret	8
?resize@?$basic_string@_WU?$char_traits@_W@std@@V?$allocator@_W@2@@std@@QAEXI_W@Z ENDP ; std::basic_string<wchar_t,std::char_traits<wchar_t>,std::allocator<wchar_t> >::resize
_TEXT	ENDS
; Function compile flags: /Odtp /RTCsu /ZI
; File C:\Program Files (x86)\Microsoft Visual Studio\2019\Professional\VC\Tools\MSVC\14.28.29333\include\xstring
;	COMDAT ?max_size@?$basic_string@_WU?$char_traits@_W@std@@V?$allocator@_W@2@@std@@QBEIXZ
_TEXT	SEGMENT
$T1 = -264						; size = 4
$T2 = -252						; size = 4
$T3 = -240						; size = 4
__Storage_max$ = -36					; size = 4
__Alloc_max$ = -24					; size = 4
_this$ = -12						; size = 4
__$ArrayPad$ = -4					; size = 4
?max_size@?$basic_string@_WU?$char_traits@_W@std@@V?$allocator@_W@2@@std@@QBEIXZ PROC ; std::basic_string<wchar_t,std::char_traits<wchar_t>,std::allocator<wchar_t> >::max_size, COMDAT
; _this$ = ecx

; 3773 :     _NODISCARD size_type max_size() const noexcept {

	push	ebp
	mov	ebp, esp
	sub	esp, 268				; 0000010cH
	push	ebx
	push	esi
	push	edi
	push	ecx
	lea	edi, DWORD PTR [ebp-268]
	mov	ecx, 67					; 00000043H
	mov	eax, -858993460				; ccccccccH
	rep stosd
	pop	ecx
	mov	eax, DWORD PTR ___security_cookie
	xor	eax, ebp
	mov	DWORD PTR __$ArrayPad$[ebp], eax
	mov	DWORD PTR _this$[ebp], ecx
	mov	ecx, OFFSET __C00D0CE5_xstring
	call	@__CheckForDebuggerJustMyCode@4

; 3774 :         const size_type _Alloc_max   = _Alty_traits::max_size(_Getal());

	mov	ecx, DWORD PTR _this$[ebp]
	call	?_Getal@?$basic_string@_WU?$char_traits@_W@std@@V?$allocator@_W@2@@std@@ABEABV?$allocator@_W@2@XZ ; std::basic_string<wchar_t,std::char_traits<wchar_t>,std::allocator<wchar_t> >::_Getal
	push	eax
	call	?max_size@?$_Default_allocator_traits@V?$allocator@_W@std@@@std@@SAIABV?$allocator@_W@2@@Z ; std::_Default_allocator_traits<std::allocator<wchar_t> >::max_size
	add	esp, 4
	mov	DWORD PTR __Alloc_max$[ebp], eax

; 3775 :         const size_type _Storage_max = // can always store small string

	mov	DWORD PTR $T3[ebp], 8
	lea	eax, DWORD PTR $T3[ebp]
	push	eax
	lea	ecx, DWORD PTR __Alloc_max$[ebp]
	push	ecx
	call	??$max@I@std@@YAABIABI0@Z		; std::max<unsigned int>
	add	esp, 8
	mov	edx, DWORD PTR [eax]
	mov	DWORD PTR __Storage_max$[ebp], edx

; 3776 :             (_STD max)(_Alloc_max, static_cast<size_type>(_BUF_SIZE));
; 3777 :         return (_STD min)(static_cast<size_type>((numeric_limits<difference_type>::max)()),

	mov	eax, DWORD PTR __Storage_max$[ebp]
	sub	eax, 1
	mov	DWORD PTR $T2[ebp], eax
	call	?max@?$numeric_limits@H@std@@SAHXZ	; std::numeric_limits<int>::max
	mov	DWORD PTR $T1[ebp], eax
	lea	ecx, DWORD PTR $T2[ebp]
	push	ecx
	lea	edx, DWORD PTR $T1[ebp]
	push	edx
	call	??$min@I@std@@YAABIABI0@Z		; std::min<unsigned int>
	add	esp, 8
	mov	eax, DWORD PTR [eax]

; 3778 :             _Storage_max - 1 // -1 is for null terminator and/or npos
; 3779 :         );
; 3780 :     }

	push	edx
	mov	ecx, ebp
	push	eax
	lea	edx, DWORD PTR $LN5@max_size
	call	@_RTC_CheckStackVars@8
	pop	eax
	pop	edx
	pop	edi
	pop	esi
	pop	ebx
	mov	ecx, DWORD PTR __$ArrayPad$[ebp]
	xor	ecx, ebp
	call	@__security_check_cookie@4
	add	esp, 268				; 0000010cH
	cmp	ebp, esp
	call	__RTC_CheckEsp
	mov	esp, ebp
	pop	ebp
	ret	0
	npad	1
$LN5@max_size:
	DD	1
	DD	$LN4@max_size
$LN4@max_size:
	DD	-24					; ffffffe8H
	DD	4
	DD	$LN3@max_size
$LN3@max_size:
	DB	95					; 0000005fH
	DB	65					; 00000041H
	DB	108					; 0000006cH
	DB	108					; 0000006cH
	DB	111					; 0000006fH
	DB	99					; 00000063H
	DB	95					; 0000005fH
	DB	109					; 0000006dH
	DB	97					; 00000061H
	DB	120					; 00000078H
	DB	0
?max_size@?$basic_string@_WU?$char_traits@_W@std@@V?$allocator@_W@2@@std@@QBEIXZ ENDP ; std::basic_string<wchar_t,std::char_traits<wchar_t>,std::allocator<wchar_t> >::max_size
_TEXT	ENDS
; Function compile flags: /Odtp /RTCsu /ZI
; File C:\Program Files (x86)\Microsoft Visual Studio\2019\Professional\VC\Tools\MSVC\14.28.29333\include\xstring
;	COMDAT ?size@?$basic_string@_WU?$char_traits@_W@std@@V?$allocator@_W@2@@std@@QBEIXZ
_TEXT	SEGMENT
_this$ = -8						; size = 4
?size@?$basic_string@_WU?$char_traits@_W@std@@V?$allocator@_W@2@@std@@QBEIXZ PROC ; std::basic_string<wchar_t,std::char_traits<wchar_t>,std::allocator<wchar_t> >::size, COMDAT
; _this$ = ecx

; 3769 :     _NODISCARD size_type size() const noexcept {

	push	ebp
	mov	ebp, esp
	sub	esp, 204				; 000000ccH
	push	ebx
	push	esi
	push	edi
	push	ecx
	lea	edi, DWORD PTR [ebp-204]
	mov	ecx, 51					; 00000033H
	mov	eax, -858993460				; ccccccccH
	rep stosd
	pop	ecx
	mov	DWORD PTR _this$[ebp], ecx
	mov	ecx, OFFSET __C00D0CE5_xstring
	call	@__CheckForDebuggerJustMyCode@4

; 3770 :         return _Mypair._Myval2._Mysize;

	mov	eax, DWORD PTR _this$[ebp]
	mov	eax, DWORD PTR [eax+20]

; 3771 :     }

	pop	edi
	pop	esi
	pop	ebx
	add	esp, 204				; 000000ccH
	cmp	ebp, esp
	call	__RTC_CheckEsp
	mov	esp, ebp
	pop	ebp
	ret	0
?size@?$basic_string@_WU?$char_traits@_W@std@@V?$allocator@_W@2@@std@@QBEIXZ ENDP ; std::basic_string<wchar_t,std::char_traits<wchar_t>,std::allocator<wchar_t> >::size
_TEXT	ENDS
; Function compile flags: /Odtp /RTCsu /ZI
; File C:\Program Files (x86)\Microsoft Visual Studio\2019\Professional\VC\Tools\MSVC\14.28.29333\include\xstring
;	COMDAT ?data@?$basic_string@_WU?$char_traits@_W@std@@V?$allocator@_W@2@@std@@QAEPA_WXZ
_TEXT	SEGMENT
_this$ = -8						; size = 4
?data@?$basic_string@_WU?$char_traits@_W@std@@V?$allocator@_W@2@@std@@QAEPA_WXZ PROC ; std::basic_string<wchar_t,std::char_traits<wchar_t>,std::allocator<wchar_t> >::data, COMDAT
; _this$ = ecx

; 3760 :     _NODISCARD _Ret_z_ _Elem* data() noexcept {

	push	ebp
	mov	ebp, esp
	sub	esp, 204				; 000000ccH
	push	ebx
	push	esi
	push	edi
	push	ecx
	lea	edi, DWORD PTR [ebp-204]
	mov	ecx, 51					; 00000033H
	mov	eax, -858993460				; ccccccccH
	rep stosd
	pop	ecx
	mov	DWORD PTR _this$[ebp], ecx
	mov	ecx, OFFSET __C00D0CE5_xstring
	call	@__CheckForDebuggerJustMyCode@4

; 3761 :         return _Mypair._Myval2._Myptr();

	mov	ecx, DWORD PTR _this$[ebp]
	call	?_Myptr@?$_String_val@U?$_Simple_types@_W@std@@@std@@QAEPA_WXZ ; std::_String_val<std::_Simple_types<wchar_t> >::_Myptr

; 3762 :     }

	pop	edi
	pop	esi
	pop	ebx
	add	esp, 204				; 000000ccH
	cmp	ebp, esp
	call	__RTC_CheckEsp
	mov	esp, ebp
	pop	ebp
	ret	0
?data@?$basic_string@_WU?$char_traits@_W@std@@V?$allocator@_W@2@@std@@QAEPA_WXZ ENDP ; std::basic_string<wchar_t,std::char_traits<wchar_t>,std::allocator<wchar_t> >::data
_TEXT	ENDS
; Function compile flags: /Odtp /RTCsu /ZI
; File C:\Program Files (x86)\Microsoft Visual Studio\2019\Professional\VC\Tools\MSVC\14.28.29333\include\xstring
;	COMDAT ?c_str@?$basic_string@_WU?$char_traits@_W@std@@V?$allocator@_W@2@@std@@QBEPB_WXZ
_TEXT	SEGMENT
_this$ = -8						; size = 4
?c_str@?$basic_string@_WU?$char_traits@_W@std@@V?$allocator@_W@2@@std@@QBEPB_WXZ PROC ; std::basic_string<wchar_t,std::char_traits<wchar_t>,std::allocator<wchar_t> >::c_str, COMDAT
; _this$ = ecx

; 3751 :     _NODISCARD _Ret_z_ const _Elem* c_str() const noexcept {

	push	ebp
	mov	ebp, esp
	sub	esp, 204				; 000000ccH
	push	ebx
	push	esi
	push	edi
	push	ecx
	lea	edi, DWORD PTR [ebp-204]
	mov	ecx, 51					; 00000033H
	mov	eax, -858993460				; ccccccccH
	rep stosd
	pop	ecx
	mov	DWORD PTR _this$[ebp], ecx
	mov	ecx, OFFSET __C00D0CE5_xstring
	call	@__CheckForDebuggerJustMyCode@4

; 3752 :         return _Mypair._Myval2._Myptr();

	mov	ecx, DWORD PTR _this$[ebp]
	call	?_Myptr@?$_String_val@U?$_Simple_types@_W@std@@@std@@QBEPB_WXZ ; std::_String_val<std::_Simple_types<wchar_t> >::_Myptr

; 3753 :     }

	pop	edi
	pop	esi
	pop	ebx
	add	esp, 204				; 000000ccH
	cmp	ebp, esp
	call	__RTC_CheckEsp
	mov	esp, ebp
	pop	ebp
	ret	0
?c_str@?$basic_string@_WU?$char_traits@_W@std@@V?$allocator@_W@2@@std@@QBEPB_WXZ ENDP ; std::basic_string<wchar_t,std::char_traits<wchar_t>,std::allocator<wchar_t> >::c_str
_TEXT	ENDS
; Function compile flags: /Odtp /RTCsu /ZI
; File C:\Program Files (x86)\Microsoft Visual Studio\2019\Professional\VC\Tools\MSVC\14.28.29333\include\xstring
;	COMDAT ??B?$basic_string@_WU?$char_traits@_W@std@@V?$allocator@_W@2@@std@@QBE?AV?$basic_string_view@_WU?$char_traits@_W@std@@@1@XZ
_TEXT	SEGMENT
tv76 = -212						; size = 4
tv78 = -208						; size = 4
_this$ = -8						; size = 4
___$ReturnUdt$ = 8					; size = 4
??B?$basic_string@_WU?$char_traits@_W@std@@V?$allocator@_W@2@@std@@QBE?AV?$basic_string_view@_WU?$char_traits@_W@std@@@1@XZ PROC ; std::basic_string<wchar_t,std::char_traits<wchar_t>,std::allocator<wchar_t> >::operator std::basic_string_view<wchar_t,std::char_traits<wchar_t> >, COMDAT
; _this$ = ecx

; 3685 :     /* implicit */ operator basic_string_view<_Elem, _Traits>() const noexcept {

	push	ebp
	mov	ebp, esp
	sub	esp, 212				; 000000d4H
	push	ebx
	push	esi
	push	edi
	push	ecx
	lea	edi, DWORD PTR [ebp-212]
	mov	ecx, 53					; 00000035H
	mov	eax, -858993460				; ccccccccH
	rep stosd
	pop	ecx
	mov	DWORD PTR _this$[ebp], ecx
	mov	ecx, OFFSET __C00D0CE5_xstring
	call	@__CheckForDebuggerJustMyCode@4

; 3686 :         // return a string_view around *this's character-type sequence
; 3687 :         return basic_string_view<_Elem, _Traits>(_Mypair._Myval2._Myptr(), _Mypair._Myval2._Mysize);

	mov	eax, DWORD PTR _this$[ebp]
	mov	ecx, DWORD PTR [eax+20]
	mov	DWORD PTR tv78[ebp], ecx
	mov	ecx, DWORD PTR _this$[ebp]
	call	?_Myptr@?$_String_val@U?$_Simple_types@_W@std@@@std@@QBEPB_WXZ ; std::_String_val<std::_Simple_types<wchar_t> >::_Myptr
	mov	DWORD PTR tv76[ebp], eax
	mov	edx, DWORD PTR tv78[ebp]
	push	edx
	mov	eax, DWORD PTR tv76[ebp]
	push	eax
	mov	ecx, DWORD PTR ___$ReturnUdt$[ebp]
	call	??0?$basic_string_view@_WU?$char_traits@_W@std@@@std@@QAE@QB_WI@Z ; std::basic_string_view<wchar_t,std::char_traits<wchar_t> >::basic_string_view<wchar_t,std::char_traits<wchar_t> >
	mov	eax, DWORD PTR ___$ReturnUdt$[ebp]

; 3688 :     }

	pop	edi
	pop	esi
	pop	ebx
	add	esp, 212				; 000000d4H
	cmp	ebp, esp
	call	__RTC_CheckEsp
	mov	esp, ebp
	pop	ebp
	ret	4
??B?$basic_string@_WU?$char_traits@_W@std@@V?$allocator@_W@2@@std@@QBE?AV?$basic_string_view@_WU?$char_traits@_W@std@@@1@XZ ENDP ; std::basic_string<wchar_t,std::char_traits<wchar_t>,std::allocator<wchar_t> >::operator std::basic_string_view<wchar_t,std::char_traits<wchar_t> >
_TEXT	ENDS
; Function compile flags: /Odtp /RTCsu /ZI
; File C:\Program Files (x86)\Microsoft Visual Studio\2019\Professional\VC\Tools\MSVC\14.28.29333\include\xstring
;	COMDAT ?append@?$basic_string@_WU?$char_traits@_W@std@@V?$allocator@_W@2@@std@@QAEAAV12@I_W@Z
_TEXT	SEGMENT
$T1 = -245						; size = 1
$T2 = -234						; size = 2
__Old_ptr$3 = -32					; size = 4
__Old_size$ = -20					; size = 4
_this$ = -8						; size = 4
__Count$ = 8						; size = 4
__Ch$ = 12						; size = 2
?append@?$basic_string@_WU?$char_traits@_W@std@@V?$allocator@_W@2@@std@@QAEAAV12@I_W@Z PROC ; std::basic_string<wchar_t,std::char_traits<wchar_t>,std::allocator<wchar_t> >::append, COMDAT
; _this$ = ecx

; 2961 :     basic_string& append(_CRT_GUARDOVERFLOW const size_type _Count, const _Elem _Ch) { // append _Count * _Ch

	push	ebp
	mov	ebp, esp
	sub	esp, 252				; 000000fcH
	push	ebx
	push	esi
	push	edi
	push	ecx
	lea	edi, DWORD PTR [ebp-252]
	mov	ecx, 63					; 0000003fH
	mov	eax, -858993460				; ccccccccH
	rep stosd
	pop	ecx
	mov	DWORD PTR _this$[ebp], ecx
	mov	ecx, OFFSET __C00D0CE5_xstring
	call	@__CheckForDebuggerJustMyCode@4

; 2962 :         const size_type _Old_size = _Mypair._Myval2._Mysize;

	mov	eax, DWORD PTR _this$[ebp]
	mov	ecx, DWORD PTR [eax+20]
	mov	DWORD PTR __Old_size$[ebp], ecx

; 2963 :         if (_Count <= _Mypair._Myval2._Myres - _Old_size) {

	mov	eax, DWORD PTR _this$[ebp]
	mov	ecx, DWORD PTR [eax+24]
	sub	ecx, DWORD PTR __Old_size$[ebp]
	cmp	DWORD PTR __Count$[ebp], ecx
	ja	SHORT $LN2@append

; 2964 :             _Mypair._Myval2._Mysize = _Old_size + _Count;

	mov	eax, DWORD PTR __Old_size$[ebp]
	add	eax, DWORD PTR __Count$[ebp]
	mov	ecx, DWORD PTR _this$[ebp]
	mov	DWORD PTR [ecx+20], eax

; 2965 :             _Elem* const _Old_ptr   = _Mypair._Myval2._Myptr();

	mov	ecx, DWORD PTR _this$[ebp]
	call	?_Myptr@?$_String_val@U?$_Simple_types@_W@std@@@std@@QAEPA_WXZ ; std::_String_val<std::_Simple_types<wchar_t> >::_Myptr
	mov	DWORD PTR __Old_ptr$3[ebp], eax

; 2966 :             _Traits::assign(_Old_ptr + _Old_size, _Count, _Ch);

	movzx	eax, WORD PTR __Ch$[ebp]
	push	eax
	mov	ecx, DWORD PTR __Count$[ebp]
	push	ecx
	mov	edx, DWORD PTR __Old_size$[ebp]
	mov	eax, DWORD PTR __Old_ptr$3[ebp]
	lea	ecx, DWORD PTR [eax+edx*2]
	push	ecx
	call	?assign@?$_WChar_traits@_W@std@@SAPA_WQA_WI_W@Z ; std::_WChar_traits<wchar_t>::assign
	add	esp, 12					; 0000000cH

; 2967 :             _Traits::assign(_Old_ptr[_Old_size + _Count], _Elem());

	xor	eax, eax
	mov	WORD PTR $T2[ebp], ax
	lea	ecx, DWORD PTR $T2[ebp]
	push	ecx
	mov	edx, DWORD PTR __Old_size$[ebp]
	add	edx, DWORD PTR __Count$[ebp]
	mov	eax, DWORD PTR __Old_ptr$3[ebp]
	lea	ecx, DWORD PTR [eax+edx*2]
	push	ecx
	call	?assign@?$_WChar_traits@_W@std@@SAXAA_WAB_W@Z ; std::_WChar_traits<wchar_t>::assign
	add	esp, 8

; 2968 :             return *this;

	mov	eax, DWORD PTR _this$[ebp]
	jmp	SHORT $LN1@append
$LN2@append:

; 2969 :         }
; 2970 : 
; 2971 :         return _Reallocate_grow_by(

	xor	eax, eax
	mov	BYTE PTR $T1[ebp], al
	movzx	ecx, WORD PTR __Ch$[ebp]
	push	ecx
	mov	edx, DWORD PTR __Count$[ebp]
	push	edx
	movzx	eax, BYTE PTR $T1[ebp]
	push	eax
	mov	ecx, DWORD PTR __Count$[ebp]
	push	ecx
	mov	ecx, DWORD PTR _this$[ebp]
	call	??$_Reallocate_grow_by@V<lambda_c3135ae829aeedc0a8af1bd1e887c66a>@@I_W@?$basic_string@_WU?$char_traits@_W@std@@V?$allocator@_W@2@@std@@AAEAAV01@IV<lambda_c3135ae829aeedc0a8af1bd1e887c66a>@@I_W@Z ; std::basic_string<wchar_t,std::char_traits<wchar_t>,std::allocator<wchar_t> >::_Reallocate_grow_by<<lambda_c3135ae829aeedc0a8af1bd1e887c66a>,unsigned int,wchar_t>
$LN1@append:

; 2972 :             _Count,
; 2973 :             [](_Elem* const _New_ptr, const _Elem* const _Old_ptr, const size_type _Old_size, const size_type _Count,
; 2974 :                 const _Elem _Ch) {
; 2975 :                 _Traits::copy(_New_ptr, _Old_ptr, _Old_size);
; 2976 :                 _Traits::assign(_New_ptr + _Old_size, _Count, _Ch);
; 2977 :                 _Traits::assign(_New_ptr[_Old_size + _Count], _Elem());
; 2978 :             },
; 2979 :             _Count, _Ch);
; 2980 :     }

	pop	edi
	pop	esi
	pop	ebx
	add	esp, 252				; 000000fcH
	cmp	ebp, esp
	call	__RTC_CheckEsp
	mov	esp, ebp
	pop	ebp
	ret	8
?append@?$basic_string@_WU?$char_traits@_W@std@@V?$allocator@_W@2@@std@@QAEAAV12@I_W@Z ENDP ; std::basic_string<wchar_t,std::char_traits<wchar_t>,std::allocator<wchar_t> >::append
_TEXT	ENDS
; Function compile flags: /Odtp /RTCsu /ZI
; File C:\Program Files (x86)\Microsoft Visual Studio\2019\Professional\VC\Tools\MSVC\14.28.29333\include\xstring
;	COMDAT ??1?$basic_string@_WU?$char_traits@_W@std@@V?$allocator@_W@2@@std@@QAE@XZ
_TEXT	SEGMENT
__To_delete$ = -48					; size = 4
_$S9$ = -33						; size = 1
__Alproxy$ = -24					; size = 4
_this$ = -12						; size = 4
__$ArrayPad$ = -4					; size = 4
??1?$basic_string@_WU?$char_traits@_W@std@@V?$allocator@_W@2@@std@@QAE@XZ PROC ; std::basic_string<wchar_t,std::char_traits<wchar_t>,std::allocator<wchar_t> >::~basic_string<wchar_t,std::char_traits<wchar_t>,std::allocator<wchar_t> >, COMDAT
; _this$ = ecx

; 2800 :     ~basic_string() noexcept {

	push	ebp
	mov	ebp, esp
	sub	esp, 244				; 000000f4H
	push	ebx
	push	esi
	push	edi
	push	ecx
	lea	edi, DWORD PTR [ebp-244]
	mov	ecx, 61					; 0000003dH
	mov	eax, -858993460				; ccccccccH
	rep stosd
	pop	ecx
	mov	eax, DWORD PTR ___security_cookie
	xor	eax, ebp
	mov	DWORD PTR __$ArrayPad$[ebp], eax
	mov	DWORD PTR _this$[ebp], ecx
	mov	ecx, OFFSET __C00D0CE5_xstring
	call	@__CheckForDebuggerJustMyCode@4

; 2801 :         _Tidy_deallocate();

	mov	ecx, DWORD PTR _this$[ebp]
	call	?_Tidy_deallocate@?$basic_string@_WU?$char_traits@_W@std@@V?$allocator@_W@2@@std@@AAEXXZ ; std::basic_string<wchar_t,std::char_traits<wchar_t>,std::allocator<wchar_t> >::_Tidy_deallocate

; 2802 : #if _ITERATOR_DEBUG_LEVEL != 0
; 2803 :         auto&& _Alproxy          = _GET_PROXY_ALLOCATOR(_Alty, _Getal());

	mov	ecx, DWORD PTR _this$[ebp]
	call	?_Getal@?$basic_string@_WU?$char_traits@_W@std@@V?$allocator@_W@2@@std@@AAEAAV?$allocator@_W@2@XZ ; std::basic_string<wchar_t,std::char_traits<wchar_t>,std::allocator<wchar_t> >::_Getal
	push	eax
	lea	ecx, DWORD PTR _$S9$[ebp]
	call	??$?0_W@?$allocator@U_Container_proxy@std@@@std@@QAE@ABV?$allocator@_W@1@@Z ; std::allocator<std::_Container_proxy>::allocator<std::_Container_proxy><wchar_t>
	lea	eax, DWORD PTR _$S9$[ebp]
	mov	DWORD PTR __Alproxy$[ebp], eax

; 2804 :         const auto _To_delete    = _Mypair._Myval2._Myproxy;

	mov	eax, DWORD PTR _this$[ebp]
	mov	ecx, DWORD PTR [eax]
	mov	DWORD PTR __To_delete$[ebp], ecx

; 2805 :         _Mypair._Myval2._Myproxy = nullptr;

	mov	eax, DWORD PTR _this$[ebp]
	mov	DWORD PTR [eax], 0

; 2806 :         _Delete_plain_internal(_Alproxy, _To_delete);

	mov	eax, DWORD PTR __To_delete$[ebp]
	push	eax
	mov	ecx, DWORD PTR __Alproxy$[ebp]
	push	ecx
	call	??$_Delete_plain_internal@V?$allocator@U_Container_proxy@std@@@std@@@std@@YAXAAV?$allocator@U_Container_proxy@std@@@0@QAU_Container_proxy@0@@Z ; std::_Delete_plain_internal<std::allocator<std::_Container_proxy> >
	add	esp, 8

; 2807 : #endif // _ITERATOR_DEBUG_LEVEL != 0
; 2808 :     }

	mov	ecx, DWORD PTR _this$[ebp]
	call	??1?$_Compressed_pair@V?$allocator@_W@std@@V?$_String_val@U?$_Simple_types@_W@std@@@2@$00@std@@QAE@XZ
	push	edx
	mov	ecx, ebp
	push	eax
	lea	edx, DWORD PTR $LN5@basic_stri
	call	@_RTC_CheckStackVars@8
	pop	eax
	pop	edx
	pop	edi
	pop	esi
	pop	ebx
	mov	ecx, DWORD PTR __$ArrayPad$[ebp]
	xor	ecx, ebp
	call	@__security_check_cookie@4
	add	esp, 244				; 000000f4H
	cmp	ebp, esp
	call	__RTC_CheckEsp
	mov	esp, ebp
	pop	ebp
	ret	0
	npad	2
$LN5@basic_stri:
	DD	1
	DD	$LN4@basic_stri
$LN4@basic_stri:
	DD	-33					; ffffffdfH
	DD	1
	DD	$LN3@basic_stri
$LN3@basic_stri:
	DB	36					; 00000024H
	DB	83					; 00000053H
	DB	57					; 00000039H
	DB	0
??1?$basic_string@_WU?$char_traits@_W@std@@V?$allocator@_W@2@@std@@QAE@XZ ENDP ; std::basic_string<wchar_t,std::char_traits<wchar_t>,std::allocator<wchar_t> >::~basic_string<wchar_t,std::char_traits<wchar_t>,std::allocator<wchar_t> >
_TEXT	ENDS
; Function compile flags: /Odtp /RTCsu /ZI
; File C:\Program Files (x86)\Microsoft Visual Studio\2019\Professional\VC\Tools\MSVC\14.28.29333\include\xstring
;	COMDAT ?_Construct_lv_contents@?$basic_string@_WU?$char_traits@_W@std@@V?$allocator@_W@2@@std@@AAEXABV12@@Z
_TEXT	SEGMENT
$T1 = -312						; size = 4
$T2 = -300						; size = 4
__New_array$ = -96					; size = 4
__New_capacity$ = -84					; size = 4
__Al$ = -72						; size = 4
__My_data$ = -60					; size = 4
__Right_ptr$ = -48					; size = 4
__Right_size$ = -36					; size = 4
__Right_data$ = -24					; size = 4
_this$ = -12						; size = 4
__$ArrayPad$ = -4					; size = 4
__Right$ = 8						; size = 4
?_Construct_lv_contents@?$basic_string@_WU?$char_traits@_W@std@@V?$allocator@_W@2@@std@@AAEXABV12@@Z PROC ; std::basic_string<wchar_t,std::char_traits<wchar_t>,std::allocator<wchar_t> >::_Construct_lv_contents, COMDAT
; _this$ = ecx

; 2728 :     void _Construct_lv_contents(const basic_string& _Right) {

	push	ebp
	mov	ebp, esp
	sub	esp, 316				; 0000013cH
	push	ebx
	push	esi
	push	edi
	push	ecx
	lea	edi, DWORD PTR [ebp-316]
	mov	ecx, 79					; 0000004fH
	mov	eax, -858993460				; ccccccccH
	rep stosd
	pop	ecx
	mov	eax, DWORD PTR ___security_cookie
	xor	eax, ebp
	mov	DWORD PTR __$ArrayPad$[ebp], eax
	mov	DWORD PTR _this$[ebp], ecx
	mov	ecx, OFFSET __C00D0CE5_xstring
	call	@__CheckForDebuggerJustMyCode@4

; 2729 :         // assign by copying data stored in _Right
; 2730 :         // pre: this != &_Right
; 2731 :         // pre: *this owns no memory, iterators orphaned (note:
; 2732 :         // _Buf/_Ptr/_Mysize/_Myres may be garbage init)
; 2733 :         auto& _Right_data             = _Right._Mypair._Myval2;

	mov	eax, DWORD PTR __Right$[ebp]
	mov	DWORD PTR __Right_data$[ebp], eax

; 2734 :         const size_type _Right_size   = _Right_data._Mysize;

	mov	eax, DWORD PTR __Right_data$[ebp]
	mov	ecx, DWORD PTR [eax+20]
	mov	DWORD PTR __Right_size$[ebp], ecx

; 2735 :         const _Elem* const _Right_ptr = _Right_data._Myptr();

	mov	ecx, DWORD PTR __Right_data$[ebp]
	call	?_Myptr@?$_String_val@U?$_Simple_types@_W@std@@@std@@QBEPB_WXZ ; std::_String_val<std::_Simple_types<wchar_t> >::_Myptr
	mov	DWORD PTR __Right_ptr$[ebp], eax

; 2736 :         auto& _My_data                = _Mypair._Myval2;

	mov	eax, DWORD PTR _this$[ebp]
	mov	DWORD PTR __My_data$[ebp], eax

; 2737 :         if (_Right_size < _BUF_SIZE) { // stay small, don't allocate

	cmp	DWORD PTR __Right_size$[ebp], 8
	jae	SHORT $LN2@Construct_

; 2738 :             _Traits::copy(_My_data._Bx._Buf, _Right_ptr, _BUF_SIZE);

	push	8
	mov	eax, DWORD PTR __Right_ptr$[ebp]
	push	eax
	mov	ecx, DWORD PTR __My_data$[ebp]
	add	ecx, 4
	push	ecx
	call	?copy@?$_Char_traits@_WG@std@@SAPA_WQA_WQB_WI@Z ; std::_Char_traits<wchar_t,unsigned short>::copy
	add	esp, 12					; 0000000cH

; 2739 :             _My_data._Mysize = _Right_size;

	mov	eax, DWORD PTR __My_data$[ebp]
	mov	ecx, DWORD PTR __Right_size$[ebp]
	mov	DWORD PTR [eax+20], ecx

; 2740 :             _My_data._Myres  = _BUF_SIZE - 1;

	mov	eax, DWORD PTR __My_data$[ebp]
	mov	DWORD PTR [eax+24], 7

; 2741 :             return;

	jmp	$LN1@Construct_
$LN2@Construct_:

; 2742 :         }
; 2743 : 
; 2744 :         auto& _Al                     = _Getal();

	mov	ecx, DWORD PTR _this$[ebp]
	call	?_Getal@?$basic_string@_WU?$char_traits@_W@std@@V?$allocator@_W@2@@std@@AAEAAV?$allocator@_W@2@XZ ; std::basic_string<wchar_t,std::char_traits<wchar_t>,std::allocator<wchar_t> >::_Getal
	mov	DWORD PTR __Al$[ebp], eax

; 2745 :         const size_type _New_capacity = (_STD min)(_Right_size | _ALLOC_MASK, max_size());

	mov	ecx, DWORD PTR _this$[ebp]
	call	?max_size@?$basic_string@_WU?$char_traits@_W@std@@V?$allocator@_W@2@@std@@QBEIXZ ; std::basic_string<wchar_t,std::char_traits<wchar_t>,std::allocator<wchar_t> >::max_size
	mov	DWORD PTR $T2[ebp], eax
	mov	eax, DWORD PTR __Right_size$[ebp]
	or	eax, 7
	mov	DWORD PTR $T1[ebp], eax
	lea	ecx, DWORD PTR $T2[ebp]
	push	ecx
	lea	edx, DWORD PTR $T1[ebp]
	push	edx
	call	??$min@I@std@@YAABIABI0@Z		; std::min<unsigned int>
	add	esp, 8
	mov	eax, DWORD PTR [eax]
	mov	DWORD PTR __New_capacity$[ebp], eax

; 2746 :         const pointer _New_array      = _Al.allocate(_New_capacity + 1); // throws

	mov	eax, DWORD PTR __New_capacity$[ebp]
	add	eax, 1
	push	eax
	mov	ecx, DWORD PTR __Al$[ebp]
	call	?allocate@?$allocator@_W@std@@QAEPA_WI@Z ; std::allocator<wchar_t>::allocate
	mov	DWORD PTR __New_array$[ebp], eax

; 2747 :         _Construct_in_place(_My_data._Bx._Ptr, _New_array);

	lea	eax, DWORD PTR __New_array$[ebp]
	push	eax
	mov	ecx, DWORD PTR __My_data$[ebp]
	add	ecx, 4
	push	ecx
	call	??$_Construct_in_place@PA_WABQA_W@std@@YAXAAPA_WABQA_W@Z ; std::_Construct_in_place<wchar_t *,wchar_t * const &>
	add	esp, 8

; 2748 :         _Traits::copy(_Unfancy(_New_array), _Right_ptr, _Right_size + 1);

	mov	eax, DWORD PTR __Right_size$[ebp]
	add	eax, 1
	push	eax
	mov	ecx, DWORD PTR __Right_ptr$[ebp]
	push	ecx
	mov	edx, DWORD PTR __New_array$[ebp]
	push	edx
	call	??$_Unfancy@_W@std@@YAPA_WPA_W@Z	; std::_Unfancy<wchar_t>
	add	esp, 4
	push	eax
	call	?copy@?$_Char_traits@_WG@std@@SAPA_WQA_WQB_WI@Z ; std::_Char_traits<wchar_t,unsigned short>::copy
	add	esp, 12					; 0000000cH

; 2749 :         _My_data._Mysize = _Right_size;

	mov	eax, DWORD PTR __My_data$[ebp]
	mov	ecx, DWORD PTR __Right_size$[ebp]
	mov	DWORD PTR [eax+20], ecx

; 2750 :         _My_data._Myres  = _New_capacity;

	mov	eax, DWORD PTR __My_data$[ebp]
	mov	ecx, DWORD PTR __New_capacity$[ebp]
	mov	DWORD PTR [eax+24], ecx
$LN1@Construct_:

; 2751 :     }

	push	edx
	mov	ecx, ebp
	push	eax
	lea	edx, DWORD PTR $LN6@Construct_
	call	@_RTC_CheckStackVars@8
	pop	eax
	pop	edx
	pop	edi
	pop	esi
	pop	ebx
	mov	ecx, DWORD PTR __$ArrayPad$[ebp]
	xor	ecx, ebp
	call	@__security_check_cookie@4
	add	esp, 316				; 0000013cH
	cmp	ebp, esp
	call	__RTC_CheckEsp
	mov	esp, ebp
	pop	ebp
	ret	4
	npad	2
$LN6@Construct_:
	DD	1
	DD	$LN5@Construct_
$LN5@Construct_:
	DD	-96					; ffffffa0H
	DD	4
	DD	$LN4@Construct_
$LN4@Construct_:
	DB	95					; 0000005fH
	DB	78					; 0000004eH
	DB	101					; 00000065H
	DB	119					; 00000077H
	DB	95					; 0000005fH
	DB	97					; 00000061H
	DB	114					; 00000072H
	DB	114					; 00000072H
	DB	97					; 00000061H
	DB	121					; 00000079H
	DB	0
?_Construct_lv_contents@?$basic_string@_WU?$char_traits@_W@std@@V?$allocator@_W@2@@std@@AAEXABV12@@Z ENDP ; std::basic_string<wchar_t,std::char_traits<wchar_t>,std::allocator<wchar_t> >::_Construct_lv_contents
_TEXT	ENDS
; Function compile flags: /Odtp /RTCsu /ZI
; File C:\Program Files (x86)\Microsoft Visual Studio\2019\Professional\VC\Tools\MSVC\14.28.29333\include\xstring
;	COMDAT ?_Take_contents@?$basic_string@_WU?$char_traits@_W@std@@V?$allocator@_W@2@@std@@AAEXAAV12@U?$integral_constant@_N$00@2@@Z
_TEXT	SEGMENT
_this$ = -20						; size = 4
__$EHRec$ = -12						; size = 12
__Right$ = 8						; size = 4
___formal$ = 12						; size = 1
?_Take_contents@?$basic_string@_WU?$char_traits@_W@std@@V?$allocator@_W@2@@std@@AAEXAAV12@U?$integral_constant@_N$00@2@@Z PROC ; std::basic_string<wchar_t,std::char_traits<wchar_t>,std::allocator<wchar_t> >::_Take_contents, COMDAT
; _this$ = ecx

; 2687 :     void _Take_contents(basic_string& _Right, true_type) noexcept {

	push	ebp
	mov	ebp, esp
	push	-1
	push	__ehhandler$?_Take_contents@?$basic_string@_WU?$char_traits@_W@std@@V?$allocator@_W@2@@std@@AAEXAAV12@U?$integral_constant@_N$00@2@@Z
	mov	eax, DWORD PTR fs:0
	push	eax
	sub	esp, 204				; 000000ccH
	push	ebx
	push	esi
	push	edi
	push	ecx
	lea	edi, DWORD PTR [ebp-216]
	mov	ecx, 51					; 00000033H
	mov	eax, -858993460				; ccccccccH
	rep stosd
	pop	ecx
	mov	eax, DWORD PTR ___security_cookie
	xor	eax, ebp
	push	eax
	lea	eax, DWORD PTR __$EHRec$[ebp]
	mov	DWORD PTR fs:0, eax
	mov	DWORD PTR _this$[ebp], ecx
	mov	ecx, OFFSET __C00D0CE5_xstring
	call	@__CheckForDebuggerJustMyCode@4

; 2688 :         // assign by stealing _Right's buffer, memcpy optimization
; 2689 :         // pre: this != &_Right
; 2690 :         // pre: allocator propagation (POCMA) from _Right, if necessary, is complete
; 2691 :         // pre: *this owns no memory, iterators orphaned (note:
; 2692 :         // _Buf/_Ptr/_Mysize/_Myres may be garbage init)
; 2693 : #if _ITERATOR_DEBUG_LEVEL != 0
; 2694 :         if (_Right._Mypair._Myval2._Large_string_engaged()) {

	mov	ecx, DWORD PTR __Right$[ebp]
	call	?_Large_string_engaged@?$_String_val@U?$_Simple_types@_W@std@@@std@@QBE_NXZ ; std::_String_val<std::_Simple_types<wchar_t> >::_Large_string_engaged
	movzx	eax, al
	test	eax, eax
	je	SHORT $LN2@Take_conte

; 2695 :             // take ownership of _Right's iterators along with its buffer
; 2696 :             _Swap_proxy_and_iterators(_Right);

	mov	eax, DWORD PTR __Right$[ebp]
	push	eax
	mov	ecx, DWORD PTR _this$[ebp]
	call	?_Swap_proxy_and_iterators@?$basic_string@_WU?$char_traits@_W@std@@V?$allocator@_W@2@@std@@AAEXAAV12@@Z ; std::basic_string<wchar_t,std::char_traits<wchar_t>,std::allocator<wchar_t> >::_Swap_proxy_and_iterators

; 2697 :         } else {

	jmp	SHORT $LN3@Take_conte
$LN2@Take_conte:

; 2698 :             _Right._Mypair._Myval2._Orphan_all();

	mov	ecx, DWORD PTR __Right$[ebp]
	call	?_Orphan_all@_Container_base12@std@@QAEXXZ ; std::_Container_base12::_Orphan_all
$LN3@Take_conte:

; 2699 :         }
; 2700 : #endif // _ITERATOR_DEBUG_LEVEL != 0
; 2701 : 
; 2702 :         _Memcpy_val_from(_Right);

	mov	eax, DWORD PTR __Right$[ebp]
	push	eax
	mov	ecx, DWORD PTR _this$[ebp]
	call	?_Memcpy_val_from@?$basic_string@_WU?$char_traits@_W@std@@V?$allocator@_W@2@@std@@AAEXABV12@@Z ; std::basic_string<wchar_t,std::char_traits<wchar_t>,std::allocator<wchar_t> >::_Memcpy_val_from

; 2703 :         _Right._Tidy_init();

	mov	ecx, DWORD PTR __Right$[ebp]
	call	?_Tidy_init@?$basic_string@_WU?$char_traits@_W@std@@V?$allocator@_W@2@@std@@AAEXXZ ; std::basic_string<wchar_t,std::char_traits<wchar_t>,std::allocator<wchar_t> >::_Tidy_init

; 2704 :     }

	mov	ecx, DWORD PTR __$EHRec$[ebp]
	mov	DWORD PTR fs:0, ecx
	pop	ecx
	pop	edi
	pop	esi
	pop	ebx
	add	esp, 216				; 000000d8H
	cmp	ebp, esp
	call	__RTC_CheckEsp
	mov	esp, ebp
	pop	ebp
	ret	8
	int	3
	int	3
	int	3
	int	3
	int	3
_TEXT	ENDS
;	COMDAT text$x
text$x	SEGMENT
__ehhandler$?_Take_contents@?$basic_string@_WU?$char_traits@_W@std@@V?$allocator@_W@2@@std@@AAEXAAV12@U?$integral_constant@_N$00@2@@Z:
	npad	1
	npad	1
	mov	edx, DWORD PTR [esp+8]
	lea	eax, DWORD PTR [edx+12]
	mov	ecx, DWORD PTR [edx-220]
	xor	ecx, eax
	call	@__security_check_cookie@4
	mov	eax, OFFSET __ehfuncinfo$?_Take_contents@?$basic_string@_WU?$char_traits@_W@std@@V?$allocator@_W@2@@std@@AAEXAAV12@U?$integral_constant@_N$00@2@@Z
	jmp	___CxxFrameHandler3
text$x	ENDS
?_Take_contents@?$basic_string@_WU?$char_traits@_W@std@@V?$allocator@_W@2@@std@@AAEXAAV12@U?$integral_constant@_N$00@2@@Z ENDP ; std::basic_string<wchar_t,std::char_traits<wchar_t>,std::allocator<wchar_t> >::_Take_contents
; Function compile flags: /Odtp /RTCsu /ZI
; File C:\Program Files (x86)\Microsoft Visual Studio\2019\Professional\VC\Tools\MSVC\14.28.29333\include\xstring
;	COMDAT ?_Memcpy_val_from@?$basic_string@_WU?$char_traits@_W@std@@V?$allocator@_W@2@@std@@AAEXABV12@@Z
_TEXT	SEGMENT
__Right_data_mem$ = -32					; size = 4
__My_data_mem$ = -20					; size = 4
_this$ = -8						; size = 4
__Right$ = 8						; size = 4
?_Memcpy_val_from@?$basic_string@_WU?$char_traits@_W@std@@V?$allocator@_W@2@@std@@AAEXABV12@@Z PROC ; std::basic_string<wchar_t,std::char_traits<wchar_t>,std::allocator<wchar_t> >::_Memcpy_val_from, COMDAT
; _this$ = ecx

; 2678 :     void _Memcpy_val_from(const basic_string& _Right) noexcept {

	push	ebp
	mov	ebp, esp
	sub	esp, 228				; 000000e4H
	push	ebx
	push	esi
	push	edi
	push	ecx
	lea	edi, DWORD PTR [ebp-228]
	mov	ecx, 57					; 00000039H
	mov	eax, -858993460				; ccccccccH
	rep stosd
	pop	ecx
	mov	DWORD PTR _this$[ebp], ecx
	mov	ecx, OFFSET __C00D0CE5_xstring
	call	@__CheckForDebuggerJustMyCode@4

; 2679 :         _STL_INTERNAL_CHECK(_Can_memcpy_val); // TRANSITION, if constexpr
; 2680 :         const auto _My_data_mem =

	mov	eax, DWORD PTR _this$[ebp]
	push	eax
	call	??$addressof@V?$_String_val@U?$_Simple_types@_W@std@@@std@@@std@@YAPAV?$_String_val@U?$_Simple_types@_W@std@@@0@AAV10@@Z ; std::addressof<std::_String_val<std::_Simple_types<wchar_t> > >
	add	esp, 4
	add	eax, 4
	mov	DWORD PTR __My_data_mem$[ebp], eax

; 2681 :             reinterpret_cast<unsigned char*>(_STD addressof(_Mypair._Myval2)) + _Memcpy_val_offset;
; 2682 :         const auto _Right_data_mem =

	mov	eax, DWORD PTR __Right$[ebp]
	push	eax
	call	??$addressof@$$CBV?$_String_val@U?$_Simple_types@_W@std@@@std@@@std@@YAPBV?$_String_val@U?$_Simple_types@_W@std@@@0@ABV10@@Z ; std::addressof<std::_String_val<std::_Simple_types<wchar_t> > const >
	add	esp, 4
	add	eax, 4
	mov	DWORD PTR __Right_data_mem$[ebp], eax

; 2683 :             reinterpret_cast<const unsigned char*>(_STD addressof(_Right._Mypair._Myval2)) + _Memcpy_val_offset;
; 2684 :         _CSTD memcpy(_My_data_mem, _Right_data_mem, _Memcpy_val_size);

	push	24					; 00000018H
	mov	eax, DWORD PTR __Right_data_mem$[ebp]
	push	eax
	mov	ecx, DWORD PTR __My_data_mem$[ebp]
	push	ecx
	call	_memcpy
	add	esp, 12					; 0000000cH

; 2685 :     }

	pop	edi
	pop	esi
	pop	ebx
	add	esp, 228				; 000000e4H
	cmp	ebp, esp
	call	__RTC_CheckEsp
	mov	esp, ebp
	pop	ebp
	ret	4
?_Memcpy_val_from@?$basic_string@_WU?$char_traits@_W@std@@V?$allocator@_W@2@@std@@AAEXABV12@@Z ENDP ; std::basic_string<wchar_t,std::char_traits<wchar_t>,std::allocator<wchar_t> >::_Memcpy_val_from
_TEXT	ENDS
; Function compile flags: /Odtp /RTCsu /ZI
; File C:\Program Files (x86)\Microsoft Visual Studio\2019\Professional\VC\Tools\MSVC\14.28.29333\include\xstring
;	COMDAT ??0?$basic_string@_WU?$char_traits@_W@std@@V?$allocator@_W@2@@std@@QAE@$$QAV01@@Z
_TEXT	SEGMENT
tv75 = -272						; size = 4
tv94 = -268						; size = 4
tv77 = -268						; size = 4
$T2 = -257						; size = 1
$T3 = -245						; size = 1
$T4 = -233						; size = 1
$T5 = -221						; size = 1
_this$ = -20						; size = 4
__$EHRec$ = -12						; size = 12
__Right$ = 8						; size = 4
??0?$basic_string@_WU?$char_traits@_W@std@@V?$allocator@_W@2@@std@@QAE@$$QAV01@@Z PROC ; std::basic_string<wchar_t,std::char_traits<wchar_t>,std::allocator<wchar_t> >::basic_string<wchar_t,std::char_traits<wchar_t>,std::allocator<wchar_t> >, COMDAT
; _this$ = ecx

; 2496 :     basic_string(basic_string&& _Right) noexcept : _Mypair(_One_then_variadic_args_t{}, _STD move(_Right._Getal())) {

	push	ebp
	mov	ebp, esp
	push	-1
	push	__ehhandler$??0?$basic_string@_WU?$char_traits@_W@std@@V?$allocator@_W@2@@std@@QAE@$$QAV01@@Z
	mov	eax, DWORD PTR fs:0
	push	eax
	sub	esp, 260				; 00000104H
	push	ebx
	push	esi
	push	edi
	push	ecx
	lea	edi, DWORD PTR [ebp-272]
	mov	ecx, 65					; 00000041H
	mov	eax, -858993460				; ccccccccH
	rep stosd
	pop	ecx
	mov	eax, DWORD PTR ___security_cookie
	xor	eax, ebp
	push	eax
	lea	eax, DWORD PTR __$EHRec$[ebp]
	mov	DWORD PTR fs:0, eax
	mov	DWORD PTR _this$[ebp], ecx
	mov	ecx, OFFSET __C00D0CE5_xstring
	call	@__CheckForDebuggerJustMyCode@4
	mov	eax, DWORD PTR _this$[ebp]
	mov	DWORD PTR tv77[ebp], eax
	mov	ecx, DWORD PTR __Right$[ebp]
	call	?_Getal@?$basic_string@_WU?$char_traits@_W@std@@V?$allocator@_W@2@@std@@AAEAAV?$allocator@_W@2@XZ ; std::basic_string<wchar_t,std::char_traits<wchar_t>,std::allocator<wchar_t> >::_Getal
	push	eax
	call	??$move@AAV?$allocator@_W@std@@@std@@YA$$QAV?$allocator@_W@0@AAV10@@Z ; std::move<std::allocator<wchar_t> &>
	add	esp, 4
	mov	DWORD PTR tv75[ebp], eax
	mov	cl, BYTE PTR $T5[ebp]
	mov	BYTE PTR $T4[ebp], cl
	mov	edx, DWORD PTR tv75[ebp]
	push	edx
	movzx	eax, BYTE PTR $T4[ebp]
	push	eax
	mov	ecx, DWORD PTR tv77[ebp]
	call	??$?0V?$allocator@_W@std@@$$V@?$_Compressed_pair@V?$allocator@_W@std@@V?$_String_val@U?$_Simple_types@_W@std@@@2@$00@std@@QAE@U_One_then_variadic_args_t@1@$$QAV?$allocator@_W@1@@Z ; std::_Compressed_pair<std::allocator<wchar_t>,std::_String_val<std::_Simple_types<wchar_t> >,1>::_Compressed_pair<std::allocator<wchar_t>,std::_String_val<std::_Simple_types<wchar_t> >,1><std::allocator<wchar_t> >

; 2497 :         _Mypair._Myval2._Alloc_proxy(_GET_PROXY_ALLOCATOR(_Alty, _Getal()));

	mov	eax, DWORD PTR _this$[ebp]
	mov	DWORD PTR tv94[ebp], eax
	mov	ecx, DWORD PTR _this$[ebp]
	call	?_Getal@?$basic_string@_WU?$char_traits@_W@std@@V?$allocator@_W@2@@std@@AAEAAV?$allocator@_W@2@XZ ; std::basic_string<wchar_t,std::char_traits<wchar_t>,std::allocator<wchar_t> >::_Getal
	push	eax
	lea	ecx, DWORD PTR $T3[ebp]
	call	??$?0_W@?$allocator@U_Container_proxy@std@@@std@@QAE@ABV?$allocator@_W@1@@Z ; std::allocator<std::_Container_proxy>::allocator<std::_Container_proxy><wchar_t>
	push	eax
	mov	ecx, DWORD PTR tv94[ebp]
	call	??$_Alloc_proxy@V?$allocator@U_Container_proxy@std@@@std@@@_Container_base12@std@@QAEX$$QAV?$allocator@U_Container_proxy@std@@@1@@Z ; std::_Container_base12::_Alloc_proxy<std::allocator<std::_Container_proxy> >

; 2498 :         _Take_contents(_Right, bool_constant<_Can_memcpy_val>{});

	xor	eax, eax
	mov	BYTE PTR $T2[ebp], al
	movzx	ecx, BYTE PTR $T2[ebp]
	push	ecx
	mov	edx, DWORD PTR __Right$[ebp]
	push	edx
	mov	ecx, DWORD PTR _this$[ebp]
	call	?_Take_contents@?$basic_string@_WU?$char_traits@_W@std@@V?$allocator@_W@2@@std@@AAEXAAV12@U?$integral_constant@_N$00@2@@Z ; std::basic_string<wchar_t,std::char_traits<wchar_t>,std::allocator<wchar_t> >::_Take_contents

; 2499 :     }

	mov	eax, DWORD PTR _this$[ebp]
	mov	ecx, DWORD PTR __$EHRec$[ebp]
	mov	DWORD PTR fs:0, ecx
	pop	ecx
	pop	edi
	pop	esi
	pop	ebx
	add	esp, 272				; 00000110H
	cmp	ebp, esp
	call	__RTC_CheckEsp
	mov	esp, ebp
	pop	ebp
	ret	4
	int	3
	int	3
	int	3
	int	3
	int	3
_TEXT	ENDS
;	COMDAT text$x
text$x	SEGMENT
__ehhandler$??0?$basic_string@_WU?$char_traits@_W@std@@V?$allocator@_W@2@@std@@QAE@$$QAV01@@Z:
	npad	1
	npad	1
	mov	edx, DWORD PTR [esp+8]
	lea	eax, DWORD PTR [edx+12]
	mov	ecx, DWORD PTR [edx-276]
	xor	ecx, eax
	call	@__security_check_cookie@4
	mov	eax, OFFSET __ehfuncinfo$??0?$basic_string@_WU?$char_traits@_W@std@@V?$allocator@_W@2@@std@@QAE@$$QAV01@@Z
	jmp	___CxxFrameHandler3
text$x	ENDS
??0?$basic_string@_WU?$char_traits@_W@std@@V?$allocator@_W@2@@std@@QAE@$$QAV01@@Z ENDP ; std::basic_string<wchar_t,std::char_traits<wchar_t>,std::allocator<wchar_t> >::basic_string<wchar_t,std::char_traits<wchar_t>,std::allocator<wchar_t> >
; Function compile flags: /Odtp /RTCsu /ZI
; File C:\Program Files (x86)\Microsoft Visual Studio\2019\Professional\VC\Tools\MSVC\14.28.29333\include\xstring
;	COMDAT ??0?$basic_string@_WU?$char_traits@_W@std@@V?$allocator@_W@2@@std@@QAE@XZ
_TEXT	SEGMENT
tv86 = -244						; size = 4
tv69 = -244						; size = 4
$T2 = -233						; size = 1
$T3 = -221						; size = 1
_this$ = -20						; size = 4
__$EHRec$ = -12						; size = 12
??0?$basic_string@_WU?$char_traits@_W@std@@V?$allocator@_W@2@@std@@QAE@XZ PROC ; std::basic_string<wchar_t,std::char_traits<wchar_t>,std::allocator<wchar_t> >::basic_string<wchar_t,std::char_traits<wchar_t>,std::allocator<wchar_t> >, COMDAT
; _this$ = ecx

; 2365 :     basic_string() noexcept(is_nothrow_default_constructible_v<_Alty>) : _Mypair(_Zero_then_variadic_args_t{}) {

	push	ebp
	mov	ebp, esp
	push	-1
	push	__ehhandler$??0?$basic_string@_WU?$char_traits@_W@std@@V?$allocator@_W@2@@std@@QAE@XZ
	mov	eax, DWORD PTR fs:0
	push	eax
	sub	esp, 232				; 000000e8H
	push	ebx
	push	esi
	push	edi
	push	ecx
	lea	edi, DWORD PTR [ebp-244]
	mov	ecx, 58					; 0000003aH
	mov	eax, -858993460				; ccccccccH
	rep stosd
	pop	ecx
	mov	eax, DWORD PTR ___security_cookie
	xor	eax, ebp
	push	eax
	lea	eax, DWORD PTR __$EHRec$[ebp]
	mov	DWORD PTR fs:0, eax
	mov	DWORD PTR _this$[ebp], ecx
	mov	ecx, OFFSET __C00D0CE5_xstring
	call	@__CheckForDebuggerJustMyCode@4
	mov	eax, DWORD PTR _this$[ebp]
	mov	DWORD PTR tv69[ebp], eax
	movzx	ecx, BYTE PTR $T3[ebp]
	push	ecx
	mov	ecx, DWORD PTR tv69[ebp]
	call	??$?0$$V@?$_Compressed_pair@V?$allocator@_W@std@@V?$_String_val@U?$_Simple_types@_W@std@@@2@$00@std@@QAE@U_Zero_then_variadic_args_t@1@@Z ; std::_Compressed_pair<std::allocator<wchar_t>,std::_String_val<std::_Simple_types<wchar_t> >,1>::_Compressed_pair<std::allocator<wchar_t>,std::_String_val<std::_Simple_types<wchar_t> >,1><>

; 2366 :         _Mypair._Myval2._Alloc_proxy(_GET_PROXY_ALLOCATOR(_Alty, _Getal()));

	mov	eax, DWORD PTR _this$[ebp]
	mov	DWORD PTR tv86[ebp], eax
	mov	ecx, DWORD PTR _this$[ebp]
	call	?_Getal@?$basic_string@_WU?$char_traits@_W@std@@V?$allocator@_W@2@@std@@AAEAAV?$allocator@_W@2@XZ ; std::basic_string<wchar_t,std::char_traits<wchar_t>,std::allocator<wchar_t> >::_Getal
	push	eax
	lea	ecx, DWORD PTR $T2[ebp]
	call	??$?0_W@?$allocator@U_Container_proxy@std@@@std@@QAE@ABV?$allocator@_W@1@@Z ; std::allocator<std::_Container_proxy>::allocator<std::_Container_proxy><wchar_t>
	push	eax
	mov	ecx, DWORD PTR tv86[ebp]
	call	??$_Alloc_proxy@V?$allocator@U_Container_proxy@std@@@std@@@_Container_base12@std@@QAEX$$QAV?$allocator@U_Container_proxy@std@@@1@@Z ; std::_Container_base12::_Alloc_proxy<std::allocator<std::_Container_proxy> >

; 2367 :         _Tidy_init();

	mov	ecx, DWORD PTR _this$[ebp]
	call	?_Tidy_init@?$basic_string@_WU?$char_traits@_W@std@@V?$allocator@_W@2@@std@@AAEXXZ ; std::basic_string<wchar_t,std::char_traits<wchar_t>,std::allocator<wchar_t> >::_Tidy_init

; 2368 :     }

	mov	eax, DWORD PTR _this$[ebp]
	mov	ecx, DWORD PTR __$EHRec$[ebp]
	mov	DWORD PTR fs:0, ecx
	pop	ecx
	pop	edi
	pop	esi
	pop	ebx
	add	esp, 244				; 000000f4H
	cmp	ebp, esp
	call	__RTC_CheckEsp
	mov	esp, ebp
	pop	ebp
	ret	0
	int	3
	int	3
	int	3
	int	3
	int	3
_TEXT	ENDS
;	COMDAT text$x
text$x	SEGMENT
__ehhandler$??0?$basic_string@_WU?$char_traits@_W@std@@V?$allocator@_W@2@@std@@QAE@XZ:
	npad	1
	npad	1
	mov	edx, DWORD PTR [esp+8]
	lea	eax, DWORD PTR [edx+12]
	mov	ecx, DWORD PTR [edx-248]
	xor	ecx, eax
	call	@__security_check_cookie@4
	mov	eax, OFFSET __ehfuncinfo$??0?$basic_string@_WU?$char_traits@_W@std@@V?$allocator@_W@2@@std@@QAE@XZ
	jmp	___CxxFrameHandler3
text$x	ENDS
??0?$basic_string@_WU?$char_traits@_W@std@@V?$allocator@_W@2@@std@@QAE@XZ ENDP ; std::basic_string<wchar_t,std::char_traits<wchar_t>,std::allocator<wchar_t> >::basic_string<wchar_t,std::char_traits<wchar_t>,std::allocator<wchar_t> >
; Function compile flags: /Odtp /RTCsu /ZI
; File C:\Program Files (x86)\Microsoft Visual Studio\2019\Professional\VC\Tools\MSVC\14.28.29333\include\xstring
;	COMDAT ??0?$basic_string@_WU?$char_traits@_W@std@@V?$allocator@_W@2@@std@@QAE@ABV01@@Z
_TEXT	SEGMENT
tv76 = -304						; size = 4
tv78 = -300						; size = 4
$T2 = -289						; size = 1
$T3 = -277						; size = 1
$T4 = -265						; size = 1
__Proxy$ = -64						; size = 8
_$S12$ = -45						; size = 1
__Alproxy$ = -36					; size = 4
_this$ = -24						; size = 4
__$ArrayPad$ = -16					; size = 4
__$EHRec$ = -12						; size = 12
__Right$ = 8						; size = 4
??0?$basic_string@_WU?$char_traits@_W@std@@V?$allocator@_W@2@@std@@QAE@ABV01@@Z PROC ; std::basic_string<wchar_t,std::char_traits<wchar_t>,std::allocator<wchar_t> >::basic_string<wchar_t,std::char_traits<wchar_t>,std::allocator<wchar_t> >, COMDAT
; _this$ = ecx

; 2351 :         : _Mypair(_One_then_variadic_args_t{}, _Alty_traits::select_on_container_copy_construction(_Right._Getal())) {

	push	ebp
	mov	ebp, esp
	push	-1
	push	__ehhandler$??0?$basic_string@_WU?$char_traits@_W@std@@V?$allocator@_W@2@@std@@QAE@ABV01@@Z
	mov	eax, DWORD PTR fs:0
	push	eax
	sub	esp, 292				; 00000124H
	push	ebx
	push	esi
	push	edi
	push	ecx
	lea	edi, DWORD PTR [ebp-304]
	mov	ecx, 73					; 00000049H
	mov	eax, -858993460				; ccccccccH
	rep stosd
	pop	ecx
	mov	eax, DWORD PTR ___security_cookie
	xor	eax, ebp
	mov	DWORD PTR __$ArrayPad$[ebp], eax
	push	eax
	lea	eax, DWORD PTR __$EHRec$[ebp]
	mov	DWORD PTR fs:0, eax
	mov	DWORD PTR _this$[ebp], ecx
	mov	ecx, OFFSET __C00D0CE5_xstring
	call	@__CheckForDebuggerJustMyCode@4
	mov	eax, DWORD PTR _this$[ebp]
	mov	DWORD PTR tv78[ebp], eax
	mov	ecx, DWORD PTR __Right$[ebp]
	call	?_Getal@?$basic_string@_WU?$char_traits@_W@std@@V?$allocator@_W@2@@std@@ABEABV?$allocator@_W@2@XZ ; std::basic_string<wchar_t,std::char_traits<wchar_t>,std::allocator<wchar_t> >::_Getal
	push	eax
	lea	ecx, DWORD PTR $T4[ebp]
	push	ecx
	call	?select_on_container_copy_construction@?$_Default_allocator_traits@V?$allocator@_W@std@@@std@@SA?AV?$allocator@_W@2@ABV32@@Z ; std::_Default_allocator_traits<std::allocator<wchar_t> >::select_on_container_copy_construction
	add	esp, 8
	mov	DWORD PTR tv76[ebp], eax
	mov	dl, BYTE PTR $T3[ebp]
	mov	BYTE PTR $T2[ebp], dl
	mov	eax, DWORD PTR tv76[ebp]
	push	eax
	movzx	ecx, BYTE PTR $T2[ebp]
	push	ecx
	mov	ecx, DWORD PTR tv78[ebp]
	call	??$?0V?$allocator@_W@std@@$$V@?$_Compressed_pair@V?$allocator@_W@std@@V?$_String_val@U?$_Simple_types@_W@std@@@2@$00@std@@QAE@U_One_then_variadic_args_t@1@$$QAV?$allocator@_W@1@@Z ; std::_Compressed_pair<std::allocator<wchar_t>,std::_String_val<std::_Simple_types<wchar_t> >,1>::_Compressed_pair<std::allocator<wchar_t>,std::_String_val<std::_Simple_types<wchar_t> >,1><std::allocator<wchar_t> >
	mov	DWORD PTR __$EHRec$[ebp+8], 0

; 2352 :         auto&& _Alproxy = _GET_PROXY_ALLOCATOR(_Alty, _Getal());

	mov	ecx, DWORD PTR _this$[ebp]
	call	?_Getal@?$basic_string@_WU?$char_traits@_W@std@@V?$allocator@_W@2@@std@@AAEAAV?$allocator@_W@2@XZ ; std::basic_string<wchar_t,std::char_traits<wchar_t>,std::allocator<wchar_t> >::_Getal
	push	eax
	lea	ecx, DWORD PTR _$S12$[ebp]
	call	??$?0_W@?$allocator@U_Container_proxy@std@@@std@@QAE@ABV?$allocator@_W@1@@Z ; std::allocator<std::_Container_proxy>::allocator<std::_Container_proxy><wchar_t>
	lea	eax, DWORD PTR _$S12$[ebp]
	mov	DWORD PTR __Alproxy$[ebp], eax

; 2353 :         _Container_proxy_ptr<_Alty> _Proxy(_Alproxy, _Mypair._Myval2);

	mov	eax, DWORD PTR _this$[ebp]
	push	eax
	mov	ecx, DWORD PTR __Alproxy$[ebp]
	push	ecx
	lea	ecx, DWORD PTR __Proxy$[ebp]
	call	??0?$_Container_proxy_ptr12@V?$allocator@U_Container_proxy@std@@@std@@@std@@QAE@AAV?$allocator@U_Container_proxy@std@@@1@AAU_Container_base12@1@@Z ; std::_Container_proxy_ptr12<std::allocator<std::_Container_proxy> >::_Container_proxy_ptr12<std::allocator<std::_Container_proxy> >
	mov	BYTE PTR __$EHRec$[ebp+8], 1

; 2354 :         _Construct_lv_contents(_Right);

	mov	eax, DWORD PTR __Right$[ebp]
	push	eax
	mov	ecx, DWORD PTR _this$[ebp]
	call	?_Construct_lv_contents@?$basic_string@_WU?$char_traits@_W@std@@V?$allocator@_W@2@@std@@AAEXABV12@@Z ; std::basic_string<wchar_t,std::char_traits<wchar_t>,std::allocator<wchar_t> >::_Construct_lv_contents

; 2355 :         _Proxy._Release();

	lea	ecx, DWORD PTR __Proxy$[ebp]
	call	?_Release@_Basic_container_proxy_ptr12@std@@QAEXXZ ; std::_Basic_container_proxy_ptr12::_Release

; 2356 :     }

	mov	BYTE PTR __$EHRec$[ebp+8], 0
	lea	ecx, DWORD PTR __Proxy$[ebp]
	call	??1?$_Container_proxy_ptr12@V?$allocator@U_Container_proxy@std@@@std@@@std@@QAE@XZ ; std::_Container_proxy_ptr12<std::allocator<std::_Container_proxy> >::~_Container_proxy_ptr12<std::allocator<std::_Container_proxy> >
	mov	DWORD PTR __$EHRec$[ebp+8], -1
	mov	eax, DWORD PTR _this$[ebp]
	push	edx
	mov	ecx, ebp
	push	eax
	lea	edx, DWORD PTR $LN9@basic_stri
	call	@_RTC_CheckStackVars@8
	pop	eax
	pop	edx
	mov	ecx, DWORD PTR __$EHRec$[ebp]
	mov	DWORD PTR fs:0, ecx
	pop	ecx
	pop	edi
	pop	esi
	pop	ebx
	mov	ecx, DWORD PTR __$ArrayPad$[ebp]
	xor	ecx, ebp
	call	@__security_check_cookie@4
	add	esp, 304				; 00000130H
	cmp	ebp, esp
	call	__RTC_CheckEsp
	mov	esp, ebp
	pop	ebp
	ret	4
$LN9@basic_stri:
	DD	2
	DD	$LN8@basic_stri
$LN8@basic_stri:
	DD	-45					; ffffffd3H
	DD	1
	DD	$LN5@basic_stri
	DD	-64					; ffffffc0H
	DD	8
	DD	$LN6@basic_stri
$LN6@basic_stri:
	DB	95					; 0000005fH
	DB	80					; 00000050H
	DB	114					; 00000072H
	DB	111					; 0000006fH
	DB	120					; 00000078H
	DB	121					; 00000079H
	DB	0
$LN5@basic_stri:
	DB	36					; 00000024H
	DB	83					; 00000053H
	DB	49					; 00000031H
	DB	50					; 00000032H
	DB	0
_TEXT	ENDS
;	COMDAT text$x
text$x	SEGMENT
__unwindfunclet$??0?$basic_string@_WU?$char_traits@_W@std@@V?$allocator@_W@2@@std@@QAE@ABV01@@Z$0:
	mov	ecx, DWORD PTR _this$[ebp]
	jmp	??1?$_Compressed_pair@V?$allocator@_W@std@@V?$_String_val@U?$_Simple_types@_W@std@@@2@$00@std@@QAE@XZ
__unwindfunclet$??0?$basic_string@_WU?$char_traits@_W@std@@V?$allocator@_W@2@@std@@QAE@ABV01@@Z$1:
	lea	ecx, DWORD PTR __Proxy$[ebp]
	jmp	??1?$_Container_proxy_ptr12@V?$allocator@U_Container_proxy@std@@@std@@@std@@QAE@XZ ; std::_Container_proxy_ptr12<std::allocator<std::_Container_proxy> >::~_Container_proxy_ptr12<std::allocator<std::_Container_proxy> >
	int	3
	int	3
	int	3
	int	3
	int	3
__ehhandler$??0?$basic_string@_WU?$char_traits@_W@std@@V?$allocator@_W@2@@std@@QAE@ABV01@@Z:
	npad	1
	npad	1
	mov	edx, DWORD PTR [esp+8]
	lea	eax, DWORD PTR [edx+12]
	mov	ecx, DWORD PTR [edx-308]
	xor	ecx, eax
	call	@__security_check_cookie@4
	mov	ecx, DWORD PTR [edx-4]
	xor	ecx, eax
	call	@__security_check_cookie@4
	mov	eax, OFFSET __ehfuncinfo$??0?$basic_string@_WU?$char_traits@_W@std@@V?$allocator@_W@2@@std@@QAE@ABV01@@Z
	jmp	___CxxFrameHandler3
text$x	ENDS
??0?$basic_string@_WU?$char_traits@_W@std@@V?$allocator@_W@2@@std@@QAE@ABV01@@Z ENDP ; std::basic_string<wchar_t,std::char_traits<wchar_t>,std::allocator<wchar_t> >::basic_string<wchar_t,std::char_traits<wchar_t>,std::allocator<wchar_t> >
; Function compile flags: /Odtp /RTCsu /ZI
;	COMDAT ??1?$_String_val@U?$_Simple_types@_W@std@@@std@@QAE@XZ
_TEXT	SEGMENT
_this$ = -8						; size = 4
??1?$_String_val@U?$_Simple_types@_W@std@@@std@@QAE@XZ PROC ; std::_String_val<std::_Simple_types<wchar_t> >::~_String_val<std::_Simple_types<wchar_t> >, COMDAT
; _this$ = ecx
	push	ebp
	mov	ebp, esp
	sub	esp, 204				; 000000ccH
	push	ebx
	push	esi
	push	edi
	push	ecx
	lea	edi, DWORD PTR [ebp-204]
	mov	ecx, 51					; 00000033H
	mov	eax, -858993460				; ccccccccH
	rep stosd
	pop	ecx
	mov	DWORD PTR _this$[ebp], ecx
	mov	ecx, DWORD PTR _this$[ebp]
	add	ecx, 4
	call	??1_Bxty@?$_String_val@U?$_Simple_types@_W@std@@@std@@QAE@XZ ; std::_String_val<std::_Simple_types<wchar_t> >::_Bxty::~_Bxty
	pop	edi
	pop	esi
	pop	ebx
	add	esp, 204				; 000000ccH
	cmp	ebp, esp
	call	__RTC_CheckEsp
	mov	esp, ebp
	pop	ebp
	ret	0
??1?$_String_val@U?$_Simple_types@_W@std@@@std@@QAE@XZ ENDP ; std::_String_val<std::_Simple_types<wchar_t> >::~_String_val<std::_Simple_types<wchar_t> >
_TEXT	ENDS
; Function compile flags: /Odtp /RTCsu /ZI
; File C:\Program Files (x86)\Microsoft Visual Studio\2019\Professional\VC\Tools\MSVC\14.28.29333\include\xstring
;	COMDAT ??1_Bxty@?$_String_val@U?$_Simple_types@_W@std@@@std@@QAE@XZ
_TEXT	SEGMENT
_this$ = -8						; size = 4
??1_Bxty@?$_String_val@U?$_Simple_types@_W@std@@@std@@QAE@XZ PROC ; std::_String_val<std::_Simple_types<wchar_t> >::_Bxty::~_Bxty, COMDAT
; _this$ = ecx

; 2254 :         ~_Bxty() noexcept {} // user-provided, for fancy pointers

	push	ebp
	mov	ebp, esp
	sub	esp, 204				; 000000ccH
	push	ebx
	push	esi
	push	edi
	push	ecx
	lea	edi, DWORD PTR [ebp-204]
	mov	ecx, 51					; 00000033H
	mov	eax, -858993460				; ccccccccH
	rep stosd
	pop	ecx
	mov	DWORD PTR _this$[ebp], ecx
	mov	ecx, OFFSET __C00D0CE5_xstring
	call	@__CheckForDebuggerJustMyCode@4
	pop	edi
	pop	esi
	pop	ebx
	add	esp, 204				; 000000ccH
	cmp	ebp, esp
	call	__RTC_CheckEsp
	mov	esp, ebp
	pop	ebp
	ret	0
??1_Bxty@?$_String_val@U?$_Simple_types@_W@std@@@std@@QAE@XZ ENDP ; std::_String_val<std::_Simple_types<wchar_t> >::_Bxty::~_Bxty
_TEXT	ENDS
; Function compile flags: /Odtp /RTCsu /ZI
; File C:\Program Files (x86)\Microsoft Visual Studio\2019\Professional\VC\Tools\MSVC\14.28.29333\include\xstring
;	COMDAT ??0_Bxty@?$_String_val@U?$_Simple_types@_W@std@@@std@@QAE@XZ
_TEXT	SEGMENT
_this$ = -8						; size = 4
??0_Bxty@?$_String_val@U?$_Simple_types@_W@std@@@std@@QAE@XZ PROC ; std::_String_val<std::_Simple_types<wchar_t> >::_Bxty::_Bxty, COMDAT
; _this$ = ecx

; 2252 :         _Bxty() noexcept {} // user-provided, for fancy pointers

	push	ebp
	mov	ebp, esp
	sub	esp, 204				; 000000ccH
	push	ebx
	push	esi
	push	edi
	push	ecx
	lea	edi, DWORD PTR [ebp-204]
	mov	ecx, 51					; 00000033H
	mov	eax, -858993460				; ccccccccH
	rep stosd
	pop	ecx
	mov	DWORD PTR _this$[ebp], ecx
	mov	ecx, OFFSET __C00D0CE5_xstring
	call	@__CheckForDebuggerJustMyCode@4
	mov	eax, DWORD PTR _this$[ebp]
	pop	edi
	pop	esi
	pop	ebx
	add	esp, 204				; 000000ccH
	cmp	ebp, esp
	call	__RTC_CheckEsp
	mov	esp, ebp
	pop	ebp
	ret	0
??0_Bxty@?$_String_val@U?$_Simple_types@_W@std@@@std@@QAE@XZ ENDP ; std::_String_val<std::_Simple_types<wchar_t> >::_Bxty::_Bxty
_TEXT	ENDS
; Function compile flags: /Odtp /RTCsu /ZI
; File C:\Program Files (x86)\Microsoft Visual Studio\2019\Professional\VC\Tools\MSVC\14.28.29333\include\xstring
;	COMDAT ?_Large_string_engaged@?$_String_val@U?$_Simple_types@_W@std@@@std@@QBE_NXZ
_TEXT	SEGMENT
tv66 = -208						; size = 4
_this$ = -8						; size = 4
?_Large_string_engaged@?$_String_val@U?$_Simple_types@_W@std@@@std@@QBE_NXZ PROC ; std::_String_val<std::_Simple_types<wchar_t> >::_Large_string_engaged, COMDAT
; _this$ = ecx

; 2226 :     bool _Large_string_engaged() const noexcept {

	push	ebp
	mov	ebp, esp
	sub	esp, 208				; 000000d0H
	push	ebx
	push	esi
	push	edi
	push	ecx
	lea	edi, DWORD PTR [ebp-208]
	mov	ecx, 52					; 00000034H
	mov	eax, -858993460				; ccccccccH
	rep stosd
	pop	ecx
	mov	DWORD PTR _this$[ebp], ecx
	mov	ecx, OFFSET __C00D0CE5_xstring
	call	@__CheckForDebuggerJustMyCode@4

; 2227 :         return _BUF_SIZE <= _Myres;

	mov	eax, DWORD PTR _this$[ebp]
	cmp	DWORD PTR [eax+24], 8
	jb	SHORT $LN3@Large_stri
	mov	DWORD PTR tv66[ebp], 1
	jmp	SHORT $LN4@Large_stri
$LN3@Large_stri:
	mov	DWORD PTR tv66[ebp], 0
$LN4@Large_stri:
	mov	al, BYTE PTR tv66[ebp]

; 2228 :     }

	pop	edi
	pop	esi
	pop	ebx
	add	esp, 208				; 000000d0H
	cmp	ebp, esp
	call	__RTC_CheckEsp
	mov	esp, ebp
	pop	ebp
	ret	0
?_Large_string_engaged@?$_String_val@U?$_Simple_types@_W@std@@@std@@QBE_NXZ ENDP ; std::_String_val<std::_Simple_types<wchar_t> >::_Large_string_engaged
_TEXT	ENDS
; Function compile flags: /Odtp /RTCsu /ZI
; File C:\Program Files (x86)\Microsoft Visual Studio\2019\Professional\VC\Tools\MSVC\14.28.29333\include\xstring
;	COMDAT ?_Myptr@?$_String_val@U?$_Simple_types@_W@std@@@std@@QBEPB_WXZ
_TEXT	SEGMENT
__Result$ = -20						; size = 4
_this$ = -8						; size = 4
?_Myptr@?$_String_val@U?$_Simple_types@_W@std@@@std@@QBEPB_WXZ PROC ; std::_String_val<std::_Simple_types<wchar_t> >::_Myptr, COMDAT
; _this$ = ecx

; 2217 :     const value_type* _Myptr() const noexcept {

	push	ebp
	mov	ebp, esp
	sub	esp, 216				; 000000d8H
	push	ebx
	push	esi
	push	edi
	push	ecx
	lea	edi, DWORD PTR [ebp-216]
	mov	ecx, 54					; 00000036H
	mov	eax, -858993460				; ccccccccH
	rep stosd
	pop	ecx
	mov	DWORD PTR _this$[ebp], ecx
	mov	ecx, OFFSET __C00D0CE5_xstring
	call	@__CheckForDebuggerJustMyCode@4

; 2218 :         const value_type* _Result = _Bx._Buf;

	mov	eax, DWORD PTR _this$[ebp]
	add	eax, 4
	mov	DWORD PTR __Result$[ebp], eax

; 2219 :         if (_Large_string_engaged()) {

	mov	ecx, DWORD PTR _this$[ebp]
	call	?_Large_string_engaged@?$_String_val@U?$_Simple_types@_W@std@@@std@@QBE_NXZ ; std::_String_val<std::_Simple_types<wchar_t> >::_Large_string_engaged
	movzx	eax, al
	test	eax, eax
	je	SHORT $LN2@Myptr

; 2220 :             _Result = _Unfancy(_Bx._Ptr);

	mov	eax, DWORD PTR _this$[ebp]
	mov	ecx, DWORD PTR [eax+4]
	push	ecx
	call	??$_Unfancy@_W@std@@YAPA_WPA_W@Z	; std::_Unfancy<wchar_t>
	add	esp, 4
	mov	DWORD PTR __Result$[ebp], eax
$LN2@Myptr:

; 2221 :         }
; 2222 : 
; 2223 :         return _Result;

	mov	eax, DWORD PTR __Result$[ebp]

; 2224 :     }

	pop	edi
	pop	esi
	pop	ebx
	add	esp, 216				; 000000d8H
	cmp	ebp, esp
	call	__RTC_CheckEsp
	mov	esp, ebp
	pop	ebp
	ret	0
?_Myptr@?$_String_val@U?$_Simple_types@_W@std@@@std@@QBEPB_WXZ ENDP ; std::_String_val<std::_Simple_types<wchar_t> >::_Myptr
_TEXT	ENDS
; Function compile flags: /Odtp /RTCsu /ZI
; File C:\Program Files (x86)\Microsoft Visual Studio\2019\Professional\VC\Tools\MSVC\14.28.29333\include\xstring
;	COMDAT ?_Myptr@?$_String_val@U?$_Simple_types@_W@std@@@std@@QAEPA_WXZ
_TEXT	SEGMENT
__Result$ = -20						; size = 4
_this$ = -8						; size = 4
?_Myptr@?$_String_val@U?$_Simple_types@_W@std@@@std@@QAEPA_WXZ PROC ; std::_String_val<std::_Simple_types<wchar_t> >::_Myptr, COMDAT
; _this$ = ecx

; 2208 :     value_type* _Myptr() noexcept {

	push	ebp
	mov	ebp, esp
	sub	esp, 216				; 000000d8H
	push	ebx
	push	esi
	push	edi
	push	ecx
	lea	edi, DWORD PTR [ebp-216]
	mov	ecx, 54					; 00000036H
	mov	eax, -858993460				; ccccccccH
	rep stosd
	pop	ecx
	mov	DWORD PTR _this$[ebp], ecx
	mov	ecx, OFFSET __C00D0CE5_xstring
	call	@__CheckForDebuggerJustMyCode@4

; 2209 :         value_type* _Result = _Bx._Buf;

	mov	eax, DWORD PTR _this$[ebp]
	add	eax, 4
	mov	DWORD PTR __Result$[ebp], eax

; 2210 :         if (_Large_string_engaged()) {

	mov	ecx, DWORD PTR _this$[ebp]
	call	?_Large_string_engaged@?$_String_val@U?$_Simple_types@_W@std@@@std@@QBE_NXZ ; std::_String_val<std::_Simple_types<wchar_t> >::_Large_string_engaged
	movzx	eax, al
	test	eax, eax
	je	SHORT $LN2@Myptr

; 2211 :             _Result = _Unfancy(_Bx._Ptr);

	mov	eax, DWORD PTR _this$[ebp]
	mov	ecx, DWORD PTR [eax+4]
	push	ecx
	call	??$_Unfancy@_W@std@@YAPA_WPA_W@Z	; std::_Unfancy<wchar_t>
	add	esp, 4
	mov	DWORD PTR __Result$[ebp], eax
$LN2@Myptr:

; 2212 :         }
; 2213 : 
; 2214 :         return _Result;

	mov	eax, DWORD PTR __Result$[ebp]

; 2215 :     }

	pop	edi
	pop	esi
	pop	ebx
	add	esp, 216				; 000000d8H
	cmp	ebp, esp
	call	__RTC_CheckEsp
	mov	esp, ebp
	pop	ebp
	ret	0
?_Myptr@?$_String_val@U?$_Simple_types@_W@std@@@std@@QAEPA_WXZ ENDP ; std::_String_val<std::_Simple_types<wchar_t> >::_Myptr
_TEXT	ENDS
; Function compile flags: /Odtp /RTCsu /ZI
; File C:\Program Files (x86)\Microsoft Visual Studio\2019\Professional\VC\Tools\MSVC\14.28.29333\include\xstring
;	COMDAT ??0?$_String_val@U?$_Simple_types@_W@std@@@std@@QAE@XZ
_TEXT	SEGMENT
_this$ = -8						; size = 4
??0?$_String_val@U?$_Simple_types@_W@std@@@std@@QAE@XZ PROC ; std::_String_val<std::_Simple_types<wchar_t> >::_String_val<std::_Simple_types<wchar_t> >, COMDAT
; _this$ = ecx

; 2198 :     _String_val() noexcept : _Bx(), _Mysize(0), _Myres(0) {}

	push	ebp
	mov	ebp, esp
	sub	esp, 204				; 000000ccH
	push	ebx
	push	esi
	push	edi
	push	ecx
	lea	edi, DWORD PTR [ebp-204]
	mov	ecx, 51					; 00000033H
	mov	eax, -858993460				; ccccccccH
	rep stosd
	pop	ecx
	mov	DWORD PTR _this$[ebp], ecx
	mov	ecx, OFFSET __C00D0CE5_xstring
	call	@__CheckForDebuggerJustMyCode@4
	mov	ecx, DWORD PTR _this$[ebp]
	call	??0_Container_base12@std@@QAE@XZ	; std::_Container_base12::_Container_base12
	mov	ecx, DWORD PTR _this$[ebp]
	add	ecx, 4
	call	??0_Bxty@?$_String_val@U?$_Simple_types@_W@std@@@std@@QAE@XZ ; std::_String_val<std::_Simple_types<wchar_t> >::_Bxty::_Bxty
	mov	eax, DWORD PTR _this$[ebp]
	mov	DWORD PTR [eax+20], 0
	mov	eax, DWORD PTR _this$[ebp]
	mov	DWORD PTR [eax+24], 0
	mov	eax, DWORD PTR _this$[ebp]
	pop	edi
	pop	esi
	pop	ebx
	add	esp, 204				; 000000ccH
	cmp	ebp, esp
	call	__RTC_CheckEsp
	mov	esp, ebp
	pop	ebp
	ret	0
??0?$_String_val@U?$_Simple_types@_W@std@@@std@@QAE@XZ ENDP ; std::_String_val<std::_Simple_types<wchar_t> >::_String_val<std::_Simple_types<wchar_t> >
_TEXT	ENDS
; Function compile flags: /Odtp /RTCsu /ZI
; File C:\Program Files (x86)\Microsoft Visual Studio\2019\Professional\VC\Tools\MSVC\14.28.29333\include\xmemory
;	COMDAT ?select_on_container_copy_construction@?$_Default_allocator_traits@V?$allocator@_W@std@@@std@@SA?AV?$allocator@_W@2@ABV32@@Z
_TEXT	SEGMENT
___$ReturnUdt$ = 8					; size = 4
__Al$ = 12						; size = 4
?select_on_container_copy_construction@?$_Default_allocator_traits@V?$allocator@_W@std@@@std@@SA?AV?$allocator@_W@2@ABV32@@Z PROC ; std::_Default_allocator_traits<std::allocator<wchar_t> >::select_on_container_copy_construction, COMDAT

; 713  :     _NODISCARD static _Alloc select_on_container_copy_construction(const _Alloc& _Al) {

	push	ebp
	mov	ebp, esp
	sub	esp, 192				; 000000c0H
	push	ebx
	push	esi
	push	edi
	lea	edi, DWORD PTR [ebp-192]
	mov	ecx, 48					; 00000030H
	mov	eax, -858993460				; ccccccccH
	rep stosd
	mov	ecx, OFFSET __B4DE8A79_xmemory
	call	@__CheckForDebuggerJustMyCode@4

; 714  :         return _Al;

	mov	eax, DWORD PTR ___$ReturnUdt$[ebp]

; 715  :     }

	pop	edi
	pop	esi
	pop	ebx
	add	esp, 192				; 000000c0H
	cmp	ebp, esp
	call	__RTC_CheckEsp
	mov	esp, ebp
	pop	ebp
	ret	0
?select_on_container_copy_construction@?$_Default_allocator_traits@V?$allocator@_W@std@@@std@@SA?AV?$allocator@_W@2@ABV32@@Z ENDP ; std::_Default_allocator_traits<std::allocator<wchar_t> >::select_on_container_copy_construction
_TEXT	ENDS
; Function compile flags: /Odtp /RTCsu /ZI
; File C:\Program Files (x86)\Microsoft Visual Studio\2019\Professional\VC\Tools\MSVC\14.28.29333\include\xmemory
;	COMDAT ?max_size@?$_Default_allocator_traits@V?$allocator@_W@std@@@std@@SAIABV?$allocator@_W@2@@Z
_TEXT	SEGMENT
___formal$ = 8						; size = 4
?max_size@?$_Default_allocator_traits@V?$allocator@_W@std@@@std@@SAIABV?$allocator@_W@2@@Z PROC ; std::_Default_allocator_traits<std::allocator<wchar_t> >::max_size, COMDAT

; 709  :     _NODISCARD static size_type max_size(const _Alloc&) noexcept {

	push	ebp
	mov	ebp, esp
	sub	esp, 192				; 000000c0H
	push	ebx
	push	esi
	push	edi
	lea	edi, DWORD PTR [ebp-192]
	mov	ecx, 48					; 00000030H
	mov	eax, -858993460				; ccccccccH
	rep stosd
	mov	ecx, OFFSET __B4DE8A79_xmemory
	call	@__CheckForDebuggerJustMyCode@4

; 710  :         return static_cast<size_t>(-1) / sizeof(value_type);

	mov	eax, 2147483647				; 7fffffffH

; 711  :     }

	pop	edi
	pop	esi
	pop	ebx
	add	esp, 192				; 000000c0H
	cmp	ebp, esp
	call	__RTC_CheckEsp
	mov	esp, ebp
	pop	ebp
	ret	0
?max_size@?$_Default_allocator_traits@V?$allocator@_W@std@@@std@@SAIABV?$allocator@_W@2@@Z ENDP ; std::_Default_allocator_traits<std::allocator<wchar_t> >::max_size
_TEXT	ENDS
; Function compile flags: /Odtp /RTCsu /ZI
; File C:\Program Files (x86)\Microsoft Visual Studio\2019\Professional\VC\Tools\MSVC\14.28.29333\include\xmemory
;	COMDAT ?allocate@?$allocator@_W@std@@QAEPA_WI@Z
_TEXT	SEGMENT
_this$ = -8						; size = 4
__Count$ = 8						; size = 4
?allocate@?$allocator@_W@std@@QAEPA_WI@Z PROC		; std::allocator<wchar_t>::allocate, COMDAT
; _this$ = ecx

; 813  :     _NODISCARD __declspec(allocator) _Ty* allocate(_CRT_GUARDOVERFLOW const size_t _Count) {

	push	ebp
	mov	ebp, esp
	sub	esp, 204				; 000000ccH
	push	ebx
	push	esi
	push	edi
	push	ecx
	lea	edi, DWORD PTR [ebp-204]
	mov	ecx, 51					; 00000033H
	mov	eax, -858993460				; ccccccccH
	rep stosd
	pop	ecx
	mov	DWORD PTR _this$[ebp], ecx
	mov	ecx, OFFSET __B4DE8A79_xmemory
	call	@__CheckForDebuggerJustMyCode@4

; 814  :         return static_cast<_Ty*>(_Allocate<_New_alignof<_Ty>>(_Get_size_of_n<sizeof(_Ty)>(_Count)));

	mov	eax, DWORD PTR __Count$[ebp]
	push	eax
	call	??$_Get_size_of_n@$01@std@@YAII@Z	; std::_Get_size_of_n<2>
	add	esp, 4
	push	eax
	call	??$_Allocate@$07U_Default_allocate_traits@std@@$0A@@std@@YAPAXI@Z ; std::_Allocate<8,std::_Default_allocate_traits,0>
	add	esp, 4

; 815  :     }

	pop	edi
	pop	esi
	pop	ebx
	add	esp, 204				; 000000ccH
	cmp	ebp, esp
	call	__RTC_CheckEsp
	mov	esp, ebp
	pop	ebp
	ret	4
?allocate@?$allocator@_W@std@@QAEPA_WI@Z ENDP		; std::allocator<wchar_t>::allocate
_TEXT	ENDS
; Function compile flags: /Odtp /RTCsu /ZI
; File C:\Program Files (x86)\Microsoft Visual Studio\2019\Professional\VC\Tools\MSVC\14.28.29333\include\xmemory
;	COMDAT ?deallocate@?$allocator@_W@std@@QAEXQA_WI@Z
_TEXT	SEGMENT
_this$ = -8						; size = 4
__Ptr$ = 8						; size = 4
__Count$ = 12						; size = 4
?deallocate@?$allocator@_W@std@@QAEXQA_WI@Z PROC	; std::allocator<wchar_t>::deallocate, COMDAT
; _this$ = ecx

; 808  :     void deallocate(_Ty* const _Ptr, const size_t _Count) {

	push	ebp
	mov	ebp, esp
	sub	esp, 204				; 000000ccH
	push	ebx
	push	esi
	push	edi
	push	ecx
	lea	edi, DWORD PTR [ebp-204]
	mov	ecx, 51					; 00000033H
	mov	eax, -858993460				; ccccccccH
	rep stosd
	pop	ecx
	mov	DWORD PTR _this$[ebp], ecx
	mov	ecx, OFFSET __B4DE8A79_xmemory
	call	@__CheckForDebuggerJustMyCode@4

; 809  :         // no overflow check on the following multiply; we assume _Allocate did that check
; 810  :         _Deallocate<_New_alignof<_Ty>>(_Ptr, sizeof(_Ty) * _Count);

	mov	eax, DWORD PTR __Count$[ebp]
	shl	eax, 1
	push	eax
	mov	ecx, DWORD PTR __Ptr$[ebp]
	push	ecx
	call	??$_Deallocate@$07$0A@@std@@YAXPAXI@Z	; std::_Deallocate<8,0>
	add	esp, 8

; 811  :     }

	pop	edi
	pop	esi
	pop	ebx
	add	esp, 204				; 000000ccH
	cmp	ebp, esp
	call	__RTC_CheckEsp
	mov	esp, ebp
	pop	ebp
	ret	8
?deallocate@?$allocator@_W@std@@QAEXQA_WI@Z ENDP	; std::allocator<wchar_t>::deallocate
_TEXT	ENDS
; Function compile flags: /Odtp /RTCsu /ZI
; File C:\Program Files (x86)\Microsoft Visual Studio\2019\Professional\VC\Tools\MSVC\14.28.29333\include\xmemory
;	COMDAT ??0?$allocator@_W@std@@QAE@XZ
_TEXT	SEGMENT
_this$ = -8						; size = 4
??0?$allocator@_W@std@@QAE@XZ PROC			; std::allocator<wchar_t>::allocator<wchar_t>, COMDAT
; _this$ = ecx

; 802  :     constexpr allocator() noexcept {}

	push	ebp
	mov	ebp, esp
	sub	esp, 204				; 000000ccH
	push	ebx
	push	esi
	push	edi
	push	ecx
	lea	edi, DWORD PTR [ebp-204]
	mov	ecx, 51					; 00000033H
	mov	eax, -858993460				; ccccccccH
	rep stosd
	pop	ecx
	mov	DWORD PTR _this$[ebp], ecx
	mov	ecx, OFFSET __B4DE8A79_xmemory
	call	@__CheckForDebuggerJustMyCode@4
	mov	eax, DWORD PTR _this$[ebp]
	pop	edi
	pop	esi
	pop	ebx
	add	esp, 204				; 000000ccH
	cmp	ebp, esp
	call	__RTC_CheckEsp
	mov	esp, ebp
	pop	ebp
	ret	0
??0?$allocator@_W@std@@QAE@XZ ENDP			; std::allocator<wchar_t>::allocator<wchar_t>
_TEXT	ENDS
; Function compile flags: /Odtp /RTCsu /ZI
;	COMDAT ??1?$_Compressed_pair@V?$allocator@D@std@@V?$_String_val@U?$_Simple_types@D@std@@@2@$00@std@@QAE@XZ
_TEXT	SEGMENT
_this$ = -8						; size = 4
??1?$_Compressed_pair@V?$allocator@D@std@@V?$_String_val@U?$_Simple_types@D@std@@@2@$00@std@@QAE@XZ PROC ; std::_Compressed_pair<std::allocator<char>,std::_String_val<std::_Simple_types<char> >,1>::~_Compressed_pair<std::allocator<char>,std::_String_val<std::_Simple_types<char> >,1>, COMDAT
; _this$ = ecx
	push	ebp
	mov	ebp, esp
	sub	esp, 204				; 000000ccH
	push	ebx
	push	esi
	push	edi
	push	ecx
	lea	edi, DWORD PTR [ebp-204]
	mov	ecx, 51					; 00000033H
	mov	eax, -858993460				; ccccccccH
	rep stosd
	pop	ecx
	mov	DWORD PTR _this$[ebp], ecx
	mov	ecx, DWORD PTR _this$[ebp]
	call	??1?$_String_val@U?$_Simple_types@D@std@@@std@@QAE@XZ
	pop	edi
	pop	esi
	pop	ebx
	add	esp, 204				; 000000ccH
	cmp	ebp, esp
	call	__RTC_CheckEsp
	mov	esp, ebp
	pop	ebp
	ret	0
??1?$_Compressed_pair@V?$allocator@D@std@@V?$_String_val@U?$_Simple_types@D@std@@@2@$00@std@@QAE@XZ ENDP ; std::_Compressed_pair<std::allocator<char>,std::_String_val<std::_Simple_types<char> >,1>::~_Compressed_pair<std::allocator<char>,std::_String_val<std::_Simple_types<char> >,1>
_TEXT	ENDS
; Function compile flags: /Odtp /RTCsu /ZI
; File C:\Program Files (x86)\Microsoft Visual Studio\2019\Professional\VC\Tools\MSVC\14.28.29333\include\xmemory
;	COMDAT ?_Get_first@?$_Compressed_pair@V?$allocator@D@std@@V?$_String_val@U?$_Simple_types@D@std@@@2@$00@std@@QBEABV?$allocator@D@2@XZ
_TEXT	SEGMENT
_this$ = -8						; size = 4
?_Get_first@?$_Compressed_pair@V?$allocator@D@std@@V?$_String_val@U?$_Simple_types@D@std@@@2@$00@std@@QBEABV?$allocator@D@2@XZ PROC ; std::_Compressed_pair<std::allocator<char>,std::_String_val<std::_Simple_types<char> >,1>::_Get_first, COMDAT
; _this$ = ecx

; 1350 :     constexpr const _Ty1& _Get_first() const noexcept {

	push	ebp
	mov	ebp, esp
	sub	esp, 204				; 000000ccH
	push	ebx
	push	esi
	push	edi
	push	ecx
	lea	edi, DWORD PTR [ebp-204]
	mov	ecx, 51					; 00000033H
	mov	eax, -858993460				; ccccccccH
	rep stosd
	pop	ecx
	mov	DWORD PTR _this$[ebp], ecx
	mov	ecx, OFFSET __B4DE8A79_xmemory
	call	@__CheckForDebuggerJustMyCode@4

; 1351 :         return *this;

	mov	eax, DWORD PTR _this$[ebp]

; 1352 :     }

	pop	edi
	pop	esi
	pop	ebx
	add	esp, 204				; 000000ccH
	cmp	ebp, esp
	call	__RTC_CheckEsp
	mov	esp, ebp
	pop	ebp
	ret	0
?_Get_first@?$_Compressed_pair@V?$allocator@D@std@@V?$_String_val@U?$_Simple_types@D@std@@@2@$00@std@@QBEABV?$allocator@D@2@XZ ENDP ; std::_Compressed_pair<std::allocator<char>,std::_String_val<std::_Simple_types<char> >,1>::_Get_first
_TEXT	ENDS
; Function compile flags: /Odtp /RTCsu /ZI
; File C:\Program Files (x86)\Microsoft Visual Studio\2019\Professional\VC\Tools\MSVC\14.28.29333\include\xmemory
;	COMDAT ?_Get_first@?$_Compressed_pair@V?$allocator@D@std@@V?$_String_val@U?$_Simple_types@D@std@@@2@$00@std@@QAEAAV?$allocator@D@2@XZ
_TEXT	SEGMENT
_this$ = -8						; size = 4
?_Get_first@?$_Compressed_pair@V?$allocator@D@std@@V?$_String_val@U?$_Simple_types@D@std@@@2@$00@std@@QAEAAV?$allocator@D@2@XZ PROC ; std::_Compressed_pair<std::allocator<char>,std::_String_val<std::_Simple_types<char> >,1>::_Get_first, COMDAT
; _this$ = ecx

; 1346 :     constexpr _Ty1& _Get_first() noexcept {

	push	ebp
	mov	ebp, esp
	sub	esp, 204				; 000000ccH
	push	ebx
	push	esi
	push	edi
	push	ecx
	lea	edi, DWORD PTR [ebp-204]
	mov	ecx, 51					; 00000033H
	mov	eax, -858993460				; ccccccccH
	rep stosd
	pop	ecx
	mov	DWORD PTR _this$[ebp], ecx
	mov	ecx, OFFSET __B4DE8A79_xmemory
	call	@__CheckForDebuggerJustMyCode@4

; 1347 :         return *this;

	mov	eax, DWORD PTR _this$[ebp]

; 1348 :     }

	pop	edi
	pop	esi
	pop	ebx
	add	esp, 204				; 000000ccH
	cmp	ebp, esp
	call	__RTC_CheckEsp
	mov	esp, ebp
	pop	ebp
	ret	0
?_Get_first@?$_Compressed_pair@V?$allocator@D@std@@V?$_String_val@U?$_Simple_types@D@std@@@2@$00@std@@QAEAAV?$allocator@D@2@XZ ENDP ; std::_Compressed_pair<std::allocator<char>,std::_String_val<std::_Simple_types<char> >,1>::_Get_first
_TEXT	ENDS
; Function compile flags: /Odtp /RTCsu /ZI
; File C:\Program Files (x86)\Microsoft Visual Studio\2019\Professional\VC\Tools\MSVC\14.28.29333\include\xstring
;	COMDAT ?_Getal@?$basic_string@DU?$char_traits@D@std@@V?$allocator@D@2@@std@@ABEABV?$allocator@D@2@XZ
_TEXT	SEGMENT
_this$ = -8						; size = 4
?_Getal@?$basic_string@DU?$char_traits@D@std@@V?$allocator@D@2@@std@@ABEABV?$allocator@D@2@XZ PROC ; std::basic_string<char,std::char_traits<char>,std::allocator<char> >::_Getal, COMDAT
; _this$ = ecx

; 4412 :     const _Alty& _Getal() const noexcept {

	push	ebp
	mov	ebp, esp
	sub	esp, 204				; 000000ccH
	push	ebx
	push	esi
	push	edi
	push	ecx
	lea	edi, DWORD PTR [ebp-204]
	mov	ecx, 51					; 00000033H
	mov	eax, -858993460				; ccccccccH
	rep stosd
	pop	ecx
	mov	DWORD PTR _this$[ebp], ecx
	mov	ecx, OFFSET __C00D0CE5_xstring
	call	@__CheckForDebuggerJustMyCode@4

; 4413 :         return _Mypair._Get_first();

	mov	ecx, DWORD PTR _this$[ebp]
	call	?_Get_first@?$_Compressed_pair@V?$allocator@D@std@@V?$_String_val@U?$_Simple_types@D@std@@@2@$00@std@@QBEABV?$allocator@D@2@XZ ; std::_Compressed_pair<std::allocator<char>,std::_String_val<std::_Simple_types<char> >,1>::_Get_first

; 4414 :     }

	pop	edi
	pop	esi
	pop	ebx
	add	esp, 204				; 000000ccH
	cmp	ebp, esp
	call	__RTC_CheckEsp
	mov	esp, ebp
	pop	ebp
	ret	0
?_Getal@?$basic_string@DU?$char_traits@D@std@@V?$allocator@D@2@@std@@ABEABV?$allocator@D@2@XZ ENDP ; std::basic_string<char,std::char_traits<char>,std::allocator<char> >::_Getal
_TEXT	ENDS
; Function compile flags: /Odtp /RTCsu /ZI
; File C:\Program Files (x86)\Microsoft Visual Studio\2019\Professional\VC\Tools\MSVC\14.28.29333\include\xstring
;	COMDAT ?_Getal@?$basic_string@DU?$char_traits@D@std@@V?$allocator@D@2@@std@@AAEAAV?$allocator@D@2@XZ
_TEXT	SEGMENT
_this$ = -8						; size = 4
?_Getal@?$basic_string@DU?$char_traits@D@std@@V?$allocator@D@2@@std@@AAEAAV?$allocator@D@2@XZ PROC ; std::basic_string<char,std::char_traits<char>,std::allocator<char> >::_Getal, COMDAT
; _this$ = ecx

; 4408 :     _Alty& _Getal() noexcept {

	push	ebp
	mov	ebp, esp
	sub	esp, 204				; 000000ccH
	push	ebx
	push	esi
	push	edi
	push	ecx
	lea	edi, DWORD PTR [ebp-204]
	mov	ecx, 51					; 00000033H
	mov	eax, -858993460				; ccccccccH
	rep stosd
	pop	ecx
	mov	DWORD PTR _this$[ebp], ecx
	mov	ecx, OFFSET __C00D0CE5_xstring
	call	@__CheckForDebuggerJustMyCode@4

; 4409 :         return _Mypair._Get_first();

	mov	ecx, DWORD PTR _this$[ebp]
	call	?_Get_first@?$_Compressed_pair@V?$allocator@D@std@@V?$_String_val@U?$_Simple_types@D@std@@@2@$00@std@@QAEAAV?$allocator@D@2@XZ ; std::_Compressed_pair<std::allocator<char>,std::_String_val<std::_Simple_types<char> >,1>::_Get_first

; 4410 :     }

	pop	edi
	pop	esi
	pop	ebx
	add	esp, 204				; 000000ccH
	cmp	ebp, esp
	call	__RTC_CheckEsp
	mov	esp, ebp
	pop	ebp
	ret	0
?_Getal@?$basic_string@DU?$char_traits@D@std@@V?$allocator@D@2@@std@@AAEAAV?$allocator@D@2@XZ ENDP ; std::basic_string<char,std::char_traits<char>,std::allocator<char> >::_Getal
_TEXT	ENDS
; Function compile flags: /Odtp /RTCsu /ZI
; File C:\Program Files (x86)\Microsoft Visual Studio\2019\Professional\VC\Tools\MSVC\14.28.29333\include\xstring
;	COMDAT ?_Swap_proxy_and_iterators@?$basic_string@DU?$char_traits@D@std@@V?$allocator@D@2@@std@@AAEXAAV12@@Z
_TEXT	SEGMENT
tv79 = -208						; size = 4
_this$ = -8						; size = 4
__Right$ = 8						; size = 4
?_Swap_proxy_and_iterators@?$basic_string@DU?$char_traits@D@std@@V?$allocator@D@2@@std@@AAEXAAV12@@Z PROC ; std::basic_string<char,std::char_traits<char>,std::allocator<char> >::_Swap_proxy_and_iterators, COMDAT
; _this$ = ecx

; 4404 :     void _Swap_proxy_and_iterators(basic_string& _Right) {

	push	ebp
	mov	ebp, esp
	sub	esp, 208				; 000000d0H
	push	ebx
	push	esi
	push	edi
	push	ecx
	lea	edi, DWORD PTR [ebp-208]
	mov	ecx, 52					; 00000034H
	mov	eax, -858993460				; ccccccccH
	rep stosd
	pop	ecx
	mov	DWORD PTR _this$[ebp], ecx
	mov	ecx, OFFSET __C00D0CE5_xstring
	call	@__CheckForDebuggerJustMyCode@4

; 4405 :         _Mypair._Myval2._Swap_proxy_and_iterators(_Right._Mypair._Myval2);

	mov	eax, DWORD PTR _this$[ebp]
	mov	DWORD PTR tv79[ebp], eax
	mov	ecx, DWORD PTR __Right$[ebp]
	push	ecx
	mov	ecx, DWORD PTR tv79[ebp]
	call	?_Swap_proxy_and_iterators@_Container_base12@std@@QAEXAAU12@@Z ; std::_Container_base12::_Swap_proxy_and_iterators

; 4406 :     }

	pop	edi
	pop	esi
	pop	ebx
	add	esp, 208				; 000000d0H
	cmp	ebp, esp
	call	__RTC_CheckEsp
	mov	esp, ebp
	pop	ebp
	ret	4
?_Swap_proxy_and_iterators@?$basic_string@DU?$char_traits@D@std@@V?$allocator@D@2@@std@@AAEXAAV12@@Z ENDP ; std::basic_string<char,std::char_traits<char>,std::allocator<char> >::_Swap_proxy_and_iterators
_TEXT	ENDS
; Function compile flags: /Odtp /RTCsu /ZI
; File C:\Program Files (x86)\Microsoft Visual Studio\2019\Professional\VC\Tools\MSVC\14.28.29333\include\xstring
;	COMDAT ?_Tidy_deallocate@?$basic_string@DU?$char_traits@D@std@@V?$allocator@D@2@@std@@AAEXXZ
_TEXT	SEGMENT
$T2 = -245						; size = 1
__Al$3 = -44						; size = 4
__Ptr$4 = -32						; size = 4
_this$ = -20						; size = 4
__$EHRec$ = -12						; size = 12
?_Tidy_deallocate@?$basic_string@DU?$char_traits@D@std@@V?$allocator@D@2@@std@@AAEXXZ PROC ; std::basic_string<char,std::char_traits<char>,std::allocator<char> >::_Tidy_deallocate, COMDAT
; _this$ = ecx

; 4383 :     void _Tidy_deallocate() noexcept { // initialize buffer, deallocating any storage

	push	ebp
	mov	ebp, esp
	push	-1
	push	__ehhandler$?_Tidy_deallocate@?$basic_string@DU?$char_traits@D@std@@V?$allocator@D@2@@std@@AAEXXZ
	mov	eax, DWORD PTR fs:0
	push	eax
	sub	esp, 240				; 000000f0H
	push	ebx
	push	esi
	push	edi
	push	ecx
	lea	edi, DWORD PTR [ebp-252]
	mov	ecx, 60					; 0000003cH
	mov	eax, -858993460				; ccccccccH
	rep stosd
	pop	ecx
	mov	eax, DWORD PTR ___security_cookie
	xor	eax, ebp
	push	eax
	lea	eax, DWORD PTR __$EHRec$[ebp]
	mov	DWORD PTR fs:0, eax
	mov	DWORD PTR _this$[ebp], ecx
	mov	ecx, OFFSET __C00D0CE5_xstring
	call	@__CheckForDebuggerJustMyCode@4

; 4384 :         _Mypair._Myval2._Orphan_all();

	mov	ecx, DWORD PTR _this$[ebp]
	call	?_Orphan_all@_Container_base12@std@@QAEXXZ ; std::_Container_base12::_Orphan_all

; 4385 :         if (_Mypair._Myval2._Large_string_engaged()) {

	mov	ecx, DWORD PTR _this$[ebp]
	call	?_Large_string_engaged@?$_String_val@U?$_Simple_types@D@std@@@std@@QBE_NXZ ; std::_String_val<std::_Simple_types<char> >::_Large_string_engaged
	movzx	eax, al
	test	eax, eax
	je	SHORT $LN2@Tidy_deall

; 4386 :             const pointer _Ptr = _Mypair._Myval2._Bx._Ptr;

	mov	eax, DWORD PTR _this$[ebp]
	mov	ecx, DWORD PTR [eax+4]
	mov	DWORD PTR __Ptr$4[ebp], ecx

; 4387 :             auto& _Al          = _Getal();

	mov	ecx, DWORD PTR _this$[ebp]
	call	?_Getal@?$basic_string@DU?$char_traits@D@std@@V?$allocator@D@2@@std@@AAEAAV?$allocator@D@2@XZ ; std::basic_string<char,std::char_traits<char>,std::allocator<char> >::_Getal
	mov	DWORD PTR __Al$3[ebp], eax

; 4388 :             _Destroy_in_place(_Mypair._Myval2._Bx._Ptr);

	mov	eax, DWORD PTR _this$[ebp]
	add	eax, 4
	push	eax
	call	??$_Destroy_in_place@PAD@std@@YAXAAPAD@Z ; std::_Destroy_in_place<char *>
	add	esp, 4

; 4389 :             _Al.deallocate(_Ptr, _Mypair._Myval2._Myres + 1);

	mov	eax, DWORD PTR _this$[ebp]
	mov	ecx, DWORD PTR [eax+24]
	add	ecx, 1
	push	ecx
	mov	edx, DWORD PTR __Ptr$4[ebp]
	push	edx
	mov	ecx, DWORD PTR __Al$3[ebp]
	call	?deallocate@?$allocator@D@std@@QAEXQADI@Z ; std::allocator<char>::deallocate
$LN2@Tidy_deall:

; 4390 :         }
; 4391 : 
; 4392 :         _Mypair._Myval2._Mysize = 0;

	mov	eax, DWORD PTR _this$[ebp]
	mov	DWORD PTR [eax+20], 0

; 4393 :         _Mypair._Myval2._Myres  = _BUF_SIZE - 1;

	mov	eax, DWORD PTR _this$[ebp]
	mov	DWORD PTR [eax+24], 15			; 0000000fH

; 4394 :         // the _Traits::assign is last so the codegen doesn't think the char write can alias this
; 4395 :         _Traits::assign(_Mypair._Myval2._Bx._Buf[0], _Elem());

	mov	BYTE PTR $T2[ebp], 0
	lea	eax, DWORD PTR $T2[ebp]
	push	eax
	mov	ecx, 1
	imul	edx, ecx, 0
	mov	eax, DWORD PTR _this$[ebp]
	lea	ecx, DWORD PTR [eax+edx+4]
	push	ecx
	call	?assign@?$_Narrow_char_traits@DH@std@@SAXAADABD@Z ; std::_Narrow_char_traits<char,int>::assign
	add	esp, 8

; 4396 :     }

	mov	ecx, DWORD PTR __$EHRec$[ebp]
	mov	DWORD PTR fs:0, ecx
	pop	ecx
	pop	edi
	pop	esi
	pop	ebx
	add	esp, 252				; 000000fcH
	cmp	ebp, esp
	call	__RTC_CheckEsp
	mov	esp, ebp
	pop	ebp
	ret	0
	int	3
	int	3
	int	3
	int	3
	int	3
_TEXT	ENDS
;	COMDAT text$x
text$x	SEGMENT
__ehhandler$?_Tidy_deallocate@?$basic_string@DU?$char_traits@D@std@@V?$allocator@D@2@@std@@AAEXXZ:
	npad	1
	npad	1
	mov	edx, DWORD PTR [esp+8]
	lea	eax, DWORD PTR [edx+12]
	mov	ecx, DWORD PTR [edx-256]
	xor	ecx, eax
	call	@__security_check_cookie@4
	mov	eax, OFFSET __ehfuncinfo$?_Tidy_deallocate@?$basic_string@DU?$char_traits@D@std@@V?$allocator@D@2@@std@@AAEXXZ
	jmp	___CxxFrameHandler3
text$x	ENDS
?_Tidy_deallocate@?$basic_string@DU?$char_traits@D@std@@V?$allocator@D@2@@std@@AAEXXZ ENDP ; std::basic_string<char,std::char_traits<char>,std::allocator<char> >::_Tidy_deallocate
; Function compile flags: /Odtp /RTCsu /ZI
; File C:\Program Files (x86)\Microsoft Visual Studio\2019\Professional\VC\Tools\MSVC\14.28.29333\include\xstring
;	COMDAT ?_Tidy_init@?$basic_string@DU?$char_traits@D@std@@V?$allocator@D@2@@std@@AAEXXZ
_TEXT	SEGMENT
$T1 = -209						; size = 1
_this$ = -8						; size = 4
?_Tidy_init@?$basic_string@DU?$char_traits@D@std@@V?$allocator@D@2@@std@@AAEXXZ PROC ; std::basic_string<char,std::char_traits<char>,std::allocator<char> >::_Tidy_init, COMDAT
; _this$ = ecx

; 4376 :     void _Tidy_init() noexcept { // initialize basic_string data members

	push	ebp
	mov	ebp, esp
	sub	esp, 216				; 000000d8H
	push	ebx
	push	esi
	push	edi
	push	ecx
	lea	edi, DWORD PTR [ebp-216]
	mov	ecx, 54					; 00000036H
	mov	eax, -858993460				; ccccccccH
	rep stosd
	pop	ecx
	mov	DWORD PTR _this$[ebp], ecx
	mov	ecx, OFFSET __C00D0CE5_xstring
	call	@__CheckForDebuggerJustMyCode@4

; 4377 :         _Mypair._Myval2._Mysize = 0;

	mov	eax, DWORD PTR _this$[ebp]
	mov	DWORD PTR [eax+20], 0

; 4378 :         _Mypair._Myval2._Myres  = _BUF_SIZE - 1;

	mov	eax, DWORD PTR _this$[ebp]
	mov	DWORD PTR [eax+24], 15			; 0000000fH

; 4379 :         // the _Traits::assign is last so the codegen doesn't think the char write can alias this
; 4380 :         _Traits::assign(_Mypair._Myval2._Bx._Buf[0], _Elem());

	mov	BYTE PTR $T1[ebp], 0
	lea	eax, DWORD PTR $T1[ebp]
	push	eax
	mov	ecx, 1
	imul	edx, ecx, 0
	mov	eax, DWORD PTR _this$[ebp]
	lea	ecx, DWORD PTR [eax+edx+4]
	push	ecx
	call	?assign@?$_Narrow_char_traits@DH@std@@SAXAADABD@Z ; std::_Narrow_char_traits<char,int>::assign
	add	esp, 8

; 4381 :     }

	pop	edi
	pop	esi
	pop	ebx
	add	esp, 216				; 000000d8H
	cmp	ebp, esp
	call	__RTC_CheckEsp
	mov	esp, ebp
	pop	ebp
	ret	0
?_Tidy_init@?$basic_string@DU?$char_traits@D@std@@V?$allocator@D@2@@std@@AAEXXZ ENDP ; std::basic_string<char,std::char_traits<char>,std::allocator<char> >::_Tidy_init
_TEXT	ENDS
; Function compile flags: /Odtp /RTCsu /ZI
; File C:\Program Files (x86)\Microsoft Visual Studio\2019\Professional\VC\Tools\MSVC\14.28.29333\include\xstring
;	COMDAT ?_Eos@?$basic_string@DU?$char_traits@D@std@@V?$allocator@D@2@@std@@AAEXI@Z
_TEXT	SEGMENT
tv75 = -224						; size = 4
tv77 = -220						; size = 4
$T1 = -209						; size = 1
_this$ = -8						; size = 4
__Newsize$ = 8						; size = 4
?_Eos@?$basic_string@DU?$char_traits@D@std@@V?$allocator@D@2@@std@@AAEXI@Z PROC ; std::basic_string<char,std::char_traits<char>,std::allocator<char> >::_Eos, COMDAT
; _this$ = ecx

; 4372 :     void _Eos(const size_type _Newsize) { // set new length and null terminator

	push	ebp
	mov	ebp, esp
	sub	esp, 224				; 000000e0H
	push	ebx
	push	esi
	push	edi
	push	ecx
	lea	edi, DWORD PTR [ebp-224]
	mov	ecx, 56					; 00000038H
	mov	eax, -858993460				; ccccccccH
	rep stosd
	pop	ecx
	mov	DWORD PTR _this$[ebp], ecx
	mov	ecx, OFFSET __C00D0CE5_xstring
	call	@__CheckForDebuggerJustMyCode@4

; 4373 :         _Traits::assign(_Mypair._Myval2._Myptr()[_Mypair._Myval2._Mysize = _Newsize], _Elem());

	mov	BYTE PTR $T1[ebp], 0
	mov	ecx, DWORD PTR _this$[ebp]
	call	?_Myptr@?$_String_val@U?$_Simple_types@D@std@@@std@@QAEPADXZ ; std::_String_val<std::_Simple_types<char> >::_Myptr
	mov	DWORD PTR tv77[ebp], eax
	mov	eax, DWORD PTR _this$[ebp]
	mov	ecx, DWORD PTR __Newsize$[ebp]
	mov	DWORD PTR [eax+20], ecx
	mov	edx, DWORD PTR __Newsize$[ebp]
	mov	DWORD PTR tv75[ebp], edx
	lea	eax, DWORD PTR $T1[ebp]
	push	eax
	mov	ecx, DWORD PTR tv77[ebp]
	add	ecx, DWORD PTR tv75[ebp]
	push	ecx
	call	?assign@?$_Narrow_char_traits@DH@std@@SAXAADABD@Z ; std::_Narrow_char_traits<char,int>::assign
	add	esp, 8

; 4374 :     }

	pop	edi
	pop	esi
	pop	ebx
	add	esp, 224				; 000000e0H
	cmp	ebp, esp
	call	__RTC_CheckEsp
	mov	esp, ebp
	pop	ebp
	ret	4
?_Eos@?$basic_string@DU?$char_traits@D@std@@V?$allocator@D@2@@std@@AAEXI@Z ENDP ; std::basic_string<char,std::char_traits<char>,std::allocator<char> >::_Eos
_TEXT	ENDS
; Function compile flags: /Odtp /RTCsu /ZI
; File C:\Program Files (x86)\Microsoft Visual Studio\2019\Professional\VC\Tools\MSVC\14.28.29333\include\xstring
;	COMDAT ?_Become_small@?$basic_string@DU?$char_traits@D@std@@V?$allocator@D@2@@std@@AAEXXZ
_TEXT	SEGMENT
tv129 = -236						; size = 4
tv131 = -232						; size = 4
__Al$ = -32						; size = 4
__Ptr$ = -20						; size = 4
_this$ = -8						; size = 4
?_Become_small@?$basic_string@DU?$char_traits@D@std@@V?$allocator@D@2@@std@@AAEXXZ PROC ; std::basic_string<char,std::char_traits<char>,std::allocator<char> >::_Become_small, COMDAT
; _this$ = ecx

; 4359 :     void _Become_small() {

	push	ebp
	mov	ebp, esp
	sub	esp, 236				; 000000ecH
	push	ebx
	push	esi
	push	edi
	push	ecx
	lea	edi, DWORD PTR [ebp-236]
	mov	ecx, 59					; 0000003bH
	mov	eax, -858993460				; ccccccccH
	rep stosd
	pop	ecx
	mov	DWORD PTR _this$[ebp], ecx
	mov	ecx, OFFSET __C00D0CE5_xstring
	call	@__CheckForDebuggerJustMyCode@4

; 4360 :         // release any held storage and return to small string mode
; 4361 :         // pre: *this is in large string mode
; 4362 :         // pre: this is small enough to return to small string mode
; 4363 :         _Mypair._Myval2._Orphan_all();

	mov	ecx, DWORD PTR _this$[ebp]
	call	?_Orphan_all@_Container_base12@std@@QAEXXZ ; std::_Container_base12::_Orphan_all

; 4364 :         const pointer _Ptr = _Mypair._Myval2._Bx._Ptr;

	mov	eax, DWORD PTR _this$[ebp]
	mov	ecx, DWORD PTR [eax+4]
	mov	DWORD PTR __Ptr$[ebp], ecx

; 4365 :         auto& _Al          = _Getal();

	mov	ecx, DWORD PTR _this$[ebp]
	call	?_Getal@?$basic_string@DU?$char_traits@D@std@@V?$allocator@D@2@@std@@AAEAAV?$allocator@D@2@XZ ; std::basic_string<char,std::char_traits<char>,std::allocator<char> >::_Getal
	mov	DWORD PTR __Al$[ebp], eax

; 4366 :         _Destroy_in_place(_Mypair._Myval2._Bx._Ptr);

	mov	eax, DWORD PTR _this$[ebp]
	add	eax, 4
	push	eax
	call	??$_Destroy_in_place@PAD@std@@YAXAAPAD@Z ; std::_Destroy_in_place<char *>
	add	esp, 4

; 4367 :         _Traits::copy(_Mypair._Myval2._Bx._Buf, _Unfancy(_Ptr), _Mypair._Myval2._Mysize + 1);

	mov	eax, DWORD PTR _this$[ebp]
	mov	ecx, DWORD PTR [eax+20]
	add	ecx, 1
	mov	DWORD PTR tv131[ebp], ecx
	mov	edx, DWORD PTR __Ptr$[ebp]
	push	edx
	call	??$_Unfancy@D@std@@YAPADPAD@Z		; std::_Unfancy<char>
	add	esp, 4
	mov	DWORD PTR tv129[ebp], eax
	mov	eax, DWORD PTR tv131[ebp]
	push	eax
	mov	ecx, DWORD PTR tv129[ebp]
	push	ecx
	mov	edx, DWORD PTR _this$[ebp]
	add	edx, 4
	push	edx
	call	?copy@?$_Char_traits@DH@std@@SAPADQADQBDI@Z ; std::_Char_traits<char,int>::copy
	add	esp, 12					; 0000000cH

; 4368 :         _Al.deallocate(_Ptr, _Mypair._Myval2._Myres + 1);

	mov	eax, DWORD PTR _this$[ebp]
	mov	ecx, DWORD PTR [eax+24]
	add	ecx, 1
	push	ecx
	mov	edx, DWORD PTR __Ptr$[ebp]
	push	edx
	mov	ecx, DWORD PTR __Al$[ebp]
	call	?deallocate@?$allocator@D@std@@QAEXQADI@Z ; std::allocator<char>::deallocate

; 4369 :         _Mypair._Myval2._Myres = _BUF_SIZE - 1;

	mov	eax, DWORD PTR _this$[ebp]
	mov	DWORD PTR [eax+24], 15			; 0000000fH

; 4370 :     }

	pop	edi
	pop	esi
	pop	ebx
	add	esp, 236				; 000000ecH
	cmp	ebp, esp
	call	__RTC_CheckEsp
	mov	esp, ebp
	pop	ebp
	ret	0
?_Become_small@?$basic_string@DU?$char_traits@D@std@@V?$allocator@D@2@@std@@AAEXXZ ENDP ; std::basic_string<char,std::char_traits<char>,std::allocator<char> >::_Become_small
_TEXT	ENDS
; Function compile flags: /Odtp /RTCsu /ZI
; File C:\Program Files (x86)\Microsoft Visual Studio\2019\Professional\VC\Tools\MSVC\14.28.29333\include\xstring
;	COMDAT ?_Calculate_growth@?$basic_string@DU?$char_traits@D@std@@V?$allocator@D@2@@std@@ABEII@Z
_TEXT	SEGMENT
tv74 = -212						; size = 4
tv76 = -208						; size = 4
_this$ = -8						; size = 4
__Requested$ = 8					; size = 4
?_Calculate_growth@?$basic_string@DU?$char_traits@D@std@@V?$allocator@D@2@@std@@ABEII@Z PROC ; std::basic_string<char,std::char_traits<char>,std::allocator<char> >::_Calculate_growth, COMDAT
; _this$ = ecx

; 4297 :     _NODISCARD size_type _Calculate_growth(const size_type _Requested) const noexcept {

	push	ebp
	mov	ebp, esp
	sub	esp, 212				; 000000d4H
	push	ebx
	push	esi
	push	edi
	push	ecx
	lea	edi, DWORD PTR [ebp-212]
	mov	ecx, 53					; 00000035H
	mov	eax, -858993460				; ccccccccH
	rep stosd
	pop	ecx
	mov	DWORD PTR _this$[ebp], ecx
	mov	ecx, OFFSET __C00D0CE5_xstring
	call	@__CheckForDebuggerJustMyCode@4

; 4298 :         return _Calculate_growth(_Requested, _Mypair._Myval2._Myres, max_size());

	mov	ecx, DWORD PTR _this$[ebp]
	call	?max_size@?$basic_string@DU?$char_traits@D@std@@V?$allocator@D@2@@std@@QBEIXZ ; std::basic_string<char,std::char_traits<char>,std::allocator<char> >::max_size
	mov	DWORD PTR tv76[ebp], eax
	mov	eax, DWORD PTR _this$[ebp]
	mov	ecx, DWORD PTR [eax+24]
	mov	DWORD PTR tv74[ebp], ecx
	mov	edx, DWORD PTR tv76[ebp]
	push	edx
	mov	eax, DWORD PTR tv74[ebp]
	push	eax
	mov	ecx, DWORD PTR __Requested$[ebp]
	push	ecx
	call	?_Calculate_growth@?$basic_string@DU?$char_traits@D@std@@V?$allocator@D@2@@std@@CAIIII@Z ; std::basic_string<char,std::char_traits<char>,std::allocator<char> >::_Calculate_growth
	add	esp, 12					; 0000000cH

; 4299 :     }

	pop	edi
	pop	esi
	pop	ebx
	add	esp, 212				; 000000d4H
	cmp	ebp, esp
	call	__RTC_CheckEsp
	mov	esp, ebp
	pop	ebp
	ret	4
?_Calculate_growth@?$basic_string@DU?$char_traits@D@std@@V?$allocator@D@2@@std@@ABEII@Z ENDP ; std::basic_string<char,std::char_traits<char>,std::allocator<char> >::_Calculate_growth
_TEXT	ENDS
; Function compile flags: /Odtp /RTCsu /ZI
; File C:\Program Files (x86)\Microsoft Visual Studio\2019\Professional\VC\Tools\MSVC\14.28.29333\include\xstring
;	COMDAT ?_Calculate_growth@?$basic_string@DU?$char_traits@D@std@@V?$allocator@D@2@@std@@CAIIII@Z
_TEXT	SEGMENT
$T1 = -216						; size = 4
__Masked$ = -12						; size = 4
__$ArrayPad$ = -4					; size = 4
__Requested$ = 8					; size = 4
__Old$ = 12						; size = 4
__Max$ = 16						; size = 4
?_Calculate_growth@?$basic_string@DU?$char_traits@D@std@@V?$allocator@D@2@@std@@CAIIII@Z PROC ; std::basic_string<char,std::char_traits<char>,std::allocator<char> >::_Calculate_growth, COMDAT

; 4284 :         const size_type _Requested, const size_type _Old, const size_type _Max) noexcept {

	push	ebp
	mov	ebp, esp
	sub	esp, 220				; 000000dcH
	push	ebx
	push	esi
	push	edi
	lea	edi, DWORD PTR [ebp-220]
	mov	ecx, 55					; 00000037H
	mov	eax, -858993460				; ccccccccH
	rep stosd
	mov	eax, DWORD PTR ___security_cookie
	xor	eax, ebp
	mov	DWORD PTR __$ArrayPad$[ebp], eax
	mov	ecx, OFFSET __C00D0CE5_xstring
	call	@__CheckForDebuggerJustMyCode@4

; 4285 :         const size_type _Masked = _Requested | _ALLOC_MASK;

	mov	eax, DWORD PTR __Requested$[ebp]
	or	eax, 15					; 0000000fH
	mov	DWORD PTR __Masked$[ebp], eax

; 4286 :         if (_Masked > _Max) { // the mask overflows, settle for max_size()

	mov	eax, DWORD PTR __Masked$[ebp]
	cmp	eax, DWORD PTR __Max$[ebp]
	jbe	SHORT $LN2@Calculate_

; 4287 :             return _Max;

	mov	eax, DWORD PTR __Max$[ebp]
	jmp	SHORT $LN4@Calculate_
$LN2@Calculate_:

; 4288 :         }
; 4289 : 
; 4290 :         if (_Old > _Max - _Old / 2) { // similarly, geometric overflows

	mov	eax, DWORD PTR __Old$[ebp]
	shr	eax, 1
	mov	ecx, DWORD PTR __Max$[ebp]
	sub	ecx, eax
	cmp	DWORD PTR __Old$[ebp], ecx
	jbe	SHORT $LN3@Calculate_

; 4291 :             return _Max;

	mov	eax, DWORD PTR __Max$[ebp]
	jmp	SHORT $LN4@Calculate_
$LN3@Calculate_:

; 4292 :         }
; 4293 : 
; 4294 :         return (_STD max)(_Masked, _Old + _Old / 2);

	mov	eax, DWORD PTR __Old$[ebp]
	shr	eax, 1
	add	eax, DWORD PTR __Old$[ebp]
	mov	DWORD PTR $T1[ebp], eax
	lea	ecx, DWORD PTR $T1[ebp]
	push	ecx
	lea	edx, DWORD PTR __Masked$[ebp]
	push	edx
	call	??$max@I@std@@YAABIABI0@Z		; std::max<unsigned int>
	add	esp, 8
	mov	eax, DWORD PTR [eax]
$LN4@Calculate_:

; 4295 :     }

	push	edx
	mov	ecx, ebp
	push	eax
	lea	edx, DWORD PTR $LN7@Calculate_
	call	@_RTC_CheckStackVars@8
	pop	eax
	pop	edx
	pop	edi
	pop	esi
	pop	ebx
	mov	ecx, DWORD PTR __$ArrayPad$[ebp]
	xor	ecx, ebp
	call	@__security_check_cookie@4
	add	esp, 220				; 000000dcH
	cmp	ebp, esp
	call	__RTC_CheckEsp
	mov	esp, ebp
	pop	ebp
	ret	0
	npad	2
$LN7@Calculate_:
	DD	1
	DD	$LN6@Calculate_
$LN6@Calculate_:
	DD	-12					; fffffff4H
	DD	4
	DD	$LN5@Calculate_
$LN5@Calculate_:
	DB	95					; 0000005fH
	DB	77					; 0000004dH
	DB	97					; 00000061H
	DB	115					; 00000073H
	DB	107					; 0000006bH
	DB	101					; 00000065H
	DB	100					; 00000064H
	DB	0
?_Calculate_growth@?$basic_string@DU?$char_traits@D@std@@V?$allocator@D@2@@std@@CAIIII@Z ENDP ; std::basic_string<char,std::char_traits<char>,std::allocator<char> >::_Calculate_growth
_TEXT	ENDS
; Function compile flags: /Odtp /RTCsu /ZI
; File C:\Program Files (x86)\Microsoft Visual Studio\2019\Professional\VC\Tools\MSVC\14.28.29333\include\xstring
;	COMDAT ?empty@?$basic_string@DU?$char_traits@D@std@@V?$allocator@D@2@@std@@QBE_NXZ
_TEXT	SEGMENT
tv67 = -208						; size = 4
_this$ = -8						; size = 4
?empty@?$basic_string@DU?$char_traits@D@std@@V?$allocator@D@2@@std@@QBE_NXZ PROC ; std::basic_string<char,std::char_traits<char>,std::allocator<char> >::empty, COMDAT
; _this$ = ecx

; 3847 :     _NODISCARD bool empty() const noexcept {

	push	ebp
	mov	ebp, esp
	sub	esp, 208				; 000000d0H
	push	ebx
	push	esi
	push	edi
	push	ecx
	lea	edi, DWORD PTR [ebp-208]
	mov	ecx, 52					; 00000034H
	mov	eax, -858993460				; ccccccccH
	rep stosd
	pop	ecx
	mov	DWORD PTR _this$[ebp], ecx
	mov	ecx, OFFSET __C00D0CE5_xstring
	call	@__CheckForDebuggerJustMyCode@4

; 3848 :         return size() == 0;

	mov	ecx, DWORD PTR _this$[ebp]
	call	?size@?$basic_string@DU?$char_traits@D@std@@V?$allocator@D@2@@std@@QBEIXZ ; std::basic_string<char,std::char_traits<char>,std::allocator<char> >::size
	test	eax, eax
	jne	SHORT $LN3@empty
	mov	DWORD PTR tv67[ebp], 1
	jmp	SHORT $LN4@empty
$LN3@empty:
	mov	DWORD PTR tv67[ebp], 0
$LN4@empty:
	mov	al, BYTE PTR tv67[ebp]

; 3849 :     }

	pop	edi
	pop	esi
	pop	ebx
	add	esp, 208				; 000000d0H
	cmp	ebp, esp
	call	__RTC_CheckEsp
	mov	esp, ebp
	pop	ebp
	ret	0
?empty@?$basic_string@DU?$char_traits@D@std@@V?$allocator@D@2@@std@@QBE_NXZ ENDP ; std::basic_string<char,std::char_traits<char>,std::allocator<char> >::empty
_TEXT	ENDS
; Function compile flags: /Odtp /RTCsu /ZI
; File C:\Program Files (x86)\Microsoft Visual Studio\2019\Professional\VC\Tools\MSVC\14.28.29333\include\xstring
;	COMDAT ?reserve@?$basic_string@DU?$char_traits@D@std@@V?$allocator@D@2@@std@@QAEXI@Z
_TEXT	SEGMENT
$T1 = -221						; size = 1
__Old_size$2 = -20					; size = 4
_this$ = -8						; size = 4
__Newcap$ = 8						; size = 4
?reserve@?$basic_string@DU?$char_traits@D@std@@V?$allocator@D@2@@std@@QAEXI@Z PROC ; std::basic_string<char,std::char_traits<char>,std::allocator<char> >::reserve, COMDAT
; _this$ = ecx

; 3817 :     void reserve(_CRT_GUARDOVERFLOW const size_type _Newcap = 0) { // determine new minimum length of allocated storage

	push	ebp
	mov	ebp, esp
	sub	esp, 228				; 000000e4H
	push	ebx
	push	esi
	push	edi
	push	ecx
	lea	edi, DWORD PTR [ebp-228]
	mov	ecx, 57					; 00000039H
	mov	eax, -858993460				; ccccccccH
	rep stosd
	pop	ecx
	mov	DWORD PTR _this$[ebp], ecx
	mov	ecx, OFFSET __C00D0CE5_xstring
	call	@__CheckForDebuggerJustMyCode@4

; 3818 :         if (_Mypair._Myval2._Mysize > _Newcap) { // requested capacity is not large enough for current size, ignore

	mov	eax, DWORD PTR _this$[ebp]
	mov	ecx, DWORD PTR [eax+20]
	cmp	ecx, DWORD PTR __Newcap$[ebp]
	jbe	SHORT $LN2@reserve

; 3819 :             return; // nothing to do

	jmp	SHORT $LN1@reserve
$LN2@reserve:

; 3820 :         }
; 3821 : 
; 3822 :         if (_Mypair._Myval2._Myres == _Newcap) { // we're already at the requested capacity

	mov	eax, DWORD PTR _this$[ebp]
	mov	ecx, DWORD PTR [eax+24]
	cmp	ecx, DWORD PTR __Newcap$[ebp]
	jne	SHORT $LN3@reserve

; 3823 :             return; // nothing to do

	jmp	SHORT $LN1@reserve
$LN3@reserve:

; 3824 :         }
; 3825 : 
; 3826 :         if (_Mypair._Myval2._Myres < _Newcap) { // reallocate to grow

	mov	eax, DWORD PTR _this$[ebp]
	mov	ecx, DWORD PTR [eax+24]
	cmp	ecx, DWORD PTR __Newcap$[ebp]
	jae	SHORT $LN4@reserve

; 3827 :             const size_type _Old_size = _Mypair._Myval2._Mysize;

	mov	eax, DWORD PTR _this$[ebp]
	mov	ecx, DWORD PTR [eax+20]
	mov	DWORD PTR __Old_size$2[ebp], ecx

; 3828 :             _Reallocate_grow_by(

	xor	eax, eax
	mov	BYTE PTR $T1[ebp], al
	movzx	ecx, BYTE PTR $T1[ebp]
	push	ecx
	mov	edx, DWORD PTR __Newcap$[ebp]
	sub	edx, DWORD PTR __Old_size$2[ebp]
	push	edx
	mov	ecx, DWORD PTR _this$[ebp]
	call	??$_Reallocate_grow_by@V<lambda_67d87d4aa1269033985980465fd1d824>@@$$V@?$basic_string@DU?$char_traits@D@std@@V?$allocator@D@2@@std@@AAEAAV01@IV<lambda_67d87d4aa1269033985980465fd1d824>@@@Z ; std::basic_string<char,std::char_traits<char>,std::allocator<char> >::_Reallocate_grow_by<<lambda_67d87d4aa1269033985980465fd1d824> >

; 3829 :                 _Newcap - _Old_size, [](_Elem* const _New_ptr, const _Elem* const _Old_ptr, const size_type _Old_size) {
; 3830 :                     _Traits::copy(_New_ptr, _Old_ptr, _Old_size + 1);
; 3831 :                 });
; 3832 : 
; 3833 :             _Mypair._Myval2._Mysize = _Old_size;

	mov	eax, DWORD PTR _this$[ebp]
	mov	ecx, DWORD PTR __Old_size$2[ebp]
	mov	DWORD PTR [eax+20], ecx

; 3834 :             return;

	jmp	SHORT $LN1@reserve
$LN4@reserve:

; 3835 :         }
; 3836 : 
; 3837 :         if (_BUF_SIZE > _Newcap && _Mypair._Myval2._Large_string_engaged()) {

	cmp	DWORD PTR __Newcap$[ebp], 16		; 00000010H
	jae	SHORT $LN1@reserve
	mov	ecx, DWORD PTR _this$[ebp]
	call	?_Large_string_engaged@?$_String_val@U?$_Simple_types@D@std@@@std@@QBE_NXZ ; std::_String_val<std::_Simple_types<char> >::_Large_string_engaged
	movzx	eax, al
	test	eax, eax
	je	SHORT $LN1@reserve

; 3838 :             // deallocate everything; switch back to "small" mode
; 3839 :             _Become_small();

	mov	ecx, DWORD PTR _this$[ebp]
	call	?_Become_small@?$basic_string@DU?$char_traits@D@std@@V?$allocator@D@2@@std@@AAEXXZ ; std::basic_string<char,std::char_traits<char>,std::allocator<char> >::_Become_small
$LN1@reserve:

; 3840 :             return;
; 3841 :         }
; 3842 : 
; 3843 :         // ignore requests to reserve to [_BUF_SIZE, _Myres)
; 3844 :     }

	pop	edi
	pop	esi
	pop	ebx
	add	esp, 228				; 000000e4H
	cmp	ebp, esp
	call	__RTC_CheckEsp
	mov	esp, ebp
	pop	ebp
	ret	4
?reserve@?$basic_string@DU?$char_traits@D@std@@V?$allocator@D@2@@std@@QAEXI@Z ENDP ; std::basic_string<char,std::char_traits<char>,std::allocator<char> >::reserve
_TEXT	ENDS
; Function compile flags: /Odtp /RTCsu /ZI
; File C:\Program Files (x86)\Microsoft Visual Studio\2019\Professional\VC\Tools\MSVC\14.28.29333\include\xstring
;	COMDAT ?resize@?$basic_string@DU?$char_traits@D@std@@V?$allocator@D@2@@std@@QAEXID@Z
_TEXT	SEGMENT
__Old_size$ = -20					; size = 4
_this$ = -8						; size = 4
__Newsize$ = 8						; size = 4
__Ch$ = 12						; size = 1
?resize@?$basic_string@DU?$char_traits@D@std@@V?$allocator@D@2@@std@@QAEXID@Z PROC ; std::basic_string<char,std::char_traits<char>,std::allocator<char> >::resize, COMDAT
; _this$ = ecx

; 3782 :     void resize(_CRT_GUARDOVERFLOW const size_type _Newsize, const _Elem _Ch = _Elem()) {

	push	ebp
	mov	ebp, esp
	sub	esp, 216				; 000000d8H
	push	ebx
	push	esi
	push	edi
	push	ecx
	lea	edi, DWORD PTR [ebp-216]
	mov	ecx, 54					; 00000036H
	mov	eax, -858993460				; ccccccccH
	rep stosd
	pop	ecx
	mov	DWORD PTR _this$[ebp], ecx
	mov	ecx, OFFSET __C00D0CE5_xstring
	call	@__CheckForDebuggerJustMyCode@4

; 3783 :         // determine new length, padding with _Ch elements as needed
; 3784 :         const size_type _Old_size = size();

	mov	ecx, DWORD PTR _this$[ebp]
	call	?size@?$basic_string@DU?$char_traits@D@std@@V?$allocator@D@2@@std@@QBEIXZ ; std::basic_string<char,std::char_traits<char>,std::allocator<char> >::size
	mov	DWORD PTR __Old_size$[ebp], eax

; 3785 :         if (_Newsize <= _Old_size) {

	mov	eax, DWORD PTR __Newsize$[ebp]
	cmp	eax, DWORD PTR __Old_size$[ebp]
	ja	SHORT $LN2@resize

; 3786 :             _Eos(_Newsize);

	mov	eax, DWORD PTR __Newsize$[ebp]
	push	eax
	mov	ecx, DWORD PTR _this$[ebp]
	call	?_Eos@?$basic_string@DU?$char_traits@D@std@@V?$allocator@D@2@@std@@AAEXI@Z ; std::basic_string<char,std::char_traits<char>,std::allocator<char> >::_Eos

; 3787 :         } else {

	jmp	SHORT $LN1@resize
$LN2@resize:

; 3788 :             append(_Newsize - _Old_size, _Ch);

	movzx	eax, BYTE PTR __Ch$[ebp]
	push	eax
	mov	ecx, DWORD PTR __Newsize$[ebp]
	sub	ecx, DWORD PTR __Old_size$[ebp]
	push	ecx
	mov	ecx, DWORD PTR _this$[ebp]
	call	?append@?$basic_string@DU?$char_traits@D@std@@V?$allocator@D@2@@std@@QAEAAV12@ID@Z ; std::basic_string<char,std::char_traits<char>,std::allocator<char> >::append
$LN1@resize:

; 3789 :         }
; 3790 :     }

	pop	edi
	pop	esi
	pop	ebx
	add	esp, 216				; 000000d8H
	cmp	ebp, esp
	call	__RTC_CheckEsp
	mov	esp, ebp
	pop	ebp
	ret	8
?resize@?$basic_string@DU?$char_traits@D@std@@V?$allocator@D@2@@std@@QAEXID@Z ENDP ; std::basic_string<char,std::char_traits<char>,std::allocator<char> >::resize
_TEXT	ENDS
; Function compile flags: /Odtp /RTCsu /ZI
; File C:\Program Files (x86)\Microsoft Visual Studio\2019\Professional\VC\Tools\MSVC\14.28.29333\include\xstring
;	COMDAT ?max_size@?$basic_string@DU?$char_traits@D@std@@V?$allocator@D@2@@std@@QBEIXZ
_TEXT	SEGMENT
$T1 = -264						; size = 4
$T2 = -252						; size = 4
$T3 = -240						; size = 4
__Storage_max$ = -36					; size = 4
__Alloc_max$ = -24					; size = 4
_this$ = -12						; size = 4
__$ArrayPad$ = -4					; size = 4
?max_size@?$basic_string@DU?$char_traits@D@std@@V?$allocator@D@2@@std@@QBEIXZ PROC ; std::basic_string<char,std::char_traits<char>,std::allocator<char> >::max_size, COMDAT
; _this$ = ecx

; 3773 :     _NODISCARD size_type max_size() const noexcept {

	push	ebp
	mov	ebp, esp
	sub	esp, 268				; 0000010cH
	push	ebx
	push	esi
	push	edi
	push	ecx
	lea	edi, DWORD PTR [ebp-268]
	mov	ecx, 67					; 00000043H
	mov	eax, -858993460				; ccccccccH
	rep stosd
	pop	ecx
	mov	eax, DWORD PTR ___security_cookie
	xor	eax, ebp
	mov	DWORD PTR __$ArrayPad$[ebp], eax
	mov	DWORD PTR _this$[ebp], ecx
	mov	ecx, OFFSET __C00D0CE5_xstring
	call	@__CheckForDebuggerJustMyCode@4

; 3774 :         const size_type _Alloc_max   = _Alty_traits::max_size(_Getal());

	mov	ecx, DWORD PTR _this$[ebp]
	call	?_Getal@?$basic_string@DU?$char_traits@D@std@@V?$allocator@D@2@@std@@ABEABV?$allocator@D@2@XZ ; std::basic_string<char,std::char_traits<char>,std::allocator<char> >::_Getal
	push	eax
	call	?max_size@?$_Default_allocator_traits@V?$allocator@D@std@@@std@@SAIABV?$allocator@D@2@@Z ; std::_Default_allocator_traits<std::allocator<char> >::max_size
	add	esp, 4
	mov	DWORD PTR __Alloc_max$[ebp], eax

; 3775 :         const size_type _Storage_max = // can always store small string

	mov	DWORD PTR $T3[ebp], 16			; 00000010H
	lea	eax, DWORD PTR $T3[ebp]
	push	eax
	lea	ecx, DWORD PTR __Alloc_max$[ebp]
	push	ecx
	call	??$max@I@std@@YAABIABI0@Z		; std::max<unsigned int>
	add	esp, 8
	mov	edx, DWORD PTR [eax]
	mov	DWORD PTR __Storage_max$[ebp], edx

; 3776 :             (_STD max)(_Alloc_max, static_cast<size_type>(_BUF_SIZE));
; 3777 :         return (_STD min)(static_cast<size_type>((numeric_limits<difference_type>::max)()),

	mov	eax, DWORD PTR __Storage_max$[ebp]
	sub	eax, 1
	mov	DWORD PTR $T2[ebp], eax
	call	?max@?$numeric_limits@H@std@@SAHXZ	; std::numeric_limits<int>::max
	mov	DWORD PTR $T1[ebp], eax
	lea	ecx, DWORD PTR $T2[ebp]
	push	ecx
	lea	edx, DWORD PTR $T1[ebp]
	push	edx
	call	??$min@I@std@@YAABIABI0@Z		; std::min<unsigned int>
	add	esp, 8
	mov	eax, DWORD PTR [eax]

; 3778 :             _Storage_max - 1 // -1 is for null terminator and/or npos
; 3779 :         );
; 3780 :     }

	push	edx
	mov	ecx, ebp
	push	eax
	lea	edx, DWORD PTR $LN5@max_size
	call	@_RTC_CheckStackVars@8
	pop	eax
	pop	edx
	pop	edi
	pop	esi
	pop	ebx
	mov	ecx, DWORD PTR __$ArrayPad$[ebp]
	xor	ecx, ebp
	call	@__security_check_cookie@4
	add	esp, 268				; 0000010cH
	cmp	ebp, esp
	call	__RTC_CheckEsp
	mov	esp, ebp
	pop	ebp
	ret	0
	npad	1
$LN5@max_size:
	DD	1
	DD	$LN4@max_size
$LN4@max_size:
	DD	-24					; ffffffe8H
	DD	4
	DD	$LN3@max_size
$LN3@max_size:
	DB	95					; 0000005fH
	DB	65					; 00000041H
	DB	108					; 0000006cH
	DB	108					; 0000006cH
	DB	111					; 0000006fH
	DB	99					; 00000063H
	DB	95					; 0000005fH
	DB	109					; 0000006dH
	DB	97					; 00000061H
	DB	120					; 00000078H
	DB	0
?max_size@?$basic_string@DU?$char_traits@D@std@@V?$allocator@D@2@@std@@QBEIXZ ENDP ; std::basic_string<char,std::char_traits<char>,std::allocator<char> >::max_size
_TEXT	ENDS
; Function compile flags: /Odtp /RTCsu /ZI
; File C:\Program Files (x86)\Microsoft Visual Studio\2019\Professional\VC\Tools\MSVC\14.28.29333\include\xstring
;	COMDAT ?size@?$basic_string@DU?$char_traits@D@std@@V?$allocator@D@2@@std@@QBEIXZ
_TEXT	SEGMENT
_this$ = -8						; size = 4
?size@?$basic_string@DU?$char_traits@D@std@@V?$allocator@D@2@@std@@QBEIXZ PROC ; std::basic_string<char,std::char_traits<char>,std::allocator<char> >::size, COMDAT
; _this$ = ecx

; 3769 :     _NODISCARD size_type size() const noexcept {

	push	ebp
	mov	ebp, esp
	sub	esp, 204				; 000000ccH
	push	ebx
	push	esi
	push	edi
	push	ecx
	lea	edi, DWORD PTR [ebp-204]
	mov	ecx, 51					; 00000033H
	mov	eax, -858993460				; ccccccccH
	rep stosd
	pop	ecx
	mov	DWORD PTR _this$[ebp], ecx
	mov	ecx, OFFSET __C00D0CE5_xstring
	call	@__CheckForDebuggerJustMyCode@4

; 3770 :         return _Mypair._Myval2._Mysize;

	mov	eax, DWORD PTR _this$[ebp]
	mov	eax, DWORD PTR [eax+20]

; 3771 :     }

	pop	edi
	pop	esi
	pop	ebx
	add	esp, 204				; 000000ccH
	cmp	ebp, esp
	call	__RTC_CheckEsp
	mov	esp, ebp
	pop	ebp
	ret	0
?size@?$basic_string@DU?$char_traits@D@std@@V?$allocator@D@2@@std@@QBEIXZ ENDP ; std::basic_string<char,std::char_traits<char>,std::allocator<char> >::size
_TEXT	ENDS
; Function compile flags: /Odtp /RTCsu /ZI
; File C:\Program Files (x86)\Microsoft Visual Studio\2019\Professional\VC\Tools\MSVC\14.28.29333\include\xstring
;	COMDAT ?data@?$basic_string@DU?$char_traits@D@std@@V?$allocator@D@2@@std@@QAEPADXZ
_TEXT	SEGMENT
_this$ = -8						; size = 4
?data@?$basic_string@DU?$char_traits@D@std@@V?$allocator@D@2@@std@@QAEPADXZ PROC ; std::basic_string<char,std::char_traits<char>,std::allocator<char> >::data, COMDAT
; _this$ = ecx

; 3760 :     _NODISCARD _Ret_z_ _Elem* data() noexcept {

	push	ebp
	mov	ebp, esp
	sub	esp, 204				; 000000ccH
	push	ebx
	push	esi
	push	edi
	push	ecx
	lea	edi, DWORD PTR [ebp-204]
	mov	ecx, 51					; 00000033H
	mov	eax, -858993460				; ccccccccH
	rep stosd
	pop	ecx
	mov	DWORD PTR _this$[ebp], ecx
	mov	ecx, OFFSET __C00D0CE5_xstring
	call	@__CheckForDebuggerJustMyCode@4

; 3761 :         return _Mypair._Myval2._Myptr();

	mov	ecx, DWORD PTR _this$[ebp]
	call	?_Myptr@?$_String_val@U?$_Simple_types@D@std@@@std@@QAEPADXZ ; std::_String_val<std::_Simple_types<char> >::_Myptr

; 3762 :     }

	pop	edi
	pop	esi
	pop	ebx
	add	esp, 204				; 000000ccH
	cmp	ebp, esp
	call	__RTC_CheckEsp
	mov	esp, ebp
	pop	ebp
	ret	0
?data@?$basic_string@DU?$char_traits@D@std@@V?$allocator@D@2@@std@@QAEPADXZ ENDP ; std::basic_string<char,std::char_traits<char>,std::allocator<char> >::data
_TEXT	ENDS
; Function compile flags: /Odtp /RTCsu /ZI
; File C:\Program Files (x86)\Microsoft Visual Studio\2019\Professional\VC\Tools\MSVC\14.28.29333\include\xstring
;	COMDAT ?c_str@?$basic_string@DU?$char_traits@D@std@@V?$allocator@D@2@@std@@QBEPBDXZ
_TEXT	SEGMENT
_this$ = -8						; size = 4
?c_str@?$basic_string@DU?$char_traits@D@std@@V?$allocator@D@2@@std@@QBEPBDXZ PROC ; std::basic_string<char,std::char_traits<char>,std::allocator<char> >::c_str, COMDAT
; _this$ = ecx

; 3751 :     _NODISCARD _Ret_z_ const _Elem* c_str() const noexcept {

	push	ebp
	mov	ebp, esp
	sub	esp, 204				; 000000ccH
	push	ebx
	push	esi
	push	edi
	push	ecx
	lea	edi, DWORD PTR [ebp-204]
	mov	ecx, 51					; 00000033H
	mov	eax, -858993460				; ccccccccH
	rep stosd
	pop	ecx
	mov	DWORD PTR _this$[ebp], ecx
	mov	ecx, OFFSET __C00D0CE5_xstring
	call	@__CheckForDebuggerJustMyCode@4

; 3752 :         return _Mypair._Myval2._Myptr();

	mov	ecx, DWORD PTR _this$[ebp]
	call	?_Myptr@?$_String_val@U?$_Simple_types@D@std@@@std@@QBEPBDXZ ; std::_String_val<std::_Simple_types<char> >::_Myptr

; 3753 :     }

	pop	edi
	pop	esi
	pop	ebx
	add	esp, 204				; 000000ccH
	cmp	ebp, esp
	call	__RTC_CheckEsp
	mov	esp, ebp
	pop	ebp
	ret	0
?c_str@?$basic_string@DU?$char_traits@D@std@@V?$allocator@D@2@@std@@QBEPBDXZ ENDP ; std::basic_string<char,std::char_traits<char>,std::allocator<char> >::c_str
_TEXT	ENDS
; Function compile flags: /Odtp /RTCsu /ZI
; File C:\Program Files (x86)\Microsoft Visual Studio\2019\Professional\VC\Tools\MSVC\14.28.29333\include\xstring
;	COMDAT ?front@?$basic_string@DU?$char_traits@D@std@@V?$allocator@D@2@@std@@QAEAADXZ
_TEXT	SEGMENT
_this$ = -8						; size = 4
?front@?$basic_string@DU?$char_traits@D@std@@V?$allocator@D@2@@std@@QAEAADXZ PROC ; std::basic_string<char,std::char_traits<char>,std::allocator<char> >::front, COMDAT
; _this$ = ecx

; 3719 :     _NODISCARD reference front() noexcept /* strengthened */ {

	push	ebp
	mov	ebp, esp
	sub	esp, 204				; 000000ccH
	push	ebx
	push	esi
	push	edi
	push	ecx
	lea	edi, DWORD PTR [ebp-204]
	mov	ecx, 51					; 00000033H
	mov	eax, -858993460				; ccccccccH
	rep stosd
	pop	ecx
	mov	DWORD PTR _this$[ebp], ecx
	mov	ecx, OFFSET __C00D0CE5_xstring
	call	@__CheckForDebuggerJustMyCode@4
$LN4@front:

; 3720 : #if _CONTAINER_DEBUG_LEVEL > 0
; 3721 :         _STL_VERIFY(_Mypair._Myval2._Mysize != 0, "front() called on empty string");

	mov	eax, DWORD PTR _this$[ebp]
	cmp	DWORD PTR [eax+20], 0
	je	SHORT $LN7@front
	jmp	SHORT $LN2@front
$LN7@front:
	mov	esi, esp
	push	OFFSET ??_C@_0BP@PFIPNLNI@front?$CI?$CJ?5called?5on?5empty?5string@
	push	OFFSET ??_C@_02DKCKIIND@?$CFs@
	push	0
	push	3721					; 00000e89H
	push	OFFSET ??_C@_0GL@FMDBFDGL@C?3?2Program?5Files?5?$CIx86?$CJ?2Microsof@
	push	2
	call	DWORD PTR __imp___CrtDbgReport
	add	esp, 24					; 00000018H
	cmp	esi, esp
	call	__RTC_CheckEsp
	cmp	eax, 1
	jne	SHORT $LN11@front
	int	3
$LN11@front:
	mov	esi, esp
	push	0
	push	3721					; 00000e89H
	push	OFFSET ??_C@_1NG@LEPIOBNH@?$AAC?$AA?3?$AA?2?$AAP?$AAr?$AAo?$AAg?$AAr?$AAa?$AAm?$AA?5?$AAF?$AAi?$AAl?$AAe@
	push	OFFSET ??_C@_1LC@BJDDPGPA@?$AAs?$AAt?$AAd?$AA?3?$AA?3?$AAb?$AAa?$AAs?$AAi?$AAc?$AA_?$AAs?$AAt?$AAr?$AAi@
	push	OFFSET ??_C@_1EC@DINNLDHA@?$AA?$CC?$AAf?$AAr?$AAo?$AAn?$AAt?$AA?$CI?$AA?$CJ?$AA?5?$AAc?$AAa?$AAl?$AAl?$AAe?$AAd@
	call	DWORD PTR __imp___invalid_parameter
	add	esp, 20					; 00000014H
	cmp	esi, esp
	call	__RTC_CheckEsp
	xor	eax, eax
	jne	SHORT $LN7@front
$LN2@front:
	xor	eax, eax
	jne	SHORT $LN4@front

; 3722 : #endif // _CONTAINER_DEBUG_LEVEL > 0
; 3723 : 
; 3724 :         return _Mypair._Myval2._Myptr()[0];

	mov	ecx, DWORD PTR _this$[ebp]
	call	?_Myptr@?$_String_val@U?$_Simple_types@D@std@@@std@@QAEPADXZ ; std::_String_val<std::_Simple_types<char> >::_Myptr
	mov	ecx, 1
	imul	edx, ecx, 0
	add	eax, edx

; 3725 :     }

	pop	edi
	pop	esi
	pop	ebx
	add	esp, 204				; 000000ccH
	cmp	ebp, esp
	call	__RTC_CheckEsp
	mov	esp, ebp
	pop	ebp
	ret	0
?front@?$basic_string@DU?$char_traits@D@std@@V?$allocator@D@2@@std@@QAEAADXZ ENDP ; std::basic_string<char,std::char_traits<char>,std::allocator<char> >::front
_TEXT	ENDS
; Function compile flags: /Odtp /RTCsu /ZI
; File C:\Program Files (x86)\Microsoft Visual Studio\2019\Professional\VC\Tools\MSVC\14.28.29333\include\xstring
;	COMDAT ?push_back@?$basic_string@DU?$char_traits@D@std@@V?$allocator@D@2@@std@@QAEXD@Z
_TEXT	SEGMENT
$T1 = -245						; size = 1
$T2 = -233						; size = 1
__Ptr$3 = -32						; size = 4
__Old_size$ = -20					; size = 4
_this$ = -8						; size = 4
__Ch$ = 8						; size = 1
?push_back@?$basic_string@DU?$char_traits@D@std@@V?$allocator@D@2@@std@@QAEXD@Z PROC ; std::basic_string<char,std::char_traits<char>,std::allocator<char> >::push_back, COMDAT
; _this$ = ecx

; 3691 :     void push_back(const _Elem _Ch) { // insert element at end

	push	ebp
	mov	ebp, esp
	sub	esp, 252				; 000000fcH
	push	ebx
	push	esi
	push	edi
	push	ecx
	lea	edi, DWORD PTR [ebp-252]
	mov	ecx, 63					; 0000003fH
	mov	eax, -858993460				; ccccccccH
	rep stosd
	pop	ecx
	mov	DWORD PTR _this$[ebp], ecx
	mov	ecx, OFFSET __C00D0CE5_xstring
	call	@__CheckForDebuggerJustMyCode@4

; 3692 :         const size_type _Old_size = _Mypair._Myval2._Mysize;

	mov	eax, DWORD PTR _this$[ebp]
	mov	ecx, DWORD PTR [eax+20]
	mov	DWORD PTR __Old_size$[ebp], ecx

; 3693 :         if (_Old_size < _Mypair._Myval2._Myres) {

	mov	eax, DWORD PTR _this$[ebp]
	mov	ecx, DWORD PTR __Old_size$[ebp]
	cmp	ecx, DWORD PTR [eax+24]
	jae	SHORT $LN2@push_back

; 3694 :             _Mypair._Myval2._Mysize = _Old_size + 1;

	mov	eax, DWORD PTR __Old_size$[ebp]
	add	eax, 1
	mov	ecx, DWORD PTR _this$[ebp]
	mov	DWORD PTR [ecx+20], eax

; 3695 :             _Elem* const _Ptr       = _Mypair._Myval2._Myptr();

	mov	ecx, DWORD PTR _this$[ebp]
	call	?_Myptr@?$_String_val@U?$_Simple_types@D@std@@@std@@QAEPADXZ ; std::_String_val<std::_Simple_types<char> >::_Myptr
	mov	DWORD PTR __Ptr$3[ebp], eax

; 3696 :             _Traits::assign(_Ptr[_Old_size], _Ch);

	lea	eax, DWORD PTR __Ch$[ebp]
	push	eax
	mov	ecx, DWORD PTR __Ptr$3[ebp]
	add	ecx, DWORD PTR __Old_size$[ebp]
	push	ecx
	call	?assign@?$_Narrow_char_traits@DH@std@@SAXAADABD@Z ; std::_Narrow_char_traits<char,int>::assign
	add	esp, 8

; 3697 :             _Traits::assign(_Ptr[_Old_size + 1], _Elem());

	mov	BYTE PTR $T2[ebp], 0
	lea	eax, DWORD PTR $T2[ebp]
	push	eax
	mov	ecx, DWORD PTR __Old_size$[ebp]
	mov	edx, DWORD PTR __Ptr$3[ebp]
	lea	eax, DWORD PTR [edx+ecx+1]
	push	eax
	call	?assign@?$_Narrow_char_traits@DH@std@@SAXAADABD@Z ; std::_Narrow_char_traits<char,int>::assign
	add	esp, 8

; 3698 :             return;

	jmp	SHORT $LN1@push_back
$LN2@push_back:

; 3699 :         }
; 3700 : 
; 3701 :         _Reallocate_grow_by(

	xor	eax, eax
	mov	BYTE PTR $T1[ebp], al
	movzx	ecx, BYTE PTR __Ch$[ebp]
	push	ecx
	movzx	edx, BYTE PTR $T1[ebp]
	push	edx
	push	1
	mov	ecx, DWORD PTR _this$[ebp]
	call	??$_Reallocate_grow_by@V<lambda_15711c68e099a15a58f4d77303cb286d>@@D@?$basic_string@DU?$char_traits@D@std@@V?$allocator@D@2@@std@@AAEAAV01@IV<lambda_15711c68e099a15a58f4d77303cb286d>@@D@Z ; std::basic_string<char,std::char_traits<char>,std::allocator<char> >::_Reallocate_grow_by<<lambda_15711c68e099a15a58f4d77303cb286d>,char>
$LN1@push_back:

; 3702 :             1,
; 3703 :             [](_Elem* const _New_ptr, const _Elem* const _Old_ptr, const size_type _Old_size, const _Elem _Ch) {
; 3704 :                 _Traits::copy(_New_ptr, _Old_ptr, _Old_size);
; 3705 :                 _Traits::assign(_New_ptr[_Old_size], _Ch);
; 3706 :                 _Traits::assign(_New_ptr[_Old_size + 1], _Elem());
; 3707 :             },
; 3708 :             _Ch);
; 3709 :     }

	pop	edi
	pop	esi
	pop	ebx
	add	esp, 252				; 000000fcH
	cmp	ebp, esp
	call	__RTC_CheckEsp
	mov	esp, ebp
	pop	ebp
	ret	4
?push_back@?$basic_string@DU?$char_traits@D@std@@V?$allocator@D@2@@std@@QAEXD@Z ENDP ; std::basic_string<char,std::char_traits<char>,std::allocator<char> >::push_back
_TEXT	ENDS
; Function compile flags: /Odtp /RTCsu /ZI
; File C:\Program Files (x86)\Microsoft Visual Studio\2019\Professional\VC\Tools\MSVC\14.28.29333\include\xstring
;	COMDAT ?erase@?$basic_string@DU?$char_traits@D@std@@V?$allocator@D@2@@std@@QAEAAV12@II@Z
_TEXT	SEGMENT
tv69 = -208						; size = 4
_this$ = -8						; size = 4
__Off$ = 8						; size = 4
__Count$ = 12						; size = 4
?erase@?$basic_string@DU?$char_traits@D@std@@V?$allocator@D@2@@std@@QAEAAV12@II@Z PROC ; std::basic_string<char,std::char_traits<char>,std::allocator<char> >::erase, COMDAT
; _this$ = ecx

; 3306 :     basic_string& erase(const size_type _Off, const size_type _Count) { // erase elements [_Off, _Off + _Count)

	push	ebp
	mov	ebp, esp
	sub	esp, 208				; 000000d0H
	push	ebx
	push	esi
	push	edi
	push	ecx
	lea	edi, DWORD PTR [ebp-208]
	mov	ecx, 52					; 00000034H
	mov	eax, -858993460				; ccccccccH
	rep stosd
	pop	ecx
	mov	DWORD PTR _this$[ebp], ecx
	mov	ecx, OFFSET __C00D0CE5_xstring
	call	@__CheckForDebuggerJustMyCode@4

; 3307 :         _Mypair._Myval2._Check_offset(_Off);

	mov	eax, DWORD PTR _this$[ebp]
	mov	DWORD PTR tv69[ebp], eax
	mov	ecx, DWORD PTR __Off$[ebp]
	push	ecx
	mov	ecx, DWORD PTR tv69[ebp]
	call	?_Check_offset@?$_String_val@U?$_Simple_types@D@std@@@std@@QBEXI@Z ; std::_String_val<std::_Simple_types<char> >::_Check_offset

; 3308 :         return _Erase_noexcept(_Off, _Count);

	mov	eax, DWORD PTR __Count$[ebp]
	push	eax
	mov	ecx, DWORD PTR __Off$[ebp]
	push	ecx
	mov	ecx, DWORD PTR _this$[ebp]
	call	?_Erase_noexcept@?$basic_string@DU?$char_traits@D@std@@V?$allocator@D@2@@std@@AAEAAV12@II@Z ; std::basic_string<char,std::char_traits<char>,std::allocator<char> >::_Erase_noexcept

; 3309 :     }

	pop	edi
	pop	esi
	pop	ebx
	add	esp, 208				; 000000d0H
	cmp	ebp, esp
	call	__RTC_CheckEsp
	mov	esp, ebp
	pop	ebp
	ret	8
?erase@?$basic_string@DU?$char_traits@D@std@@V?$allocator@D@2@@std@@QAEAAV12@II@Z ENDP ; std::basic_string<char,std::char_traits<char>,std::allocator<char> >::erase
_TEXT	ENDS
; Function compile flags: /Odtp /RTCsu /ZI
; File C:\Program Files (x86)\Microsoft Visual Studio\2019\Professional\VC\Tools\MSVC\14.28.29333\include\xstring
;	COMDAT ?_Erase_noexcept@?$basic_string@DU?$char_traits@D@std@@V?$allocator@D@2@@std@@AAEAAV12@II@Z
_TEXT	SEGMENT
tv71 = -256						; size = 4
__New_size$ = -56					; size = 4
__Erase_at$ = -44					; size = 4
__My_ptr$ = -32						; size = 4
__Old_size$ = -20					; size = 4
_this$ = -8						; size = 4
__Off$ = 8						; size = 4
__Count$ = 12						; size = 4
?_Erase_noexcept@?$basic_string@DU?$char_traits@D@std@@V?$allocator@D@2@@std@@AAEAAV12@II@Z PROC ; std::basic_string<char,std::char_traits<char>,std::allocator<char> >::_Erase_noexcept, COMDAT
; _this$ = ecx

; 3294 :     basic_string& _Erase_noexcept(const size_type _Off, size_type _Count) noexcept {

	push	ebp
	mov	ebp, esp
	sub	esp, 256				; 00000100H
	push	ebx
	push	esi
	push	edi
	push	ecx
	lea	edi, DWORD PTR [ebp-256]
	mov	ecx, 64					; 00000040H
	mov	eax, -858993460				; ccccccccH
	rep stosd
	pop	ecx
	mov	DWORD PTR _this$[ebp], ecx
	mov	ecx, OFFSET __C00D0CE5_xstring
	call	@__CheckForDebuggerJustMyCode@4

; 3295 :         _Count                    = _Mypair._Myval2._Clamp_suffix_size(_Off, _Count);

	mov	eax, DWORD PTR _this$[ebp]
	mov	DWORD PTR tv71[ebp], eax
	mov	ecx, DWORD PTR __Count$[ebp]
	push	ecx
	mov	edx, DWORD PTR __Off$[ebp]
	push	edx
	mov	ecx, DWORD PTR tv71[ebp]
	call	?_Clamp_suffix_size@?$_String_val@U?$_Simple_types@D@std@@@std@@QBEIII@Z ; std::_String_val<std::_Simple_types<char> >::_Clamp_suffix_size
	mov	DWORD PTR __Count$[ebp], eax

; 3296 :         const size_type _Old_size = _Mypair._Myval2._Mysize;

	mov	eax, DWORD PTR _this$[ebp]
	mov	ecx, DWORD PTR [eax+20]
	mov	DWORD PTR __Old_size$[ebp], ecx

; 3297 :         _Elem* const _My_ptr      = _Mypair._Myval2._Myptr();

	mov	ecx, DWORD PTR _this$[ebp]
	call	?_Myptr@?$_String_val@U?$_Simple_types@D@std@@@std@@QAEPADXZ ; std::_String_val<std::_Simple_types<char> >::_Myptr
	mov	DWORD PTR __My_ptr$[ebp], eax

; 3298 :         _Elem* const _Erase_at    = _My_ptr + _Off;

	mov	eax, DWORD PTR __My_ptr$[ebp]
	add	eax, DWORD PTR __Off$[ebp]
	mov	DWORD PTR __Erase_at$[ebp], eax

; 3299 :         const size_type _New_size = _Old_size - _Count;

	mov	eax, DWORD PTR __Old_size$[ebp]
	sub	eax, DWORD PTR __Count$[ebp]
	mov	DWORD PTR __New_size$[ebp], eax

; 3300 :         _Mypair._Myval2._Mysize   = _New_size;

	mov	eax, DWORD PTR _this$[ebp]
	mov	ecx, DWORD PTR __New_size$[ebp]
	mov	DWORD PTR [eax+20], ecx

; 3301 :         _Traits::move(_Erase_at, _Erase_at + _Count, _New_size - _Off + 1); // move suffix + null up

	mov	eax, DWORD PTR __New_size$[ebp]
	sub	eax, DWORD PTR __Off$[ebp]
	add	eax, 1
	push	eax
	mov	ecx, DWORD PTR __Erase_at$[ebp]
	add	ecx, DWORD PTR __Count$[ebp]
	push	ecx
	mov	edx, DWORD PTR __Erase_at$[ebp]
	push	edx
	call	?move@?$_Char_traits@DH@std@@SAPADQADQBDI@Z ; std::_Char_traits<char,int>::move
	add	esp, 12					; 0000000cH

; 3302 :         return *this;

	mov	eax, DWORD PTR _this$[ebp]

; 3303 :     }

	pop	edi
	pop	esi
	pop	ebx
	add	esp, 256				; 00000100H
	cmp	ebp, esp
	call	__RTC_CheckEsp
	mov	esp, ebp
	pop	ebp
	ret	8
?_Erase_noexcept@?$basic_string@DU?$char_traits@D@std@@V?$allocator@D@2@@std@@AAEAAV12@II@Z ENDP ; std::basic_string<char,std::char_traits<char>,std::allocator<char> >::_Erase_noexcept
_TEXT	ENDS
; Function compile flags: /Odtp /RTCsu /ZI
; File C:\Program Files (x86)\Microsoft Visual Studio\2019\Professional\VC\Tools\MSVC\14.28.29333\include\xstring
;	COMDAT ?assign@?$basic_string@DU?$char_traits@D@std@@V?$allocator@D@2@@std@@QAEAAV12@QBD@Z
_TEXT	SEGMENT
_this$ = -8						; size = 4
__Ptr$ = 8						; size = 4
?assign@?$basic_string@DU?$char_traits@D@std@@V?$allocator@D@2@@std@@QAEAAV12@QBD@Z PROC ; std::basic_string<char,std::char_traits<char>,std::allocator<char> >::assign, COMDAT
; _this$ = ecx

; 3061 :     basic_string& assign(_In_z_ const _Elem* const _Ptr) {

	push	ebp
	mov	ebp, esp
	sub	esp, 204				; 000000ccH
	push	ebx
	push	esi
	push	edi
	push	ecx
	lea	edi, DWORD PTR [ebp-204]
	mov	ecx, 51					; 00000033H
	mov	eax, -858993460				; ccccccccH
	rep stosd
	pop	ecx
	mov	DWORD PTR _this$[ebp], ecx
	mov	ecx, OFFSET __C00D0CE5_xstring
	call	@__CheckForDebuggerJustMyCode@4

; 3062 :         return assign(_Ptr, _Convert_size<size_type>(_Traits::length(_Ptr)));

	mov	eax, DWORD PTR __Ptr$[ebp]
	push	eax
	call	?length@?$_Narrow_char_traits@DH@std@@SAIQBD@Z ; std::_Narrow_char_traits<char,int>::length
	add	esp, 4
	push	eax
	call	??$_Convert_size@I@std@@YAII@Z		; std::_Convert_size<unsigned int>
	add	esp, 4
	push	eax
	mov	ecx, DWORD PTR __Ptr$[ebp]
	push	ecx
	mov	ecx, DWORD PTR _this$[ebp]
	call	?assign@?$basic_string@DU?$char_traits@D@std@@V?$allocator@D@2@@std@@QAEAAV12@QBDI@Z ; std::basic_string<char,std::char_traits<char>,std::allocator<char> >::assign

; 3063 :     }

	pop	edi
	pop	esi
	pop	ebx
	add	esp, 204				; 000000ccH
	cmp	ebp, esp
	call	__RTC_CheckEsp
	mov	esp, ebp
	pop	ebp
	ret	4
?assign@?$basic_string@DU?$char_traits@D@std@@V?$allocator@D@2@@std@@QAEAAV12@QBD@Z ENDP ; std::basic_string<char,std::char_traits<char>,std::allocator<char> >::assign
_TEXT	ENDS
; Function compile flags: /Odtp /RTCsu /ZI
; File C:\Program Files (x86)\Microsoft Visual Studio\2019\Professional\VC\Tools\MSVC\14.28.29333\include\xstring
;	COMDAT ?assign@?$basic_string@DU?$char_traits@D@std@@V?$allocator@D@2@@std@@QAEAAV12@QBDI@Z
_TEXT	SEGMENT
$T1 = -233						; size = 1
$T2 = -221						; size = 1
__Old_ptr$3 = -20					; size = 4
_this$ = -8						; size = 4
__Ptr$ = 8						; size = 4
__Count$ = 12						; size = 4
?assign@?$basic_string@DU?$char_traits@D@std@@V?$allocator@D@2@@std@@QAEAAV12@QBDI@Z PROC ; std::basic_string<char,std::char_traits<char>,std::allocator<char> >::assign, COMDAT
; _this$ = ecx

; 3042 :     basic_string& assign(_In_reads_(_Count) const _Elem* const _Ptr, _CRT_GUARDOVERFLOW const size_type _Count) {

	push	ebp
	mov	ebp, esp
	sub	esp, 240				; 000000f0H
	push	ebx
	push	esi
	push	edi
	push	ecx
	lea	edi, DWORD PTR [ebp-240]
	mov	ecx, 60					; 0000003cH
	mov	eax, -858993460				; ccccccccH
	rep stosd
	pop	ecx
	mov	DWORD PTR _this$[ebp], ecx
	mov	ecx, OFFSET __C00D0CE5_xstring
	call	@__CheckForDebuggerJustMyCode@4

; 3043 :         // assign [_Ptr, _Ptr + _Count)
; 3044 :         if (_Count <= _Mypair._Myval2._Myres) {

	mov	eax, DWORD PTR _this$[ebp]
	mov	ecx, DWORD PTR __Count$[ebp]
	cmp	ecx, DWORD PTR [eax+24]
	ja	SHORT $LN2@assign

; 3045 :             _Elem* const _Old_ptr   = _Mypair._Myval2._Myptr();

	mov	ecx, DWORD PTR _this$[ebp]
	call	?_Myptr@?$_String_val@U?$_Simple_types@D@std@@@std@@QAEPADXZ ; std::_String_val<std::_Simple_types<char> >::_Myptr
	mov	DWORD PTR __Old_ptr$3[ebp], eax

; 3046 :             _Mypair._Myval2._Mysize = _Count;

	mov	eax, DWORD PTR _this$[ebp]
	mov	ecx, DWORD PTR __Count$[ebp]
	mov	DWORD PTR [eax+20], ecx

; 3047 :             _Traits::move(_Old_ptr, _Ptr, _Count);

	mov	eax, DWORD PTR __Count$[ebp]
	push	eax
	mov	ecx, DWORD PTR __Ptr$[ebp]
	push	ecx
	mov	edx, DWORD PTR __Old_ptr$3[ebp]
	push	edx
	call	?move@?$_Char_traits@DH@std@@SAPADQADQBDI@Z ; std::_Char_traits<char,int>::move
	add	esp, 12					; 0000000cH

; 3048 :             _Traits::assign(_Old_ptr[_Count], _Elem());

	mov	BYTE PTR $T2[ebp], 0
	lea	eax, DWORD PTR $T2[ebp]
	push	eax
	mov	ecx, DWORD PTR __Old_ptr$3[ebp]
	add	ecx, DWORD PTR __Count$[ebp]
	push	ecx
	call	?assign@?$_Narrow_char_traits@DH@std@@SAXAADABD@Z ; std::_Narrow_char_traits<char,int>::assign
	add	esp, 8

; 3049 :             return *this;

	mov	eax, DWORD PTR _this$[ebp]
	jmp	SHORT $LN1@assign
$LN2@assign:

; 3050 :         }
; 3051 : 
; 3052 :         return _Reallocate_for(

	xor	eax, eax
	mov	BYTE PTR $T1[ebp], al
	mov	ecx, DWORD PTR __Ptr$[ebp]
	push	ecx
	movzx	edx, BYTE PTR $T1[ebp]
	push	edx
	mov	eax, DWORD PTR __Count$[ebp]
	push	eax
	mov	ecx, DWORD PTR _this$[ebp]
	call	??$_Reallocate_for@V<lambda_9366063389c5f42a00a5088cf24e69de>@@PBD@?$basic_string@DU?$char_traits@D@std@@V?$allocator@D@2@@std@@AAEAAV01@IV<lambda_9366063389c5f42a00a5088cf24e69de>@@PBD@Z ; std::basic_string<char,std::char_traits<char>,std::allocator<char> >::_Reallocate_for<<lambda_9366063389c5f42a00a5088cf24e69de>,char const *>
$LN1@assign:

; 3053 :             _Count,
; 3054 :             [](_Elem* const _New_ptr, const size_type _Count, const _Elem* const _Ptr) {
; 3055 :                 _Traits::copy(_New_ptr, _Ptr, _Count);
; 3056 :                 _Traits::assign(_New_ptr[_Count], _Elem());
; 3057 :             },
; 3058 :             _Ptr);
; 3059 :     }

	pop	edi
	pop	esi
	pop	ebx
	add	esp, 240				; 000000f0H
	cmp	ebp, esp
	call	__RTC_CheckEsp
	mov	esp, ebp
	pop	ebp
	ret	8
?assign@?$basic_string@DU?$char_traits@D@std@@V?$allocator@D@2@@std@@QAEAAV12@QBDI@Z ENDP ; std::basic_string<char,std::char_traits<char>,std::allocator<char> >::assign
_TEXT	ENDS
; Function compile flags: /Odtp /RTCsu /ZI
; File C:\Program Files (x86)\Microsoft Visual Studio\2019\Professional\VC\Tools\MSVC\14.28.29333\include\xstring
;	COMDAT ?append@?$basic_string@DU?$char_traits@D@std@@V?$allocator@D@2@@std@@QAEAAV12@ID@Z
_TEXT	SEGMENT
$T1 = -245						; size = 1
$T2 = -233						; size = 1
__Old_ptr$3 = -32					; size = 4
__Old_size$ = -20					; size = 4
_this$ = -8						; size = 4
__Count$ = 8						; size = 4
__Ch$ = 12						; size = 1
?append@?$basic_string@DU?$char_traits@D@std@@V?$allocator@D@2@@std@@QAEAAV12@ID@Z PROC ; std::basic_string<char,std::char_traits<char>,std::allocator<char> >::append, COMDAT
; _this$ = ecx

; 2961 :     basic_string& append(_CRT_GUARDOVERFLOW const size_type _Count, const _Elem _Ch) { // append _Count * _Ch

	push	ebp
	mov	ebp, esp
	sub	esp, 252				; 000000fcH
	push	ebx
	push	esi
	push	edi
	push	ecx
	lea	edi, DWORD PTR [ebp-252]
	mov	ecx, 63					; 0000003fH
	mov	eax, -858993460				; ccccccccH
	rep stosd
	pop	ecx
	mov	DWORD PTR _this$[ebp], ecx
	mov	ecx, OFFSET __C00D0CE5_xstring
	call	@__CheckForDebuggerJustMyCode@4

; 2962 :         const size_type _Old_size = _Mypair._Myval2._Mysize;

	mov	eax, DWORD PTR _this$[ebp]
	mov	ecx, DWORD PTR [eax+20]
	mov	DWORD PTR __Old_size$[ebp], ecx

; 2963 :         if (_Count <= _Mypair._Myval2._Myres - _Old_size) {

	mov	eax, DWORD PTR _this$[ebp]
	mov	ecx, DWORD PTR [eax+24]
	sub	ecx, DWORD PTR __Old_size$[ebp]
	cmp	DWORD PTR __Count$[ebp], ecx
	ja	SHORT $LN2@append

; 2964 :             _Mypair._Myval2._Mysize = _Old_size + _Count;

	mov	eax, DWORD PTR __Old_size$[ebp]
	add	eax, DWORD PTR __Count$[ebp]
	mov	ecx, DWORD PTR _this$[ebp]
	mov	DWORD PTR [ecx+20], eax

; 2965 :             _Elem* const _Old_ptr   = _Mypair._Myval2._Myptr();

	mov	ecx, DWORD PTR _this$[ebp]
	call	?_Myptr@?$_String_val@U?$_Simple_types@D@std@@@std@@QAEPADXZ ; std::_String_val<std::_Simple_types<char> >::_Myptr
	mov	DWORD PTR __Old_ptr$3[ebp], eax

; 2966 :             _Traits::assign(_Old_ptr + _Old_size, _Count, _Ch);

	movzx	eax, BYTE PTR __Ch$[ebp]
	push	eax
	mov	ecx, DWORD PTR __Count$[ebp]
	push	ecx
	mov	edx, DWORD PTR __Old_ptr$3[ebp]
	add	edx, DWORD PTR __Old_size$[ebp]
	push	edx
	call	?assign@?$_Narrow_char_traits@DH@std@@SAPADQADID@Z ; std::_Narrow_char_traits<char,int>::assign
	add	esp, 12					; 0000000cH

; 2967 :             _Traits::assign(_Old_ptr[_Old_size + _Count], _Elem());

	mov	BYTE PTR $T2[ebp], 0
	lea	eax, DWORD PTR $T2[ebp]
	push	eax
	mov	ecx, DWORD PTR __Old_size$[ebp]
	add	ecx, DWORD PTR __Count$[ebp]
	add	ecx, DWORD PTR __Old_ptr$3[ebp]
	push	ecx
	call	?assign@?$_Narrow_char_traits@DH@std@@SAXAADABD@Z ; std::_Narrow_char_traits<char,int>::assign
	add	esp, 8

; 2968 :             return *this;

	mov	eax, DWORD PTR _this$[ebp]
	jmp	SHORT $LN1@append
$LN2@append:

; 2969 :         }
; 2970 : 
; 2971 :         return _Reallocate_grow_by(

	xor	eax, eax
	mov	BYTE PTR $T1[ebp], al
	movzx	ecx, BYTE PTR __Ch$[ebp]
	push	ecx
	mov	edx, DWORD PTR __Count$[ebp]
	push	edx
	movzx	eax, BYTE PTR $T1[ebp]
	push	eax
	mov	ecx, DWORD PTR __Count$[ebp]
	push	ecx
	mov	ecx, DWORD PTR _this$[ebp]
	call	??$_Reallocate_grow_by@V<lambda_c1b8c41cb4019640539cfd828748c4d4>@@ID@?$basic_string@DU?$char_traits@D@std@@V?$allocator@D@2@@std@@AAEAAV01@IV<lambda_c1b8c41cb4019640539cfd828748c4d4>@@ID@Z ; std::basic_string<char,std::char_traits<char>,std::allocator<char> >::_Reallocate_grow_by<<lambda_c1b8c41cb4019640539cfd828748c4d4>,unsigned int,char>
$LN1@append:

; 2972 :             _Count,
; 2973 :             [](_Elem* const _New_ptr, const _Elem* const _Old_ptr, const size_type _Old_size, const size_type _Count,
; 2974 :                 const _Elem _Ch) {
; 2975 :                 _Traits::copy(_New_ptr, _Old_ptr, _Old_size);
; 2976 :                 _Traits::assign(_New_ptr + _Old_size, _Count, _Ch);
; 2977 :                 _Traits::assign(_New_ptr[_Old_size + _Count], _Elem());
; 2978 :             },
; 2979 :             _Count, _Ch);
; 2980 :     }

	pop	edi
	pop	esi
	pop	ebx
	add	esp, 252				; 000000fcH
	cmp	ebp, esp
	call	__RTC_CheckEsp
	mov	esp, ebp
	pop	ebp
	ret	8
?append@?$basic_string@DU?$char_traits@D@std@@V?$allocator@D@2@@std@@QAEAAV12@ID@Z ENDP ; std::basic_string<char,std::char_traits<char>,std::allocator<char> >::append
_TEXT	ENDS
; Function compile flags: /Odtp /RTCsu /ZI
; File C:\Program Files (x86)\Microsoft Visual Studio\2019\Professional\VC\Tools\MSVC\14.28.29333\include\xstring
;	COMDAT ?append@?$basic_string@DU?$char_traits@D@std@@V?$allocator@D@2@@std@@QAEAAV12@QBD@Z
_TEXT	SEGMENT
_this$ = -8						; size = 4
__Ptr$ = 8						; size = 4
?append@?$basic_string@DU?$char_traits@D@std@@V?$allocator@D@2@@std@@QAEAAV12@QBD@Z PROC ; std::basic_string<char,std::char_traits<char>,std::allocator<char> >::append, COMDAT
; _this$ = ecx

; 2957 :     basic_string& append(_In_z_ const _Elem* const _Ptr) { // append [_Ptr, <null>)

	push	ebp
	mov	ebp, esp
	sub	esp, 204				; 000000ccH
	push	ebx
	push	esi
	push	edi
	push	ecx
	lea	edi, DWORD PTR [ebp-204]
	mov	ecx, 51					; 00000033H
	mov	eax, -858993460				; ccccccccH
	rep stosd
	pop	ecx
	mov	DWORD PTR _this$[ebp], ecx
	mov	ecx, OFFSET __C00D0CE5_xstring
	call	@__CheckForDebuggerJustMyCode@4

; 2958 :         return append(_Ptr, _Convert_size<size_type>(_Traits::length(_Ptr)));

	mov	eax, DWORD PTR __Ptr$[ebp]
	push	eax
	call	?length@?$_Narrow_char_traits@DH@std@@SAIQBD@Z ; std::_Narrow_char_traits<char,int>::length
	add	esp, 4
	push	eax
	call	??$_Convert_size@I@std@@YAII@Z		; std::_Convert_size<unsigned int>
	add	esp, 4
	push	eax
	mov	ecx, DWORD PTR __Ptr$[ebp]
	push	ecx
	mov	ecx, DWORD PTR _this$[ebp]
	call	?append@?$basic_string@DU?$char_traits@D@std@@V?$allocator@D@2@@std@@QAEAAV12@QBDI@Z ; std::basic_string<char,std::char_traits<char>,std::allocator<char> >::append

; 2959 :     }

	pop	edi
	pop	esi
	pop	ebx
	add	esp, 204				; 000000ccH
	cmp	ebp, esp
	call	__RTC_CheckEsp
	mov	esp, ebp
	pop	ebp
	ret	4
?append@?$basic_string@DU?$char_traits@D@std@@V?$allocator@D@2@@std@@QAEAAV12@QBD@Z ENDP ; std::basic_string<char,std::char_traits<char>,std::allocator<char> >::append
_TEXT	ENDS
; Function compile flags: /Odtp /RTCsu /ZI
; File C:\Program Files (x86)\Microsoft Visual Studio\2019\Professional\VC\Tools\MSVC\14.28.29333\include\xstring
;	COMDAT ?append@?$basic_string@DU?$char_traits@D@std@@V?$allocator@D@2@@std@@QAEAAV12@QBDI@Z
_TEXT	SEGMENT
$T1 = -245						; size = 1
$T2 = -233						; size = 1
__Old_ptr$3 = -32					; size = 4
__Old_size$ = -20					; size = 4
_this$ = -8						; size = 4
__Ptr$ = 8						; size = 4
__Count$ = 12						; size = 4
?append@?$basic_string@DU?$char_traits@D@std@@V?$allocator@D@2@@std@@QAEAAV12@QBDI@Z PROC ; std::basic_string<char,std::char_traits<char>,std::allocator<char> >::append, COMDAT
; _this$ = ecx

; 2935 :     basic_string& append(_In_reads_(_Count) const _Elem* const _Ptr, _CRT_GUARDOVERFLOW const size_type _Count) {

	push	ebp
	mov	ebp, esp
	sub	esp, 252				; 000000fcH
	push	ebx
	push	esi
	push	edi
	push	ecx
	lea	edi, DWORD PTR [ebp-252]
	mov	ecx, 63					; 0000003fH
	mov	eax, -858993460				; ccccccccH
	rep stosd
	pop	ecx
	mov	DWORD PTR _this$[ebp], ecx
	mov	ecx, OFFSET __C00D0CE5_xstring
	call	@__CheckForDebuggerJustMyCode@4

; 2936 :         // append [_Ptr, _Ptr + _Count)
; 2937 :         const size_type _Old_size = _Mypair._Myval2._Mysize;

	mov	eax, DWORD PTR _this$[ebp]
	mov	ecx, DWORD PTR [eax+20]
	mov	DWORD PTR __Old_size$[ebp], ecx

; 2938 :         if (_Count <= _Mypair._Myval2._Myres - _Old_size) {

	mov	eax, DWORD PTR _this$[ebp]
	mov	ecx, DWORD PTR [eax+24]
	sub	ecx, DWORD PTR __Old_size$[ebp]
	cmp	DWORD PTR __Count$[ebp], ecx
	ja	SHORT $LN2@append

; 2939 :             _Mypair._Myval2._Mysize = _Old_size + _Count;

	mov	eax, DWORD PTR __Old_size$[ebp]
	add	eax, DWORD PTR __Count$[ebp]
	mov	ecx, DWORD PTR _this$[ebp]
	mov	DWORD PTR [ecx+20], eax

; 2940 :             _Elem* const _Old_ptr   = _Mypair._Myval2._Myptr();

	mov	ecx, DWORD PTR _this$[ebp]
	call	?_Myptr@?$_String_val@U?$_Simple_types@D@std@@@std@@QAEPADXZ ; std::_String_val<std::_Simple_types<char> >::_Myptr
	mov	DWORD PTR __Old_ptr$3[ebp], eax

; 2941 :             _Traits::move(_Old_ptr + _Old_size, _Ptr, _Count);

	mov	eax, DWORD PTR __Count$[ebp]
	push	eax
	mov	ecx, DWORD PTR __Ptr$[ebp]
	push	ecx
	mov	edx, DWORD PTR __Old_ptr$3[ebp]
	add	edx, DWORD PTR __Old_size$[ebp]
	push	edx
	call	?move@?$_Char_traits@DH@std@@SAPADQADQBDI@Z ; std::_Char_traits<char,int>::move
	add	esp, 12					; 0000000cH

; 2942 :             _Traits::assign(_Old_ptr[_Old_size + _Count], _Elem());

	mov	BYTE PTR $T2[ebp], 0
	lea	eax, DWORD PTR $T2[ebp]
	push	eax
	mov	ecx, DWORD PTR __Old_size$[ebp]
	add	ecx, DWORD PTR __Count$[ebp]
	add	ecx, DWORD PTR __Old_ptr$3[ebp]
	push	ecx
	call	?assign@?$_Narrow_char_traits@DH@std@@SAXAADABD@Z ; std::_Narrow_char_traits<char,int>::assign
	add	esp, 8

; 2943 :             return *this;

	mov	eax, DWORD PTR _this$[ebp]
	jmp	SHORT $LN1@append
$LN2@append:

; 2944 :         }
; 2945 : 
; 2946 :         return _Reallocate_grow_by(

	xor	eax, eax
	mov	BYTE PTR $T1[ebp], al
	mov	ecx, DWORD PTR __Count$[ebp]
	push	ecx
	mov	edx, DWORD PTR __Ptr$[ebp]
	push	edx
	movzx	eax, BYTE PTR $T1[ebp]
	push	eax
	mov	ecx, DWORD PTR __Count$[ebp]
	push	ecx
	mov	ecx, DWORD PTR _this$[ebp]
	call	??$_Reallocate_grow_by@V<lambda_ab246b20b9526e2ef7792587e4298a77>@@PBDI@?$basic_string@DU?$char_traits@D@std@@V?$allocator@D@2@@std@@AAEAAV01@IV<lambda_ab246b20b9526e2ef7792587e4298a77>@@PBDI@Z ; std::basic_string<char,std::char_traits<char>,std::allocator<char> >::_Reallocate_grow_by<<lambda_ab246b20b9526e2ef7792587e4298a77>,char const *,unsigned int>
$LN1@append:

; 2947 :             _Count,
; 2948 :             [](_Elem* const _New_ptr, const _Elem* const _Old_ptr, const size_type _Old_size, const _Elem* const _Ptr,
; 2949 :                 const size_type _Count) {
; 2950 :                 _Traits::copy(_New_ptr, _Old_ptr, _Old_size);
; 2951 :                 _Traits::copy(_New_ptr + _Old_size, _Ptr, _Count);
; 2952 :                 _Traits::assign(_New_ptr[_Old_size + _Count], _Elem());
; 2953 :             },
; 2954 :             _Ptr, _Count);
; 2955 :     }

	pop	edi
	pop	esi
	pop	ebx
	add	esp, 252				; 000000fcH
	cmp	ebp, esp
	call	__RTC_CheckEsp
	mov	esp, ebp
	pop	ebp
	ret	8
?append@?$basic_string@DU?$char_traits@D@std@@V?$allocator@D@2@@std@@QAEAAV12@QBDI@Z ENDP ; std::basic_string<char,std::char_traits<char>,std::allocator<char> >::append
_TEXT	ENDS
; Function compile flags: /Odtp /RTCsu /ZI
; File C:\Program Files (x86)\Microsoft Visual Studio\2019\Professional\VC\Tools\MSVC\14.28.29333\include\xstring
;	COMDAT ?append@?$basic_string@DU?$char_traits@D@std@@V?$allocator@D@2@@std@@QAEAAV12@ABV12@@Z
_TEXT	SEGMENT
tv76 = -212						; size = 4
tv78 = -208						; size = 4
_this$ = -8						; size = 4
__Right$ = 8						; size = 4
?append@?$basic_string@DU?$char_traits@D@std@@V?$allocator@D@2@@std@@QAEAAV12@ABV12@@Z PROC ; std::basic_string<char,std::char_traits<char>,std::allocator<char> >::append, COMDAT
; _this$ = ecx

; 2909 :     basic_string& append(const basic_string& _Right) {

	push	ebp
	mov	ebp, esp
	sub	esp, 212				; 000000d4H
	push	ebx
	push	esi
	push	edi
	push	ecx
	lea	edi, DWORD PTR [ebp-212]
	mov	ecx, 53					; 00000035H
	mov	eax, -858993460				; ccccccccH
	rep stosd
	pop	ecx
	mov	DWORD PTR _this$[ebp], ecx
	mov	ecx, OFFSET __C00D0CE5_xstring
	call	@__CheckForDebuggerJustMyCode@4

; 2910 :         return append(_Right._Mypair._Myval2._Myptr(), _Right._Mypair._Myval2._Mysize);

	mov	eax, DWORD PTR __Right$[ebp]
	mov	ecx, DWORD PTR [eax+20]
	mov	DWORD PTR tv78[ebp], ecx
	mov	ecx, DWORD PTR __Right$[ebp]
	call	?_Myptr@?$_String_val@U?$_Simple_types@D@std@@@std@@QBEPBDXZ ; std::_String_val<std::_Simple_types<char> >::_Myptr
	mov	DWORD PTR tv76[ebp], eax
	mov	edx, DWORD PTR tv78[ebp]
	push	edx
	mov	eax, DWORD PTR tv76[ebp]
	push	eax
	mov	ecx, DWORD PTR _this$[ebp]
	call	?append@?$basic_string@DU?$char_traits@D@std@@V?$allocator@D@2@@std@@QAEAAV12@QBDI@Z ; std::basic_string<char,std::char_traits<char>,std::allocator<char> >::append

; 2911 :     }

	pop	edi
	pop	esi
	pop	ebx
	add	esp, 212				; 000000d4H
	cmp	ebp, esp
	call	__RTC_CheckEsp
	mov	esp, ebp
	pop	ebp
	ret	4
?append@?$basic_string@DU?$char_traits@D@std@@V?$allocator@D@2@@std@@QAEAAV12@ABV12@@Z ENDP ; std::basic_string<char,std::char_traits<char>,std::allocator<char> >::append
_TEXT	ENDS
; Function compile flags: /Odtp /RTCsu /ZI
; File C:\Program Files (x86)\Microsoft Visual Studio\2019\Professional\VC\Tools\MSVC\14.28.29333\include\xstring
;	COMDAT ??Y?$basic_string@DU?$char_traits@D@std@@V?$allocator@D@2@@std@@QAEAAV01@D@Z
_TEXT	SEGMENT
_this$ = -8						; size = 4
__Ch$ = 8						; size = 1
??Y?$basic_string@DU?$char_traits@D@std@@V?$allocator@D@2@@std@@QAEAAV01@D@Z PROC ; std::basic_string<char,std::char_traits<char>,std::allocator<char> >::operator+=, COMDAT
; _this$ = ecx

; 2904 :     basic_string& operator+=(_Elem _Ch) {

	push	ebp
	mov	ebp, esp
	sub	esp, 204				; 000000ccH
	push	ebx
	push	esi
	push	edi
	push	ecx
	lea	edi, DWORD PTR [ebp-204]
	mov	ecx, 51					; 00000033H
	mov	eax, -858993460				; ccccccccH
	rep stosd
	pop	ecx
	mov	DWORD PTR _this$[ebp], ecx
	mov	ecx, OFFSET __C00D0CE5_xstring
	call	@__CheckForDebuggerJustMyCode@4

; 2905 :         push_back(_Ch);

	movzx	eax, BYTE PTR __Ch$[ebp]
	push	eax
	mov	ecx, DWORD PTR _this$[ebp]
	call	?push_back@?$basic_string@DU?$char_traits@D@std@@V?$allocator@D@2@@std@@QAEXD@Z ; std::basic_string<char,std::char_traits<char>,std::allocator<char> >::push_back

; 2906 :         return *this;

	mov	eax, DWORD PTR _this$[ebp]

; 2907 :     }

	pop	edi
	pop	esi
	pop	ebx
	add	esp, 204				; 000000ccH
	cmp	ebp, esp
	call	__RTC_CheckEsp
	mov	esp, ebp
	pop	ebp
	ret	4
??Y?$basic_string@DU?$char_traits@D@std@@V?$allocator@D@2@@std@@QAEAAV01@D@Z ENDP ; std::basic_string<char,std::char_traits<char>,std::allocator<char> >::operator+=
_TEXT	ENDS
; Function compile flags: /Odtp /RTCsu /ZI
; File C:\Program Files (x86)\Microsoft Visual Studio\2019\Professional\VC\Tools\MSVC\14.28.29333\include\xstring
;	COMDAT ??Y?$basic_string@DU?$char_traits@D@std@@V?$allocator@D@2@@std@@QAEAAV01@ABV01@@Z
_TEXT	SEGMENT
_this$ = -8						; size = 4
__Right$ = 8						; size = 4
??Y?$basic_string@DU?$char_traits@D@std@@V?$allocator@D@2@@std@@QAEAAV01@ABV01@@Z PROC ; std::basic_string<char,std::char_traits<char>,std::allocator<char> >::operator+=, COMDAT
; _this$ = ecx

; 2889 :     basic_string& operator+=(const basic_string& _Right) {

	push	ebp
	mov	ebp, esp
	sub	esp, 204				; 000000ccH
	push	ebx
	push	esi
	push	edi
	push	ecx
	lea	edi, DWORD PTR [ebp-204]
	mov	ecx, 51					; 00000033H
	mov	eax, -858993460				; ccccccccH
	rep stosd
	pop	ecx
	mov	DWORD PTR _this$[ebp], ecx
	mov	ecx, OFFSET __C00D0CE5_xstring
	call	@__CheckForDebuggerJustMyCode@4

; 2890 :         return append(_Right);

	mov	eax, DWORD PTR __Right$[ebp]
	push	eax
	mov	ecx, DWORD PTR _this$[ebp]
	call	?append@?$basic_string@DU?$char_traits@D@std@@V?$allocator@D@2@@std@@QAEAAV12@ABV12@@Z ; std::basic_string<char,std::char_traits<char>,std::allocator<char> >::append

; 2891 :     }

	pop	edi
	pop	esi
	pop	ebx
	add	esp, 204				; 000000ccH
	cmp	ebp, esp
	call	__RTC_CheckEsp
	mov	esp, ebp
	pop	ebp
	ret	4
??Y?$basic_string@DU?$char_traits@D@std@@V?$allocator@D@2@@std@@QAEAAV01@ABV01@@Z ENDP ; std::basic_string<char,std::char_traits<char>,std::allocator<char> >::operator+=
_TEXT	ENDS
; Function compile flags: /Odtp /RTCsu /ZI
; File C:\Program Files (x86)\Microsoft Visual Studio\2019\Professional\VC\Tools\MSVC\14.28.29333\include\xstring
;	COMDAT ??1?$basic_string@DU?$char_traits@D@std@@V?$allocator@D@2@@std@@QAE@XZ
_TEXT	SEGMENT
__To_delete$ = -48					; size = 4
_$S13$ = -33						; size = 1
__Alproxy$ = -24					; size = 4
_this$ = -12						; size = 4
__$ArrayPad$ = -4					; size = 4
??1?$basic_string@DU?$char_traits@D@std@@V?$allocator@D@2@@std@@QAE@XZ PROC ; std::basic_string<char,std::char_traits<char>,std::allocator<char> >::~basic_string<char,std::char_traits<char>,std::allocator<char> >, COMDAT
; _this$ = ecx

; 2800 :     ~basic_string() noexcept {

	push	ebp
	mov	ebp, esp
	sub	esp, 244				; 000000f4H
	push	ebx
	push	esi
	push	edi
	push	ecx
	lea	edi, DWORD PTR [ebp-244]
	mov	ecx, 61					; 0000003dH
	mov	eax, -858993460				; ccccccccH
	rep stosd
	pop	ecx
	mov	eax, DWORD PTR ___security_cookie
	xor	eax, ebp
	mov	DWORD PTR __$ArrayPad$[ebp], eax
	mov	DWORD PTR _this$[ebp], ecx
	mov	ecx, OFFSET __C00D0CE5_xstring
	call	@__CheckForDebuggerJustMyCode@4

; 2801 :         _Tidy_deallocate();

	mov	ecx, DWORD PTR _this$[ebp]
	call	?_Tidy_deallocate@?$basic_string@DU?$char_traits@D@std@@V?$allocator@D@2@@std@@AAEXXZ ; std::basic_string<char,std::char_traits<char>,std::allocator<char> >::_Tidy_deallocate

; 2802 : #if _ITERATOR_DEBUG_LEVEL != 0
; 2803 :         auto&& _Alproxy          = _GET_PROXY_ALLOCATOR(_Alty, _Getal());

	mov	ecx, DWORD PTR _this$[ebp]
	call	?_Getal@?$basic_string@DU?$char_traits@D@std@@V?$allocator@D@2@@std@@AAEAAV?$allocator@D@2@XZ ; std::basic_string<char,std::char_traits<char>,std::allocator<char> >::_Getal
	push	eax
	lea	ecx, DWORD PTR _$S13$[ebp]
	call	??$?0D@?$allocator@U_Container_proxy@std@@@std@@QAE@ABV?$allocator@D@1@@Z ; std::allocator<std::_Container_proxy>::allocator<std::_Container_proxy><char>
	lea	eax, DWORD PTR _$S13$[ebp]
	mov	DWORD PTR __Alproxy$[ebp], eax

; 2804 :         const auto _To_delete    = _Mypair._Myval2._Myproxy;

	mov	eax, DWORD PTR _this$[ebp]
	mov	ecx, DWORD PTR [eax]
	mov	DWORD PTR __To_delete$[ebp], ecx

; 2805 :         _Mypair._Myval2._Myproxy = nullptr;

	mov	eax, DWORD PTR _this$[ebp]
	mov	DWORD PTR [eax], 0

; 2806 :         _Delete_plain_internal(_Alproxy, _To_delete);

	mov	eax, DWORD PTR __To_delete$[ebp]
	push	eax
	mov	ecx, DWORD PTR __Alproxy$[ebp]
	push	ecx
	call	??$_Delete_plain_internal@V?$allocator@U_Container_proxy@std@@@std@@@std@@YAXAAV?$allocator@U_Container_proxy@std@@@0@QAU_Container_proxy@0@@Z ; std::_Delete_plain_internal<std::allocator<std::_Container_proxy> >
	add	esp, 8

; 2807 : #endif // _ITERATOR_DEBUG_LEVEL != 0
; 2808 :     }

	mov	ecx, DWORD PTR _this$[ebp]
	call	??1?$_Compressed_pair@V?$allocator@D@std@@V?$_String_val@U?$_Simple_types@D@std@@@2@$00@std@@QAE@XZ
	push	edx
	mov	ecx, ebp
	push	eax
	lea	edx, DWORD PTR $LN5@basic_stri
	call	@_RTC_CheckStackVars@8
	pop	eax
	pop	edx
	pop	edi
	pop	esi
	pop	ebx
	mov	ecx, DWORD PTR __$ArrayPad$[ebp]
	xor	ecx, ebp
	call	@__security_check_cookie@4
	add	esp, 244				; 000000f4H
	cmp	ebp, esp
	call	__RTC_CheckEsp
	mov	esp, ebp
	pop	ebp
	ret	0
	npad	2
$LN5@basic_stri:
	DD	1
	DD	$LN4@basic_stri
$LN4@basic_stri:
	DD	-33					; ffffffdfH
	DD	1
	DD	$LN3@basic_stri
$LN3@basic_stri:
	DB	36					; 00000024H
	DB	83					; 00000053H
	DB	49					; 00000031H
	DB	51					; 00000033H
	DB	0
??1?$basic_string@DU?$char_traits@D@std@@V?$allocator@D@2@@std@@QAE@XZ ENDP ; std::basic_string<char,std::char_traits<char>,std::allocator<char> >::~basic_string<char,std::char_traits<char>,std::allocator<char> >
_TEXT	ENDS
; Function compile flags: /Odtp /RTCsu /ZI
; File C:\Program Files (x86)\Microsoft Visual Studio\2019\Professional\VC\Tools\MSVC\14.28.29333\include\xstring
;	COMDAT ?_Construct_lv_contents@?$basic_string@DU?$char_traits@D@std@@V?$allocator@D@2@@std@@AAEXABV12@@Z
_TEXT	SEGMENT
$T1 = -312						; size = 4
$T2 = -300						; size = 4
__New_array$ = -96					; size = 4
__New_capacity$ = -84					; size = 4
__Al$ = -72						; size = 4
__My_data$ = -60					; size = 4
__Right_ptr$ = -48					; size = 4
__Right_size$ = -36					; size = 4
__Right_data$ = -24					; size = 4
_this$ = -12						; size = 4
__$ArrayPad$ = -4					; size = 4
__Right$ = 8						; size = 4
?_Construct_lv_contents@?$basic_string@DU?$char_traits@D@std@@V?$allocator@D@2@@std@@AAEXABV12@@Z PROC ; std::basic_string<char,std::char_traits<char>,std::allocator<char> >::_Construct_lv_contents, COMDAT
; _this$ = ecx

; 2728 :     void _Construct_lv_contents(const basic_string& _Right) {

	push	ebp
	mov	ebp, esp
	sub	esp, 316				; 0000013cH
	push	ebx
	push	esi
	push	edi
	push	ecx
	lea	edi, DWORD PTR [ebp-316]
	mov	ecx, 79					; 0000004fH
	mov	eax, -858993460				; ccccccccH
	rep stosd
	pop	ecx
	mov	eax, DWORD PTR ___security_cookie
	xor	eax, ebp
	mov	DWORD PTR __$ArrayPad$[ebp], eax
	mov	DWORD PTR _this$[ebp], ecx
	mov	ecx, OFFSET __C00D0CE5_xstring
	call	@__CheckForDebuggerJustMyCode@4

; 2729 :         // assign by copying data stored in _Right
; 2730 :         // pre: this != &_Right
; 2731 :         // pre: *this owns no memory, iterators orphaned (note:
; 2732 :         // _Buf/_Ptr/_Mysize/_Myres may be garbage init)
; 2733 :         auto& _Right_data             = _Right._Mypair._Myval2;

	mov	eax, DWORD PTR __Right$[ebp]
	mov	DWORD PTR __Right_data$[ebp], eax

; 2734 :         const size_type _Right_size   = _Right_data._Mysize;

	mov	eax, DWORD PTR __Right_data$[ebp]
	mov	ecx, DWORD PTR [eax+20]
	mov	DWORD PTR __Right_size$[ebp], ecx

; 2735 :         const _Elem* const _Right_ptr = _Right_data._Myptr();

	mov	ecx, DWORD PTR __Right_data$[ebp]
	call	?_Myptr@?$_String_val@U?$_Simple_types@D@std@@@std@@QBEPBDXZ ; std::_String_val<std::_Simple_types<char> >::_Myptr
	mov	DWORD PTR __Right_ptr$[ebp], eax

; 2736 :         auto& _My_data                = _Mypair._Myval2;

	mov	eax, DWORD PTR _this$[ebp]
	mov	DWORD PTR __My_data$[ebp], eax

; 2737 :         if (_Right_size < _BUF_SIZE) { // stay small, don't allocate

	cmp	DWORD PTR __Right_size$[ebp], 16	; 00000010H
	jae	SHORT $LN2@Construct_

; 2738 :             _Traits::copy(_My_data._Bx._Buf, _Right_ptr, _BUF_SIZE);

	push	16					; 00000010H
	mov	eax, DWORD PTR __Right_ptr$[ebp]
	push	eax
	mov	ecx, DWORD PTR __My_data$[ebp]
	add	ecx, 4
	push	ecx
	call	?copy@?$_Char_traits@DH@std@@SAPADQADQBDI@Z ; std::_Char_traits<char,int>::copy
	add	esp, 12					; 0000000cH

; 2739 :             _My_data._Mysize = _Right_size;

	mov	eax, DWORD PTR __My_data$[ebp]
	mov	ecx, DWORD PTR __Right_size$[ebp]
	mov	DWORD PTR [eax+20], ecx

; 2740 :             _My_data._Myres  = _BUF_SIZE - 1;

	mov	eax, DWORD PTR __My_data$[ebp]
	mov	DWORD PTR [eax+24], 15			; 0000000fH

; 2741 :             return;

	jmp	$LN1@Construct_
$LN2@Construct_:

; 2742 :         }
; 2743 : 
; 2744 :         auto& _Al                     = _Getal();

	mov	ecx, DWORD PTR _this$[ebp]
	call	?_Getal@?$basic_string@DU?$char_traits@D@std@@V?$allocator@D@2@@std@@AAEAAV?$allocator@D@2@XZ ; std::basic_string<char,std::char_traits<char>,std::allocator<char> >::_Getal
	mov	DWORD PTR __Al$[ebp], eax

; 2745 :         const size_type _New_capacity = (_STD min)(_Right_size | _ALLOC_MASK, max_size());

	mov	ecx, DWORD PTR _this$[ebp]
	call	?max_size@?$basic_string@DU?$char_traits@D@std@@V?$allocator@D@2@@std@@QBEIXZ ; std::basic_string<char,std::char_traits<char>,std::allocator<char> >::max_size
	mov	DWORD PTR $T2[ebp], eax
	mov	eax, DWORD PTR __Right_size$[ebp]
	or	eax, 15					; 0000000fH
	mov	DWORD PTR $T1[ebp], eax
	lea	ecx, DWORD PTR $T2[ebp]
	push	ecx
	lea	edx, DWORD PTR $T1[ebp]
	push	edx
	call	??$min@I@std@@YAABIABI0@Z		; std::min<unsigned int>
	add	esp, 8
	mov	eax, DWORD PTR [eax]
	mov	DWORD PTR __New_capacity$[ebp], eax

; 2746 :         const pointer _New_array      = _Al.allocate(_New_capacity + 1); // throws

	mov	eax, DWORD PTR __New_capacity$[ebp]
	add	eax, 1
	push	eax
	mov	ecx, DWORD PTR __Al$[ebp]
	call	?allocate@?$allocator@D@std@@QAEPADI@Z	; std::allocator<char>::allocate
	mov	DWORD PTR __New_array$[ebp], eax

; 2747 :         _Construct_in_place(_My_data._Bx._Ptr, _New_array);

	lea	eax, DWORD PTR __New_array$[ebp]
	push	eax
	mov	ecx, DWORD PTR __My_data$[ebp]
	add	ecx, 4
	push	ecx
	call	??$_Construct_in_place@PADABQAD@std@@YAXAAPADABQAD@Z ; std::_Construct_in_place<char *,char * const &>
	add	esp, 8

; 2748 :         _Traits::copy(_Unfancy(_New_array), _Right_ptr, _Right_size + 1);

	mov	eax, DWORD PTR __Right_size$[ebp]
	add	eax, 1
	push	eax
	mov	ecx, DWORD PTR __Right_ptr$[ebp]
	push	ecx
	mov	edx, DWORD PTR __New_array$[ebp]
	push	edx
	call	??$_Unfancy@D@std@@YAPADPAD@Z		; std::_Unfancy<char>
	add	esp, 4
	push	eax
	call	?copy@?$_Char_traits@DH@std@@SAPADQADQBDI@Z ; std::_Char_traits<char,int>::copy
	add	esp, 12					; 0000000cH

; 2749 :         _My_data._Mysize = _Right_size;

	mov	eax, DWORD PTR __My_data$[ebp]
	mov	ecx, DWORD PTR __Right_size$[ebp]
	mov	DWORD PTR [eax+20], ecx

; 2750 :         _My_data._Myres  = _New_capacity;

	mov	eax, DWORD PTR __My_data$[ebp]
	mov	ecx, DWORD PTR __New_capacity$[ebp]
	mov	DWORD PTR [eax+24], ecx
$LN1@Construct_:

; 2751 :     }

	push	edx
	mov	ecx, ebp
	push	eax
	lea	edx, DWORD PTR $LN6@Construct_
	call	@_RTC_CheckStackVars@8
	pop	eax
	pop	edx
	pop	edi
	pop	esi
	pop	ebx
	mov	ecx, DWORD PTR __$ArrayPad$[ebp]
	xor	ecx, ebp
	call	@__security_check_cookie@4
	add	esp, 316				; 0000013cH
	cmp	ebp, esp
	call	__RTC_CheckEsp
	mov	esp, ebp
	pop	ebp
	ret	4
	npad	2
$LN6@Construct_:
	DD	1
	DD	$LN5@Construct_
$LN5@Construct_:
	DD	-96					; ffffffa0H
	DD	4
	DD	$LN4@Construct_
$LN4@Construct_:
	DB	95					; 0000005fH
	DB	78					; 0000004eH
	DB	101					; 00000065H
	DB	119					; 00000077H
	DB	95					; 0000005fH
	DB	97					; 00000061H
	DB	114					; 00000072H
	DB	114					; 00000072H
	DB	97					; 00000061H
	DB	121					; 00000079H
	DB	0
?_Construct_lv_contents@?$basic_string@DU?$char_traits@D@std@@V?$allocator@D@2@@std@@AAEXABV12@@Z ENDP ; std::basic_string<char,std::char_traits<char>,std::allocator<char> >::_Construct_lv_contents
_TEXT	ENDS
; Function compile flags: /Odtp /RTCsu /ZI
; File C:\Program Files (x86)\Microsoft Visual Studio\2019\Professional\VC\Tools\MSVC\14.28.29333\include\xstring
;	COMDAT ?_Take_contents@?$basic_string@DU?$char_traits@D@std@@V?$allocator@D@2@@std@@AAEXAAV12@U?$integral_constant@_N$00@2@@Z
_TEXT	SEGMENT
_this$ = -20						; size = 4
__$EHRec$ = -12						; size = 12
__Right$ = 8						; size = 4
___formal$ = 12						; size = 1
?_Take_contents@?$basic_string@DU?$char_traits@D@std@@V?$allocator@D@2@@std@@AAEXAAV12@U?$integral_constant@_N$00@2@@Z PROC ; std::basic_string<char,std::char_traits<char>,std::allocator<char> >::_Take_contents, COMDAT
; _this$ = ecx

; 2687 :     void _Take_contents(basic_string& _Right, true_type) noexcept {

	push	ebp
	mov	ebp, esp
	push	-1
	push	__ehhandler$?_Take_contents@?$basic_string@DU?$char_traits@D@std@@V?$allocator@D@2@@std@@AAEXAAV12@U?$integral_constant@_N$00@2@@Z
	mov	eax, DWORD PTR fs:0
	push	eax
	sub	esp, 204				; 000000ccH
	push	ebx
	push	esi
	push	edi
	push	ecx
	lea	edi, DWORD PTR [ebp-216]
	mov	ecx, 51					; 00000033H
	mov	eax, -858993460				; ccccccccH
	rep stosd
	pop	ecx
	mov	eax, DWORD PTR ___security_cookie
	xor	eax, ebp
	push	eax
	lea	eax, DWORD PTR __$EHRec$[ebp]
	mov	DWORD PTR fs:0, eax
	mov	DWORD PTR _this$[ebp], ecx
	mov	ecx, OFFSET __C00D0CE5_xstring
	call	@__CheckForDebuggerJustMyCode@4

; 2688 :         // assign by stealing _Right's buffer, memcpy optimization
; 2689 :         // pre: this != &_Right
; 2690 :         // pre: allocator propagation (POCMA) from _Right, if necessary, is complete
; 2691 :         // pre: *this owns no memory, iterators orphaned (note:
; 2692 :         // _Buf/_Ptr/_Mysize/_Myres may be garbage init)
; 2693 : #if _ITERATOR_DEBUG_LEVEL != 0
; 2694 :         if (_Right._Mypair._Myval2._Large_string_engaged()) {

	mov	ecx, DWORD PTR __Right$[ebp]
	call	?_Large_string_engaged@?$_String_val@U?$_Simple_types@D@std@@@std@@QBE_NXZ ; std::_String_val<std::_Simple_types<char> >::_Large_string_engaged
	movzx	eax, al
	test	eax, eax
	je	SHORT $LN2@Take_conte

; 2695 :             // take ownership of _Right's iterators along with its buffer
; 2696 :             _Swap_proxy_and_iterators(_Right);

	mov	eax, DWORD PTR __Right$[ebp]
	push	eax
	mov	ecx, DWORD PTR _this$[ebp]
	call	?_Swap_proxy_and_iterators@?$basic_string@DU?$char_traits@D@std@@V?$allocator@D@2@@std@@AAEXAAV12@@Z ; std::basic_string<char,std::char_traits<char>,std::allocator<char> >::_Swap_proxy_and_iterators

; 2697 :         } else {

	jmp	SHORT $LN3@Take_conte
$LN2@Take_conte:

; 2698 :             _Right._Mypair._Myval2._Orphan_all();

	mov	ecx, DWORD PTR __Right$[ebp]
	call	?_Orphan_all@_Container_base12@std@@QAEXXZ ; std::_Container_base12::_Orphan_all
$LN3@Take_conte:

; 2699 :         }
; 2700 : #endif // _ITERATOR_DEBUG_LEVEL != 0
; 2701 : 
; 2702 :         _Memcpy_val_from(_Right);

	mov	eax, DWORD PTR __Right$[ebp]
	push	eax
	mov	ecx, DWORD PTR _this$[ebp]
	call	?_Memcpy_val_from@?$basic_string@DU?$char_traits@D@std@@V?$allocator@D@2@@std@@AAEXABV12@@Z ; std::basic_string<char,std::char_traits<char>,std::allocator<char> >::_Memcpy_val_from

; 2703 :         _Right._Tidy_init();

	mov	ecx, DWORD PTR __Right$[ebp]
	call	?_Tidy_init@?$basic_string@DU?$char_traits@D@std@@V?$allocator@D@2@@std@@AAEXXZ ; std::basic_string<char,std::char_traits<char>,std::allocator<char> >::_Tidy_init

; 2704 :     }

	mov	ecx, DWORD PTR __$EHRec$[ebp]
	mov	DWORD PTR fs:0, ecx
	pop	ecx
	pop	edi
	pop	esi
	pop	ebx
	add	esp, 216				; 000000d8H
	cmp	ebp, esp
	call	__RTC_CheckEsp
	mov	esp, ebp
	pop	ebp
	ret	8
	int	3
	int	3
	int	3
	int	3
	int	3
_TEXT	ENDS
;	COMDAT text$x
text$x	SEGMENT
__ehhandler$?_Take_contents@?$basic_string@DU?$char_traits@D@std@@V?$allocator@D@2@@std@@AAEXAAV12@U?$integral_constant@_N$00@2@@Z:
	npad	1
	npad	1
	mov	edx, DWORD PTR [esp+8]
	lea	eax, DWORD PTR [edx+12]
	mov	ecx, DWORD PTR [edx-220]
	xor	ecx, eax
	call	@__security_check_cookie@4
	mov	eax, OFFSET __ehfuncinfo$?_Take_contents@?$basic_string@DU?$char_traits@D@std@@V?$allocator@D@2@@std@@AAEXAAV12@U?$integral_constant@_N$00@2@@Z
	jmp	___CxxFrameHandler3
text$x	ENDS
?_Take_contents@?$basic_string@DU?$char_traits@D@std@@V?$allocator@D@2@@std@@AAEXAAV12@U?$integral_constant@_N$00@2@@Z ENDP ; std::basic_string<char,std::char_traits<char>,std::allocator<char> >::_Take_contents
; Function compile flags: /Odtp /RTCsu /ZI
; File C:\Program Files (x86)\Microsoft Visual Studio\2019\Professional\VC\Tools\MSVC\14.28.29333\include\xstring
;	COMDAT ?_Memcpy_val_from@?$basic_string@DU?$char_traits@D@std@@V?$allocator@D@2@@std@@AAEXABV12@@Z
_TEXT	SEGMENT
__Right_data_mem$ = -32					; size = 4
__My_data_mem$ = -20					; size = 4
_this$ = -8						; size = 4
__Right$ = 8						; size = 4
?_Memcpy_val_from@?$basic_string@DU?$char_traits@D@std@@V?$allocator@D@2@@std@@AAEXABV12@@Z PROC ; std::basic_string<char,std::char_traits<char>,std::allocator<char> >::_Memcpy_val_from, COMDAT
; _this$ = ecx

; 2678 :     void _Memcpy_val_from(const basic_string& _Right) noexcept {

	push	ebp
	mov	ebp, esp
	sub	esp, 228				; 000000e4H
	push	ebx
	push	esi
	push	edi
	push	ecx
	lea	edi, DWORD PTR [ebp-228]
	mov	ecx, 57					; 00000039H
	mov	eax, -858993460				; ccccccccH
	rep stosd
	pop	ecx
	mov	DWORD PTR _this$[ebp], ecx
	mov	ecx, OFFSET __C00D0CE5_xstring
	call	@__CheckForDebuggerJustMyCode@4

; 2679 :         _STL_INTERNAL_CHECK(_Can_memcpy_val); // TRANSITION, if constexpr
; 2680 :         const auto _My_data_mem =

	mov	eax, DWORD PTR _this$[ebp]
	push	eax
	call	??$addressof@V?$_String_val@U?$_Simple_types@D@std@@@std@@@std@@YAPAV?$_String_val@U?$_Simple_types@D@std@@@0@AAV10@@Z ; std::addressof<std::_String_val<std::_Simple_types<char> > >
	add	esp, 4
	add	eax, 4
	mov	DWORD PTR __My_data_mem$[ebp], eax

; 2681 :             reinterpret_cast<unsigned char*>(_STD addressof(_Mypair._Myval2)) + _Memcpy_val_offset;
; 2682 :         const auto _Right_data_mem =

	mov	eax, DWORD PTR __Right$[ebp]
	push	eax
	call	??$addressof@$$CBV?$_String_val@U?$_Simple_types@D@std@@@std@@@std@@YAPBV?$_String_val@U?$_Simple_types@D@std@@@0@ABV10@@Z ; std::addressof<std::_String_val<std::_Simple_types<char> > const >
	add	esp, 4
	add	eax, 4
	mov	DWORD PTR __Right_data_mem$[ebp], eax

; 2683 :             reinterpret_cast<const unsigned char*>(_STD addressof(_Right._Mypair._Myval2)) + _Memcpy_val_offset;
; 2684 :         _CSTD memcpy(_My_data_mem, _Right_data_mem, _Memcpy_val_size);

	push	24					; 00000018H
	mov	eax, DWORD PTR __Right_data_mem$[ebp]
	push	eax
	mov	ecx, DWORD PTR __My_data_mem$[ebp]
	push	ecx
	call	_memcpy
	add	esp, 12					; 0000000cH

; 2685 :     }

	pop	edi
	pop	esi
	pop	ebx
	add	esp, 228				; 000000e4H
	cmp	ebp, esp
	call	__RTC_CheckEsp
	mov	esp, ebp
	pop	ebp
	ret	4
?_Memcpy_val_from@?$basic_string@DU?$char_traits@D@std@@V?$allocator@D@2@@std@@AAEXABV12@@Z ENDP ; std::basic_string<char,std::char_traits<char>,std::allocator<char> >::_Memcpy_val_from
_TEXT	ENDS
; Function compile flags: /Odtp /RTCsu /ZI
; File C:\Program Files (x86)\Microsoft Visual Studio\2019\Professional\VC\Tools\MSVC\14.28.29333\include\xstring
;	COMDAT ??0?$basic_string@DU?$char_traits@D@std@@V?$allocator@D@2@@std@@QAE@$$QAV01@@Z
_TEXT	SEGMENT
tv75 = -272						; size = 4
tv94 = -268						; size = 4
tv77 = -268						; size = 4
$T2 = -257						; size = 1
$T3 = -245						; size = 1
$T4 = -233						; size = 1
$T5 = -221						; size = 1
_this$ = -20						; size = 4
__$EHRec$ = -12						; size = 12
__Right$ = 8						; size = 4
??0?$basic_string@DU?$char_traits@D@std@@V?$allocator@D@2@@std@@QAE@$$QAV01@@Z PROC ; std::basic_string<char,std::char_traits<char>,std::allocator<char> >::basic_string<char,std::char_traits<char>,std::allocator<char> >, COMDAT
; _this$ = ecx

; 2496 :     basic_string(basic_string&& _Right) noexcept : _Mypair(_One_then_variadic_args_t{}, _STD move(_Right._Getal())) {

	push	ebp
	mov	ebp, esp
	push	-1
	push	__ehhandler$??0?$basic_string@DU?$char_traits@D@std@@V?$allocator@D@2@@std@@QAE@$$QAV01@@Z
	mov	eax, DWORD PTR fs:0
	push	eax
	sub	esp, 260				; 00000104H
	push	ebx
	push	esi
	push	edi
	push	ecx
	lea	edi, DWORD PTR [ebp-272]
	mov	ecx, 65					; 00000041H
	mov	eax, -858993460				; ccccccccH
	rep stosd
	pop	ecx
	mov	eax, DWORD PTR ___security_cookie
	xor	eax, ebp
	push	eax
	lea	eax, DWORD PTR __$EHRec$[ebp]
	mov	DWORD PTR fs:0, eax
	mov	DWORD PTR _this$[ebp], ecx
	mov	ecx, OFFSET __C00D0CE5_xstring
	call	@__CheckForDebuggerJustMyCode@4
	mov	eax, DWORD PTR _this$[ebp]
	mov	DWORD PTR tv77[ebp], eax
	mov	ecx, DWORD PTR __Right$[ebp]
	call	?_Getal@?$basic_string@DU?$char_traits@D@std@@V?$allocator@D@2@@std@@AAEAAV?$allocator@D@2@XZ ; std::basic_string<char,std::char_traits<char>,std::allocator<char> >::_Getal
	push	eax
	call	??$move@AAV?$allocator@D@std@@@std@@YA$$QAV?$allocator@D@0@AAV10@@Z ; std::move<std::allocator<char> &>
	add	esp, 4
	mov	DWORD PTR tv75[ebp], eax
	mov	cl, BYTE PTR $T5[ebp]
	mov	BYTE PTR $T4[ebp], cl
	mov	edx, DWORD PTR tv75[ebp]
	push	edx
	movzx	eax, BYTE PTR $T4[ebp]
	push	eax
	mov	ecx, DWORD PTR tv77[ebp]
	call	??$?0V?$allocator@D@std@@$$V@?$_Compressed_pair@V?$allocator@D@std@@V?$_String_val@U?$_Simple_types@D@std@@@2@$00@std@@QAE@U_One_then_variadic_args_t@1@$$QAV?$allocator@D@1@@Z ; std::_Compressed_pair<std::allocator<char>,std::_String_val<std::_Simple_types<char> >,1>::_Compressed_pair<std::allocator<char>,std::_String_val<std::_Simple_types<char> >,1><std::allocator<char> >

; 2497 :         _Mypair._Myval2._Alloc_proxy(_GET_PROXY_ALLOCATOR(_Alty, _Getal()));

	mov	eax, DWORD PTR _this$[ebp]
	mov	DWORD PTR tv94[ebp], eax
	mov	ecx, DWORD PTR _this$[ebp]
	call	?_Getal@?$basic_string@DU?$char_traits@D@std@@V?$allocator@D@2@@std@@AAEAAV?$allocator@D@2@XZ ; std::basic_string<char,std::char_traits<char>,std::allocator<char> >::_Getal
	push	eax
	lea	ecx, DWORD PTR $T3[ebp]
	call	??$?0D@?$allocator@U_Container_proxy@std@@@std@@QAE@ABV?$allocator@D@1@@Z ; std::allocator<std::_Container_proxy>::allocator<std::_Container_proxy><char>
	push	eax
	mov	ecx, DWORD PTR tv94[ebp]
	call	??$_Alloc_proxy@V?$allocator@U_Container_proxy@std@@@std@@@_Container_base12@std@@QAEX$$QAV?$allocator@U_Container_proxy@std@@@1@@Z ; std::_Container_base12::_Alloc_proxy<std::allocator<std::_Container_proxy> >

; 2498 :         _Take_contents(_Right, bool_constant<_Can_memcpy_val>{});

	xor	eax, eax
	mov	BYTE PTR $T2[ebp], al
	movzx	ecx, BYTE PTR $T2[ebp]
	push	ecx
	mov	edx, DWORD PTR __Right$[ebp]
	push	edx
	mov	ecx, DWORD PTR _this$[ebp]
	call	?_Take_contents@?$basic_string@DU?$char_traits@D@std@@V?$allocator@D@2@@std@@AAEXAAV12@U?$integral_constant@_N$00@2@@Z ; std::basic_string<char,std::char_traits<char>,std::allocator<char> >::_Take_contents

; 2499 :     }

	mov	eax, DWORD PTR _this$[ebp]
	mov	ecx, DWORD PTR __$EHRec$[ebp]
	mov	DWORD PTR fs:0, ecx
	pop	ecx
	pop	edi
	pop	esi
	pop	ebx
	add	esp, 272				; 00000110H
	cmp	ebp, esp
	call	__RTC_CheckEsp
	mov	esp, ebp
	pop	ebp
	ret	4
	int	3
	int	3
	int	3
	int	3
	int	3
_TEXT	ENDS
;	COMDAT text$x
text$x	SEGMENT
__ehhandler$??0?$basic_string@DU?$char_traits@D@std@@V?$allocator@D@2@@std@@QAE@$$QAV01@@Z:
	npad	1
	npad	1
	mov	edx, DWORD PTR [esp+8]
	lea	eax, DWORD PTR [edx+12]
	mov	ecx, DWORD PTR [edx-276]
	xor	ecx, eax
	call	@__security_check_cookie@4
	mov	eax, OFFSET __ehfuncinfo$??0?$basic_string@DU?$char_traits@D@std@@V?$allocator@D@2@@std@@QAE@$$QAV01@@Z
	jmp	___CxxFrameHandler3
text$x	ENDS
??0?$basic_string@DU?$char_traits@D@std@@V?$allocator@D@2@@std@@QAE@$$QAV01@@Z ENDP ; std::basic_string<char,std::char_traits<char>,std::allocator<char> >::basic_string<char,std::char_traits<char>,std::allocator<char> >
; Function compile flags: /Odtp /RTCsu /ZI
; File C:\Program Files (x86)\Microsoft Visual Studio\2019\Professional\VC\Tools\MSVC\14.28.29333\include\xstring
;	COMDAT ??0?$basic_string@DU?$char_traits@D@std@@V?$allocator@D@2@@std@@QAE@QBD@Z
_TEXT	SEGMENT
tv69 = -276						; size = 4
$T2 = -265						; size = 1
__Proxy$ = -64						; size = 8
_$S14$ = -45						; size = 1
__Alproxy$ = -36					; size = 4
_this$ = -24						; size = 4
__$ArrayPad$ = -16					; size = 4
__$EHRec$ = -12						; size = 12
__Ptr$ = 8						; size = 4
??0?$basic_string@DU?$char_traits@D@std@@V?$allocator@D@2@@std@@QAE@QBD@Z PROC ; std::basic_string<char,std::char_traits<char>,std::allocator<char> >::basic_string<char,std::char_traits<char>,std::allocator<char> >, COMDAT
; _this$ = ecx

; 2413 :     basic_string(_In_z_ const _Elem* const _Ptr) : _Mypair(_Zero_then_variadic_args_t{}) {

	push	ebp
	mov	ebp, esp
	push	-1
	push	__ehhandler$??0?$basic_string@DU?$char_traits@D@std@@V?$allocator@D@2@@std@@QAE@QBD@Z
	mov	eax, DWORD PTR fs:0
	push	eax
	sub	esp, 264				; 00000108H
	push	ebx
	push	esi
	push	edi
	push	ecx
	lea	edi, DWORD PTR [ebp-276]
	mov	ecx, 66					; 00000042H
	mov	eax, -858993460				; ccccccccH
	rep stosd
	pop	ecx
	mov	eax, DWORD PTR ___security_cookie
	xor	eax, ebp
	mov	DWORD PTR __$ArrayPad$[ebp], eax
	push	eax
	lea	eax, DWORD PTR __$EHRec$[ebp]
	mov	DWORD PTR fs:0, eax
	mov	DWORD PTR _this$[ebp], ecx
	mov	ecx, OFFSET __C00D0CE5_xstring
	call	@__CheckForDebuggerJustMyCode@4
	mov	eax, DWORD PTR _this$[ebp]
	mov	DWORD PTR tv69[ebp], eax
	movzx	ecx, BYTE PTR $T2[ebp]
	push	ecx
	mov	ecx, DWORD PTR tv69[ebp]
	call	??$?0$$V@?$_Compressed_pair@V?$allocator@D@std@@V?$_String_val@U?$_Simple_types@D@std@@@2@$00@std@@QAE@U_Zero_then_variadic_args_t@1@@Z ; std::_Compressed_pair<std::allocator<char>,std::_String_val<std::_Simple_types<char> >,1>::_Compressed_pair<std::allocator<char>,std::_String_val<std::_Simple_types<char> >,1><>
	mov	DWORD PTR __$EHRec$[ebp+8], 0

; 2414 :         auto&& _Alproxy = _GET_PROXY_ALLOCATOR(_Alty, _Getal());

	mov	ecx, DWORD PTR _this$[ebp]
	call	?_Getal@?$basic_string@DU?$char_traits@D@std@@V?$allocator@D@2@@std@@AAEAAV?$allocator@D@2@XZ ; std::basic_string<char,std::char_traits<char>,std::allocator<char> >::_Getal
	push	eax
	lea	ecx, DWORD PTR _$S14$[ebp]
	call	??$?0D@?$allocator@U_Container_proxy@std@@@std@@QAE@ABV?$allocator@D@1@@Z ; std::allocator<std::_Container_proxy>::allocator<std::_Container_proxy><char>
	lea	eax, DWORD PTR _$S14$[ebp]
	mov	DWORD PTR __Alproxy$[ebp], eax

; 2415 :         _Container_proxy_ptr<_Alty> _Proxy(_Alproxy, _Mypair._Myval2);

	mov	eax, DWORD PTR _this$[ebp]
	push	eax
	mov	ecx, DWORD PTR __Alproxy$[ebp]
	push	ecx
	lea	ecx, DWORD PTR __Proxy$[ebp]
	call	??0?$_Container_proxy_ptr12@V?$allocator@U_Container_proxy@std@@@std@@@std@@QAE@AAV?$allocator@U_Container_proxy@std@@@1@AAU_Container_base12@1@@Z ; std::_Container_proxy_ptr12<std::allocator<std::_Container_proxy> >::_Container_proxy_ptr12<std::allocator<std::_Container_proxy> >
	mov	BYTE PTR __$EHRec$[ebp+8], 1

; 2416 :         _Tidy_init();

	mov	ecx, DWORD PTR _this$[ebp]
	call	?_Tidy_init@?$basic_string@DU?$char_traits@D@std@@V?$allocator@D@2@@std@@AAEXXZ ; std::basic_string<char,std::char_traits<char>,std::allocator<char> >::_Tidy_init

; 2417 :         assign(_Ptr);

	mov	eax, DWORD PTR __Ptr$[ebp]
	push	eax
	mov	ecx, DWORD PTR _this$[ebp]
	call	?assign@?$basic_string@DU?$char_traits@D@std@@V?$allocator@D@2@@std@@QAEAAV12@QBD@Z ; std::basic_string<char,std::char_traits<char>,std::allocator<char> >::assign

; 2418 :         _Proxy._Release();

	lea	ecx, DWORD PTR __Proxy$[ebp]
	call	?_Release@_Basic_container_proxy_ptr12@std@@QAEXXZ ; std::_Basic_container_proxy_ptr12::_Release

; 2419 :     }

	mov	BYTE PTR __$EHRec$[ebp+8], 0
	lea	ecx, DWORD PTR __Proxy$[ebp]
	call	??1?$_Container_proxy_ptr12@V?$allocator@U_Container_proxy@std@@@std@@@std@@QAE@XZ ; std::_Container_proxy_ptr12<std::allocator<std::_Container_proxy> >::~_Container_proxy_ptr12<std::allocator<std::_Container_proxy> >
	mov	DWORD PTR __$EHRec$[ebp+8], -1
	mov	eax, DWORD PTR _this$[ebp]
	push	edx
	mov	ecx, ebp
	push	eax
	lea	edx, DWORD PTR $LN9@basic_stri
	call	@_RTC_CheckStackVars@8
	pop	eax
	pop	edx
	mov	ecx, DWORD PTR __$EHRec$[ebp]
	mov	DWORD PTR fs:0, ecx
	pop	ecx
	pop	edi
	pop	esi
	pop	ebx
	mov	ecx, DWORD PTR __$ArrayPad$[ebp]
	xor	ecx, ebp
	call	@__security_check_cookie@4
	add	esp, 276				; 00000114H
	cmp	ebp, esp
	call	__RTC_CheckEsp
	mov	esp, ebp
	pop	ebp
	ret	4
	npad	1
$LN9@basic_stri:
	DD	2
	DD	$LN8@basic_stri
$LN8@basic_stri:
	DD	-45					; ffffffd3H
	DD	1
	DD	$LN5@basic_stri
	DD	-64					; ffffffc0H
	DD	8
	DD	$LN6@basic_stri
$LN6@basic_stri:
	DB	95					; 0000005fH
	DB	80					; 00000050H
	DB	114					; 00000072H
	DB	111					; 0000006fH
	DB	120					; 00000078H
	DB	121					; 00000079H
	DB	0
$LN5@basic_stri:
	DB	36					; 00000024H
	DB	83					; 00000053H
	DB	49					; 00000031H
	DB	52					; 00000034H
	DB	0
_TEXT	ENDS
;	COMDAT text$x
text$x	SEGMENT
__unwindfunclet$??0?$basic_string@DU?$char_traits@D@std@@V?$allocator@D@2@@std@@QAE@QBD@Z$0:
	mov	ecx, DWORD PTR _this$[ebp]
	jmp	??1?$_Compressed_pair@V?$allocator@D@std@@V?$_String_val@U?$_Simple_types@D@std@@@2@$00@std@@QAE@XZ
__unwindfunclet$??0?$basic_string@DU?$char_traits@D@std@@V?$allocator@D@2@@std@@QAE@QBD@Z$1:
	lea	ecx, DWORD PTR __Proxy$[ebp]
	jmp	??1?$_Container_proxy_ptr12@V?$allocator@U_Container_proxy@std@@@std@@@std@@QAE@XZ ; std::_Container_proxy_ptr12<std::allocator<std::_Container_proxy> >::~_Container_proxy_ptr12<std::allocator<std::_Container_proxy> >
	int	3
	int	3
	int	3
	int	3
	int	3
__ehhandler$??0?$basic_string@DU?$char_traits@D@std@@V?$allocator@D@2@@std@@QAE@QBD@Z:
	npad	1
	npad	1
	mov	edx, DWORD PTR [esp+8]
	lea	eax, DWORD PTR [edx+12]
	mov	ecx, DWORD PTR [edx-280]
	xor	ecx, eax
	call	@__security_check_cookie@4
	mov	ecx, DWORD PTR [edx-4]
	xor	ecx, eax
	call	@__security_check_cookie@4
	mov	eax, OFFSET __ehfuncinfo$??0?$basic_string@DU?$char_traits@D@std@@V?$allocator@D@2@@std@@QAE@QBD@Z
	jmp	___CxxFrameHandler3
text$x	ENDS
??0?$basic_string@DU?$char_traits@D@std@@V?$allocator@D@2@@std@@QAE@QBD@Z ENDP ; std::basic_string<char,std::char_traits<char>,std::allocator<char> >::basic_string<char,std::char_traits<char>,std::allocator<char> >
; Function compile flags: /Odtp /RTCsu /ZI
; File C:\Program Files (x86)\Microsoft Visual Studio\2019\Professional\VC\Tools\MSVC\14.28.29333\include\xstring
;	COMDAT ??0?$basic_string@DU?$char_traits@D@std@@V?$allocator@D@2@@std@@QAE@QBDI@Z
_TEXT	SEGMENT
tv69 = -276						; size = 4
$T2 = -265						; size = 1
__Proxy$ = -64						; size = 8
_$S15$ = -45						; size = 1
__Alproxy$ = -36					; size = 4
_this$ = -24						; size = 4
__$ArrayPad$ = -16					; size = 4
__$EHRec$ = -12						; size = 12
__Ptr$ = 8						; size = 4
__Count$ = 12						; size = 4
??0?$basic_string@DU?$char_traits@D@std@@V?$allocator@D@2@@std@@QAE@QBDI@Z PROC ; std::basic_string<char,std::char_traits<char>,std::allocator<char> >::basic_string<char,std::char_traits<char>,std::allocator<char> >, COMDAT
; _this$ = ecx

; 2395 :         : _Mypair(_Zero_then_variadic_args_t{}) {

	push	ebp
	mov	ebp, esp
	push	-1
	push	__ehhandler$??0?$basic_string@DU?$char_traits@D@std@@V?$allocator@D@2@@std@@QAE@QBDI@Z
	mov	eax, DWORD PTR fs:0
	push	eax
	sub	esp, 264				; 00000108H
	push	ebx
	push	esi
	push	edi
	push	ecx
	lea	edi, DWORD PTR [ebp-276]
	mov	ecx, 66					; 00000042H
	mov	eax, -858993460				; ccccccccH
	rep stosd
	pop	ecx
	mov	eax, DWORD PTR ___security_cookie
	xor	eax, ebp
	mov	DWORD PTR __$ArrayPad$[ebp], eax
	push	eax
	lea	eax, DWORD PTR __$EHRec$[ebp]
	mov	DWORD PTR fs:0, eax
	mov	DWORD PTR _this$[ebp], ecx
	mov	ecx, OFFSET __C00D0CE5_xstring
	call	@__CheckForDebuggerJustMyCode@4
	mov	eax, DWORD PTR _this$[ebp]
	mov	DWORD PTR tv69[ebp], eax
	movzx	ecx, BYTE PTR $T2[ebp]
	push	ecx
	mov	ecx, DWORD PTR tv69[ebp]
	call	??$?0$$V@?$_Compressed_pair@V?$allocator@D@std@@V?$_String_val@U?$_Simple_types@D@std@@@2@$00@std@@QAE@U_Zero_then_variadic_args_t@1@@Z ; std::_Compressed_pair<std::allocator<char>,std::_String_val<std::_Simple_types<char> >,1>::_Compressed_pair<std::allocator<char>,std::_String_val<std::_Simple_types<char> >,1><>
	mov	DWORD PTR __$EHRec$[ebp+8], 0

; 2396 :         auto&& _Alproxy = _GET_PROXY_ALLOCATOR(_Alty, _Getal());

	mov	ecx, DWORD PTR _this$[ebp]
	call	?_Getal@?$basic_string@DU?$char_traits@D@std@@V?$allocator@D@2@@std@@AAEAAV?$allocator@D@2@XZ ; std::basic_string<char,std::char_traits<char>,std::allocator<char> >::_Getal
	push	eax
	lea	ecx, DWORD PTR _$S15$[ebp]
	call	??$?0D@?$allocator@U_Container_proxy@std@@@std@@QAE@ABV?$allocator@D@1@@Z ; std::allocator<std::_Container_proxy>::allocator<std::_Container_proxy><char>
	lea	eax, DWORD PTR _$S15$[ebp]
	mov	DWORD PTR __Alproxy$[ebp], eax

; 2397 :         _Container_proxy_ptr<_Alty> _Proxy(_Alproxy, _Mypair._Myval2);

	mov	eax, DWORD PTR _this$[ebp]
	push	eax
	mov	ecx, DWORD PTR __Alproxy$[ebp]
	push	ecx
	lea	ecx, DWORD PTR __Proxy$[ebp]
	call	??0?$_Container_proxy_ptr12@V?$allocator@U_Container_proxy@std@@@std@@@std@@QAE@AAV?$allocator@U_Container_proxy@std@@@1@AAU_Container_base12@1@@Z ; std::_Container_proxy_ptr12<std::allocator<std::_Container_proxy> >::_Container_proxy_ptr12<std::allocator<std::_Container_proxy> >
	mov	BYTE PTR __$EHRec$[ebp+8], 1

; 2398 :         _Tidy_init();

	mov	ecx, DWORD PTR _this$[ebp]
	call	?_Tidy_init@?$basic_string@DU?$char_traits@D@std@@V?$allocator@D@2@@std@@AAEXXZ ; std::basic_string<char,std::char_traits<char>,std::allocator<char> >::_Tidy_init

; 2399 :         assign(_Ptr, _Count);

	mov	eax, DWORD PTR __Count$[ebp]
	push	eax
	mov	ecx, DWORD PTR __Ptr$[ebp]
	push	ecx
	mov	ecx, DWORD PTR _this$[ebp]
	call	?assign@?$basic_string@DU?$char_traits@D@std@@V?$allocator@D@2@@std@@QAEAAV12@QBDI@Z ; std::basic_string<char,std::char_traits<char>,std::allocator<char> >::assign

; 2400 :         _Proxy._Release();

	lea	ecx, DWORD PTR __Proxy$[ebp]
	call	?_Release@_Basic_container_proxy_ptr12@std@@QAEXXZ ; std::_Basic_container_proxy_ptr12::_Release

; 2401 :     }

	mov	BYTE PTR __$EHRec$[ebp+8], 0
	lea	ecx, DWORD PTR __Proxy$[ebp]
	call	??1?$_Container_proxy_ptr12@V?$allocator@U_Container_proxy@std@@@std@@@std@@QAE@XZ ; std::_Container_proxy_ptr12<std::allocator<std::_Container_proxy> >::~_Container_proxy_ptr12<std::allocator<std::_Container_proxy> >
	mov	DWORD PTR __$EHRec$[ebp+8], -1
	mov	eax, DWORD PTR _this$[ebp]
	push	edx
	mov	ecx, ebp
	push	eax
	lea	edx, DWORD PTR $LN9@basic_stri
	call	@_RTC_CheckStackVars@8
	pop	eax
	pop	edx
	mov	ecx, DWORD PTR __$EHRec$[ebp]
	mov	DWORD PTR fs:0, ecx
	pop	ecx
	pop	edi
	pop	esi
	pop	ebx
	mov	ecx, DWORD PTR __$ArrayPad$[ebp]
	xor	ecx, ebp
	call	@__security_check_cookie@4
	add	esp, 276				; 00000114H
	cmp	ebp, esp
	call	__RTC_CheckEsp
	mov	esp, ebp
	pop	ebp
	ret	8
	npad	1
$LN9@basic_stri:
	DD	2
	DD	$LN8@basic_stri
$LN8@basic_stri:
	DD	-45					; ffffffd3H
	DD	1
	DD	$LN5@basic_stri
	DD	-64					; ffffffc0H
	DD	8
	DD	$LN6@basic_stri
$LN6@basic_stri:
	DB	95					; 0000005fH
	DB	80					; 00000050H
	DB	114					; 00000072H
	DB	111					; 0000006fH
	DB	120					; 00000078H
	DB	121					; 00000079H
	DB	0
$LN5@basic_stri:
	DB	36					; 00000024H
	DB	83					; 00000053H
	DB	49					; 00000031H
	DB	53					; 00000035H
	DB	0
_TEXT	ENDS
;	COMDAT text$x
text$x	SEGMENT
__unwindfunclet$??0?$basic_string@DU?$char_traits@D@std@@V?$allocator@D@2@@std@@QAE@QBDI@Z$0:
	mov	ecx, DWORD PTR _this$[ebp]
	jmp	??1?$_Compressed_pair@V?$allocator@D@std@@V?$_String_val@U?$_Simple_types@D@std@@@2@$00@std@@QAE@XZ
__unwindfunclet$??0?$basic_string@DU?$char_traits@D@std@@V?$allocator@D@2@@std@@QAE@QBDI@Z$1:
	lea	ecx, DWORD PTR __Proxy$[ebp]
	jmp	??1?$_Container_proxy_ptr12@V?$allocator@U_Container_proxy@std@@@std@@@std@@QAE@XZ ; std::_Container_proxy_ptr12<std::allocator<std::_Container_proxy> >::~_Container_proxy_ptr12<std::allocator<std::_Container_proxy> >
	int	3
	int	3
	int	3
	int	3
	int	3
__ehhandler$??0?$basic_string@DU?$char_traits@D@std@@V?$allocator@D@2@@std@@QAE@QBDI@Z:
	npad	1
	npad	1
	mov	edx, DWORD PTR [esp+8]
	lea	eax, DWORD PTR [edx+12]
	mov	ecx, DWORD PTR [edx-280]
	xor	ecx, eax
	call	@__security_check_cookie@4
	mov	ecx, DWORD PTR [edx-4]
	xor	ecx, eax
	call	@__security_check_cookie@4
	mov	eax, OFFSET __ehfuncinfo$??0?$basic_string@DU?$char_traits@D@std@@V?$allocator@D@2@@std@@QAE@QBDI@Z
	jmp	___CxxFrameHandler3
text$x	ENDS
??0?$basic_string@DU?$char_traits@D@std@@V?$allocator@D@2@@std@@QAE@QBDI@Z ENDP ; std::basic_string<char,std::char_traits<char>,std::allocator<char> >::basic_string<char,std::char_traits<char>,std::allocator<char> >
; Function compile flags: /Odtp /RTCsu /ZI
; File C:\Program Files (x86)\Microsoft Visual Studio\2019\Professional\VC\Tools\MSVC\14.28.29333\include\xstring
;	COMDAT ??0?$basic_string@DU?$char_traits@D@std@@V?$allocator@D@2@@std@@QAE@ABV?$allocator@D@1@@Z
_TEXT	SEGMENT
tv87 = -244						; size = 4
tv70 = -244						; size = 4
$T2 = -233						; size = 1
$T3 = -221						; size = 1
_this$ = -20						; size = 4
__$EHRec$ = -12						; size = 12
__Al$ = 8						; size = 4
??0?$basic_string@DU?$char_traits@D@std@@V?$allocator@D@2@@std@@QAE@ABV?$allocator@D@1@@Z PROC ; std::basic_string<char,std::char_traits<char>,std::allocator<char> >::basic_string<char,std::char_traits<char>,std::allocator<char> >, COMDAT
; _this$ = ecx

; 2370 :     explicit basic_string(const _Alloc& _Al) noexcept : _Mypair(_One_then_variadic_args_t{}, _Al) {

	push	ebp
	mov	ebp, esp
	push	-1
	push	__ehhandler$??0?$basic_string@DU?$char_traits@D@std@@V?$allocator@D@2@@std@@QAE@ABV?$allocator@D@1@@Z
	mov	eax, DWORD PTR fs:0
	push	eax
	sub	esp, 232				; 000000e8H
	push	ebx
	push	esi
	push	edi
	push	ecx
	lea	edi, DWORD PTR [ebp-244]
	mov	ecx, 58					; 0000003aH
	mov	eax, -858993460				; ccccccccH
	rep stosd
	pop	ecx
	mov	eax, DWORD PTR ___security_cookie
	xor	eax, ebp
	push	eax
	lea	eax, DWORD PTR __$EHRec$[ebp]
	mov	DWORD PTR fs:0, eax
	mov	DWORD PTR _this$[ebp], ecx
	mov	ecx, OFFSET __C00D0CE5_xstring
	call	@__CheckForDebuggerJustMyCode@4
	mov	eax, DWORD PTR _this$[ebp]
	mov	DWORD PTR tv70[ebp], eax
	mov	ecx, DWORD PTR __Al$[ebp]
	push	ecx
	movzx	edx, BYTE PTR $T3[ebp]
	push	edx
	mov	ecx, DWORD PTR tv70[ebp]
	call	??$?0ABV?$allocator@D@std@@$$V@?$_Compressed_pair@V?$allocator@D@std@@V?$_String_val@U?$_Simple_types@D@std@@@2@$00@std@@QAE@U_One_then_variadic_args_t@1@ABV?$allocator@D@1@@Z ; std::_Compressed_pair<std::allocator<char>,std::_String_val<std::_Simple_types<char> >,1>::_Compressed_pair<std::allocator<char>,std::_String_val<std::_Simple_types<char> >,1><std::allocator<char> const &>

; 2371 :         _Mypair._Myval2._Alloc_proxy(_GET_PROXY_ALLOCATOR(_Alty, _Getal()));

	mov	eax, DWORD PTR _this$[ebp]
	mov	DWORD PTR tv87[ebp], eax
	mov	ecx, DWORD PTR _this$[ebp]
	call	?_Getal@?$basic_string@DU?$char_traits@D@std@@V?$allocator@D@2@@std@@AAEAAV?$allocator@D@2@XZ ; std::basic_string<char,std::char_traits<char>,std::allocator<char> >::_Getal
	push	eax
	lea	ecx, DWORD PTR $T2[ebp]
	call	??$?0D@?$allocator@U_Container_proxy@std@@@std@@QAE@ABV?$allocator@D@1@@Z ; std::allocator<std::_Container_proxy>::allocator<std::_Container_proxy><char>
	push	eax
	mov	ecx, DWORD PTR tv87[ebp]
	call	??$_Alloc_proxy@V?$allocator@U_Container_proxy@std@@@std@@@_Container_base12@std@@QAEX$$QAV?$allocator@U_Container_proxy@std@@@1@@Z ; std::_Container_base12::_Alloc_proxy<std::allocator<std::_Container_proxy> >

; 2372 :         _Tidy_init();

	mov	ecx, DWORD PTR _this$[ebp]
	call	?_Tidy_init@?$basic_string@DU?$char_traits@D@std@@V?$allocator@D@2@@std@@AAEXXZ ; std::basic_string<char,std::char_traits<char>,std::allocator<char> >::_Tidy_init

; 2373 :     }

	mov	eax, DWORD PTR _this$[ebp]
	mov	ecx, DWORD PTR __$EHRec$[ebp]
	mov	DWORD PTR fs:0, ecx
	pop	ecx
	pop	edi
	pop	esi
	pop	ebx
	add	esp, 244				; 000000f4H
	cmp	ebp, esp
	call	__RTC_CheckEsp
	mov	esp, ebp
	pop	ebp
	ret	4
	int	3
	int	3
	int	3
	int	3
	int	3
_TEXT	ENDS
;	COMDAT text$x
text$x	SEGMENT
__ehhandler$??0?$basic_string@DU?$char_traits@D@std@@V?$allocator@D@2@@std@@QAE@ABV?$allocator@D@1@@Z:
	npad	1
	npad	1
	mov	edx, DWORD PTR [esp+8]
	lea	eax, DWORD PTR [edx+12]
	mov	ecx, DWORD PTR [edx-248]
	xor	ecx, eax
	call	@__security_check_cookie@4
	mov	eax, OFFSET __ehfuncinfo$??0?$basic_string@DU?$char_traits@D@std@@V?$allocator@D@2@@std@@QAE@ABV?$allocator@D@1@@Z
	jmp	___CxxFrameHandler3
text$x	ENDS
??0?$basic_string@DU?$char_traits@D@std@@V?$allocator@D@2@@std@@QAE@ABV?$allocator@D@1@@Z ENDP ; std::basic_string<char,std::char_traits<char>,std::allocator<char> >::basic_string<char,std::char_traits<char>,std::allocator<char> >
; Function compile flags: /Odtp /RTCsu /ZI
; File C:\Program Files (x86)\Microsoft Visual Studio\2019\Professional\VC\Tools\MSVC\14.28.29333\include\xstring
;	COMDAT ??0?$basic_string@DU?$char_traits@D@std@@V?$allocator@D@2@@std@@QAE@XZ
_TEXT	SEGMENT
tv86 = -244						; size = 4
tv69 = -244						; size = 4
$T2 = -233						; size = 1
$T3 = -221						; size = 1
_this$ = -20						; size = 4
__$EHRec$ = -12						; size = 12
??0?$basic_string@DU?$char_traits@D@std@@V?$allocator@D@2@@std@@QAE@XZ PROC ; std::basic_string<char,std::char_traits<char>,std::allocator<char> >::basic_string<char,std::char_traits<char>,std::allocator<char> >, COMDAT
; _this$ = ecx

; 2365 :     basic_string() noexcept(is_nothrow_default_constructible_v<_Alty>) : _Mypair(_Zero_then_variadic_args_t{}) {

	push	ebp
	mov	ebp, esp
	push	-1
	push	__ehhandler$??0?$basic_string@DU?$char_traits@D@std@@V?$allocator@D@2@@std@@QAE@XZ
	mov	eax, DWORD PTR fs:0
	push	eax
	sub	esp, 232				; 000000e8H
	push	ebx
	push	esi
	push	edi
	push	ecx
	lea	edi, DWORD PTR [ebp-244]
	mov	ecx, 58					; 0000003aH
	mov	eax, -858993460				; ccccccccH
	rep stosd
	pop	ecx
	mov	eax, DWORD PTR ___security_cookie
	xor	eax, ebp
	push	eax
	lea	eax, DWORD PTR __$EHRec$[ebp]
	mov	DWORD PTR fs:0, eax
	mov	DWORD PTR _this$[ebp], ecx
	mov	ecx, OFFSET __C00D0CE5_xstring
	call	@__CheckForDebuggerJustMyCode@4
	mov	eax, DWORD PTR _this$[ebp]
	mov	DWORD PTR tv69[ebp], eax
	movzx	ecx, BYTE PTR $T3[ebp]
	push	ecx
	mov	ecx, DWORD PTR tv69[ebp]
	call	??$?0$$V@?$_Compressed_pair@V?$allocator@D@std@@V?$_String_val@U?$_Simple_types@D@std@@@2@$00@std@@QAE@U_Zero_then_variadic_args_t@1@@Z ; std::_Compressed_pair<std::allocator<char>,std::_String_val<std::_Simple_types<char> >,1>::_Compressed_pair<std::allocator<char>,std::_String_val<std::_Simple_types<char> >,1><>

; 2366 :         _Mypair._Myval2._Alloc_proxy(_GET_PROXY_ALLOCATOR(_Alty, _Getal()));

	mov	eax, DWORD PTR _this$[ebp]
	mov	DWORD PTR tv86[ebp], eax
	mov	ecx, DWORD PTR _this$[ebp]
	call	?_Getal@?$basic_string@DU?$char_traits@D@std@@V?$allocator@D@2@@std@@AAEAAV?$allocator@D@2@XZ ; std::basic_string<char,std::char_traits<char>,std::allocator<char> >::_Getal
	push	eax
	lea	ecx, DWORD PTR $T2[ebp]
	call	??$?0D@?$allocator@U_Container_proxy@std@@@std@@QAE@ABV?$allocator@D@1@@Z ; std::allocator<std::_Container_proxy>::allocator<std::_Container_proxy><char>
	push	eax
	mov	ecx, DWORD PTR tv86[ebp]
	call	??$_Alloc_proxy@V?$allocator@U_Container_proxy@std@@@std@@@_Container_base12@std@@QAEX$$QAV?$allocator@U_Container_proxy@std@@@1@@Z ; std::_Container_base12::_Alloc_proxy<std::allocator<std::_Container_proxy> >

; 2367 :         _Tidy_init();

	mov	ecx, DWORD PTR _this$[ebp]
	call	?_Tidy_init@?$basic_string@DU?$char_traits@D@std@@V?$allocator@D@2@@std@@AAEXXZ ; std::basic_string<char,std::char_traits<char>,std::allocator<char> >::_Tidy_init

; 2368 :     }

	mov	eax, DWORD PTR _this$[ebp]
	mov	ecx, DWORD PTR __$EHRec$[ebp]
	mov	DWORD PTR fs:0, ecx
	pop	ecx
	pop	edi
	pop	esi
	pop	ebx
	add	esp, 244				; 000000f4H
	cmp	ebp, esp
	call	__RTC_CheckEsp
	mov	esp, ebp
	pop	ebp
	ret	0
	int	3
	int	3
	int	3
	int	3
	int	3
_TEXT	ENDS
;	COMDAT text$x
text$x	SEGMENT
__ehhandler$??0?$basic_string@DU?$char_traits@D@std@@V?$allocator@D@2@@std@@QAE@XZ:
	npad	1
	npad	1
	mov	edx, DWORD PTR [esp+8]
	lea	eax, DWORD PTR [edx+12]
	mov	ecx, DWORD PTR [edx-248]
	xor	ecx, eax
	call	@__security_check_cookie@4
	mov	eax, OFFSET __ehfuncinfo$??0?$basic_string@DU?$char_traits@D@std@@V?$allocator@D@2@@std@@QAE@XZ
	jmp	___CxxFrameHandler3
text$x	ENDS
??0?$basic_string@DU?$char_traits@D@std@@V?$allocator@D@2@@std@@QAE@XZ ENDP ; std::basic_string<char,std::char_traits<char>,std::allocator<char> >::basic_string<char,std::char_traits<char>,std::allocator<char> >
; Function compile flags: /Odtp /RTCsu /ZI
; File C:\Program Files (x86)\Microsoft Visual Studio\2019\Professional\VC\Tools\MSVC\14.28.29333\include\xstring
;	COMDAT ??0?$basic_string@DU?$char_traits@D@std@@V?$allocator@D@2@@std@@QAE@ABV01@@Z
_TEXT	SEGMENT
tv76 = -304						; size = 4
tv78 = -300						; size = 4
$T2 = -289						; size = 1
$T3 = -277						; size = 1
$T4 = -265						; size = 1
__Proxy$ = -64						; size = 8
_$S16$ = -45						; size = 1
__Alproxy$ = -36					; size = 4
_this$ = -24						; size = 4
__$ArrayPad$ = -16					; size = 4
__$EHRec$ = -12						; size = 12
__Right$ = 8						; size = 4
??0?$basic_string@DU?$char_traits@D@std@@V?$allocator@D@2@@std@@QAE@ABV01@@Z PROC ; std::basic_string<char,std::char_traits<char>,std::allocator<char> >::basic_string<char,std::char_traits<char>,std::allocator<char> >, COMDAT
; _this$ = ecx

; 2351 :         : _Mypair(_One_then_variadic_args_t{}, _Alty_traits::select_on_container_copy_construction(_Right._Getal())) {

	push	ebp
	mov	ebp, esp
	push	-1
	push	__ehhandler$??0?$basic_string@DU?$char_traits@D@std@@V?$allocator@D@2@@std@@QAE@ABV01@@Z
	mov	eax, DWORD PTR fs:0
	push	eax
	sub	esp, 292				; 00000124H
	push	ebx
	push	esi
	push	edi
	push	ecx
	lea	edi, DWORD PTR [ebp-304]
	mov	ecx, 73					; 00000049H
	mov	eax, -858993460				; ccccccccH
	rep stosd
	pop	ecx
	mov	eax, DWORD PTR ___security_cookie
	xor	eax, ebp
	mov	DWORD PTR __$ArrayPad$[ebp], eax
	push	eax
	lea	eax, DWORD PTR __$EHRec$[ebp]
	mov	DWORD PTR fs:0, eax
	mov	DWORD PTR _this$[ebp], ecx
	mov	ecx, OFFSET __C00D0CE5_xstring
	call	@__CheckForDebuggerJustMyCode@4
	mov	eax, DWORD PTR _this$[ebp]
	mov	DWORD PTR tv78[ebp], eax
	mov	ecx, DWORD PTR __Right$[ebp]
	call	?_Getal@?$basic_string@DU?$char_traits@D@std@@V?$allocator@D@2@@std@@ABEABV?$allocator@D@2@XZ ; std::basic_string<char,std::char_traits<char>,std::allocator<char> >::_Getal
	push	eax
	lea	ecx, DWORD PTR $T4[ebp]
	push	ecx
	call	?select_on_container_copy_construction@?$_Default_allocator_traits@V?$allocator@D@std@@@std@@SA?AV?$allocator@D@2@ABV32@@Z ; std::_Default_allocator_traits<std::allocator<char> >::select_on_container_copy_construction
	add	esp, 8
	mov	DWORD PTR tv76[ebp], eax
	mov	dl, BYTE PTR $T3[ebp]
	mov	BYTE PTR $T2[ebp], dl
	mov	eax, DWORD PTR tv76[ebp]
	push	eax
	movzx	ecx, BYTE PTR $T2[ebp]
	push	ecx
	mov	ecx, DWORD PTR tv78[ebp]
	call	??$?0V?$allocator@D@std@@$$V@?$_Compressed_pair@V?$allocator@D@std@@V?$_String_val@U?$_Simple_types@D@std@@@2@$00@std@@QAE@U_One_then_variadic_args_t@1@$$QAV?$allocator@D@1@@Z ; std::_Compressed_pair<std::allocator<char>,std::_String_val<std::_Simple_types<char> >,1>::_Compressed_pair<std::allocator<char>,std::_String_val<std::_Simple_types<char> >,1><std::allocator<char> >
	mov	DWORD PTR __$EHRec$[ebp+8], 0

; 2352 :         auto&& _Alproxy = _GET_PROXY_ALLOCATOR(_Alty, _Getal());

	mov	ecx, DWORD PTR _this$[ebp]
	call	?_Getal@?$basic_string@DU?$char_traits@D@std@@V?$allocator@D@2@@std@@AAEAAV?$allocator@D@2@XZ ; std::basic_string<char,std::char_traits<char>,std::allocator<char> >::_Getal
	push	eax
	lea	ecx, DWORD PTR _$S16$[ebp]
	call	??$?0D@?$allocator@U_Container_proxy@std@@@std@@QAE@ABV?$allocator@D@1@@Z ; std::allocator<std::_Container_proxy>::allocator<std::_Container_proxy><char>
	lea	eax, DWORD PTR _$S16$[ebp]
	mov	DWORD PTR __Alproxy$[ebp], eax

; 2353 :         _Container_proxy_ptr<_Alty> _Proxy(_Alproxy, _Mypair._Myval2);

	mov	eax, DWORD PTR _this$[ebp]
	push	eax
	mov	ecx, DWORD PTR __Alproxy$[ebp]
	push	ecx
	lea	ecx, DWORD PTR __Proxy$[ebp]
	call	??0?$_Container_proxy_ptr12@V?$allocator@U_Container_proxy@std@@@std@@@std@@QAE@AAV?$allocator@U_Container_proxy@std@@@1@AAU_Container_base12@1@@Z ; std::_Container_proxy_ptr12<std::allocator<std::_Container_proxy> >::_Container_proxy_ptr12<std::allocator<std::_Container_proxy> >
	mov	BYTE PTR __$EHRec$[ebp+8], 1

; 2354 :         _Construct_lv_contents(_Right);

	mov	eax, DWORD PTR __Right$[ebp]
	push	eax
	mov	ecx, DWORD PTR _this$[ebp]
	call	?_Construct_lv_contents@?$basic_string@DU?$char_traits@D@std@@V?$allocator@D@2@@std@@AAEXABV12@@Z ; std::basic_string<char,std::char_traits<char>,std::allocator<char> >::_Construct_lv_contents

; 2355 :         _Proxy._Release();

	lea	ecx, DWORD PTR __Proxy$[ebp]
	call	?_Release@_Basic_container_proxy_ptr12@std@@QAEXXZ ; std::_Basic_container_proxy_ptr12::_Release

; 2356 :     }

	mov	BYTE PTR __$EHRec$[ebp+8], 0
	lea	ecx, DWORD PTR __Proxy$[ebp]
	call	??1?$_Container_proxy_ptr12@V?$allocator@U_Container_proxy@std@@@std@@@std@@QAE@XZ ; std::_Container_proxy_ptr12<std::allocator<std::_Container_proxy> >::~_Container_proxy_ptr12<std::allocator<std::_Container_proxy> >
	mov	DWORD PTR __$EHRec$[ebp+8], -1
	mov	eax, DWORD PTR _this$[ebp]
	push	edx
	mov	ecx, ebp
	push	eax
	lea	edx, DWORD PTR $LN9@basic_stri
	call	@_RTC_CheckStackVars@8
	pop	eax
	pop	edx
	mov	ecx, DWORD PTR __$EHRec$[ebp]
	mov	DWORD PTR fs:0, ecx
	pop	ecx
	pop	edi
	pop	esi
	pop	ebx
	mov	ecx, DWORD PTR __$ArrayPad$[ebp]
	xor	ecx, ebp
	call	@__security_check_cookie@4
	add	esp, 304				; 00000130H
	cmp	ebp, esp
	call	__RTC_CheckEsp
	mov	esp, ebp
	pop	ebp
	ret	4
$LN9@basic_stri:
	DD	2
	DD	$LN8@basic_stri
$LN8@basic_stri:
	DD	-45					; ffffffd3H
	DD	1
	DD	$LN5@basic_stri
	DD	-64					; ffffffc0H
	DD	8
	DD	$LN6@basic_stri
$LN6@basic_stri:
	DB	95					; 0000005fH
	DB	80					; 00000050H
	DB	114					; 00000072H
	DB	111					; 0000006fH
	DB	120					; 00000078H
	DB	121					; 00000079H
	DB	0
$LN5@basic_stri:
	DB	36					; 00000024H
	DB	83					; 00000053H
	DB	49					; 00000031H
	DB	54					; 00000036H
	DB	0
_TEXT	ENDS
;	COMDAT text$x
text$x	SEGMENT
__unwindfunclet$??0?$basic_string@DU?$char_traits@D@std@@V?$allocator@D@2@@std@@QAE@ABV01@@Z$0:
	mov	ecx, DWORD PTR _this$[ebp]
	jmp	??1?$_Compressed_pair@V?$allocator@D@std@@V?$_String_val@U?$_Simple_types@D@std@@@2@$00@std@@QAE@XZ
__unwindfunclet$??0?$basic_string@DU?$char_traits@D@std@@V?$allocator@D@2@@std@@QAE@ABV01@@Z$1:
	lea	ecx, DWORD PTR __Proxy$[ebp]
	jmp	??1?$_Container_proxy_ptr12@V?$allocator@U_Container_proxy@std@@@std@@@std@@QAE@XZ ; std::_Container_proxy_ptr12<std::allocator<std::_Container_proxy> >::~_Container_proxy_ptr12<std::allocator<std::_Container_proxy> >
	int	3
	int	3
	int	3
	int	3
	int	3
__ehhandler$??0?$basic_string@DU?$char_traits@D@std@@V?$allocator@D@2@@std@@QAE@ABV01@@Z:
	npad	1
	npad	1
	mov	edx, DWORD PTR [esp+8]
	lea	eax, DWORD PTR [edx+12]
	mov	ecx, DWORD PTR [edx-308]
	xor	ecx, eax
	call	@__security_check_cookie@4
	mov	ecx, DWORD PTR [edx-4]
	xor	ecx, eax
	call	@__security_check_cookie@4
	mov	eax, OFFSET __ehfuncinfo$??0?$basic_string@DU?$char_traits@D@std@@V?$allocator@D@2@@std@@QAE@ABV01@@Z
	jmp	___CxxFrameHandler3
text$x	ENDS
??0?$basic_string@DU?$char_traits@D@std@@V?$allocator@D@2@@std@@QAE@ABV01@@Z ENDP ; std::basic_string<char,std::char_traits<char>,std::allocator<char> >::basic_string<char,std::char_traits<char>,std::allocator<char> >
; Function compile flags: /Odtp /RTCsu /ZI
;	COMDAT ??1?$_String_val@U?$_Simple_types@D@std@@@std@@QAE@XZ
_TEXT	SEGMENT
_this$ = -8						; size = 4
??1?$_String_val@U?$_Simple_types@D@std@@@std@@QAE@XZ PROC ; std::_String_val<std::_Simple_types<char> >::~_String_val<std::_Simple_types<char> >, COMDAT
; _this$ = ecx
	push	ebp
	mov	ebp, esp
	sub	esp, 204				; 000000ccH
	push	ebx
	push	esi
	push	edi
	push	ecx
	lea	edi, DWORD PTR [ebp-204]
	mov	ecx, 51					; 00000033H
	mov	eax, -858993460				; ccccccccH
	rep stosd
	pop	ecx
	mov	DWORD PTR _this$[ebp], ecx
	mov	ecx, DWORD PTR _this$[ebp]
	add	ecx, 4
	call	??1_Bxty@?$_String_val@U?$_Simple_types@D@std@@@std@@QAE@XZ ; std::_String_val<std::_Simple_types<char> >::_Bxty::~_Bxty
	pop	edi
	pop	esi
	pop	ebx
	add	esp, 204				; 000000ccH
	cmp	ebp, esp
	call	__RTC_CheckEsp
	mov	esp, ebp
	pop	ebp
	ret	0
??1?$_String_val@U?$_Simple_types@D@std@@@std@@QAE@XZ ENDP ; std::_String_val<std::_Simple_types<char> >::~_String_val<std::_Simple_types<char> >
_TEXT	ENDS
; Function compile flags: /Odtp /RTCsu /ZI
; File C:\Program Files (x86)\Microsoft Visual Studio\2019\Professional\VC\Tools\MSVC\14.28.29333\include\xstring
;	COMDAT ??1_Bxty@?$_String_val@U?$_Simple_types@D@std@@@std@@QAE@XZ
_TEXT	SEGMENT
_this$ = -8						; size = 4
??1_Bxty@?$_String_val@U?$_Simple_types@D@std@@@std@@QAE@XZ PROC ; std::_String_val<std::_Simple_types<char> >::_Bxty::~_Bxty, COMDAT
; _this$ = ecx

; 2254 :         ~_Bxty() noexcept {} // user-provided, for fancy pointers

	push	ebp
	mov	ebp, esp
	sub	esp, 204				; 000000ccH
	push	ebx
	push	esi
	push	edi
	push	ecx
	lea	edi, DWORD PTR [ebp-204]
	mov	ecx, 51					; 00000033H
	mov	eax, -858993460				; ccccccccH
	rep stosd
	pop	ecx
	mov	DWORD PTR _this$[ebp], ecx
	mov	ecx, OFFSET __C00D0CE5_xstring
	call	@__CheckForDebuggerJustMyCode@4
	pop	edi
	pop	esi
	pop	ebx
	add	esp, 204				; 000000ccH
	cmp	ebp, esp
	call	__RTC_CheckEsp
	mov	esp, ebp
	pop	ebp
	ret	0
??1_Bxty@?$_String_val@U?$_Simple_types@D@std@@@std@@QAE@XZ ENDP ; std::_String_val<std::_Simple_types<char> >::_Bxty::~_Bxty
_TEXT	ENDS
; Function compile flags: /Odtp /RTCsu /ZI
; File C:\Program Files (x86)\Microsoft Visual Studio\2019\Professional\VC\Tools\MSVC\14.28.29333\include\xstring
;	COMDAT ??0_Bxty@?$_String_val@U?$_Simple_types@D@std@@@std@@QAE@XZ
_TEXT	SEGMENT
_this$ = -8						; size = 4
??0_Bxty@?$_String_val@U?$_Simple_types@D@std@@@std@@QAE@XZ PROC ; std::_String_val<std::_Simple_types<char> >::_Bxty::_Bxty, COMDAT
; _this$ = ecx

; 2252 :         _Bxty() noexcept {} // user-provided, for fancy pointers

	push	ebp
	mov	ebp, esp
	sub	esp, 204				; 000000ccH
	push	ebx
	push	esi
	push	edi
	push	ecx
	lea	edi, DWORD PTR [ebp-204]
	mov	ecx, 51					; 00000033H
	mov	eax, -858993460				; ccccccccH
	rep stosd
	pop	ecx
	mov	DWORD PTR _this$[ebp], ecx
	mov	ecx, OFFSET __C00D0CE5_xstring
	call	@__CheckForDebuggerJustMyCode@4
	mov	eax, DWORD PTR _this$[ebp]
	pop	edi
	pop	esi
	pop	ebx
	add	esp, 204				; 000000ccH
	cmp	ebp, esp
	call	__RTC_CheckEsp
	mov	esp, ebp
	pop	ebp
	ret	0
??0_Bxty@?$_String_val@U?$_Simple_types@D@std@@@std@@QAE@XZ ENDP ; std::_String_val<std::_Simple_types<char> >::_Bxty::_Bxty
_TEXT	ENDS
; Function compile flags: /Odtp /RTCsu /ZI
; File C:\Program Files (x86)\Microsoft Visual Studio\2019\Professional\VC\Tools\MSVC\14.28.29333\include\xstring
;	COMDAT ?_Clamp_suffix_size@?$_String_val@U?$_Simple_types@D@std@@@std@@QBEIII@Z
_TEXT	SEGMENT
$T1 = -212						; size = 4
_this$ = -8						; size = 4
__Off$ = 8						; size = 4
__Size$ = 12						; size = 4
?_Clamp_suffix_size@?$_String_val@U?$_Simple_types@D@std@@@std@@QBEIII@Z PROC ; std::_String_val<std::_Simple_types<char> >::_Clamp_suffix_size, COMDAT
; _this$ = ecx

; 2246 :     size_type _Clamp_suffix_size(const size_type _Off, const size_type _Size) const noexcept {

	push	ebp
	mov	ebp, esp
	sub	esp, 216				; 000000d8H
	push	ebx
	push	esi
	push	edi
	push	ecx
	lea	edi, DWORD PTR [ebp-216]
	mov	ecx, 54					; 00000036H
	mov	eax, -858993460				; ccccccccH
	rep stosd
	pop	ecx
	mov	DWORD PTR _this$[ebp], ecx
	mov	ecx, OFFSET __C00D0CE5_xstring
	call	@__CheckForDebuggerJustMyCode@4

; 2247 :         // trims _Size to the longest it can be assuming a string at/after _Off
; 2248 :         return (_STD min)(_Size, _Mysize - _Off);

	mov	eax, DWORD PTR _this$[ebp]
	mov	ecx, DWORD PTR [eax+20]
	sub	ecx, DWORD PTR __Off$[ebp]
	mov	DWORD PTR $T1[ebp], ecx
	lea	edx, DWORD PTR $T1[ebp]
	push	edx
	lea	eax, DWORD PTR __Size$[ebp]
	push	eax
	call	??$min@I@std@@YAABIABI0@Z		; std::min<unsigned int>
	add	esp, 8
	mov	eax, DWORD PTR [eax]

; 2249 :     }

	pop	edi
	pop	esi
	pop	ebx
	add	esp, 216				; 000000d8H
	cmp	ebp, esp
	call	__RTC_CheckEsp
	mov	esp, ebp
	pop	ebp
	ret	8
?_Clamp_suffix_size@?$_String_val@U?$_Simple_types@D@std@@@std@@QBEIII@Z ENDP ; std::_String_val<std::_Simple_types<char> >::_Clamp_suffix_size
_TEXT	ENDS
; Function compile flags: /Odtp /RTCsu /ZI
; File C:\Program Files (x86)\Microsoft Visual Studio\2019\Professional\VC\Tools\MSVC\14.28.29333\include\xstring
;	COMDAT ?_Xran@?$_String_val@U?$_Simple_types@D@std@@@std@@SAXXZ
_TEXT	SEGMENT
?_Xran@?$_String_val@U?$_Simple_types@D@std@@@std@@SAXXZ PROC ; std::_String_val<std::_Simple_types<char> >::_Xran, COMDAT

; 2242 :     [[noreturn]] static void _Xran() {

	push	ebp
	mov	ebp, esp
	sub	esp, 192				; 000000c0H
	push	ebx
	push	esi
	push	edi
	lea	edi, DWORD PTR [ebp-192]
	mov	ecx, 48					; 00000030H
	mov	eax, -858993460				; ccccccccH
	rep stosd
	mov	ecx, OFFSET __C00D0CE5_xstring
	call	@__CheckForDebuggerJustMyCode@4

; 2243 :         _Xout_of_range("invalid string position");

	push	OFFSET ??_C@_0BI@CFPLBAOH@invalid?5string?5position@
	call	?_Xout_of_range@std@@YAXPBD@Z		; std::_Xout_of_range
$LN2@Xran:

; 2244 :     }

	pop	edi
	pop	esi
	pop	ebx
	add	esp, 192				; 000000c0H
	cmp	ebp, esp
	call	__RTC_CheckEsp
	mov	esp, ebp
	pop	ebp
	ret	0
?_Xran@?$_String_val@U?$_Simple_types@D@std@@@std@@SAXXZ ENDP ; std::_String_val<std::_Simple_types<char> >::_Xran
_TEXT	ENDS
; Function compile flags: /Odtp /RTCsu /ZI
; File C:\Program Files (x86)\Microsoft Visual Studio\2019\Professional\VC\Tools\MSVC\14.28.29333\include\xstring
;	COMDAT ?_Check_offset@?$_String_val@U?$_Simple_types@D@std@@@std@@QBEXI@Z
_TEXT	SEGMENT
_this$ = -8						; size = 4
__Off$ = 8						; size = 4
?_Check_offset@?$_String_val@U?$_Simple_types@D@std@@@std@@QBEXI@Z PROC ; std::_String_val<std::_Simple_types<char> >::_Check_offset, COMDAT
; _this$ = ecx

; 2230 :     void _Check_offset(const size_type _Off) const { // checks whether _Off is in the bounds of [0, size()]

	push	ebp
	mov	ebp, esp
	sub	esp, 204				; 000000ccH
	push	ebx
	push	esi
	push	edi
	push	ecx
	lea	edi, DWORD PTR [ebp-204]
	mov	ecx, 51					; 00000033H
	mov	eax, -858993460				; ccccccccH
	rep stosd
	pop	ecx
	mov	DWORD PTR _this$[ebp], ecx
	mov	ecx, OFFSET __C00D0CE5_xstring
	call	@__CheckForDebuggerJustMyCode@4

; 2231 :         if (_Mysize < _Off) {

	mov	eax, DWORD PTR _this$[ebp]
	mov	ecx, DWORD PTR [eax+20]
	cmp	ecx, DWORD PTR __Off$[ebp]
	jae	SHORT $LN3@Check_offs

; 2232 :             _Xran();

	call	?_Xran@?$_String_val@U?$_Simple_types@D@std@@@std@@SAXXZ ; std::_String_val<std::_Simple_types<char> >::_Xran
$LN3@Check_offs:

; 2233 :         }
; 2234 :     }

	pop	edi
	pop	esi
	pop	ebx
	add	esp, 204				; 000000ccH
	cmp	ebp, esp
	call	__RTC_CheckEsp
	mov	esp, ebp
	pop	ebp
	ret	4
?_Check_offset@?$_String_val@U?$_Simple_types@D@std@@@std@@QBEXI@Z ENDP ; std::_String_val<std::_Simple_types<char> >::_Check_offset
_TEXT	ENDS
; Function compile flags: /Odtp /RTCsu /ZI
; File C:\Program Files (x86)\Microsoft Visual Studio\2019\Professional\VC\Tools\MSVC\14.28.29333\include\xstring
;	COMDAT ?_Large_string_engaged@?$_String_val@U?$_Simple_types@D@std@@@std@@QBE_NXZ
_TEXT	SEGMENT
tv66 = -208						; size = 4
_this$ = -8						; size = 4
?_Large_string_engaged@?$_String_val@U?$_Simple_types@D@std@@@std@@QBE_NXZ PROC ; std::_String_val<std::_Simple_types<char> >::_Large_string_engaged, COMDAT
; _this$ = ecx

; 2226 :     bool _Large_string_engaged() const noexcept {

	push	ebp
	mov	ebp, esp
	sub	esp, 208				; 000000d0H
	push	ebx
	push	esi
	push	edi
	push	ecx
	lea	edi, DWORD PTR [ebp-208]
	mov	ecx, 52					; 00000034H
	mov	eax, -858993460				; ccccccccH
	rep stosd
	pop	ecx
	mov	DWORD PTR _this$[ebp], ecx
	mov	ecx, OFFSET __C00D0CE5_xstring
	call	@__CheckForDebuggerJustMyCode@4

; 2227 :         return _BUF_SIZE <= _Myres;

	mov	eax, DWORD PTR _this$[ebp]
	cmp	DWORD PTR [eax+24], 16			; 00000010H
	jb	SHORT $LN3@Large_stri
	mov	DWORD PTR tv66[ebp], 1
	jmp	SHORT $LN4@Large_stri
$LN3@Large_stri:
	mov	DWORD PTR tv66[ebp], 0
$LN4@Large_stri:
	mov	al, BYTE PTR tv66[ebp]

; 2228 :     }

	pop	edi
	pop	esi
	pop	ebx
	add	esp, 208				; 000000d0H
	cmp	ebp, esp
	call	__RTC_CheckEsp
	mov	esp, ebp
	pop	ebp
	ret	0
?_Large_string_engaged@?$_String_val@U?$_Simple_types@D@std@@@std@@QBE_NXZ ENDP ; std::_String_val<std::_Simple_types<char> >::_Large_string_engaged
_TEXT	ENDS
; Function compile flags: /Odtp /RTCsu /ZI
; File C:\Program Files (x86)\Microsoft Visual Studio\2019\Professional\VC\Tools\MSVC\14.28.29333\include\xstring
;	COMDAT ?_Myptr@?$_String_val@U?$_Simple_types@D@std@@@std@@QBEPBDXZ
_TEXT	SEGMENT
__Result$ = -20						; size = 4
_this$ = -8						; size = 4
?_Myptr@?$_String_val@U?$_Simple_types@D@std@@@std@@QBEPBDXZ PROC ; std::_String_val<std::_Simple_types<char> >::_Myptr, COMDAT
; _this$ = ecx

; 2217 :     const value_type* _Myptr() const noexcept {

	push	ebp
	mov	ebp, esp
	sub	esp, 216				; 000000d8H
	push	ebx
	push	esi
	push	edi
	push	ecx
	lea	edi, DWORD PTR [ebp-216]
	mov	ecx, 54					; 00000036H
	mov	eax, -858993460				; ccccccccH
	rep stosd
	pop	ecx
	mov	DWORD PTR _this$[ebp], ecx
	mov	ecx, OFFSET __C00D0CE5_xstring
	call	@__CheckForDebuggerJustMyCode@4

; 2218 :         const value_type* _Result = _Bx._Buf;

	mov	eax, DWORD PTR _this$[ebp]
	add	eax, 4
	mov	DWORD PTR __Result$[ebp], eax

; 2219 :         if (_Large_string_engaged()) {

	mov	ecx, DWORD PTR _this$[ebp]
	call	?_Large_string_engaged@?$_String_val@U?$_Simple_types@D@std@@@std@@QBE_NXZ ; std::_String_val<std::_Simple_types<char> >::_Large_string_engaged
	movzx	eax, al
	test	eax, eax
	je	SHORT $LN2@Myptr

; 2220 :             _Result = _Unfancy(_Bx._Ptr);

	mov	eax, DWORD PTR _this$[ebp]
	mov	ecx, DWORD PTR [eax+4]
	push	ecx
	call	??$_Unfancy@D@std@@YAPADPAD@Z		; std::_Unfancy<char>
	add	esp, 4
	mov	DWORD PTR __Result$[ebp], eax
$LN2@Myptr:

; 2221 :         }
; 2222 : 
; 2223 :         return _Result;

	mov	eax, DWORD PTR __Result$[ebp]

; 2224 :     }

	pop	edi
	pop	esi
	pop	ebx
	add	esp, 216				; 000000d8H
	cmp	ebp, esp
	call	__RTC_CheckEsp
	mov	esp, ebp
	pop	ebp
	ret	0
?_Myptr@?$_String_val@U?$_Simple_types@D@std@@@std@@QBEPBDXZ ENDP ; std::_String_val<std::_Simple_types<char> >::_Myptr
_TEXT	ENDS
; Function compile flags: /Odtp /RTCsu /ZI
; File C:\Program Files (x86)\Microsoft Visual Studio\2019\Professional\VC\Tools\MSVC\14.28.29333\include\xstring
;	COMDAT ?_Myptr@?$_String_val@U?$_Simple_types@D@std@@@std@@QAEPADXZ
_TEXT	SEGMENT
__Result$ = -20						; size = 4
_this$ = -8						; size = 4
?_Myptr@?$_String_val@U?$_Simple_types@D@std@@@std@@QAEPADXZ PROC ; std::_String_val<std::_Simple_types<char> >::_Myptr, COMDAT
; _this$ = ecx

; 2208 :     value_type* _Myptr() noexcept {

	push	ebp
	mov	ebp, esp
	sub	esp, 216				; 000000d8H
	push	ebx
	push	esi
	push	edi
	push	ecx
	lea	edi, DWORD PTR [ebp-216]
	mov	ecx, 54					; 00000036H
	mov	eax, -858993460				; ccccccccH
	rep stosd
	pop	ecx
	mov	DWORD PTR _this$[ebp], ecx
	mov	ecx, OFFSET __C00D0CE5_xstring
	call	@__CheckForDebuggerJustMyCode@4

; 2209 :         value_type* _Result = _Bx._Buf;

	mov	eax, DWORD PTR _this$[ebp]
	add	eax, 4
	mov	DWORD PTR __Result$[ebp], eax

; 2210 :         if (_Large_string_engaged()) {

	mov	ecx, DWORD PTR _this$[ebp]
	call	?_Large_string_engaged@?$_String_val@U?$_Simple_types@D@std@@@std@@QBE_NXZ ; std::_String_val<std::_Simple_types<char> >::_Large_string_engaged
	movzx	eax, al
	test	eax, eax
	je	SHORT $LN2@Myptr

; 2211 :             _Result = _Unfancy(_Bx._Ptr);

	mov	eax, DWORD PTR _this$[ebp]
	mov	ecx, DWORD PTR [eax+4]
	push	ecx
	call	??$_Unfancy@D@std@@YAPADPAD@Z		; std::_Unfancy<char>
	add	esp, 4
	mov	DWORD PTR __Result$[ebp], eax
$LN2@Myptr:

; 2212 :         }
; 2213 : 
; 2214 :         return _Result;

	mov	eax, DWORD PTR __Result$[ebp]

; 2215 :     }

	pop	edi
	pop	esi
	pop	ebx
	add	esp, 216				; 000000d8H
	cmp	ebp, esp
	call	__RTC_CheckEsp
	mov	esp, ebp
	pop	ebp
	ret	0
?_Myptr@?$_String_val@U?$_Simple_types@D@std@@@std@@QAEPADXZ ENDP ; std::_String_val<std::_Simple_types<char> >::_Myptr
_TEXT	ENDS
; Function compile flags: /Odtp /RTCsu /ZI
; File C:\Program Files (x86)\Microsoft Visual Studio\2019\Professional\VC\Tools\MSVC\14.28.29333\include\xstring
;	COMDAT ??0?$_String_val@U?$_Simple_types@D@std@@@std@@QAE@XZ
_TEXT	SEGMENT
_this$ = -8						; size = 4
??0?$_String_val@U?$_Simple_types@D@std@@@std@@QAE@XZ PROC ; std::_String_val<std::_Simple_types<char> >::_String_val<std::_Simple_types<char> >, COMDAT
; _this$ = ecx

; 2198 :     _String_val() noexcept : _Bx(), _Mysize(0), _Myres(0) {}

	push	ebp
	mov	ebp, esp
	sub	esp, 204				; 000000ccH
	push	ebx
	push	esi
	push	edi
	push	ecx
	lea	edi, DWORD PTR [ebp-204]
	mov	ecx, 51					; 00000033H
	mov	eax, -858993460				; ccccccccH
	rep stosd
	pop	ecx
	mov	DWORD PTR _this$[ebp], ecx
	mov	ecx, OFFSET __C00D0CE5_xstring
	call	@__CheckForDebuggerJustMyCode@4
	mov	ecx, DWORD PTR _this$[ebp]
	call	??0_Container_base12@std@@QAE@XZ	; std::_Container_base12::_Container_base12
	mov	ecx, DWORD PTR _this$[ebp]
	add	ecx, 4
	call	??0_Bxty@?$_String_val@U?$_Simple_types@D@std@@@std@@QAE@XZ ; std::_String_val<std::_Simple_types<char> >::_Bxty::_Bxty
	mov	eax, DWORD PTR _this$[ebp]
	mov	DWORD PTR [eax+20], 0
	mov	eax, DWORD PTR _this$[ebp]
	mov	DWORD PTR [eax+24], 0
	mov	eax, DWORD PTR _this$[ebp]
	pop	edi
	pop	esi
	pop	ebx
	add	esp, 204				; 000000ccH
	cmp	ebp, esp
	call	__RTC_CheckEsp
	mov	esp, ebp
	pop	ebp
	ret	0
??0?$_String_val@U?$_Simple_types@D@std@@@std@@QAE@XZ ENDP ; std::_String_val<std::_Simple_types<char> >::_String_val<std::_Simple_types<char> >
_TEXT	ENDS
; Function compile flags: /Odtp /RTCsu /ZI
; File C:\Program Files (x86)\Microsoft Visual Studio\2019\Professional\VC\Tools\MSVC\14.28.29333\include\xmemory
;	COMDAT ?select_on_container_copy_construction@?$_Default_allocator_traits@V?$allocator@D@std@@@std@@SA?AV?$allocator@D@2@ABV32@@Z
_TEXT	SEGMENT
___$ReturnUdt$ = 8					; size = 4
__Al$ = 12						; size = 4
?select_on_container_copy_construction@?$_Default_allocator_traits@V?$allocator@D@std@@@std@@SA?AV?$allocator@D@2@ABV32@@Z PROC ; std::_Default_allocator_traits<std::allocator<char> >::select_on_container_copy_construction, COMDAT

; 713  :     _NODISCARD static _Alloc select_on_container_copy_construction(const _Alloc& _Al) {

	push	ebp
	mov	ebp, esp
	sub	esp, 192				; 000000c0H
	push	ebx
	push	esi
	push	edi
	lea	edi, DWORD PTR [ebp-192]
	mov	ecx, 48					; 00000030H
	mov	eax, -858993460				; ccccccccH
	rep stosd
	mov	ecx, OFFSET __B4DE8A79_xmemory
	call	@__CheckForDebuggerJustMyCode@4

; 714  :         return _Al;

	mov	eax, DWORD PTR ___$ReturnUdt$[ebp]

; 715  :     }

	pop	edi
	pop	esi
	pop	ebx
	add	esp, 192				; 000000c0H
	cmp	ebp, esp
	call	__RTC_CheckEsp
	mov	esp, ebp
	pop	ebp
	ret	0
?select_on_container_copy_construction@?$_Default_allocator_traits@V?$allocator@D@std@@@std@@SA?AV?$allocator@D@2@ABV32@@Z ENDP ; std::_Default_allocator_traits<std::allocator<char> >::select_on_container_copy_construction
_TEXT	ENDS
; Function compile flags: /Odtp /RTCsu /ZI
; File C:\Program Files (x86)\Microsoft Visual Studio\2019\Professional\VC\Tools\MSVC\14.28.29333\include\xmemory
;	COMDAT ?max_size@?$_Default_allocator_traits@V?$allocator@D@std@@@std@@SAIABV?$allocator@D@2@@Z
_TEXT	SEGMENT
___formal$ = 8						; size = 4
?max_size@?$_Default_allocator_traits@V?$allocator@D@std@@@std@@SAIABV?$allocator@D@2@@Z PROC ; std::_Default_allocator_traits<std::allocator<char> >::max_size, COMDAT

; 709  :     _NODISCARD static size_type max_size(const _Alloc&) noexcept {

	push	ebp
	mov	ebp, esp
	sub	esp, 192				; 000000c0H
	push	ebx
	push	esi
	push	edi
	lea	edi, DWORD PTR [ebp-192]
	mov	ecx, 48					; 00000030H
	mov	eax, -858993460				; ccccccccH
	rep stosd
	mov	ecx, OFFSET __B4DE8A79_xmemory
	call	@__CheckForDebuggerJustMyCode@4

; 710  :         return static_cast<size_t>(-1) / sizeof(value_type);

	or	eax, -1

; 711  :     }

	pop	edi
	pop	esi
	pop	ebx
	add	esp, 192				; 000000c0H
	cmp	ebp, esp
	call	__RTC_CheckEsp
	mov	esp, ebp
	pop	ebp
	ret	0
?max_size@?$_Default_allocator_traits@V?$allocator@D@std@@@std@@SAIABV?$allocator@D@2@@Z ENDP ; std::_Default_allocator_traits<std::allocator<char> >::max_size
_TEXT	ENDS
; Function compile flags: /Odtp /RTCsu /ZI
; File C:\Program Files (x86)\Microsoft Visual Studio\2019\Professional\VC\Tools\MSVC\14.28.29333\include\xstring
;	COMDAT ?_Xlen_string@std@@YAXXZ
_TEXT	SEGMENT
?_Xlen_string@std@@YAXXZ PROC				; std::_Xlen_string, COMDAT

; 2274 : [[noreturn]] inline void _Xlen_string() {

	push	ebp
	mov	ebp, esp
	sub	esp, 192				; 000000c0H
	push	ebx
	push	esi
	push	edi
	lea	edi, DWORD PTR [ebp-192]
	mov	ecx, 48					; 00000030H
	mov	eax, -858993460				; ccccccccH
	rep stosd
	mov	ecx, OFFSET __C00D0CE5_xstring
	call	@__CheckForDebuggerJustMyCode@4

; 2275 :     _Xlength_error("string too long");

	push	OFFSET ??_C@_0BA@JFNIOLAK@string?5too?5long@
	call	?_Xlength_error@std@@YAXPBD@Z		; std::_Xlength_error
$LN2@Xlen_strin:

; 2276 : }

	pop	edi
	pop	esi
	pop	ebx
	add	esp, 192				; 000000c0H
	cmp	ebp, esp
	call	__RTC_CheckEsp
	mov	esp, ebp
	pop	ebp
	ret	0
?_Xlen_string@std@@YAXXZ ENDP				; std::_Xlen_string
_TEXT	ENDS
; Function compile flags: /Odtp /RTCsu /ZI
; File C:\Program Files (x86)\Microsoft Visual Studio\2019\Professional\VC\Tools\MSVC\14.28.29333\include\xstring
;	COMDAT ?data@?$basic_string_view@_WU?$char_traits@_W@std@@@std@@QBEPB_WXZ
_TEXT	SEGMENT
_this$ = -8						; size = 4
?data@?$basic_string_view@_WU?$char_traits@_W@std@@@std@@QBEPB_WXZ PROC ; std::basic_string_view<wchar_t,std::char_traits<wchar_t> >::data, COMDAT
; _this$ = ecx

; 1316 :     _NODISCARD constexpr const_pointer data() const noexcept {

	push	ebp
	mov	ebp, esp
	sub	esp, 204				; 000000ccH
	push	ebx
	push	esi
	push	edi
	push	ecx
	lea	edi, DWORD PTR [ebp-204]
	mov	ecx, 51					; 00000033H
	mov	eax, -858993460				; ccccccccH
	rep stosd
	pop	ecx
	mov	DWORD PTR _this$[ebp], ecx
	mov	ecx, OFFSET __C00D0CE5_xstring
	call	@__CheckForDebuggerJustMyCode@4

; 1317 :         return _Mydata;

	mov	eax, DWORD PTR _this$[ebp]
	mov	eax, DWORD PTR [eax]

; 1318 :     }

	pop	edi
	pop	esi
	pop	ebx
	add	esp, 204				; 000000ccH
	cmp	ebp, esp
	call	__RTC_CheckEsp
	mov	esp, ebp
	pop	ebp
	ret	0
?data@?$basic_string_view@_WU?$char_traits@_W@std@@@std@@QBEPB_WXZ ENDP ; std::basic_string_view<wchar_t,std::char_traits<wchar_t> >::data
_TEXT	ENDS
; Function compile flags: /Odtp /RTCsu /ZI
; File C:\Program Files (x86)\Microsoft Visual Studio\2019\Professional\VC\Tools\MSVC\14.28.29333\include\xstring
;	COMDAT ?empty@?$basic_string_view@_WU?$char_traits@_W@std@@@std@@QBE_NXZ
_TEXT	SEGMENT
tv66 = -208						; size = 4
_this$ = -8						; size = 4
?empty@?$basic_string_view@_WU?$char_traits@_W@std@@@std@@QBE_NXZ PROC ; std::basic_string_view<wchar_t,std::char_traits<wchar_t> >::empty, COMDAT
; _this$ = ecx

; 1312 :     _NODISCARD constexpr bool empty() const noexcept {

	push	ebp
	mov	ebp, esp
	sub	esp, 208				; 000000d0H
	push	ebx
	push	esi
	push	edi
	push	ecx
	lea	edi, DWORD PTR [ebp-208]
	mov	ecx, 52					; 00000034H
	mov	eax, -858993460				; ccccccccH
	rep stosd
	pop	ecx
	mov	DWORD PTR _this$[ebp], ecx
	mov	ecx, OFFSET __C00D0CE5_xstring
	call	@__CheckForDebuggerJustMyCode@4

; 1313 :         return _Mysize == 0;

	mov	eax, DWORD PTR _this$[ebp]
	cmp	DWORD PTR [eax+4], 0
	jne	SHORT $LN3@empty
	mov	DWORD PTR tv66[ebp], 1
	jmp	SHORT $LN4@empty
$LN3@empty:
	mov	DWORD PTR tv66[ebp], 0
$LN4@empty:
	mov	al, BYTE PTR tv66[ebp]

; 1314 :     }

	pop	edi
	pop	esi
	pop	ebx
	add	esp, 208				; 000000d0H
	cmp	ebp, esp
	call	__RTC_CheckEsp
	mov	esp, ebp
	pop	ebp
	ret	0
?empty@?$basic_string_view@_WU?$char_traits@_W@std@@@std@@QBE_NXZ ENDP ; std::basic_string_view<wchar_t,std::char_traits<wchar_t> >::empty
_TEXT	ENDS
; Function compile flags: /Odtp /RTCsu /ZI
; File C:\Program Files (x86)\Microsoft Visual Studio\2019\Professional\VC\Tools\MSVC\14.28.29333\include\xstring
;	COMDAT ?size@?$basic_string_view@_WU?$char_traits@_W@std@@@std@@QBEIXZ
_TEXT	SEGMENT
_this$ = -8						; size = 4
?size@?$basic_string_view@_WU?$char_traits@_W@std@@@std@@QBEIXZ PROC ; std::basic_string_view<wchar_t,std::char_traits<wchar_t> >::size, COMDAT
; _this$ = ecx

; 1304 :     _NODISCARD constexpr size_type size() const noexcept {

	push	ebp
	mov	ebp, esp
	sub	esp, 204				; 000000ccH
	push	ebx
	push	esi
	push	edi
	push	ecx
	lea	edi, DWORD PTR [ebp-204]
	mov	ecx, 51					; 00000033H
	mov	eax, -858993460				; ccccccccH
	rep stosd
	pop	ecx
	mov	DWORD PTR _this$[ebp], ecx
	mov	ecx, OFFSET __C00D0CE5_xstring
	call	@__CheckForDebuggerJustMyCode@4

; 1305 :         return _Mysize;

	mov	eax, DWORD PTR _this$[ebp]
	mov	eax, DWORD PTR [eax+4]

; 1306 :     }

	pop	edi
	pop	esi
	pop	ebx
	add	esp, 204				; 000000ccH
	cmp	ebp, esp
	call	__RTC_CheckEsp
	mov	esp, ebp
	pop	ebp
	ret	0
?size@?$basic_string_view@_WU?$char_traits@_W@std@@@std@@QBEIXZ ENDP ; std::basic_string_view<wchar_t,std::char_traits<wchar_t> >::size
_TEXT	ENDS
; Function compile flags: /Odtp /RTCsu /ZI
; File C:\Program Files (x86)\Microsoft Visual Studio\2019\Professional\VC\Tools\MSVC\14.28.29333\include\xstring
;	COMDAT ??0?$basic_string_view@_WU?$char_traits@_W@std@@@std@@QAE@QB_WI@Z
_TEXT	SEGMENT
_this$ = -8						; size = 4
__Cts$ = 8						; size = 4
__Count$ = 12						; size = 4
??0?$basic_string_view@_WU?$char_traits@_W@std@@@std@@QAE@QB_WI@Z PROC ; std::basic_string_view<wchar_t,std::char_traits<wchar_t> >::basic_string_view<wchar_t,std::char_traits<wchar_t> >, COMDAT
; _this$ = ecx

; 1241 :         : _Mydata(_Cts), _Mysize(_Count) {

	push	ebp
	mov	ebp, esp
	sub	esp, 204				; 000000ccH
	push	ebx
	push	esi
	push	edi
	push	ecx
	lea	edi, DWORD PTR [ebp-204]
	mov	ecx, 51					; 00000033H
	mov	eax, -858993460				; ccccccccH
	rep stosd
	pop	ecx
	mov	DWORD PTR _this$[ebp], ecx
	mov	ecx, OFFSET __C00D0CE5_xstring
	call	@__CheckForDebuggerJustMyCode@4
	mov	eax, DWORD PTR _this$[ebp]
	mov	ecx, DWORD PTR __Cts$[ebp]
	mov	DWORD PTR [eax], ecx
	mov	eax, DWORD PTR _this$[ebp]
	mov	ecx, DWORD PTR __Count$[ebp]
	mov	DWORD PTR [eax+4], ecx
$LN4@basic_stri:

; 1242 : #if _CONTAINER_DEBUG_LEVEL > 0
; 1243 :         _STL_VERIFY(_Count == 0 || _Cts, "non-zero size null string_view");

	cmp	DWORD PTR __Count$[ebp], 0
	je	SHORT $LN10@basic_stri
	cmp	DWORD PTR __Cts$[ebp], 0
	je	SHORT $LN7@basic_stri
$LN10@basic_stri:
	jmp	SHORT $LN2@basic_stri
$LN7@basic_stri:
	mov	esi, esp
	push	OFFSET ??_C@_0BP@FCPKDACH@non?9zero?5size?5null?5string_view@
	push	OFFSET ??_C@_02DKCKIIND@?$CFs@
	push	0
	push	1243					; 000004dbH
	push	OFFSET ??_C@_0GL@FMDBFDGL@C?3?2Program?5Files?5?$CIx86?$CJ?2Microsof@
	push	2
	call	DWORD PTR __imp___CrtDbgReport
	add	esp, 24					; 00000018H
	cmp	esi, esp
	call	__RTC_CheckEsp
	cmp	eax, 1
	jne	SHORT $LN12@basic_stri
	int	3
$LN12@basic_stri:
	mov	esi, esp
	push	0
	push	1243					; 000004dbH
	push	OFFSET ??_C@_1NG@LEPIOBNH@?$AAC?$AA?3?$AA?2?$AAP?$AAr?$AAo?$AAg?$AAr?$AAa?$AAm?$AA?5?$AAF?$AAi?$AAl?$AAe@
	push	OFFSET ??_C@_1KK@IKKHLFNC@?$AAs?$AAt?$AAd?$AA?3?$AA?3?$AAb?$AAa?$AAs?$AAi?$AAc?$AA_?$AAs?$AAt?$AAr?$AAi@
	push	OFFSET ??_C@_1EC@EBKHCANC@?$AA?$CC?$AAn?$AAo?$AAn?$AA?9?$AAz?$AAe?$AAr?$AAo?$AA?5?$AAs?$AAi?$AAz?$AAe?$AA?5@
	call	DWORD PTR __imp___invalid_parameter
	add	esp, 20					; 00000014H
	cmp	esi, esp
	call	__RTC_CheckEsp
	xor	eax, eax
	jne	SHORT $LN7@basic_stri
$LN2@basic_stri:
	xor	eax, eax
	jne	SHORT $LN4@basic_stri

; 1244 : #endif // _CONTAINER_DEBUG_LEVEL > 0
; 1245 :     }

	mov	eax, DWORD PTR _this$[ebp]
	pop	edi
	pop	esi
	pop	ebx
	add	esp, 204				; 000000ccH
	cmp	ebp, esp
	call	__RTC_CheckEsp
	mov	esp, ebp
	pop	ebp
	ret	8
??0?$basic_string_view@_WU?$char_traits@_W@std@@@std@@QAE@QB_WI@Z ENDP ; std::basic_string_view<wchar_t,std::char_traits<wchar_t> >::basic_string_view<wchar_t,std::char_traits<wchar_t> >
_TEXT	ENDS
; Function compile flags: /Odtp /RTCsu /ZI
;	COMDAT ?__autoclassinit2@?$basic_string_view@DU?$char_traits@D@std@@@std@@QAEXI@Z
_TEXT	SEGMENT
_this$ = -8						; size = 4
_classSize$ = 8						; size = 4
?__autoclassinit2@?$basic_string_view@DU?$char_traits@D@std@@@std@@QAEXI@Z PROC ; std::basic_string_view<char,std::char_traits<char> >::__autoclassinit2, COMDAT
; _this$ = ecx
	push	ebp
	mov	ebp, esp
	sub	esp, 204				; 000000ccH
	push	ebx
	push	esi
	push	edi
	push	ecx
	lea	edi, DWORD PTR [ebp-204]
	mov	ecx, 51					; 00000033H
	mov	eax, -858993460				; ccccccccH
	rep stosd
	pop	ecx
	mov	DWORD PTR _this$[ebp], ecx
	mov	eax, DWORD PTR _classSize$[ebp]
	push	eax
	push	0
	mov	ecx, DWORD PTR _this$[ebp]
	push	ecx
	call	_memset
	add	esp, 12					; 0000000cH
	pop	edi
	pop	esi
	pop	ebx
	add	esp, 204				; 000000ccH
	cmp	ebp, esp
	call	__RTC_CheckEsp
	mov	esp, ebp
	pop	ebp
	ret	4
?__autoclassinit2@?$basic_string_view@DU?$char_traits@D@std@@@std@@QAEXI@Z ENDP ; std::basic_string_view<char,std::char_traits<char> >::__autoclassinit2
_TEXT	ENDS
; Function compile flags: /Odtp /RTCsu /ZI
; File C:\Program Files (x86)\Microsoft Visual Studio\2019\Professional\VC\Tools\MSVC\14.28.29333\include\xstring
;	COMDAT ?data@?$basic_string_view@DU?$char_traits@D@std@@@std@@QBEPBDXZ
_TEXT	SEGMENT
_this$ = -8						; size = 4
?data@?$basic_string_view@DU?$char_traits@D@std@@@std@@QBEPBDXZ PROC ; std::basic_string_view<char,std::char_traits<char> >::data, COMDAT
; _this$ = ecx

; 1316 :     _NODISCARD constexpr const_pointer data() const noexcept {

	push	ebp
	mov	ebp, esp
	sub	esp, 204				; 000000ccH
	push	ebx
	push	esi
	push	edi
	push	ecx
	lea	edi, DWORD PTR [ebp-204]
	mov	ecx, 51					; 00000033H
	mov	eax, -858993460				; ccccccccH
	rep stosd
	pop	ecx
	mov	DWORD PTR _this$[ebp], ecx
	mov	ecx, OFFSET __C00D0CE5_xstring
	call	@__CheckForDebuggerJustMyCode@4

; 1317 :         return _Mydata;

	mov	eax, DWORD PTR _this$[ebp]
	mov	eax, DWORD PTR [eax]

; 1318 :     }

	pop	edi
	pop	esi
	pop	ebx
	add	esp, 204				; 000000ccH
	cmp	ebp, esp
	call	__RTC_CheckEsp
	mov	esp, ebp
	pop	ebp
	ret	0
?data@?$basic_string_view@DU?$char_traits@D@std@@@std@@QBEPBDXZ ENDP ; std::basic_string_view<char,std::char_traits<char> >::data
_TEXT	ENDS
; Function compile flags: /Odtp /RTCsu /ZI
; File C:\Program Files (x86)\Microsoft Visual Studio\2019\Professional\VC\Tools\MSVC\14.28.29333\include\xstring
;	COMDAT ?empty@?$basic_string_view@DU?$char_traits@D@std@@@std@@QBE_NXZ
_TEXT	SEGMENT
tv66 = -208						; size = 4
_this$ = -8						; size = 4
?empty@?$basic_string_view@DU?$char_traits@D@std@@@std@@QBE_NXZ PROC ; std::basic_string_view<char,std::char_traits<char> >::empty, COMDAT
; _this$ = ecx

; 1312 :     _NODISCARD constexpr bool empty() const noexcept {

	push	ebp
	mov	ebp, esp
	sub	esp, 208				; 000000d0H
	push	ebx
	push	esi
	push	edi
	push	ecx
	lea	edi, DWORD PTR [ebp-208]
	mov	ecx, 52					; 00000034H
	mov	eax, -858993460				; ccccccccH
	rep stosd
	pop	ecx
	mov	DWORD PTR _this$[ebp], ecx
	mov	ecx, OFFSET __C00D0CE5_xstring
	call	@__CheckForDebuggerJustMyCode@4

; 1313 :         return _Mysize == 0;

	mov	eax, DWORD PTR _this$[ebp]
	cmp	DWORD PTR [eax+4], 0
	jne	SHORT $LN3@empty
	mov	DWORD PTR tv66[ebp], 1
	jmp	SHORT $LN4@empty
$LN3@empty:
	mov	DWORD PTR tv66[ebp], 0
$LN4@empty:
	mov	al, BYTE PTR tv66[ebp]

; 1314 :     }

	pop	edi
	pop	esi
	pop	ebx
	add	esp, 208				; 000000d0H
	cmp	ebp, esp
	call	__RTC_CheckEsp
	mov	esp, ebp
	pop	ebp
	ret	0
?empty@?$basic_string_view@DU?$char_traits@D@std@@@std@@QBE_NXZ ENDP ; std::basic_string_view<char,std::char_traits<char> >::empty
_TEXT	ENDS
; Function compile flags: /Odtp /RTCsu /ZI
; File C:\Program Files (x86)\Microsoft Visual Studio\2019\Professional\VC\Tools\MSVC\14.28.29333\include\xstring
;	COMDAT ?size@?$basic_string_view@DU?$char_traits@D@std@@@std@@QBEIXZ
_TEXT	SEGMENT
_this$ = -8						; size = 4
?size@?$basic_string_view@DU?$char_traits@D@std@@@std@@QBEIXZ PROC ; std::basic_string_view<char,std::char_traits<char> >::size, COMDAT
; _this$ = ecx

; 1304 :     _NODISCARD constexpr size_type size() const noexcept {

	push	ebp
	mov	ebp, esp
	sub	esp, 204				; 000000ccH
	push	ebx
	push	esi
	push	edi
	push	ecx
	lea	edi, DWORD PTR [ebp-204]
	mov	ecx, 51					; 00000033H
	mov	eax, -858993460				; ccccccccH
	rep stosd
	pop	ecx
	mov	DWORD PTR _this$[ebp], ecx
	mov	ecx, OFFSET __C00D0CE5_xstring
	call	@__CheckForDebuggerJustMyCode@4

; 1305 :         return _Mysize;

	mov	eax, DWORD PTR _this$[ebp]
	mov	eax, DWORD PTR [eax+4]

; 1306 :     }

	pop	edi
	pop	esi
	pop	ebx
	add	esp, 204				; 000000ccH
	cmp	ebp, esp
	call	__RTC_CheckEsp
	mov	esp, ebp
	pop	ebp
	ret	0
?size@?$basic_string_view@DU?$char_traits@D@std@@@std@@QBEIXZ ENDP ; std::basic_string_view<char,std::char_traits<char> >::size
_TEXT	ENDS
; Function compile flags: /Odtp /RTCsu /ZI
; File C:\Program Files (x86)\Microsoft Visual Studio\2019\Professional\VC\Tools\MSVC\14.28.29333\include\xstring
;	COMDAT ??0?$basic_string_view@DU?$char_traits@D@std@@@std@@QAE@QBDI@Z
_TEXT	SEGMENT
_this$ = -8						; size = 4
__Cts$ = 8						; size = 4
__Count$ = 12						; size = 4
??0?$basic_string_view@DU?$char_traits@D@std@@@std@@QAE@QBDI@Z PROC ; std::basic_string_view<char,std::char_traits<char> >::basic_string_view<char,std::char_traits<char> >, COMDAT
; _this$ = ecx

; 1241 :         : _Mydata(_Cts), _Mysize(_Count) {

	push	ebp
	mov	ebp, esp
	sub	esp, 204				; 000000ccH
	push	ebx
	push	esi
	push	edi
	push	ecx
	lea	edi, DWORD PTR [ebp-204]
	mov	ecx, 51					; 00000033H
	mov	eax, -858993460				; ccccccccH
	rep stosd
	pop	ecx
	mov	DWORD PTR _this$[ebp], ecx
	mov	ecx, OFFSET __C00D0CE5_xstring
	call	@__CheckForDebuggerJustMyCode@4
	mov	eax, DWORD PTR _this$[ebp]
	mov	ecx, DWORD PTR __Cts$[ebp]
	mov	DWORD PTR [eax], ecx
	mov	eax, DWORD PTR _this$[ebp]
	mov	ecx, DWORD PTR __Count$[ebp]
	mov	DWORD PTR [eax+4], ecx
$LN4@basic_stri:

; 1242 : #if _CONTAINER_DEBUG_LEVEL > 0
; 1243 :         _STL_VERIFY(_Count == 0 || _Cts, "non-zero size null string_view");

	cmp	DWORD PTR __Count$[ebp], 0
	je	SHORT $LN10@basic_stri
	cmp	DWORD PTR __Cts$[ebp], 0
	je	SHORT $LN7@basic_stri
$LN10@basic_stri:
	jmp	SHORT $LN2@basic_stri
$LN7@basic_stri:
	mov	esi, esp
	push	OFFSET ??_C@_0BP@FCPKDACH@non?9zero?5size?5null?5string_view@
	push	OFFSET ??_C@_02DKCKIIND@?$CFs@
	push	0
	push	1243					; 000004dbH
	push	OFFSET ??_C@_0GL@FMDBFDGL@C?3?2Program?5Files?5?$CIx86?$CJ?2Microsof@
	push	2
	call	DWORD PTR __imp___CrtDbgReport
	add	esp, 24					; 00000018H
	cmp	esi, esp
	call	__RTC_CheckEsp
	cmp	eax, 1
	jne	SHORT $LN12@basic_stri
	int	3
$LN12@basic_stri:
	mov	esi, esp
	push	0
	push	1243					; 000004dbH
	push	OFFSET ??_C@_1NG@LEPIOBNH@?$AAC?$AA?3?$AA?2?$AAP?$AAr?$AAo?$AAg?$AAr?$AAa?$AAm?$AA?5?$AAF?$AAi?$AAl?$AAe@
	push	OFFSET ??_C@_1JO@CKCICMOO@?$AAs?$AAt?$AAd?$AA?3?$AA?3?$AAb?$AAa?$AAs?$AAi?$AAc?$AA_?$AAs?$AAt?$AAr?$AAi@
	push	OFFSET ??_C@_1EC@EBKHCANC@?$AA?$CC?$AAn?$AAo?$AAn?$AA?9?$AAz?$AAe?$AAr?$AAo?$AA?5?$AAs?$AAi?$AAz?$AAe?$AA?5@
	call	DWORD PTR __imp___invalid_parameter
	add	esp, 20					; 00000014H
	cmp	esi, esp
	call	__RTC_CheckEsp
	xor	eax, eax
	jne	SHORT $LN7@basic_stri
$LN2@basic_stri:
	xor	eax, eax
	jne	SHORT $LN4@basic_stri

; 1244 : #endif // _CONTAINER_DEBUG_LEVEL > 0
; 1245 :     }

	mov	eax, DWORD PTR _this$[ebp]
	pop	edi
	pop	esi
	pop	ebx
	add	esp, 204				; 000000ccH
	cmp	ebp, esp
	call	__RTC_CheckEsp
	mov	esp, ebp
	pop	ebp
	ret	8
??0?$basic_string_view@DU?$char_traits@D@std@@@std@@QAE@QBDI@Z ENDP ; std::basic_string_view<char,std::char_traits<char> >::basic_string_view<char,std::char_traits<char> >
_TEXT	ENDS
; Function compile flags: /Odtp /RTCsu /ZI
; File C:\Program Files (x86)\Microsoft Visual Studio\2019\Professional\VC\Tools\MSVC\14.28.29333\include\xstring
;	COMDAT ??0?$basic_string_view@DU?$char_traits@D@std@@@std@@QAE@QBD@Z
_TEXT	SEGMENT
_this$ = -8						; size = 4
__Ntcts$ = 8						; size = 4
??0?$basic_string_view@DU?$char_traits@D@std@@@std@@QAE@QBD@Z PROC ; std::basic_string_view<char,std::char_traits<char> >::basic_string_view<char,std::char_traits<char> >, COMDAT
; _this$ = ecx

; 1237 :         : _Mydata(_Ntcts), _Mysize(_Traits::length(_Ntcts)) {}

	push	ebp
	mov	ebp, esp
	sub	esp, 204				; 000000ccH
	push	ebx
	push	esi
	push	edi
	push	ecx
	lea	edi, DWORD PTR [ebp-204]
	mov	ecx, 51					; 00000033H
	mov	eax, -858993460				; ccccccccH
	rep stosd
	pop	ecx
	mov	DWORD PTR _this$[ebp], ecx
	mov	ecx, OFFSET __C00D0CE5_xstring
	call	@__CheckForDebuggerJustMyCode@4
	mov	eax, DWORD PTR _this$[ebp]
	mov	ecx, DWORD PTR __Ntcts$[ebp]
	mov	DWORD PTR [eax], ecx
	mov	eax, DWORD PTR __Ntcts$[ebp]
	push	eax
	call	?length@?$_Narrow_char_traits@DH@std@@SAIQBD@Z ; std::_Narrow_char_traits<char,int>::length
	add	esp, 4
	mov	ecx, DWORD PTR _this$[ebp]
	mov	DWORD PTR [ecx+4], eax
	mov	eax, DWORD PTR _this$[ebp]
	pop	edi
	pop	esi
	pop	ebx
	add	esp, 204				; 000000ccH
	cmp	ebp, esp
	call	__RTC_CheckEsp
	mov	esp, ebp
	pop	ebp
	ret	4
??0?$basic_string_view@DU?$char_traits@D@std@@@std@@QAE@QBD@Z ENDP ; std::basic_string_view<char,std::char_traits<char> >::basic_string_view<char,std::char_traits<char> >
_TEXT	ENDS
; Function compile flags: /Odtp /RTCsu /ZI
; File C:\Program Files (x86)\Microsoft Visual Studio\2019\Professional\VC\Tools\MSVC\14.28.29333\include\xstring
;	COMDAT ??__Ksv@string_view_literals@literals@std@@YA?AV?$basic_string_view@DU?$char_traits@D@std@@@3@PBDI@Z
_TEXT	SEGMENT
___$ReturnUdt$ = 8					; size = 4
__Str$ = 12						; size = 4
__Len$ = 16						; size = 4
??__Ksv@string_view_literals@literals@std@@YA?AV?$basic_string_view@DU?$char_traits@D@std@@@3@PBDI@Z PROC ; std::literals::string_view_literals::operator "" sv, COMDAT

; 1806 :         _NODISCARD constexpr string_view operator"" sv(const char* _Str, size_t _Len) noexcept {

	push	ebp
	mov	ebp, esp
	sub	esp, 192				; 000000c0H
	push	ebx
	push	esi
	push	edi
	lea	edi, DWORD PTR [ebp-192]
	mov	ecx, 48					; 00000030H
	mov	eax, -858993460				; ccccccccH
	rep stosd
	mov	ecx, OFFSET __C00D0CE5_xstring
	call	@__CheckForDebuggerJustMyCode@4

; 1807 :             return string_view(_Str, _Len);

	mov	eax, DWORD PTR __Len$[ebp]
	push	eax
	mov	ecx, DWORD PTR __Str$[ebp]
	push	ecx
	mov	ecx, DWORD PTR ___$ReturnUdt$[ebp]
	call	??0?$basic_string_view@DU?$char_traits@D@std@@@std@@QAE@QBDI@Z ; std::basic_string_view<char,std::char_traits<char> >::basic_string_view<char,std::char_traits<char> >
	mov	eax, DWORD PTR ___$ReturnUdt$[ebp]

; 1808 :         }

	pop	edi
	pop	esi
	pop	ebx
	add	esp, 192				; 000000c0H
	cmp	ebp, esp
	call	__RTC_CheckEsp
	mov	esp, ebp
	pop	ebp
	ret	0
??__Ksv@string_view_literals@literals@std@@YA?AV?$basic_string_view@DU?$char_traits@D@std@@@3@PBDI@Z ENDP ; std::literals::string_view_literals::operator "" sv
_TEXT	ENDS
; Function compile flags: /Odtp /RTCsu /ZI
; File C:\Program Files (x86)\Microsoft Visual Studio\2019\Professional\VC\Tools\MSVC\14.28.29333\include\xstring
;	COMDAT ?eof@?$_Narrow_char_traits@DH@std@@SAHXZ
_TEXT	SEGMENT
?eof@?$_Narrow_char_traits@DH@std@@SAHXZ PROC		; std::_Narrow_char_traits<char,int>::eof, COMDAT

; 455  :     _NODISCARD static constexpr int_type eof() noexcept {

	push	ebp
	mov	ebp, esp
	sub	esp, 192				; 000000c0H
	push	ebx
	push	esi
	push	edi
	lea	edi, DWORD PTR [ebp-192]
	mov	ecx, 48					; 00000030H
	mov	eax, -858993460				; ccccccccH
	rep stosd
	mov	ecx, OFFSET __C00D0CE5_xstring
	call	@__CheckForDebuggerJustMyCode@4

; 456  :         return static_cast<int_type>(EOF);

	or	eax, -1

; 457  :     }

	pop	edi
	pop	esi
	pop	ebx
	add	esp, 192				; 000000c0H
	cmp	ebp, esp
	call	__RTC_CheckEsp
	mov	esp, ebp
	pop	ebp
	ret	0
?eof@?$_Narrow_char_traits@DH@std@@SAHXZ ENDP		; std::_Narrow_char_traits<char,int>::eof
_TEXT	ENDS
; Function compile flags: /Odtp /RTCsu /ZI
; File C:\Program Files (x86)\Microsoft Visual Studio\2019\Professional\VC\Tools\MSVC\14.28.29333\include\xstring
;	COMDAT ?not_eof@?$_Narrow_char_traits@DH@std@@SAHABH@Z
_TEXT	SEGMENT
tv68 = -200						; size = 4
tv69 = -196						; size = 4
__Meta$ = 8						; size = 4
?not_eof@?$_Narrow_char_traits@DH@std@@SAHABH@Z PROC	; std::_Narrow_char_traits<char,int>::not_eof, COMDAT

; 451  :     _NODISCARD static constexpr int_type not_eof(const int_type& _Meta) noexcept {

	push	ebp
	mov	ebp, esp
	sub	esp, 200				; 000000c8H
	push	ebx
	push	esi
	push	edi
	lea	edi, DWORD PTR [ebp-200]
	mov	ecx, 50					; 00000032H
	mov	eax, -858993460				; ccccccccH
	rep stosd
	mov	ecx, OFFSET __C00D0CE5_xstring
	call	@__CheckForDebuggerJustMyCode@4

; 452  :         return _Meta != eof() ? _Meta : !eof();

	call	?eof@?$_Narrow_char_traits@DH@std@@SAHXZ ; std::_Narrow_char_traits<char,int>::eof
	mov	ecx, DWORD PTR __Meta$[ebp]
	cmp	DWORD PTR [ecx], eax
	je	SHORT $LN5@not_eof
	mov	edx, DWORD PTR __Meta$[ebp]
	mov	eax, DWORD PTR [edx]
	mov	DWORD PTR tv69[ebp], eax
	jmp	SHORT $LN6@not_eof
$LN5@not_eof:
	call	?eof@?$_Narrow_char_traits@DH@std@@SAHXZ ; std::_Narrow_char_traits<char,int>::eof
	test	eax, eax
	jne	SHORT $LN3@not_eof
	mov	DWORD PTR tv68[ebp], 1
	jmp	SHORT $LN4@not_eof
$LN3@not_eof:
	mov	DWORD PTR tv68[ebp], 0
$LN4@not_eof:
	mov	ecx, DWORD PTR tv68[ebp]
	mov	DWORD PTR tv69[ebp], ecx
$LN6@not_eof:
	mov	eax, DWORD PTR tv69[ebp]

; 453  :     }

	pop	edi
	pop	esi
	pop	ebx
	add	esp, 200				; 000000c8H
	cmp	ebp, esp
	call	__RTC_CheckEsp
	mov	esp, ebp
	pop	ebp
	ret	0
?not_eof@?$_Narrow_char_traits@DH@std@@SAHABH@Z ENDP	; std::_Narrow_char_traits<char,int>::not_eof
_TEXT	ENDS
; Function compile flags: /Odtp /RTCsu /ZI
; File C:\Program Files (x86)\Microsoft Visual Studio\2019\Professional\VC\Tools\MSVC\14.28.29333\include\xstring
;	COMDAT ?eq_int_type@?$_Narrow_char_traits@DH@std@@SA_NABH0@Z
_TEXT	SEGMENT
tv65 = -196						; size = 4
__Left$ = 8						; size = 4
__Right$ = 12						; size = 4
?eq_int_type@?$_Narrow_char_traits@DH@std@@SA_NABH0@Z PROC ; std::_Narrow_char_traits<char,int>::eq_int_type, COMDAT

; 447  :     _NODISCARD static constexpr bool eq_int_type(const int_type& _Left, const int_type& _Right) noexcept {

	push	ebp
	mov	ebp, esp
	sub	esp, 196				; 000000c4H
	push	ebx
	push	esi
	push	edi
	lea	edi, DWORD PTR [ebp-196]
	mov	ecx, 49					; 00000031H
	mov	eax, -858993460				; ccccccccH
	rep stosd
	mov	ecx, OFFSET __C00D0CE5_xstring
	call	@__CheckForDebuggerJustMyCode@4

; 448  :         return _Left == _Right;

	mov	eax, DWORD PTR __Left$[ebp]
	mov	ecx, DWORD PTR __Right$[ebp]
	mov	edx, DWORD PTR [eax]
	cmp	edx, DWORD PTR [ecx]
	jne	SHORT $LN3@eq_int_typ
	mov	DWORD PTR tv65[ebp], 1
	jmp	SHORT $LN4@eq_int_typ
$LN3@eq_int_typ:
	mov	DWORD PTR tv65[ebp], 0
$LN4@eq_int_typ:
	mov	al, BYTE PTR tv65[ebp]

; 449  :     }

	pop	edi
	pop	esi
	pop	ebx
	add	esp, 196				; 000000c4H
	cmp	ebp, esp
	call	__RTC_CheckEsp
	mov	esp, ebp
	pop	ebp
	ret	0
?eq_int_type@?$_Narrow_char_traits@DH@std@@SA_NABH0@Z ENDP ; std::_Narrow_char_traits<char,int>::eq_int_type
_TEXT	ENDS
; Function compile flags: /Odtp /RTCsu /ZI
; File C:\Program Files (x86)\Microsoft Visual Studio\2019\Professional\VC\Tools\MSVC\14.28.29333\include\xstring
;	COMDAT ?to_int_type@?$_Narrow_char_traits@DH@std@@SAHABD@Z
_TEXT	SEGMENT
__Ch$ = 8						; size = 4
?to_int_type@?$_Narrow_char_traits@DH@std@@SAHABD@Z PROC ; std::_Narrow_char_traits<char,int>::to_int_type, COMDAT

; 443  :     _NODISCARD static constexpr int_type to_int_type(const _Elem& _Ch) noexcept {

	push	ebp
	mov	ebp, esp
	sub	esp, 192				; 000000c0H
	push	ebx
	push	esi
	push	edi
	lea	edi, DWORD PTR [ebp-192]
	mov	ecx, 48					; 00000030H
	mov	eax, -858993460				; ccccccccH
	rep stosd
	mov	ecx, OFFSET __C00D0CE5_xstring
	call	@__CheckForDebuggerJustMyCode@4

; 444  :         return static_cast<unsigned char>(_Ch);

	mov	eax, DWORD PTR __Ch$[ebp]
	movzx	eax, BYTE PTR [eax]

; 445  :     }

	pop	edi
	pop	esi
	pop	ebx
	add	esp, 192				; 000000c0H
	cmp	ebp, esp
	call	__RTC_CheckEsp
	mov	esp, ebp
	pop	ebp
	ret	0
?to_int_type@?$_Narrow_char_traits@DH@std@@SAHABD@Z ENDP ; std::_Narrow_char_traits<char,int>::to_int_type
_TEXT	ENDS
; Function compile flags: /Odtp /RTCsu /ZI
; File C:\Program Files (x86)\Microsoft Visual Studio\2019\Professional\VC\Tools\MSVC\14.28.29333\include\xstring
;	COMDAT ?to_char_type@?$_Narrow_char_traits@DH@std@@SADABH@Z
_TEXT	SEGMENT
__Meta$ = 8						; size = 4
?to_char_type@?$_Narrow_char_traits@DH@std@@SADABH@Z PROC ; std::_Narrow_char_traits<char,int>::to_char_type, COMDAT

; 439  :     _NODISCARD static constexpr _Elem to_char_type(const int_type& _Meta) noexcept {

	push	ebp
	mov	ebp, esp
	sub	esp, 192				; 000000c0H
	push	ebx
	push	esi
	push	edi
	lea	edi, DWORD PTR [ebp-192]
	mov	ecx, 48					; 00000030H
	mov	eax, -858993460				; ccccccccH
	rep stosd
	mov	ecx, OFFSET __C00D0CE5_xstring
	call	@__CheckForDebuggerJustMyCode@4

; 440  :         return static_cast<_Elem>(_Meta);

	mov	eax, DWORD PTR __Meta$[ebp]
	mov	al, BYTE PTR [eax]

; 441  :     }

	pop	edi
	pop	esi
	pop	ebx
	add	esp, 192				; 000000c0H
	cmp	ebp, esp
	call	__RTC_CheckEsp
	mov	esp, ebp
	pop	ebp
	ret	0
?to_char_type@?$_Narrow_char_traits@DH@std@@SADABH@Z ENDP ; std::_Narrow_char_traits<char,int>::to_char_type
_TEXT	ENDS
; Function compile flags: /Odtp /RTCsu /ZI
; File C:\Program Files (x86)\Microsoft Visual Studio\2019\Professional\VC\Tools\MSVC\14.28.29333\include\xstring
;	COMDAT ?assign@?$_Narrow_char_traits@DH@std@@SAXAADABD@Z
_TEXT	SEGMENT
__Left$ = 8						; size = 4
__Right$ = 12						; size = 4
?assign@?$_Narrow_char_traits@DH@std@@SAXAADABD@Z PROC	; std::_Narrow_char_traits<char,int>::assign, COMDAT

; 427  :     static _CONSTEXPR17 void assign(_Elem& _Left, const _Elem& _Right) noexcept {

	push	ebp
	mov	ebp, esp
	sub	esp, 192				; 000000c0H
	push	ebx
	push	esi
	push	edi
	lea	edi, DWORD PTR [ebp-192]
	mov	ecx, 48					; 00000030H
	mov	eax, -858993460				; ccccccccH
	rep stosd
	mov	ecx, OFFSET __C00D0CE5_xstring
	call	@__CheckForDebuggerJustMyCode@4

; 428  :         _Left = _Right;

	mov	eax, DWORD PTR __Left$[ebp]
	mov	ecx, DWORD PTR __Right$[ebp]
	mov	dl, BYTE PTR [ecx]
	mov	BYTE PTR [eax], dl

; 429  :     }

	pop	edi
	pop	esi
	pop	ebx
	add	esp, 192				; 000000c0H
	cmp	ebp, esp
	call	__RTC_CheckEsp
	mov	esp, ebp
	pop	ebp
	ret	0
?assign@?$_Narrow_char_traits@DH@std@@SAXAADABD@Z ENDP	; std::_Narrow_char_traits<char,int>::assign
_TEXT	ENDS
; Function compile flags: /Odtp /RTCsu /ZI
; File C:\Program Files (x86)\Microsoft Visual Studio\2019\Professional\VC\Tools\MSVC\14.28.29333\include\xstring
;	COMDAT ?assign@?$_Narrow_char_traits@DH@std@@SAPADQADID@Z
_TEXT	SEGMENT
__First$ = 8						; size = 4
__Count$ = 12						; size = 4
__Ch$ = 16						; size = 1
?assign@?$_Narrow_char_traits@DH@std@@SAPADQADID@Z PROC	; std::_Narrow_char_traits<char,int>::assign, COMDAT

; 416  :     /* strengthened */ {

	push	ebp
	mov	ebp, esp
	sub	esp, 192				; 000000c0H
	push	ebx
	push	esi
	push	edi
	lea	edi, DWORD PTR [ebp-192]
	mov	ecx, 48					; 00000030H
	mov	eax, -858993460				; ccccccccH
	rep stosd
	mov	ecx, OFFSET __C00D0CE5_xstring
	call	@__CheckForDebuggerJustMyCode@4

; 417  :         // assign _Count * _Ch to [_First, ...)
; 418  : #ifdef __cpp_lib_is_constant_evaluated
; 419  :         if (_STD is_constant_evaluated()) {
; 420  :             return _Primary_char_traits::assign(_First, _Count, _Ch);
; 421  :         }
; 422  : #endif // __cpp_lib_is_constant_evaluated
; 423  : 
; 424  :         return static_cast<_Elem*>(_CSTD memset(_First, _Ch, _Count));

	mov	eax, DWORD PTR __Count$[ebp]
	push	eax
	movsx	ecx, BYTE PTR __Ch$[ebp]
	push	ecx
	mov	edx, DWORD PTR __First$[ebp]
	push	edx
	call	_memset
	add	esp, 12					; 0000000cH

; 425  :     }

	pop	edi
	pop	esi
	pop	ebx
	add	esp, 192				; 000000c0H
	cmp	ebp, esp
	call	__RTC_CheckEsp
	mov	esp, ebp
	pop	ebp
	ret	0
?assign@?$_Narrow_char_traits@DH@std@@SAPADQADID@Z ENDP	; std::_Narrow_char_traits<char,int>::assign
_TEXT	ENDS
; Function compile flags: /Odtp /RTCsu /ZI
; File C:\Program Files (x86)\Microsoft Visual Studio\2019\Professional\VC\Tools\MSVC\14.28.29333\include\xstring
;	COMDAT ?length@?$_Narrow_char_traits@DH@std@@SAIQBD@Z
_TEXT	SEGMENT
tv66 = -208						; size = 4
tv75 = -201						; size = 1
tv72 = -200						; size = 4
tv69 = -196						; size = 4
__First$ = 8						; size = 4
?length@?$_Narrow_char_traits@DH@std@@SAIQBD@Z PROC	; std::_Narrow_char_traits<char,int>::length, COMDAT

; 373  :     _NODISCARD static _CONSTEXPR17 size_t length(_In_z_ const _Elem* const _First) noexcept /* strengthened */ {

	push	ebp
	mov	ebp, esp
	sub	esp, 208				; 000000d0H
	push	ebx
	push	esi
	push	edi
	lea	edi, DWORD PTR [ebp-208]
	mov	ecx, 52					; 00000034H
	mov	eax, -858993460				; ccccccccH
	rep stosd
	mov	ecx, OFFSET __C00D0CE5_xstring
	call	@__CheckForDebuggerJustMyCode@4

; 374  :         // find length of null-terminated string
; 375  : #if _HAS_CXX17
; 376  : #ifdef __cpp_char8_t
; 377  :         if constexpr (is_same_v<_Elem, char8_t>) {
; 378  : #if _HAS_U8_INTRINSICS
; 379  :             return __builtin_u8strlen(_First);
; 380  : #else // ^^^ use u8 intrinsics / no u8 intrinsics vvv
; 381  :             return _Primary_char_traits::length(_First);
; 382  : #endif // _HAS_U8_INTRINSICS
; 383  :         } else
; 384  : #endif // __cpp_char8_t
; 385  :         {
; 386  :             return __builtin_strlen(_First);

	mov	eax, DWORD PTR __First$[ebp]
	mov	DWORD PTR tv69[ebp], eax
	mov	ecx, DWORD PTR tv69[ebp]
	add	ecx, 1
	mov	DWORD PTR tv72[ebp], ecx
$LL3@length:
	mov	edx, DWORD PTR tv69[ebp]
	mov	al, BYTE PTR [edx]
	mov	BYTE PTR tv75[ebp], al
	add	DWORD PTR tv69[ebp], 1
	cmp	BYTE PTR tv75[ebp], 0
	jne	SHORT $LL3@length
	mov	ecx, DWORD PTR tv69[ebp]
	sub	ecx, DWORD PTR tv72[ebp]
	mov	DWORD PTR tv66[ebp], ecx
	mov	eax, DWORD PTR tv66[ebp]

; 387  :         }
; 388  : #else // _HAS_CXX17
; 389  :         return _CSTD strlen(reinterpret_cast<const char*>(_First));
; 390  : #endif // _HAS_CXX17
; 391  :     }

	pop	edi
	pop	esi
	pop	ebx
	add	esp, 208				; 000000d0H
	cmp	ebp, esp
	call	__RTC_CheckEsp
	mov	esp, ebp
	pop	ebp
	ret	0
?length@?$_Narrow_char_traits@DH@std@@SAIQBD@Z ENDP	; std::_Narrow_char_traits<char,int>::length
_TEXT	ENDS
; Function compile flags: /Odtp /RTCsu /ZI
; File C:\Program Files (x86)\Microsoft Visual Studio\2019\Professional\VC\Tools\MSVC\14.28.29333\include\xstring
;	COMDAT ?move@?$_Char_traits@DH@std@@SAPADQADQBDI@Z
_TEXT	SEGMENT
__First1$ = 8						; size = 4
__First2$ = 12						; size = 4
__Count$ = 16						; size = 4
?move@?$_Char_traits@DH@std@@SAPADQADQBDI@Z PROC	; std::_Char_traits<char,int>::move, COMDAT

; 77   :         _In_reads_(_Count) const _Elem* const _First2, const size_t _Count) noexcept /* strengthened */ {

	push	ebp
	mov	ebp, esp
	sub	esp, 192				; 000000c0H
	push	ebx
	push	esi
	push	edi
	lea	edi, DWORD PTR [ebp-192]
	mov	ecx, 48					; 00000030H
	mov	eax, -858993460				; ccccccccH
	rep stosd
	mov	ecx, OFFSET __C00D0CE5_xstring
	call	@__CheckForDebuggerJustMyCode@4

; 78   :         // copy [_First2, _First2 + _Count) to [_First1, ...), allowing overlap
; 79   : #if _HAS_MEMCPY_MEMMOVE_INTRINSICS
; 80   :         __builtin_memmove(_First1, _First2, _Count * sizeof(_Elem));
; 81   : #else // ^^^ _HAS_MEMCPY_MEMMOVE_INTRINSICS ^^^ / vvv !_HAS_MEMCPY_MEMMOVE_INTRINSICS vvv
; 82   : #ifdef __cpp_lib_is_constant_evaluated
; 83   :         if (_STD is_constant_evaluated()) {
; 84   :             // dest: [_First1, _First1 + _Count)
; 85   :             // src: [_First2, _First2 + _Count)
; 86   :             // We need to handle overlapping ranges.
; 87   :             // If _First1 is in the src range, we need a backward loop.
; 88   :             // Otherwise, the forward loop works (even if the back of dest overlaps the front of src).
; 89   : 
; 90   :             if (_First1 == _First2) {
; 91   :                 return _First1; // Self-assignment; either loop would work, but returning immediately is faster.
; 92   :             }
; 93   : 
; 94   :             // Usually, we would compare pointers with less-than, even though they could belong to different arrays.
; 95   :             // However, we're not allowed to do that during constant evaluation, so we need a linear scan for equality.
; 96   :             bool _Loop_forward = true;
; 97   : 
; 98   :             for (const _Elem* _Src = _First2; _Src != _First2 + _Count; ++_Src) {
; 99   :                 if (_First1 == _Src) {
; 100  :                     _Loop_forward = false;
; 101  :                     break;
; 102  :                 }
; 103  :             }
; 104  : 
; 105  :             if (_Loop_forward) {
; 106  :                 for (size_t _Idx = 0; _Idx < _Count; ++_Idx) {
; 107  :                     _First1[_Idx] = _First2[_Idx];
; 108  :                 }
; 109  :             } else {
; 110  :                 for (size_t _Idx = 0; _Idx < _Count; ++_Idx) {
; 111  :                     _First1[_Count - 1 - _Idx] = _First2[_Count - 1 - _Idx];
; 112  :                 }
; 113  :             }
; 114  : 
; 115  :             return _First1;
; 116  :         }
; 117  : #endif // __cpp_lib_is_constant_evaluated
; 118  : 
; 119  :         _CSTD memmove(_First1, _First2, _Count * sizeof(_Elem));

	mov	eax, DWORD PTR __Count$[ebp]
	push	eax
	mov	ecx, DWORD PTR __First2$[ebp]
	push	ecx
	mov	edx, DWORD PTR __First1$[ebp]
	push	edx
	call	_memmove
	add	esp, 12					; 0000000cH

; 120  : #endif // ^^^ !_HAS_MEMCPY_MEMMOVE_INTRINSICS ^^^
; 121  : 
; 122  :         return _First1;

	mov	eax, DWORD PTR __First1$[ebp]

; 123  :     }

	pop	edi
	pop	esi
	pop	ebx
	add	esp, 192				; 000000c0H
	cmp	ebp, esp
	call	__RTC_CheckEsp
	mov	esp, ebp
	pop	ebp
	ret	0
?move@?$_Char_traits@DH@std@@SAPADQADQBDI@Z ENDP	; std::_Char_traits<char,int>::move
_TEXT	ENDS
; Function compile flags: /Odtp /RTCsu /ZI
; File C:\Program Files (x86)\Microsoft Visual Studio\2019\Professional\VC\Tools\MSVC\14.28.29333\include\xstring
;	COMDAT ?copy@?$_Char_traits@DH@std@@SAPADQADQBDI@Z
_TEXT	SEGMENT
__First1$ = 8						; size = 4
__First2$ = 12						; size = 4
__Count$ = 16						; size = 4
?copy@?$_Char_traits@DH@std@@SAPADQADQBDI@Z PROC	; std::_Char_traits<char,int>::copy, COMDAT

; 46   :         _In_reads_(_Count) const _Elem* const _First2, const size_t _Count) noexcept /* strengthened */ {

	push	ebp
	mov	ebp, esp
	sub	esp, 192				; 000000c0H
	push	ebx
	push	esi
	push	edi
	lea	edi, DWORD PTR [ebp-192]
	mov	ecx, 48					; 00000030H
	mov	eax, -858993460				; ccccccccH
	rep stosd
	mov	ecx, OFFSET __C00D0CE5_xstring
	call	@__CheckForDebuggerJustMyCode@4

; 47   :         // copy [_First2, _First2 + _Count) to [_First1, ...)
; 48   : #if _HAS_MEMCPY_MEMMOVE_INTRINSICS
; 49   :         __builtin_memcpy(_First1, _First2, _Count * sizeof(_Elem));
; 50   : #else // ^^^ _HAS_MEMCPY_MEMMOVE_INTRINSICS ^^^ / vvv !_HAS_MEMCPY_MEMMOVE_INTRINSICS vvv
; 51   : #ifdef __cpp_lib_is_constant_evaluated
; 52   :         if (_STD is_constant_evaluated()) {
; 53   :             // pre: [_First1, _First1 + _Count) and [_First2, _First2 + _Count) do not overlap; see LWG-3085
; 54   :             for (size_t _Idx = 0; _Idx < _Count; ++_Idx) {
; 55   :                 _First1[_Idx] = _First2[_Idx];
; 56   :             }
; 57   : 
; 58   :             return _First1;
; 59   :         }
; 60   : #endif // __cpp_lib_is_constant_evaluated
; 61   : 
; 62   :         _CSTD memcpy(_First1, _First2, _Count * sizeof(_Elem));

	mov	eax, DWORD PTR __Count$[ebp]
	push	eax
	mov	ecx, DWORD PTR __First2$[ebp]
	push	ecx
	mov	edx, DWORD PTR __First1$[ebp]
	push	edx
	call	_memcpy
	add	esp, 12					; 0000000cH

; 63   : #endif // ^^^ !_HAS_MEMCPY_MEMMOVE_INTRINSICS ^^^
; 64   : 
; 65   :         return _First1;

	mov	eax, DWORD PTR __First1$[ebp]

; 66   :     }

	pop	edi
	pop	esi
	pop	ebx
	add	esp, 192				; 000000c0H
	cmp	ebp, esp
	call	__RTC_CheckEsp
	mov	esp, ebp
	pop	ebp
	ret	0
?copy@?$_Char_traits@DH@std@@SAPADQADQBDI@Z ENDP	; std::_Char_traits<char,int>::copy
_TEXT	ENDS
; Function compile flags: /Odtp /RTCsu /ZI
; File C:\Program Files (x86)\Microsoft Visual Studio\2019\Professional\VC\Tools\MSVC\14.28.29333\include\xstring
;	COMDAT ?assign@?$_WChar_traits@_W@std@@SAXAA_WAB_W@Z
_TEXT	SEGMENT
__Left$ = 8						; size = 4
__Right$ = 12						; size = 4
?assign@?$_WChar_traits@_W@std@@SAXAA_WAB_W@Z PROC	; std::_WChar_traits<wchar_t>::assign, COMDAT

; 280  :     static _CONSTEXPR17 void assign(_Elem& _Left, const _Elem& _Right) noexcept {

	push	ebp
	mov	ebp, esp
	sub	esp, 192				; 000000c0H
	push	ebx
	push	esi
	push	edi
	lea	edi, DWORD PTR [ebp-192]
	mov	ecx, 48					; 00000030H
	mov	eax, -858993460				; ccccccccH
	rep stosd
	mov	ecx, OFFSET __C00D0CE5_xstring
	call	@__CheckForDebuggerJustMyCode@4

; 281  :         _Left = _Right;

	mov	eax, DWORD PTR __Left$[ebp]
	mov	ecx, DWORD PTR __Right$[ebp]
	mov	dx, WORD PTR [ecx]
	mov	WORD PTR [eax], dx

; 282  :     }

	pop	edi
	pop	esi
	pop	ebx
	add	esp, 192				; 000000c0H
	cmp	ebp, esp
	call	__RTC_CheckEsp
	mov	esp, ebp
	pop	ebp
	ret	0
?assign@?$_WChar_traits@_W@std@@SAXAA_WAB_W@Z ENDP	; std::_WChar_traits<wchar_t>::assign
_TEXT	ENDS
; Function compile flags: /Odtp /RTCsu /ZI
; File C:\Program Files (x86)\Microsoft Visual Studio\2019\Professional\VC\Tools\MSVC\14.28.29333\include\xstring
;	COMDAT ?assign@?$_WChar_traits@_W@std@@SAPA_WQA_WI_W@Z
_TEXT	SEGMENT
__First$ = 8						; size = 4
__Count$ = 12						; size = 4
__Ch$ = 16						; size = 2
?assign@?$_WChar_traits@_W@std@@SAPA_WQA_WI_W@Z PROC	; std::_WChar_traits<wchar_t>::assign, COMDAT

; 269  :     /* strengthened */ {

	push	ebp
	mov	ebp, esp
	sub	esp, 192				; 000000c0H
	push	ebx
	push	esi
	push	edi
	lea	edi, DWORD PTR [ebp-192]
	mov	ecx, 48					; 00000030H
	mov	eax, -858993460				; ccccccccH
	rep stosd
	mov	ecx, OFFSET __C00D0CE5_xstring
	call	@__CheckForDebuggerJustMyCode@4

; 270  :         // assign _Count * _Ch to [_First, ...)
; 271  : #ifdef __cpp_lib_is_constant_evaluated
; 272  :         if (_STD is_constant_evaluated()) {
; 273  :             return _Primary_char_traits::assign(_First, _Count, _Ch);
; 274  :         }
; 275  : #endif // __cpp_lib_is_constant_evaluated
; 276  : 
; 277  :         return reinterpret_cast<_Elem*>(_CSTD wmemset(reinterpret_cast<wchar_t*>(_First), _Ch, _Count));

	mov	eax, DWORD PTR __Count$[ebp]
	push	eax
	movzx	ecx, WORD PTR __Ch$[ebp]
	push	ecx
	mov	edx, DWORD PTR __First$[ebp]
	push	edx
	call	_wmemset
	add	esp, 12					; 0000000cH

; 278  :     }

	pop	edi
	pop	esi
	pop	ebx
	add	esp, 192				; 000000c0H
	cmp	ebp, esp
	call	__RTC_CheckEsp
	mov	esp, ebp
	pop	ebp
	ret	0
?assign@?$_WChar_traits@_W@std@@SAPA_WQA_WI_W@Z ENDP	; std::_WChar_traits<wchar_t>::assign
_TEXT	ENDS
; Function compile flags: /Odtp /RTCsu /ZI
; File C:\Program Files (x86)\Microsoft Visual Studio\2019\Professional\VC\Tools\MSVC\14.28.29333\include\xstring
;	COMDAT ?copy@?$_Char_traits@_WG@std@@SAPA_WQA_WQB_WI@Z
_TEXT	SEGMENT
__First1$ = 8						; size = 4
__First2$ = 12						; size = 4
__Count$ = 16						; size = 4
?copy@?$_Char_traits@_WG@std@@SAPA_WQA_WQB_WI@Z PROC	; std::_Char_traits<wchar_t,unsigned short>::copy, COMDAT

; 46   :         _In_reads_(_Count) const _Elem* const _First2, const size_t _Count) noexcept /* strengthened */ {

	push	ebp
	mov	ebp, esp
	sub	esp, 192				; 000000c0H
	push	ebx
	push	esi
	push	edi
	lea	edi, DWORD PTR [ebp-192]
	mov	ecx, 48					; 00000030H
	mov	eax, -858993460				; ccccccccH
	rep stosd
	mov	ecx, OFFSET __C00D0CE5_xstring
	call	@__CheckForDebuggerJustMyCode@4

; 47   :         // copy [_First2, _First2 + _Count) to [_First1, ...)
; 48   : #if _HAS_MEMCPY_MEMMOVE_INTRINSICS
; 49   :         __builtin_memcpy(_First1, _First2, _Count * sizeof(_Elem));
; 50   : #else // ^^^ _HAS_MEMCPY_MEMMOVE_INTRINSICS ^^^ / vvv !_HAS_MEMCPY_MEMMOVE_INTRINSICS vvv
; 51   : #ifdef __cpp_lib_is_constant_evaluated
; 52   :         if (_STD is_constant_evaluated()) {
; 53   :             // pre: [_First1, _First1 + _Count) and [_First2, _First2 + _Count) do not overlap; see LWG-3085
; 54   :             for (size_t _Idx = 0; _Idx < _Count; ++_Idx) {
; 55   :                 _First1[_Idx] = _First2[_Idx];
; 56   :             }
; 57   : 
; 58   :             return _First1;
; 59   :         }
; 60   : #endif // __cpp_lib_is_constant_evaluated
; 61   : 
; 62   :         _CSTD memcpy(_First1, _First2, _Count * sizeof(_Elem));

	mov	eax, DWORD PTR __Count$[ebp]
	shl	eax, 1
	push	eax
	mov	ecx, DWORD PTR __First2$[ebp]
	push	ecx
	mov	edx, DWORD PTR __First1$[ebp]
	push	edx
	call	_memcpy
	add	esp, 12					; 0000000cH

; 63   : #endif // ^^^ !_HAS_MEMCPY_MEMMOVE_INTRINSICS ^^^
; 64   : 
; 65   :         return _First1;

	mov	eax, DWORD PTR __First1$[ebp]

; 66   :     }

	pop	edi
	pop	esi
	pop	ebx
	add	esp, 192				; 000000c0H
	cmp	ebp, esp
	call	__RTC_CheckEsp
	mov	esp, ebp
	pop	ebp
	ret	0
?copy@?$_Char_traits@_WG@std@@SAPA_WQA_WQB_WI@Z ENDP	; std::_Char_traits<wchar_t,unsigned short>::copy
_TEXT	ENDS
; Function compile flags: /Odtp /RTCsu /ZI
; File C:\Program Files (x86)\Microsoft Visual Studio\2019\Professional\VC\Tools\MSVC\14.28.29333\include\xmemory
;	COMDAT ?allocate@?$allocator@D@std@@QAEPADI@Z
_TEXT	SEGMENT
_this$ = -8						; size = 4
__Count$ = 8						; size = 4
?allocate@?$allocator@D@std@@QAEPADI@Z PROC		; std::allocator<char>::allocate, COMDAT
; _this$ = ecx

; 813  :     _NODISCARD __declspec(allocator) _Ty* allocate(_CRT_GUARDOVERFLOW const size_t _Count) {

	push	ebp
	mov	ebp, esp
	sub	esp, 204				; 000000ccH
	push	ebx
	push	esi
	push	edi
	push	ecx
	lea	edi, DWORD PTR [ebp-204]
	mov	ecx, 51					; 00000033H
	mov	eax, -858993460				; ccccccccH
	rep stosd
	pop	ecx
	mov	DWORD PTR _this$[ebp], ecx
	mov	ecx, OFFSET __B4DE8A79_xmemory
	call	@__CheckForDebuggerJustMyCode@4

; 814  :         return static_cast<_Ty*>(_Allocate<_New_alignof<_Ty>>(_Get_size_of_n<sizeof(_Ty)>(_Count)));

	mov	eax, DWORD PTR __Count$[ebp]
	push	eax
	call	??$_Get_size_of_n@$00@std@@YAII@Z	; std::_Get_size_of_n<1>
	add	esp, 4
	push	eax
	call	??$_Allocate@$07U_Default_allocate_traits@std@@$0A@@std@@YAPAXI@Z ; std::_Allocate<8,std::_Default_allocate_traits,0>
	add	esp, 4

; 815  :     }

	pop	edi
	pop	esi
	pop	ebx
	add	esp, 204				; 000000ccH
	cmp	ebp, esp
	call	__RTC_CheckEsp
	mov	esp, ebp
	pop	ebp
	ret	4
?allocate@?$allocator@D@std@@QAEPADI@Z ENDP		; std::allocator<char>::allocate
_TEXT	ENDS
; Function compile flags: /Odtp /RTCsu /ZI
; File C:\Program Files (x86)\Microsoft Visual Studio\2019\Professional\VC\Tools\MSVC\14.28.29333\include\xmemory
;	COMDAT ?deallocate@?$allocator@D@std@@QAEXQADI@Z
_TEXT	SEGMENT
_this$ = -8						; size = 4
__Ptr$ = 8						; size = 4
__Count$ = 12						; size = 4
?deallocate@?$allocator@D@std@@QAEXQADI@Z PROC		; std::allocator<char>::deallocate, COMDAT
; _this$ = ecx

; 808  :     void deallocate(_Ty* const _Ptr, const size_t _Count) {

	push	ebp
	mov	ebp, esp
	sub	esp, 204				; 000000ccH
	push	ebx
	push	esi
	push	edi
	push	ecx
	lea	edi, DWORD PTR [ebp-204]
	mov	ecx, 51					; 00000033H
	mov	eax, -858993460				; ccccccccH
	rep stosd
	pop	ecx
	mov	DWORD PTR _this$[ebp], ecx
	mov	ecx, OFFSET __B4DE8A79_xmemory
	call	@__CheckForDebuggerJustMyCode@4

; 809  :         // no overflow check on the following multiply; we assume _Allocate did that check
; 810  :         _Deallocate<_New_alignof<_Ty>>(_Ptr, sizeof(_Ty) * _Count);

	mov	eax, DWORD PTR __Count$[ebp]
	push	eax
	mov	ecx, DWORD PTR __Ptr$[ebp]
	push	ecx
	call	??$_Deallocate@$07$0A@@std@@YAXPAXI@Z	; std::_Deallocate<8,0>
	add	esp, 8

; 811  :     }

	pop	edi
	pop	esi
	pop	ebx
	add	esp, 204				; 000000ccH
	cmp	ebp, esp
	call	__RTC_CheckEsp
	mov	esp, ebp
	pop	ebp
	ret	8
?deallocate@?$allocator@D@std@@QAEXQADI@Z ENDP		; std::allocator<char>::deallocate
_TEXT	ENDS
; Function compile flags: /Odtp /RTCsu /ZI
; File C:\Program Files (x86)\Microsoft Visual Studio\2019\Professional\VC\Tools\MSVC\14.28.29333\include\xmemory
;	COMDAT ??0?$allocator@D@std@@QAE@XZ
_TEXT	SEGMENT
_this$ = -8						; size = 4
??0?$allocator@D@std@@QAE@XZ PROC			; std::allocator<char>::allocator<char>, COMDAT
; _this$ = ecx

; 802  :     constexpr allocator() noexcept {}

	push	ebp
	mov	ebp, esp
	sub	esp, 204				; 000000ccH
	push	ebx
	push	esi
	push	edi
	push	ecx
	lea	edi, DWORD PTR [ebp-204]
	mov	ecx, 51					; 00000033H
	mov	eax, -858993460				; ccccccccH
	rep stosd
	pop	ecx
	mov	DWORD PTR _this$[ebp], ecx
	mov	ecx, OFFSET __B4DE8A79_xmemory
	call	@__CheckForDebuggerJustMyCode@4
	mov	eax, DWORD PTR _this$[ebp]
	pop	edi
	pop	esi
	pop	ebx
	add	esp, 204				; 000000ccH
	cmp	ebp, esp
	call	__RTC_CheckEsp
	mov	esp, ebp
	pop	ebp
	ret	0
??0?$allocator@D@std@@QAE@XZ ENDP			; std::allocator<char>::allocator<char>
_TEXT	ENDS
; Function compile flags: /Odtp /RTCsu /ZI
; File C:\Program Files (x86)\Microsoft Visual Studio\2019\Professional\VC\Tools\MSVC\14.28.29333\include\xmemory
;	COMDAT ??$_Construct_in_place@U_Container_proxy@std@@PAU_Container_base12@2@@std@@YAXAAU_Container_proxy@0@$$QAPAU_Container_base12@0@@Z
_TEXT	SEGMENT
tv78 = -208						; size = 4
$T1 = -200						; size = 4
__Obj$ = 8						; size = 4
_<_Args_0>$ = 12					; size = 4
??$_Construct_in_place@U_Container_proxy@std@@PAU_Container_base12@2@@std@@YAXAAU_Container_proxy@0@$$QAPAU_Container_base12@0@@Z PROC ; std::_Construct_in_place<std::_Container_proxy,std::_Container_base12 *>, COMDAT

; 228  : void _Construct_in_place(_Ty& _Obj, _Types&&... _Args) noexcept(is_nothrow_constructible_v<_Ty, _Types...>) {

	push	ebp
	mov	ebp, esp
	sub	esp, 208				; 000000d0H
	push	ebx
	push	esi
	push	edi
	lea	edi, DWORD PTR [ebp-208]
	mov	ecx, 52					; 00000034H
	mov	eax, -858993460				; ccccccccH
	rep stosd
	mov	ecx, OFFSET __B4DE8A79_xmemory
	call	@__CheckForDebuggerJustMyCode@4
	mov	eax, DWORD PTR __Obj$[ebp]
	push	eax
	call	??$addressof@U_Container_proxy@std@@@std@@YAPAU_Container_proxy@0@AAU10@@Z ; std::addressof<std::_Container_proxy>
	add	esp, 4
	push	eax
	push	8
	call	??2@YAPAXIPAX@Z				; operator new
	add	esp, 8
	mov	DWORD PTR $T1[ebp], eax
	mov	ecx, DWORD PTR _<_Args_0>$[ebp]
	push	ecx
	call	??$forward@PAU_Container_base12@std@@@std@@YA$$QAPAU_Container_base12@0@AAPAU10@@Z ; std::forward<std::_Container_base12 *>
	add	esp, 4
	mov	edx, DWORD PTR [eax]
	mov	DWORD PTR tv78[ebp], edx
	mov	eax, DWORD PTR tv78[ebp]
	push	eax
	mov	ecx, DWORD PTR $T1[ebp]
	call	??0_Container_proxy@std@@QAE@PAU_Container_base12@1@@Z ; std::_Container_proxy::_Container_proxy

; 229  :     ::new (const_cast<void*>(static_cast<const volatile void*>(_STD addressof(_Obj))))
; 230  :         _Ty(_STD forward<_Types>(_Args)...);
; 231  : }

	pop	edi
	pop	esi
	pop	ebx
	add	esp, 208				; 000000d0H
	cmp	ebp, esp
	call	__RTC_CheckEsp
	mov	esp, ebp
	pop	ebp
	ret	0
??$_Construct_in_place@U_Container_proxy@std@@PAU_Container_base12@2@@std@@YAXAAU_Container_proxy@0@$$QAPAU_Container_base12@0@@Z ENDP ; std::_Construct_in_place<std::_Container_proxy,std::_Container_base12 *>
_TEXT	ENDS
; Function compile flags: /Odtp /RTCsu /ZI
; File C:\Program Files (x86)\Microsoft Visual Studio\2019\Professional\VC\Tools\MSVC\14.28.29333\include\xstddef
;	COMDAT ??$addressof@U_Container_base12@std@@@std@@YAPAU_Container_base12@0@AAU10@@Z
_TEXT	SEGMENT
__Val$ = 8						; size = 4
??$addressof@U_Container_base12@std@@@std@@YAPAU_Container_base12@0@AAU10@@Z PROC ; std::addressof<std::_Container_base12>, COMDAT

; 274  : _NODISCARD constexpr _Ty* addressof(_Ty& _Val) noexcept {

	push	ebp
	mov	ebp, esp
	sub	esp, 192				; 000000c0H
	push	ebx
	push	esi
	push	edi
	lea	edi, DWORD PTR [ebp-192]
	mov	ecx, 48					; 00000030H
	mov	eax, -858993460				; ccccccccH
	rep stosd
	mov	ecx, OFFSET __29547EA8_xstddef
	call	@__CheckForDebuggerJustMyCode@4

; 275  :     return __builtin_addressof(_Val);

	mov	eax, DWORD PTR __Val$[ebp]

; 276  : }

	pop	edi
	pop	esi
	pop	ebx
	add	esp, 192				; 000000c0H
	cmp	ebp, esp
	call	__RTC_CheckEsp
	mov	esp, ebp
	pop	ebp
	ret	0
??$addressof@U_Container_base12@std@@@std@@YAPAU_Container_base12@0@AAU10@@Z ENDP ; std::addressof<std::_Container_base12>
_TEXT	ENDS
; Function compile flags: /Odtp /RTCsu /ZI
; File C:\Program Files (x86)\Microsoft Visual Studio\2019\Professional\VC\Tools\MSVC\14.28.29333\include\xmemory
;	COMDAT ?_Release@_Basic_container_proxy_ptr12@std@@QAEXXZ
_TEXT	SEGMENT
_this$ = -8						; size = 4
?_Release@_Basic_container_proxy_ptr12@std@@QAEXXZ PROC	; std::_Basic_container_proxy_ptr12::_Release, COMDAT
; _this$ = ecx

; 1269 :     void _Release() noexcept { // disengage this _Basic_container_proxy_ptr12

	push	ebp
	mov	ebp, esp
	sub	esp, 204				; 000000ccH
	push	ebx
	push	esi
	push	edi
	push	ecx
	lea	edi, DWORD PTR [ebp-204]
	mov	ecx, 51					; 00000033H
	mov	eax, -858993460				; ccccccccH
	rep stosd
	pop	ecx
	mov	DWORD PTR _this$[ebp], ecx
	mov	ecx, OFFSET __B4DE8A79_xmemory
	call	@__CheckForDebuggerJustMyCode@4

; 1270 :         _Ptr = nullptr;

	mov	eax, DWORD PTR _this$[ebp]
	mov	DWORD PTR [eax], 0

; 1271 :     }

	pop	edi
	pop	esi
	pop	ebx
	add	esp, 204				; 000000ccH
	cmp	ebp, esp
	call	__RTC_CheckEsp
	mov	esp, ebp
	pop	ebp
	ret	0
?_Release@_Basic_container_proxy_ptr12@std@@QAEXXZ ENDP	; std::_Basic_container_proxy_ptr12::_Release
_TEXT	ENDS
; Function compile flags: /Odtp /RTCsu /ZI
; File C:\Program Files (x86)\Microsoft Visual Studio\2019\Professional\VC\Tools\MSVC\14.28.29333\include\xmemory
;	COMDAT ?_Swap_proxy_and_iterators@_Container_base12@std@@QAEXAAU12@@Z
_TEXT	SEGMENT
__Temp$ = -36						; size = 4
__Lock$ = -24						; size = 4
_this$ = -12						; size = 4
__$ArrayPad$ = -4					; size = 4
__Right$ = 8						; size = 4
?_Swap_proxy_and_iterators@_Container_base12@std@@QAEXAAU12@@Z PROC ; std::_Container_base12::_Swap_proxy_and_iterators, COMDAT
; _this$ = ecx

; 1224 : inline void _Container_base12::_Swap_proxy_and_iterators(_Container_base12& _Right) noexcept {

	push	ebp
	mov	ebp, esp
	sub	esp, 232				; 000000e8H
	push	ebx
	push	esi
	push	edi
	push	ecx
	lea	edi, DWORD PTR [ebp-232]
	mov	ecx, 58					; 0000003aH
	mov	eax, -858993460				; ccccccccH
	rep stosd
	pop	ecx
	mov	eax, DWORD PTR ___security_cookie
	xor	eax, ebp
	mov	DWORD PTR __$ArrayPad$[ebp], eax
	mov	DWORD PTR _this$[ebp], ecx
	mov	ecx, OFFSET __B4DE8A79_xmemory
	call	@__CheckForDebuggerJustMyCode@4

; 1225 : #if _ITERATOR_DEBUG_LEVEL == 2
; 1226 :     _Lockit _Lock(_LOCK_DEBUG);

	mov	esi, esp
	push	3
	lea	ecx, DWORD PTR __Lock$[ebp]
	call	DWORD PTR __imp_??0_Lockit@std@@QAE@H@Z
	cmp	esi, esp
	call	__RTC_CheckEsp

; 1227 : #endif // _ITERATOR_DEBUG_LEVEL == 2
; 1228 : 
; 1229 :     _Container_proxy* _Temp = _Myproxy;

	mov	eax, DWORD PTR _this$[ebp]
	mov	ecx, DWORD PTR [eax]
	mov	DWORD PTR __Temp$[ebp], ecx

; 1230 :     _Myproxy                = _Right._Myproxy;

	mov	eax, DWORD PTR _this$[ebp]
	mov	ecx, DWORD PTR __Right$[ebp]
	mov	edx, DWORD PTR [ecx]
	mov	DWORD PTR [eax], edx

; 1231 :     _Right._Myproxy         = _Temp;

	mov	eax, DWORD PTR __Right$[ebp]
	mov	ecx, DWORD PTR __Temp$[ebp]
	mov	DWORD PTR [eax], ecx

; 1232 : 
; 1233 :     if (_Myproxy) {

	mov	eax, DWORD PTR _this$[ebp]
	cmp	DWORD PTR [eax], 0
	je	SHORT $LN2@Swap_proxy

; 1234 :         _Myproxy->_Mycont = this;

	mov	eax, DWORD PTR _this$[ebp]
	mov	ecx, DWORD PTR [eax]
	mov	edx, DWORD PTR _this$[ebp]
	mov	DWORD PTR [ecx], edx
$LN2@Swap_proxy:

; 1235 :     }
; 1236 : 
; 1237 :     if (_Right._Myproxy) {

	mov	eax, DWORD PTR __Right$[ebp]
	cmp	DWORD PTR [eax], 0
	je	SHORT $LN3@Swap_proxy

; 1238 :         _Right._Myproxy->_Mycont = &_Right;

	mov	eax, DWORD PTR __Right$[ebp]
	mov	ecx, DWORD PTR [eax]
	mov	edx, DWORD PTR __Right$[ebp]
	mov	DWORD PTR [ecx], edx
$LN3@Swap_proxy:

; 1239 :     }
; 1240 : }

	mov	esi, esp
	lea	ecx, DWORD PTR __Lock$[ebp]
	call	DWORD PTR __imp_??1_Lockit@std@@QAE@XZ
	cmp	esi, esp
	call	__RTC_CheckEsp
	push	edx
	mov	ecx, ebp
	push	eax
	lea	edx, DWORD PTR $LN7@Swap_proxy
	call	@_RTC_CheckStackVars@8
	pop	eax
	pop	edx
	pop	edi
	pop	esi
	pop	ebx
	mov	ecx, DWORD PTR __$ArrayPad$[ebp]
	xor	ecx, ebp
	call	@__security_check_cookie@4
	add	esp, 232				; 000000e8H
	cmp	ebp, esp
	call	__RTC_CheckEsp
	mov	esp, ebp
	pop	ebp
	ret	4
$LN7@Swap_proxy:
	DD	1
	DD	$LN6@Swap_proxy
$LN6@Swap_proxy:
	DD	-24					; ffffffe8H
	DD	4
	DD	$LN5@Swap_proxy
$LN5@Swap_proxy:
	DB	95					; 0000005fH
	DB	76					; 0000004cH
	DB	111					; 0000006fH
	DB	99					; 00000063H
	DB	107					; 0000006bH
	DB	0
?_Swap_proxy_and_iterators@_Container_base12@std@@QAEXAAU12@@Z ENDP ; std::_Container_base12::_Swap_proxy_and_iterators
_TEXT	ENDS
; Function compile flags: /Odtp /RTCsu /ZI
; File C:\Program Files (x86)\Microsoft Visual Studio\2019\Professional\VC\Tools\MSVC\14.28.29333\include\xmemory
;	COMDAT ?_Orphan_all@_Container_base12@std@@QAEXXZ
_TEXT	SEGMENT
__Pnext$1 = -36						; size = 4
__Lock$2 = -24						; size = 4
_this$ = -12						; size = 4
__$ArrayPad$ = -4					; size = 4
?_Orphan_all@_Container_base12@std@@QAEXXZ PROC		; std::_Container_base12::_Orphan_all, COMDAT
; _this$ = ecx

; 1210 : inline void _Container_base12::_Orphan_all() noexcept {

	push	ebp
	mov	ebp, esp
	sub	esp, 232				; 000000e8H
	push	ebx
	push	esi
	push	edi
	push	ecx
	lea	edi, DWORD PTR [ebp-232]
	mov	ecx, 58					; 0000003aH
	mov	eax, -858993460				; ccccccccH
	rep stosd
	pop	ecx
	mov	eax, DWORD PTR ___security_cookie
	xor	eax, ebp
	mov	DWORD PTR __$ArrayPad$[ebp], eax
	mov	DWORD PTR _this$[ebp], ecx
	mov	ecx, OFFSET __B4DE8A79_xmemory
	call	@__CheckForDebuggerJustMyCode@4

; 1211 : #if _ITERATOR_DEBUG_LEVEL == 2
; 1212 :     if (_Myproxy) { // proxy allocated, drain it

	mov	eax, DWORD PTR _this$[ebp]
	cmp	DWORD PTR [eax], 0
	je	SHORT $LN6@Orphan_all

; 1213 :         _Lockit _Lock(_LOCK_DEBUG);

	mov	esi, esp
	push	3
	lea	ecx, DWORD PTR __Lock$2[ebp]
	call	DWORD PTR __imp_??0_Lockit@std@@QAE@H@Z
	cmp	esi, esp
	call	__RTC_CheckEsp

; 1214 : 
; 1215 :         for (auto _Pnext = &_Myproxy->_Myfirstiter; *_Pnext; *_Pnext = (*_Pnext)->_Mynextiter) {

	mov	eax, DWORD PTR _this$[ebp]
	mov	ecx, DWORD PTR [eax]
	add	ecx, 4
	mov	DWORD PTR __Pnext$1[ebp], ecx
	jmp	SHORT $LN4@Orphan_all
$LN2@Orphan_all:
	mov	eax, DWORD PTR __Pnext$1[ebp]
	mov	ecx, DWORD PTR [eax]
	mov	edx, DWORD PTR __Pnext$1[ebp]
	mov	eax, DWORD PTR [ecx+4]
	mov	DWORD PTR [edx], eax
$LN4@Orphan_all:
	mov	eax, DWORD PTR __Pnext$1[ebp]
	cmp	DWORD PTR [eax], 0
	je	SHORT $LN3@Orphan_all

; 1216 :             (*_Pnext)->_Myproxy = nullptr;

	mov	eax, DWORD PTR __Pnext$1[ebp]
	mov	ecx, DWORD PTR [eax]
	mov	DWORD PTR [ecx], 0

; 1217 :         }

	jmp	SHORT $LN2@Orphan_all
$LN3@Orphan_all:

; 1218 : 
; 1219 :         _Myproxy->_Myfirstiter = nullptr;

	mov	eax, DWORD PTR _this$[ebp]
	mov	ecx, DWORD PTR [eax]
	mov	DWORD PTR [ecx+4], 0

; 1220 :     }

	mov	esi, esp
	lea	ecx, DWORD PTR __Lock$2[ebp]
	call	DWORD PTR __imp_??1_Lockit@std@@QAE@XZ
	cmp	esi, esp
	call	__RTC_CheckEsp
$LN6@Orphan_all:

; 1221 : #endif // _ITERATOR_DEBUG_LEVEL == 2
; 1222 : }

	push	edx
	mov	ecx, ebp
	push	eax
	lea	edx, DWORD PTR $LN9@Orphan_all
	call	@_RTC_CheckStackVars@8
	pop	eax
	pop	edx
	pop	edi
	pop	esi
	pop	ebx
	mov	ecx, DWORD PTR __$ArrayPad$[ebp]
	xor	ecx, ebp
	call	@__security_check_cookie@4
	add	esp, 232				; 000000e8H
	cmp	ebp, esp
	call	__RTC_CheckEsp
	mov	esp, ebp
	pop	ebp
	ret	0
	npad	1
$LN9@Orphan_all:
	DD	1
	DD	$LN8@Orphan_all
$LN8@Orphan_all:
	DD	-24					; ffffffe8H
	DD	4
	DD	$LN7@Orphan_all
$LN7@Orphan_all:
	DB	95					; 0000005fH
	DB	76					; 0000004cH
	DB	111					; 0000006fH
	DB	99					; 00000063H
	DB	107					; 0000006bH
	DB	0
?_Orphan_all@_Container_base12@std@@QAEXXZ ENDP		; std::_Container_base12::_Orphan_all
_TEXT	ENDS
; Function compile flags: /Odtp /RTCsu /ZI
; File C:\Program Files (x86)\Microsoft Visual Studio\2019\Professional\VC\Tools\MSVC\14.28.29333\include\xmemory
;	COMDAT ??0_Container_base12@std@@QAE@XZ
_TEXT	SEGMENT
_this$ = -8						; size = 4
??0_Container_base12@std@@QAE@XZ PROC			; std::_Container_base12::_Container_base12, COMDAT
; _this$ = ecx

; 1097 :     _Container_base12() noexcept : _Myproxy(nullptr) {}

	push	ebp
	mov	ebp, esp
	sub	esp, 204				; 000000ccH
	push	ebx
	push	esi
	push	edi
	push	ecx
	lea	edi, DWORD PTR [ebp-204]
	mov	ecx, 51					; 00000033H
	mov	eax, -858993460				; ccccccccH
	rep stosd
	pop	ecx
	mov	DWORD PTR _this$[ebp], ecx
	mov	ecx, OFFSET __B4DE8A79_xmemory
	call	@__CheckForDebuggerJustMyCode@4
	mov	eax, DWORD PTR _this$[ebp]
	mov	DWORD PTR [eax], 0
	mov	eax, DWORD PTR _this$[ebp]
	pop	edi
	pop	esi
	pop	ebx
	add	esp, 204				; 000000ccH
	cmp	ebp, esp
	call	__RTC_CheckEsp
	mov	esp, ebp
	pop	ebp
	ret	0
??0_Container_base12@std@@QAE@XZ ENDP			; std::_Container_base12::_Container_base12
_TEXT	ENDS
; Function compile flags: /Odtp /RTCsu /ZI
; File C:\Program Files (x86)\Microsoft Visual Studio\2019\Professional\VC\Tools\MSVC\14.28.29333\include\xmemory
;	COMDAT ??0_Container_proxy@std@@QAE@PAU_Container_base12@1@@Z
_TEXT	SEGMENT
_this$ = -8						; size = 4
__Mycont_$ = 8						; size = 4
??0_Container_proxy@std@@QAE@PAU_Container_base12@1@@Z PROC ; std::_Container_proxy::_Container_proxy, COMDAT
; _this$ = ecx

; 1089 :     _Container_proxy(_Container_base12* _Mycont_) noexcept : _Mycont(_Mycont_), _Myfirstiter(nullptr) {}

	push	ebp
	mov	ebp, esp
	sub	esp, 204				; 000000ccH
	push	ebx
	push	esi
	push	edi
	push	ecx
	lea	edi, DWORD PTR [ebp-204]
	mov	ecx, 51					; 00000033H
	mov	eax, -858993460				; ccccccccH
	rep stosd
	pop	ecx
	mov	DWORD PTR _this$[ebp], ecx
	mov	ecx, OFFSET __B4DE8A79_xmemory
	call	@__CheckForDebuggerJustMyCode@4
	mov	eax, DWORD PTR _this$[ebp]
	mov	ecx, DWORD PTR __Mycont_$[ebp]
	mov	DWORD PTR [eax], ecx
	mov	eax, DWORD PTR _this$[ebp]
	mov	DWORD PTR [eax+4], 0
	mov	eax, DWORD PTR _this$[ebp]
	pop	edi
	pop	esi
	pop	ebx
	add	esp, 204				; 000000ccH
	cmp	ebp, esp
	call	__RTC_CheckEsp
	mov	esp, ebp
	pop	ebp
	ret	4
??0_Container_proxy@std@@QAE@PAU_Container_base12@1@@Z ENDP ; std::_Container_proxy::_Container_proxy
_TEXT	ENDS
; Function compile flags: /Odtp /RTCsu /ZI
; File C:\Program Files (x86)\Microsoft Visual Studio\2019\Professional\VC\Tools\MSVC\14.28.29333\include\xmemory
;	COMDAT ??$_Convert_size@I@std@@YAII@Z
_TEXT	SEGMENT
__Len$ = 8						; size = 4
??$_Convert_size@I@std@@YAII@Z PROC			; std::_Convert_size<unsigned int>, COMDAT

; 995  : _NODISCARD constexpr size_t _Convert_size<size_t>(const size_t _Len) noexcept {

	push	ebp
	mov	ebp, esp
	sub	esp, 192				; 000000c0H
	push	ebx
	push	esi
	push	edi
	lea	edi, DWORD PTR [ebp-192]
	mov	ecx, 48					; 00000030H
	mov	eax, -858993460				; ccccccccH
	rep stosd
	mov	ecx, OFFSET __B4DE8A79_xmemory
	call	@__CheckForDebuggerJustMyCode@4

; 996  :     // convert size_t to size_t, unchanged
; 997  :     return _Len;

	mov	eax, DWORD PTR __Len$[ebp]

; 998  : }

	pop	edi
	pop	esi
	pop	ebx
	add	esp, 192				; 000000c0H
	cmp	ebp, esp
	call	__RTC_CheckEsp
	mov	esp, ebp
	pop	ebp
	ret	0
??$_Convert_size@I@std@@YAII@Z ENDP			; std::_Convert_size<unsigned int>
_TEXT	ENDS
; Function compile flags: /Odtp /RTCsu /ZI
; File C:\Program Files (x86)\Microsoft Visual Studio\2019\Professional\VC\Tools\MSVC\14.28.29333\include\xmemory
;	COMDAT ?_Adjust_manually_vector_aligned@std@@YAXAAPAXAAI@Z
_TEXT	SEGMENT
__Back_shift$ = -44					; size = 4
__Min_back_shift$ = -32					; size = 4
__Ptr_container$ = -20					; size = 4
__Ptr_user$ = -8					; size = 4
__Ptr$ = 8						; size = 4
__Bytes$ = 12						; size = 4
?_Adjust_manually_vector_aligned@std@@YAXAAPAXAAI@Z PROC ; std::_Adjust_manually_vector_aligned, COMDAT

; 132  : inline void _Adjust_manually_vector_aligned(void*& _Ptr, size_t& _Bytes) {

	push	ebp
	mov	ebp, esp
	sub	esp, 240				; 000000f0H
	push	ebx
	push	esi
	push	edi
	lea	edi, DWORD PTR [ebp-240]
	mov	ecx, 60					; 0000003cH
	mov	eax, -858993460				; ccccccccH
	rep stosd
	mov	ecx, OFFSET __B4DE8A79_xmemory
	call	@__CheckForDebuggerJustMyCode@4

; 133  :     // adjust parameters from _Allocate_manually_vector_aligned to pass to operator delete
; 134  :     _Bytes += _Non_user_size;

	mov	eax, DWORD PTR __Bytes$[ebp]
	mov	ecx, DWORD PTR [eax]
	add	ecx, 39					; 00000027H
	mov	edx, DWORD PTR __Bytes$[ebp]
	mov	DWORD PTR [edx], ecx

; 135  : 
; 136  :     const uintptr_t* const _Ptr_user = reinterpret_cast<uintptr_t*>(_Ptr);

	mov	eax, DWORD PTR __Ptr$[ebp]
	mov	ecx, DWORD PTR [eax]
	mov	DWORD PTR __Ptr_user$[ebp], ecx

; 137  :     const uintptr_t _Ptr_container   = _Ptr_user[-1];

	mov	eax, 4
	imul	ecx, eax, -1
	mov	edx, DWORD PTR __Ptr_user$[ebp]
	mov	eax, DWORD PTR [edx+ecx]
	mov	DWORD PTR __Ptr_container$[ebp], eax
$LN4@Adjust_man:

; 138  : 
; 139  :     // If the following asserts, it likely means that we are performing
; 140  :     // an aligned delete on memory coming from an unaligned allocation.
; 141  :     _STL_ASSERT(_Ptr_user[-2] == _Big_allocation_sentinel, "invalid argument");

	mov	eax, 4
	imul	ecx, eax, -2
	mov	edx, DWORD PTR __Ptr_user$[ebp]
	cmp	DWORD PTR [edx+ecx], -84215046		; fafafafaH
	jne	SHORT $LN7@Adjust_man
	jmp	SHORT $LN2@Adjust_man
$LN7@Adjust_man:
	mov	esi, esp
	push	OFFSET ??_C@_0BB@FCMFBGOM@invalid?5argument@
	push	OFFSET ??_C@_02DKCKIIND@?$CFs@
	push	0
	mov	eax, DWORD PTR ?__LINE__Var@?0??_Adjust_manually_vector_aligned@std@@YAXAAPAXAAI@Z@4JA
	add	eax, 9
	push	eax
	push	OFFSET ??_C@_0GL@KFPMFPIC@C?3?2Program?5Files?5?$CIx86?$CJ?2Microsof@
	push	2
	call	DWORD PTR __imp___CrtDbgReport
	add	esp, 24					; 00000018H
	cmp	esi, esp
	call	__RTC_CheckEsp
	cmp	eax, 1
	jne	SHORT $LN19@Adjust_man
	int	3
$LN19@Adjust_man:
	mov	esi, esp
	push	0
	mov	eax, DWORD PTR ?__LINE__Var@?0??_Adjust_manually_vector_aligned@std@@YAXAAPAXAAI@Z@4JA
	add	eax, 9
	push	eax
	push	OFFSET ??_C@_1NG@FKHEBIAG@?$AAC?$AA?3?$AA?2?$AAP?$AAr?$AAo?$AAg?$AAr?$AAa?$AAm?$AA?5?$AAF?$AAi?$AAl?$AAe@
	push	OFFSET ??_C@_1EK@NIFDJFDG@?$AAs?$AAt?$AAd?$AA?3?$AA?3?$AA_?$AAA?$AAd?$AAj?$AAu?$AAs?$AAt?$AA_?$AAm?$AAa@
	push	OFFSET ??_C@_1CG@JNLFBNGN@?$AA?$CC?$AAi?$AAn?$AAv?$AAa?$AAl?$AAi?$AAd?$AA?5?$AAa?$AAr?$AAg?$AAu?$AAm?$AAe@
	call	DWORD PTR __imp___invalid_parameter
	add	esp, 20					; 00000014H
	cmp	esi, esp
	call	__RTC_CheckEsp
	xor	eax, eax
	jne	SHORT $LN7@Adjust_man
$LN2@Adjust_man:
	xor	eax, eax
	jne	SHORT $LN4@Adjust_man

; 142  : 
; 143  :     // Extra paranoia on aligned allocation/deallocation; ensure _Ptr_container is
; 144  :     // in range [_Min_back_shift, _Non_user_size]
; 145  : #ifdef _DEBUG
; 146  :     constexpr uintptr_t _Min_back_shift = 2 * sizeof(void*);

	mov	DWORD PTR __Min_back_shift$[ebp], 8

; 147  : #else // ^^^ _DEBUG ^^^ // vvv !_DEBUG vvv
; 148  :     constexpr uintptr_t _Min_back_shift = sizeof(void*);
; 149  : #endif // _DEBUG
; 150  :     const uintptr_t _Back_shift = reinterpret_cast<uintptr_t>(_Ptr) - _Ptr_container;

	mov	eax, DWORD PTR __Ptr$[ebp]
	mov	ecx, DWORD PTR [eax]
	sub	ecx, DWORD PTR __Ptr_container$[ebp]
	mov	DWORD PTR __Back_shift$[ebp], ecx
$LN10@Adjust_man:

; 151  :     _STL_VERIFY(_Back_shift >= _Min_back_shift && _Back_shift <= _Non_user_size, "invalid argument");

	cmp	DWORD PTR __Back_shift$[ebp], 8
	jb	SHORT $LN13@Adjust_man
	cmp	DWORD PTR __Back_shift$[ebp], 39	; 00000027H
	ja	SHORT $LN13@Adjust_man
	jmp	SHORT $LN8@Adjust_man
$LN13@Adjust_man:
	mov	esi, esp
	push	OFFSET ??_C@_0BB@FCMFBGOM@invalid?5argument@
	push	OFFSET ??_C@_02DKCKIIND@?$CFs@
	push	0
	mov	eax, DWORD PTR ?__LINE__Var@?0??_Adjust_manually_vector_aligned@std@@YAXAAPAXAAI@Z@4JA
	add	eax, 19					; 00000013H
	push	eax
	push	OFFSET ??_C@_0GL@KFPMFPIC@C?3?2Program?5Files?5?$CIx86?$CJ?2Microsof@
	push	2
	call	DWORD PTR __imp___CrtDbgReport
	add	esp, 24					; 00000018H
	cmp	esi, esp
	call	__RTC_CheckEsp
	cmp	eax, 1
	jne	SHORT $LN20@Adjust_man
	int	3
$LN20@Adjust_man:
	mov	esi, esp
	push	0
	mov	eax, DWORD PTR ?__LINE__Var@?0??_Adjust_manually_vector_aligned@std@@YAXAAPAXAAI@Z@4JA
	add	eax, 19					; 00000013H
	push	eax
	push	OFFSET ??_C@_1NG@FKHEBIAG@?$AAC?$AA?3?$AA?2?$AAP?$AAr?$AAo?$AAg?$AAr?$AAa?$AAm?$AA?5?$AAF?$AAi?$AAl?$AAe@
	push	OFFSET ??_C@_1EK@NIFDJFDG@?$AAs?$AAt?$AAd?$AA?3?$AA?3?$AA_?$AAA?$AAd?$AAj?$AAu?$AAs?$AAt?$AA_?$AAm?$AAa@
	push	OFFSET ??_C@_1CG@JNLFBNGN@?$AA?$CC?$AAi?$AAn?$AAv?$AAa?$AAl?$AAi?$AAd?$AA?5?$AAa?$AAr?$AAg?$AAu?$AAm?$AAe@
	call	DWORD PTR __imp___invalid_parameter
	add	esp, 20					; 00000014H
	cmp	esi, esp
	call	__RTC_CheckEsp
	xor	eax, eax
	jne	SHORT $LN13@Adjust_man
$LN8@Adjust_man:
	xor	eax, eax
	jne	SHORT $LN10@Adjust_man

; 152  :     _Ptr = reinterpret_cast<void*>(_Ptr_container);

	mov	eax, DWORD PTR __Ptr$[ebp]
	mov	ecx, DWORD PTR __Ptr_container$[ebp]
	mov	DWORD PTR [eax], ecx

; 153  : }

	pop	edi
	pop	esi
	pop	ebx
	add	esp, 240				; 000000f0H
	cmp	ebp, esp
	call	__RTC_CheckEsp
	mov	esp, ebp
	pop	ebp
	ret	0
?_Adjust_manually_vector_aligned@std@@YAXAAPAXAAI@Z ENDP ; std::_Adjust_manually_vector_aligned
_TEXT	ENDS
; Function compile flags: /Odtp /RTCsu /ZI
; File C:\Program Files (x86)\Microsoft Visual Studio\2019\Professional\VC\Tools\MSVC\14.28.29333\include\xmemory
;	COMDAT ?_Allocate@_Default_allocate_traits@std@@SAPAXI@Z
_TEXT	SEGMENT
__Bytes$ = 8						; size = 4
?_Allocate@_Default_allocate_traits@std@@SAPAXI@Z PROC	; std::_Default_allocate_traits::_Allocate, COMDAT

; 76   :     __declspec(allocator) static void* _Allocate(const size_t _Bytes) {

	push	ebp
	mov	ebp, esp
	sub	esp, 192				; 000000c0H
	push	ebx
	push	esi
	push	edi
	lea	edi, DWORD PTR [ebp-192]
	mov	ecx, 48					; 00000030H
	mov	eax, -858993460				; ccccccccH
	rep stosd
	mov	ecx, OFFSET __B4DE8A79_xmemory
	call	@__CheckForDebuggerJustMyCode@4

; 77   :         return ::operator new(_Bytes);

	mov	eax, DWORD PTR __Bytes$[ebp]
	push	eax
	call	??2@YAPAXI@Z				; operator new
	add	esp, 4

; 78   :     }

	pop	edi
	pop	esi
	pop	ebx
	add	esp, 192				; 000000c0H
	cmp	ebp, esp
	call	__RTC_CheckEsp
	mov	esp, ebp
	pop	ebp
	ret	0
?_Allocate@_Default_allocate_traits@std@@SAPAXI@Z ENDP	; std::_Default_allocate_traits::_Allocate
_TEXT	ENDS
; Function compile flags: /Odtp /RTCsu /ZI
; File C:\Program Files (x86)\Microsoft Visual Studio\2019\Professional\VC\Tools\MSVC\14.28.29333\include\exception
;	COMDAT ?_Throw_bad_array_new_length@std@@YAXXZ
_TEXT	SEGMENT
$T1 = -208						; size = 12
?_Throw_bad_array_new_length@std@@YAXXZ PROC		; std::_Throw_bad_array_new_length, COMDAT

; 320  : [[noreturn]] inline void _Throw_bad_array_new_length() {

	push	ebp
	mov	ebp, esp
	sub	esp, 212				; 000000d4H
	push	ebx
	push	esi
	push	edi
	lea	edi, DWORD PTR [ebp-212]
	mov	ecx, 53					; 00000035H
	mov	eax, -858993460				; ccccccccH
	rep stosd
	mov	ecx, OFFSET __8655F6A9_exception
	call	@__CheckForDebuggerJustMyCode@4

; 321  :     _THROW(bad_array_new_length{});

	lea	ecx, DWORD PTR $T1[ebp]
	call	??0bad_array_new_length@std@@QAE@XZ	; std::bad_array_new_length::bad_array_new_length
	push	OFFSET __TI3?AVbad_array_new_length@std@@
	lea	eax, DWORD PTR $T1[ebp]
	push	eax
	call	__CxxThrowException@8
$LN2@Throw_bad_:

; 322  : }

	pop	edi
	pop	esi
	pop	ebx
	add	esp, 212				; 000000d4H
	cmp	ebp, esp
	call	__RTC_CheckEsp
	mov	esp, ebp
	pop	ebp
	ret	0
?_Throw_bad_array_new_length@std@@YAXXZ ENDP		; std::_Throw_bad_array_new_length
_TEXT	ENDS
; Function compile flags: /Odtp /RTCsu /ZI
;	COMDAT ??_Gbad_array_new_length@std@@UAEPAXI@Z
_TEXT	SEGMENT
_this$ = -8						; size = 4
___flags$ = 8						; size = 4
??_Gbad_array_new_length@std@@UAEPAXI@Z PROC		; std::bad_array_new_length::`scalar deleting destructor', COMDAT
; _this$ = ecx
	push	ebp
	mov	ebp, esp
	sub	esp, 204				; 000000ccH
	push	ebx
	push	esi
	push	edi
	push	ecx
	lea	edi, DWORD PTR [ebp-204]
	mov	ecx, 51					; 00000033H
	mov	eax, -858993460				; ccccccccH
	rep stosd
	pop	ecx
	mov	DWORD PTR _this$[ebp], ecx
	mov	ecx, DWORD PTR _this$[ebp]
	call	??1bad_array_new_length@std@@UAE@XZ
	mov	eax, DWORD PTR ___flags$[ebp]
	and	eax, 1
	je	SHORT $LN2@scalar
	push	12					; 0000000cH
	mov	eax, DWORD PTR _this$[ebp]
	push	eax
	call	??3@YAXPAXI@Z				; operator delete
	add	esp, 8
$LN2@scalar:
	mov	eax, DWORD PTR _this$[ebp]
	pop	edi
	pop	esi
	pop	ebx
	add	esp, 204				; 000000ccH
	cmp	ebp, esp
	call	__RTC_CheckEsp
	mov	esp, ebp
	pop	ebp
	ret	4
??_Gbad_array_new_length@std@@UAEPAXI@Z ENDP		; std::bad_array_new_length::`scalar deleting destructor'
_TEXT	ENDS
; Function compile flags: /Odtp /RTCsu /ZI
;	COMDAT ??0bad_array_new_length@std@@QAE@ABV01@@Z
_TEXT	SEGMENT
_this$ = -8						; size = 4
___that$ = 8						; size = 4
??0bad_array_new_length@std@@QAE@ABV01@@Z PROC		; std::bad_array_new_length::bad_array_new_length, COMDAT
; _this$ = ecx
	push	ebp
	mov	ebp, esp
	sub	esp, 204				; 000000ccH
	push	ebx
	push	esi
	push	edi
	push	ecx
	lea	edi, DWORD PTR [ebp-204]
	mov	ecx, 51					; 00000033H
	mov	eax, -858993460				; ccccccccH
	rep stosd
	pop	ecx
	mov	DWORD PTR _this$[ebp], ecx
	mov	eax, DWORD PTR ___that$[ebp]
	push	eax
	mov	ecx, DWORD PTR _this$[ebp]
	call	??0bad_alloc@std@@QAE@ABV01@@Z
	mov	eax, DWORD PTR _this$[ebp]
	mov	DWORD PTR [eax], OFFSET ??_7bad_array_new_length@std@@6B@
	mov	eax, DWORD PTR _this$[ebp]
	pop	edi
	pop	esi
	pop	ebx
	add	esp, 204				; 000000ccH
	cmp	ebp, esp
	call	__RTC_CheckEsp
	mov	esp, ebp
	pop	ebp
	ret	4
??0bad_array_new_length@std@@QAE@ABV01@@Z ENDP		; std::bad_array_new_length::bad_array_new_length
_TEXT	ENDS
; Function compile flags: /Odtp /RTCsu /ZI
;	COMDAT ??1bad_array_new_length@std@@UAE@XZ
_TEXT	SEGMENT
_this$ = -8						; size = 4
??1bad_array_new_length@std@@UAE@XZ PROC		; std::bad_array_new_length::~bad_array_new_length, COMDAT
; _this$ = ecx
	push	ebp
	mov	ebp, esp
	sub	esp, 204				; 000000ccH
	push	ebx
	push	esi
	push	edi
	push	ecx
	lea	edi, DWORD PTR [ebp-204]
	mov	ecx, 51					; 00000033H
	mov	eax, -858993460				; ccccccccH
	rep stosd
	pop	ecx
	mov	DWORD PTR _this$[ebp], ecx
	mov	ecx, DWORD PTR _this$[ebp]
	call	??1bad_alloc@std@@UAE@XZ
	pop	edi
	pop	esi
	pop	ebx
	add	esp, 204				; 000000ccH
	cmp	ebp, esp
	call	__RTC_CheckEsp
	mov	esp, ebp
	pop	ebp
	ret	0
??1bad_array_new_length@std@@UAE@XZ ENDP		; std::bad_array_new_length::~bad_array_new_length
_TEXT	ENDS
; Function compile flags: /Odtp /RTCsu /ZI
; File C:\Program Files (x86)\Microsoft Visual Studio\2019\Professional\VC\Tools\MSVC\14.28.29333\include\vcruntime_exception.h
;	COMDAT ??0bad_array_new_length@std@@QAE@XZ
_TEXT	SEGMENT
_this$ = -8						; size = 4
??0bad_array_new_length@std@@QAE@XZ PROC		; std::bad_array_new_length::bad_array_new_length, COMDAT
; _this$ = ecx

; 141  :     {

	push	ebp
	mov	ebp, esp
	sub	esp, 204				; 000000ccH
	push	ebx
	push	esi
	push	edi
	push	ecx
	lea	edi, DWORD PTR [ebp-204]
	mov	ecx, 51					; 00000033H
	mov	eax, -858993460				; ccccccccH
	rep stosd
	pop	ecx
	mov	DWORD PTR _this$[ebp], ecx
	mov	ecx, OFFSET __604808BE_vcruntime_exception@h
	call	@__CheckForDebuggerJustMyCode@4

; 140  :         : bad_alloc("bad array new length")

	push	OFFSET ??_C@_0BF@KINCDENJ@bad?5array?5new?5length@
	mov	ecx, DWORD PTR _this$[ebp]
	call	??0bad_alloc@std@@AAE@QBD@Z		; std::bad_alloc::bad_alloc

; 141  :     {

	mov	eax, DWORD PTR _this$[ebp]
	mov	DWORD PTR [eax], OFFSET ??_7bad_array_new_length@std@@6B@

; 142  :     }

	mov	eax, DWORD PTR _this$[ebp]
	pop	edi
	pop	esi
	pop	ebx
	add	esp, 204				; 000000ccH
	cmp	ebp, esp
	call	__RTC_CheckEsp
	mov	esp, ebp
	pop	ebp
	ret	0
??0bad_array_new_length@std@@QAE@XZ ENDP		; std::bad_array_new_length::bad_array_new_length
_TEXT	ENDS
; Function compile flags: /Odtp /RTCsu /ZI
;	COMDAT ??_Gbad_alloc@std@@UAEPAXI@Z
_TEXT	SEGMENT
_this$ = -8						; size = 4
___flags$ = 8						; size = 4
??_Gbad_alloc@std@@UAEPAXI@Z PROC			; std::bad_alloc::`scalar deleting destructor', COMDAT
; _this$ = ecx
	push	ebp
	mov	ebp, esp
	sub	esp, 204				; 000000ccH
	push	ebx
	push	esi
	push	edi
	push	ecx
	lea	edi, DWORD PTR [ebp-204]
	mov	ecx, 51					; 00000033H
	mov	eax, -858993460				; ccccccccH
	rep stosd
	pop	ecx
	mov	DWORD PTR _this$[ebp], ecx
	mov	ecx, DWORD PTR _this$[ebp]
	call	??1bad_alloc@std@@UAE@XZ
	mov	eax, DWORD PTR ___flags$[ebp]
	and	eax, 1
	je	SHORT $LN2@scalar
	push	12					; 0000000cH
	mov	eax, DWORD PTR _this$[ebp]
	push	eax
	call	??3@YAXPAXI@Z				; operator delete
	add	esp, 8
$LN2@scalar:
	mov	eax, DWORD PTR _this$[ebp]
	pop	edi
	pop	esi
	pop	ebx
	add	esp, 204				; 000000ccH
	cmp	ebp, esp
	call	__RTC_CheckEsp
	mov	esp, ebp
	pop	ebp
	ret	4
??_Gbad_alloc@std@@UAEPAXI@Z ENDP			; std::bad_alloc::`scalar deleting destructor'
_TEXT	ENDS
; Function compile flags: /Odtp /RTCsu /ZI
;	COMDAT ??0bad_alloc@std@@QAE@ABV01@@Z
_TEXT	SEGMENT
_this$ = -8						; size = 4
___that$ = 8						; size = 4
??0bad_alloc@std@@QAE@ABV01@@Z PROC			; std::bad_alloc::bad_alloc, COMDAT
; _this$ = ecx
	push	ebp
	mov	ebp, esp
	sub	esp, 204				; 000000ccH
	push	ebx
	push	esi
	push	edi
	push	ecx
	lea	edi, DWORD PTR [ebp-204]
	mov	ecx, 51					; 00000033H
	mov	eax, -858993460				; ccccccccH
	rep stosd
	pop	ecx
	mov	DWORD PTR _this$[ebp], ecx
	mov	eax, DWORD PTR ___that$[ebp]
	push	eax
	mov	ecx, DWORD PTR _this$[ebp]
	call	??0exception@std@@QAE@ABV01@@Z		; std::exception::exception
	mov	eax, DWORD PTR _this$[ebp]
	mov	DWORD PTR [eax], OFFSET ??_7bad_alloc@std@@6B@
	mov	eax, DWORD PTR _this$[ebp]
	pop	edi
	pop	esi
	pop	ebx
	add	esp, 204				; 000000ccH
	cmp	ebp, esp
	call	__RTC_CheckEsp
	mov	esp, ebp
	pop	ebp
	ret	4
??0bad_alloc@std@@QAE@ABV01@@Z ENDP			; std::bad_alloc::bad_alloc
_TEXT	ENDS
; Function compile flags: /Odtp /RTCsu /ZI
;	COMDAT ??1bad_alloc@std@@UAE@XZ
_TEXT	SEGMENT
_this$ = -8						; size = 4
??1bad_alloc@std@@UAE@XZ PROC				; std::bad_alloc::~bad_alloc, COMDAT
; _this$ = ecx
	push	ebp
	mov	ebp, esp
	sub	esp, 204				; 000000ccH
	push	ebx
	push	esi
	push	edi
	push	ecx
	lea	edi, DWORD PTR [ebp-204]
	mov	ecx, 51					; 00000033H
	mov	eax, -858993460				; ccccccccH
	rep stosd
	pop	ecx
	mov	DWORD PTR _this$[ebp], ecx
	mov	ecx, DWORD PTR _this$[ebp]
	call	??1exception@std@@UAE@XZ		; std::exception::~exception
	pop	edi
	pop	esi
	pop	ebx
	add	esp, 204				; 000000ccH
	cmp	ebp, esp
	call	__RTC_CheckEsp
	mov	esp, ebp
	pop	ebp
	ret	0
??1bad_alloc@std@@UAE@XZ ENDP				; std::bad_alloc::~bad_alloc
_TEXT	ENDS
; Function compile flags: /Odtp /RTCsu /ZI
; File C:\Program Files (x86)\Microsoft Visual Studio\2019\Professional\VC\Tools\MSVC\14.28.29333\include\vcruntime_exception.h
;	COMDAT ??0bad_alloc@std@@AAE@QBD@Z
_TEXT	SEGMENT
_this$ = -8						; size = 4
__Message$ = 8						; size = 4
??0bad_alloc@std@@AAE@QBD@Z PROC			; std::bad_alloc::bad_alloc, COMDAT
; _this$ = ecx

; 130  :     {

	push	ebp
	mov	ebp, esp
	sub	esp, 204				; 000000ccH
	push	ebx
	push	esi
	push	edi
	push	ecx
	lea	edi, DWORD PTR [ebp-204]
	mov	ecx, 51					; 00000033H
	mov	eax, -858993460				; ccccccccH
	rep stosd
	pop	ecx
	mov	DWORD PTR _this$[ebp], ecx
	mov	ecx, OFFSET __604808BE_vcruntime_exception@h
	call	@__CheckForDebuggerJustMyCode@4

; 129  :         : exception(_Message, 1)

	push	1
	mov	eax, DWORD PTR __Message$[ebp]
	push	eax
	mov	ecx, DWORD PTR _this$[ebp]
	call	??0exception@std@@QAE@QBDH@Z		; std::exception::exception

; 130  :     {

	mov	eax, DWORD PTR _this$[ebp]
	mov	DWORD PTR [eax], OFFSET ??_7bad_alloc@std@@6B@

; 131  :     }

	mov	eax, DWORD PTR _this$[ebp]
	pop	edi
	pop	esi
	pop	ebx
	add	esp, 204				; 000000ccH
	cmp	ebp, esp
	call	__RTC_CheckEsp
	mov	esp, ebp
	pop	ebp
	ret	4
??0bad_alloc@std@@AAE@QBD@Z ENDP			; std::bad_alloc::bad_alloc
_TEXT	ENDS
; Function compile flags: /Odtp /RTCsu /ZI
;	COMDAT ??_Gexception@std@@UAEPAXI@Z
_TEXT	SEGMENT
_this$ = -8						; size = 4
___flags$ = 8						; size = 4
??_Gexception@std@@UAEPAXI@Z PROC			; std::exception::`scalar deleting destructor', COMDAT
; _this$ = ecx
	push	ebp
	mov	ebp, esp
	sub	esp, 204				; 000000ccH
	push	ebx
	push	esi
	push	edi
	push	ecx
	lea	edi, DWORD PTR [ebp-204]
	mov	ecx, 51					; 00000033H
	mov	eax, -858993460				; ccccccccH
	rep stosd
	pop	ecx
	mov	DWORD PTR _this$[ebp], ecx
	mov	ecx, DWORD PTR _this$[ebp]
	call	??1exception@std@@UAE@XZ		; std::exception::~exception
	mov	eax, DWORD PTR ___flags$[ebp]
	and	eax, 1
	je	SHORT $LN2@scalar
	push	12					; 0000000cH
	mov	eax, DWORD PTR _this$[ebp]
	push	eax
	call	??3@YAXPAXI@Z				; operator delete
	add	esp, 8
$LN2@scalar:
	mov	eax, DWORD PTR _this$[ebp]
	pop	edi
	pop	esi
	pop	ebx
	add	esp, 204				; 000000ccH
	cmp	ebp, esp
	call	__RTC_CheckEsp
	mov	esp, ebp
	pop	ebp
	ret	4
??_Gexception@std@@UAEPAXI@Z ENDP			; std::exception::`scalar deleting destructor'
_TEXT	ENDS
; Function compile flags: /Odtp /RTCsu /ZI
; File C:\Program Files (x86)\Microsoft Visual Studio\2019\Professional\VC\Tools\MSVC\14.28.29333\include\vcruntime_exception.h
;	COMDAT ?what@exception@std@@UBEPBDXZ
_TEXT	SEGMENT
tv69 = -208						; size = 4
_this$ = -8						; size = 4
?what@exception@std@@UBEPBDXZ PROC			; std::exception::what, COMDAT
; _this$ = ecx

; 94   :     {

	push	ebp
	mov	ebp, esp
	sub	esp, 208				; 000000d0H
	push	ebx
	push	esi
	push	edi
	push	ecx
	lea	edi, DWORD PTR [ebp-208]
	mov	ecx, 52					; 00000034H
	mov	eax, -858993460				; ccccccccH
	rep stosd
	pop	ecx
	mov	DWORD PTR _this$[ebp], ecx
	mov	ecx, OFFSET __604808BE_vcruntime_exception@h
	call	@__CheckForDebuggerJustMyCode@4

; 95   :         return _Data._What ? _Data._What : "Unknown exception";

	mov	eax, DWORD PTR _this$[ebp]
	cmp	DWORD PTR [eax+4], 0
	je	SHORT $LN3@what
	mov	ecx, DWORD PTR _this$[ebp]
	mov	edx, DWORD PTR [ecx+4]
	mov	DWORD PTR tv69[ebp], edx
	jmp	SHORT $LN4@what
$LN3@what:
	mov	DWORD PTR tv69[ebp], OFFSET ??_C@_0BC@EOODALEL@Unknown?5exception@
$LN4@what:
	mov	eax, DWORD PTR tv69[ebp]

; 96   :     }

	pop	edi
	pop	esi
	pop	ebx
	add	esp, 208				; 000000d0H
	cmp	ebp, esp
	call	__RTC_CheckEsp
	mov	esp, ebp
	pop	ebp
	ret	0
?what@exception@std@@UBEPBDXZ ENDP			; std::exception::what
_TEXT	ENDS
; Function compile flags: /Odtp /RTCsu /ZI
; File C:\Program Files (x86)\Microsoft Visual Studio\2019\Professional\VC\Tools\MSVC\14.28.29333\include\vcruntime_exception.h
;	COMDAT ??1exception@std@@UAE@XZ
_TEXT	SEGMENT
_this$ = -8						; size = 4
??1exception@std@@UAE@XZ PROC				; std::exception::~exception, COMDAT
; _this$ = ecx

; 89   :     {

	push	ebp
	mov	ebp, esp
	sub	esp, 204				; 000000ccH
	push	ebx
	push	esi
	push	edi
	push	ecx
	lea	edi, DWORD PTR [ebp-204]
	mov	ecx, 51					; 00000033H
	mov	eax, -858993460				; ccccccccH
	rep stosd
	pop	ecx
	mov	DWORD PTR _this$[ebp], ecx
	mov	ecx, OFFSET __604808BE_vcruntime_exception@h
	call	@__CheckForDebuggerJustMyCode@4
	mov	eax, DWORD PTR _this$[ebp]
	mov	DWORD PTR [eax], OFFSET ??_7exception@std@@6B@

; 90   :         __std_exception_destroy(&_Data);

	mov	eax, DWORD PTR _this$[ebp]
	add	eax, 4
	push	eax
	call	___std_exception_destroy
	add	esp, 4

; 91   :     }

	pop	edi
	pop	esi
	pop	ebx
	add	esp, 204				; 000000ccH
	cmp	ebp, esp
	call	__RTC_CheckEsp
	mov	esp, ebp
	pop	ebp
	ret	0
??1exception@std@@UAE@XZ ENDP				; std::exception::~exception
_TEXT	ENDS
; Function compile flags: /Odtp /RTCsu /ZI
; File C:\Program Files (x86)\Microsoft Visual Studio\2019\Professional\VC\Tools\MSVC\14.28.29333\include\vcruntime_exception.h
;	COMDAT ??0exception@std@@QAE@ABV01@@Z
_TEXT	SEGMENT
_this$ = -8						; size = 4
__Other$ = 8						; size = 4
??0exception@std@@QAE@ABV01@@Z PROC			; std::exception::exception, COMDAT
; _this$ = ecx

; 72   :     {

	push	ebp
	mov	ebp, esp
	sub	esp, 204				; 000000ccH
	push	ebx
	push	esi
	push	edi
	push	ecx
	lea	edi, DWORD PTR [ebp-204]
	mov	ecx, 51					; 00000033H
	mov	eax, -858993460				; ccccccccH
	rep stosd
	pop	ecx
	mov	DWORD PTR _this$[ebp], ecx
	mov	ecx, OFFSET __604808BE_vcruntime_exception@h
	call	@__CheckForDebuggerJustMyCode@4
	mov	eax, DWORD PTR _this$[ebp]
	mov	DWORD PTR [eax], OFFSET ??_7exception@std@@6B@

; 71   :         : _Data()

	xor	eax, eax
	mov	ecx, DWORD PTR _this$[ebp]
	add	ecx, 4
	mov	DWORD PTR [ecx], eax
	mov	DWORD PTR [ecx+4], eax

; 73   :         __std_exception_copy(&_Other._Data, &_Data);

	mov	eax, DWORD PTR _this$[ebp]
	add	eax, 4
	push	eax
	mov	ecx, DWORD PTR __Other$[ebp]
	add	ecx, 4
	push	ecx
	call	___std_exception_copy
	add	esp, 8

; 74   :     }

	mov	eax, DWORD PTR _this$[ebp]
	pop	edi
	pop	esi
	pop	ebx
	add	esp, 204				; 000000ccH
	cmp	ebp, esp
	call	__RTC_CheckEsp
	mov	esp, ebp
	pop	ebp
	ret	4
??0exception@std@@QAE@ABV01@@Z ENDP			; std::exception::exception
_TEXT	ENDS
; Function compile flags: /Odtp /RTCsu /ZI
; File C:\Program Files (x86)\Microsoft Visual Studio\2019\Professional\VC\Tools\MSVC\14.28.29333\include\vcruntime_exception.h
;	COMDAT ??0exception@std@@QAE@QBDH@Z
_TEXT	SEGMENT
_this$ = -8						; size = 4
__Message$ = 8						; size = 4
___formal$ = 12						; size = 4
??0exception@std@@QAE@QBDH@Z PROC			; std::exception::exception, COMDAT
; _this$ = ecx

; 66   :     {

	push	ebp
	mov	ebp, esp
	sub	esp, 204				; 000000ccH
	push	ebx
	push	esi
	push	edi
	push	ecx
	lea	edi, DWORD PTR [ebp-204]
	mov	ecx, 51					; 00000033H
	mov	eax, -858993460				; ccccccccH
	rep stosd
	pop	ecx
	mov	DWORD PTR _this$[ebp], ecx
	mov	ecx, OFFSET __604808BE_vcruntime_exception@h
	call	@__CheckForDebuggerJustMyCode@4
	mov	eax, DWORD PTR _this$[ebp]
	mov	DWORD PTR [eax], OFFSET ??_7exception@std@@6B@

; 65   :         : _Data()

	xor	eax, eax
	mov	ecx, DWORD PTR _this$[ebp]
	add	ecx, 4
	mov	DWORD PTR [ecx], eax
	mov	DWORD PTR [ecx+4], eax

; 67   :         _Data._What = _Message;

	mov	eax, DWORD PTR _this$[ebp]
	mov	ecx, DWORD PTR __Message$[ebp]
	mov	DWORD PTR [eax+4], ecx

; 68   :     }

	mov	eax, DWORD PTR _this$[ebp]
	pop	edi
	pop	esi
	pop	ebx
	add	esp, 204				; 000000ccH
	cmp	ebp, esp
	call	__RTC_CheckEsp
	mov	esp, ebp
	pop	ebp
	ret	8
??0exception@std@@QAE@QBDH@Z ENDP			; std::exception::exception
_TEXT	ENDS
; Function compile flags: /Odtp /RTCsu /ZI
; File C:\Program Files (x86)\Microsoft Visual Studio\2019\Professional\VC\Tools\MSVC\14.28.29333\include\vcruntime_exception.h
;	COMDAT ??0exception@std@@QAE@QBD@Z
_TEXT	SEGMENT
__InitData$ = -28					; size = 8
_this$ = -12						; size = 4
__$ArrayPad$ = -4					; size = 4
__Message$ = 8						; size = 4
??0exception@std@@QAE@QBD@Z PROC			; std::exception::exception, COMDAT
; _this$ = ecx

; 59   :     {

	push	ebp
	mov	ebp, esp
	sub	esp, 224				; 000000e0H
	push	ebx
	push	esi
	push	edi
	push	ecx
	lea	edi, DWORD PTR [ebp-224]
	mov	ecx, 56					; 00000038H
	mov	eax, -858993460				; ccccccccH
	rep stosd
	pop	ecx
	mov	eax, DWORD PTR ___security_cookie
	xor	eax, ebp
	mov	DWORD PTR __$ArrayPad$[ebp], eax
	mov	DWORD PTR _this$[ebp], ecx
	mov	ecx, OFFSET __604808BE_vcruntime_exception@h
	call	@__CheckForDebuggerJustMyCode@4
	mov	eax, DWORD PTR _this$[ebp]
	mov	DWORD PTR [eax], OFFSET ??_7exception@std@@6B@

; 58   :         : _Data()

	xor	eax, eax
	mov	ecx, DWORD PTR _this$[ebp]
	add	ecx, 4
	mov	DWORD PTR [ecx], eax
	mov	DWORD PTR [ecx+4], eax

; 60   :         __std_exception_data _InitData = { _Message, true };

	mov	eax, DWORD PTR __Message$[ebp]
	mov	DWORD PTR __InitData$[ebp], eax
	mov	BYTE PTR __InitData$[ebp+4], 1

; 61   :         __std_exception_copy(&_InitData, &_Data);

	mov	eax, DWORD PTR _this$[ebp]
	add	eax, 4
	push	eax
	lea	ecx, DWORD PTR __InitData$[ebp]
	push	ecx
	call	___std_exception_copy
	add	esp, 8

; 62   :     }

	mov	eax, DWORD PTR _this$[ebp]
	push	edx
	mov	ecx, ebp
	push	eax
	lea	edx, DWORD PTR $LN5@exception
	call	@_RTC_CheckStackVars@8
	pop	eax
	pop	edx
	pop	edi
	pop	esi
	pop	ebx
	mov	ecx, DWORD PTR __$ArrayPad$[ebp]
	xor	ecx, ebp
	call	@__security_check_cookie@4
	add	esp, 224				; 000000e0H
	cmp	ebp, esp
	call	__RTC_CheckEsp
	mov	esp, ebp
	pop	ebp
	ret	4
	npad	2
$LN5@exception:
	DD	1
	DD	$LN4@exception
$LN4@exception:
	DD	-28					; ffffffe4H
	DD	8
	DD	$LN3@exception
$LN3@exception:
	DB	95					; 0000005fH
	DB	73					; 00000049H
	DB	110					; 0000006eH
	DB	105					; 00000069H
	DB	116					; 00000074H
	DB	68					; 00000044H
	DB	97					; 00000061H
	DB	116					; 00000074H
	DB	97					; 00000061H
	DB	0
??0exception@std@@QAE@QBD@Z ENDP			; std::exception::exception
_TEXT	ENDS
; Function compile flags: /Odtp /RTCsu /ZI
; File C:\Program Files (x86)\Microsoft Visual Studio\2019\Professional\VC\Tools\MSVC\14.28.29333\include\limits
;	COMDAT ?max@?$numeric_limits@H@std@@SAHXZ
_TEXT	SEGMENT
?max@?$numeric_limits@H@std@@SAHXZ PROC			; std::numeric_limits<int>::max, COMDAT

; 556  :     _NODISCARD static constexpr int(max)() noexcept {

	push	ebp
	mov	ebp, esp
	sub	esp, 192				; 000000c0H
	push	ebx
	push	esi
	push	edi
	lea	edi, DWORD PTR [ebp-192]
	mov	ecx, 48					; 00000030H
	mov	eax, -858993460				; ccccccccH
	rep stosd
	mov	ecx, OFFSET __A47FD3F7_limits
	call	@__CheckForDebuggerJustMyCode@4

; 557  :         return INT_MAX;

	mov	eax, 2147483647				; 7fffffffH

; 558  :     }

	pop	edi
	pop	esi
	pop	ebx
	add	esp, 192				; 000000c0H
	cmp	ebp, esp
	call	__RTC_CheckEsp
	mov	esp, ebp
	pop	ebp
	ret	0
?max@?$numeric_limits@H@std@@SAHXZ ENDP			; std::numeric_limits<int>::max
_TEXT	ENDS
; Function compile flags: /Odtp /RTCsu /ZI
; File C:\Program Files (x86)\Windows Kits\10\Include\10.0.19041.0\ucrt\wchar.h
;	COMDAT _wmemset
_TEXT	SEGMENT
__Su$ = -8						; size = 4
__S$ = 8						; size = 4
__C$ = 12						; size = 2
__N$ = 16						; size = 4
_wmemset PROC						; COMDAT

; 257  :     {

	push	ebp
	mov	ebp, esp
	sub	esp, 204				; 000000ccH
	push	ebx
	push	esi
	push	edi
	lea	edi, DWORD PTR [ebp-204]
	mov	ecx, 51					; 00000033H
	mov	eax, -858993460				; ccccccccH
	rep stosd
	mov	ecx, OFFSET __93DC0B45_wchar@h
	call	@__CheckForDebuggerJustMyCode@4

; 258  :         wchar_t *_Su = _S;

	mov	eax, DWORD PTR __S$[ebp]
	mov	DWORD PTR __Su$[ebp], eax

; 259  :         for (; 0 < _N; ++_Su, --_N)

	jmp	SHORT $LN4@wmemset
$LN2@wmemset:
	mov	eax, DWORD PTR __Su$[ebp]
	add	eax, 2
	mov	DWORD PTR __Su$[ebp], eax
	mov	ecx, DWORD PTR __N$[ebp]
	sub	ecx, 1
	mov	DWORD PTR __N$[ebp], ecx
$LN4@wmemset:
	cmp	DWORD PTR __N$[ebp], 0
	jbe	SHORT $LN3@wmemset

; 260  :         {
; 261  :             *_Su = _C;

	mov	eax, DWORD PTR __Su$[ebp]
	mov	cx, WORD PTR __C$[ebp]
	mov	WORD PTR [eax], cx

; 262  :         }

	jmp	SHORT $LN2@wmemset
$LN3@wmemset:

; 263  :         return _S;

	mov	eax, DWORD PTR __S$[ebp]

; 264  :     }

	pop	edi
	pop	esi
	pop	ebx
	add	esp, 204				; 000000ccH
	cmp	ebp, esp
	call	__RTC_CheckEsp
	mov	esp, ebp
	pop	ebp
	ret	0
_wmemset ENDP
_TEXT	ENDS
; Function compile flags: /Odtp /RTCsu /ZI
; File C:\Program Files (x86)\Windows Kits\10\Include\10.0.19041.0\ucrt\wchar.h
;	COMDAT _wmemcpy
_TEXT	SEGMENT
__S1$ = 8						; size = 4
__S2$ = 12						; size = 4
__N$ = 16						; size = 4
_wmemcpy PROC						; COMDAT

; 234  :     {

	push	ebp
	mov	ebp, esp
	sub	esp, 192				; 000000c0H
	push	ebx
	push	esi
	push	edi
	lea	edi, DWORD PTR [ebp-192]
	mov	ecx, 48					; 00000030H
	mov	eax, -858993460				; ccccccccH
	rep stosd
	mov	ecx, OFFSET __93DC0B45_wchar@h
	call	@__CheckForDebuggerJustMyCode@4

; 235  :         #pragma warning(suppress: 6386) // Buffer overrun
; 236  :         return (wchar_t*)memcpy(_S1, _S2, _N*sizeof(wchar_t));

	mov	eax, DWORD PTR __N$[ebp]
	shl	eax, 1
	push	eax
	mov	ecx, DWORD PTR __S2$[ebp]
	push	ecx
	mov	edx, DWORD PTR __S1$[ebp]
	push	edx
	call	_memcpy
	add	esp, 12					; 0000000cH

; 237  :     }

	pop	edi
	pop	esi
	pop	ebx
	add	esp, 192				; 000000c0H
	cmp	ebp, esp
	call	__RTC_CheckEsp
	mov	esp, ebp
	pop	ebp
	ret	0
_wmemcpy ENDP
_TEXT	ENDS
; Function compile flags: /Odtp /RTCsu /ZI
; File C:\Program Files (x86)\Microsoft Visual Studio\2019\Professional\VC\Tools\MSVC\14.28.29333\include\vcruntime_new.h
;	COMDAT ??2@YAPAXIPAX@Z
_TEXT	SEGMENT
__Size$ = 8						; size = 4
__Where$ = 12						; size = 4
??2@YAPAXIPAX@Z PROC					; operator new, COMDAT

; 167  :     {

	push	ebp
	mov	ebp, esp
	sub	esp, 192				; 000000c0H
	push	ebx
	push	esi
	push	edi
	lea	edi, DWORD PTR [ebp-192]
	mov	ecx, 48					; 00000030H
	mov	eax, -858993460				; ccccccccH
	rep stosd
	mov	ecx, OFFSET __8B404B8B_vcruntime_new@h
	call	@__CheckForDebuggerJustMyCode@4

; 168  :         (void)_Size;
; 169  :         return _Where;

	mov	eax, DWORD PTR __Where$[ebp]

; 170  :     }

	pop	edi
	pop	esi
	pop	ebx
	add	esp, 192				; 000000c0H
	cmp	ebp, esp
	call	__RTC_CheckEsp
	mov	esp, ebp
	pop	ebp
	ret	0
??2@YAPAXIPAX@Z ENDP					; operator new
_TEXT	ENDS
; Function compile flags: /Odtp /RTCsu /ZI
; File C:\Users\tim23\Documents\Visual Studio 2019\Projects\Project2D\Project2D\ResourceManager\NativeFileSystem.cpp
;	COMDAT ?__empty_global_delete@@YAXPAXIW4align_val_t@std@@@Z
_TEXT	SEGMENT
___formal$ = 8						; size = 4
___formal$ = 12						; size = 4
___formal$ = 16						; size = 4
?__empty_global_delete@@YAXPAXIW4align_val_t@std@@@Z PROC ; __empty_global_delete, COMDAT

	push	ebp
	mov	ebp, esp
	sub	esp, 192				; 000000c0H
	push	ebx
	push	esi
	push	edi
	lea	edi, DWORD PTR [ebp-192]
	mov	ecx, 48					; 00000030H
	mov	eax, -858993460				; ccccccccH
	rep stosd
	mov	ecx, OFFSET __6AF8D130_NativeFileSystem@cpp
	call	@__CheckForDebuggerJustMyCode@4
	pop	edi
	pop	esi
	pop	ebx
	add	esp, 192				; 000000c0H
	cmp	ebp, esp
	call	__RTC_CheckEsp
	mov	esp, ebp
	pop	ebp
	ret	0
?__empty_global_delete@@YAXPAXIW4align_val_t@std@@@Z ENDP ; __empty_global_delete
_TEXT	ENDS
; Function compile flags: /Odtp /RTCsu /ZI
; File C:\Users\tim23\Documents\Visual Studio 2019\Projects\Project2D\Project2D\ResourceManager\NativeFileSystem.cpp
;	COMDAT ?__empty_global_delete@@YAXPAXW4align_val_t@std@@@Z
_TEXT	SEGMENT
___formal$ = 8						; size = 4
___formal$ = 12						; size = 4
?__empty_global_delete@@YAXPAXW4align_val_t@std@@@Z PROC ; __empty_global_delete, COMDAT

	push	ebp
	mov	ebp, esp
	sub	esp, 192				; 000000c0H
	push	ebx
	push	esi
	push	edi
	lea	edi, DWORD PTR [ebp-192]
	mov	ecx, 48					; 00000030H
	mov	eax, -858993460				; ccccccccH
	rep stosd
	mov	ecx, OFFSET __6AF8D130_NativeFileSystem@cpp
	call	@__CheckForDebuggerJustMyCode@4
	pop	edi
	pop	esi
	pop	ebx
	add	esp, 192				; 000000c0H
	cmp	ebp, esp
	call	__RTC_CheckEsp
	mov	esp, ebp
	pop	ebp
	ret	0
?__empty_global_delete@@YAXPAXW4align_val_t@std@@@Z ENDP ; __empty_global_delete
_TEXT	ENDS
; Function compile flags: /Odtp /RTCsu /ZI
; File C:\Users\tim23\Documents\Visual Studio 2019\Projects\Project2D\Project2D\ResourceManager\NativeFileSystem.cpp
;	COMDAT ?__empty_global_delete@@YAXPAXI@Z
_TEXT	SEGMENT
___formal$ = 8						; size = 4
___formal$ = 12						; size = 4
?__empty_global_delete@@YAXPAXI@Z PROC			; __empty_global_delete, COMDAT

	push	ebp
	mov	ebp, esp
	sub	esp, 192				; 000000c0H
	push	ebx
	push	esi
	push	edi
	lea	edi, DWORD PTR [ebp-192]
	mov	ecx, 48					; 00000030H
	mov	eax, -858993460				; ccccccccH
	rep stosd
	mov	ecx, OFFSET __6AF8D130_NativeFileSystem@cpp
	call	@__CheckForDebuggerJustMyCode@4
	pop	edi
	pop	esi
	pop	ebx
	add	esp, 192				; 000000c0H
	cmp	ebp, esp
	call	__RTC_CheckEsp
	mov	esp, ebp
	pop	ebp
	ret	0
?__empty_global_delete@@YAXPAXI@Z ENDP			; __empty_global_delete
_TEXT	ENDS
; Function compile flags: /Odtp /RTCsu /ZI
; File C:\Users\tim23\Documents\Visual Studio 2019\Projects\Project2D\Project2D\ResourceManager\NativeFileSystem.cpp
;	COMDAT ?__empty_global_delete@@YAXPAX@Z
_TEXT	SEGMENT
___formal$ = 8						; size = 4
?__empty_global_delete@@YAXPAX@Z PROC			; __empty_global_delete, COMDAT

	push	ebp
	mov	ebp, esp
	sub	esp, 192				; 000000c0H
	push	ebx
	push	esi
	push	edi
	lea	edi, DWORD PTR [ebp-192]
	mov	ecx, 48					; 00000030H
	mov	eax, -858993460				; ccccccccH
	rep stosd
	mov	ecx, OFFSET __6AF8D130_NativeFileSystem@cpp
	call	@__CheckForDebuggerJustMyCode@4
	pop	edi
	pop	esi
	pop	ebx
	add	esp, 192				; 000000c0H
	cmp	ebp, esp
	call	__RTC_CheckEsp
	mov	esp, ebp
	pop	ebp
	ret	0
?__empty_global_delete@@YAXPAX@Z ENDP			; __empty_global_delete
_TEXT	ENDS
END
