; Listing generated by Microsoft (R) Optimizing Compiler Version 19.28.29335.0 

	TITLE	C:\Users\tim23\Documents\Visual Studio 2019\Projects\Project2D\Project2D\ResourceManager\ResourceManager.cpp
	.686P
	.XMM
	include listing.inc
	.model	flat

INCLUDELIB MSVCRTD
INCLUDELIB OLDNAMES

msvcjmc	SEGMENT
__8B404B8B_vcruntime_new@h DB 01H
__3C2D1DF9_Resource@h DB 01H
__2A0FE41E_ResourceName@h DB 01H
__1FEB9909_corecrt_memcpy_s@h DB 01H
__A751F051_corecrt_memory@h DB 01H
__9200769A_corecrt_wstring@h DB 01H
__32E5F013_string@h DB 01H
__4C8DB69C_cstddef DB 01H
__741AE07E_corecrt_math@h DB 01H
__B49664B7_stdlib@h DB 01H
__E9466C31_cstdlib DB 01H
__77E6CA79_type_traits DB 01H
__1157D6BA_corecrt_wtime@h DB 01H
__A0B61CF9_time@h DB 01H
__CBA6A69C_xthreads@h DB 01H
__CF4A8F35_atomic DB 01H
__FAF99A17_ResourceHandler@h DB 01H
__415253A4_cmath DB 01H
__A2143F22_corecrt_stdio_config@h DB 01H
__829E1958_corecrt_wstdio@h DB 01H
__6DFAE8B8_stdio@h DB 01H
__C6E16F6F_corecrt_wconio@h DB 01H
__6D390390_corecrt_wio@h DB 01H
__1DC1E279_stat@h DB 01H
__93DC0B45_wchar@h DB 01H
__A47FD3F7_limits DB 01H
__20BB4341_malloc@h DB 01H
__604808BE_vcruntime_exception@h DB 01H
__8655F6A9_exception DB 01H
__DEE7E6EF_xutility DB 01H
__B4DE8A79_xmemory DB 01H
__E7714AE5_tuple DB 01H
__EA01D114_xpolymorphic_allocator@h DB 01H
__7EACF2A1_xbit_ops@h DB 01H
__C00D0CE5_xstring DB 01H
__2EFD93C2_xhash DB 01H
__2DE1CA0A_ratio DB 01H
__C092D57D_chrono DB 01H
__0F1BCCF4_stdexcept DB 01H
__C1F7FE2D_xcall_once@h DB 01H
__7EAAEC0D_system_error DB 01H
__EC89C42C_vcruntime_typeinfo@h DB 01H
__AE3815F6_typeinfo DB 01H
__18D1DF79_memory DB 01H
__C39CA7CF_thread DB 01H
__3F4CC05A_mutex DB 01H
__E77FCB6C_ResourceCreator@h DB 01H
__810F60AC_FileSystem@h DB 01H
__8DDDD29B_ZipFile@h DB 01H
__CAC6B671_ZipFileSystem@h DB 01H
__6C99B47D_algorithm DB 01H
__34948876_xfacet DB 01H
__B2D2BA86_ctype@h DB 01H
__B1B1F63E_xlocinfo DB 01H
__1F3378D4_xlocale DB 01H
__8854812D_xiosbase DB 01H
__81B41EC3_xlocnum DB 01H
__5618765D_ios DB 01H
__AAD60BFB_xlocmon DB 01H
__15AC5F2C_xloctime DB 01H
__333F8FA8_xlocmes DB 01H
__18C7867E_xfilesystem_abi@h DB 01H
__71B70C9A_list DB 01H
__A704387C_filesystem DB 01H
__D426F35F_NativeFileSystem@h DB 01H
__8D69CDC2_condition_variable DB 01H
__79C7FC57_basetsd@h DB 01H
__D545DD43_guiddef@h DB 01H
__D5DDFBF3_winnt@h DB 01H
__439612F0_processthreadsapi@h DB 01H
__5733279A_memoryapi@h DB 01H
__D4435474_winerror@h DB 01H
__B3ED30D4_winbase@h DB 01H
__DB057BA3_winuser@h DB 01H
__A7113148_winioctl@h DB 01H
__EC5BC72C_propidl@h DB 01H
__6DA674A0_oleauto@h DB 01H
__A118E6DC_stralign@h DB 01H
__D3396542_Thread@h DB 01H
__AE7C0D16_queue DB 01H
__0D55A76D_ThreadItemQueue@h DB 01H
__45916EAF_ResourceAsyncLoader@h DB 01H
__97737FFA_ResourceManager@h DB 01H
__5D8615C2_ResourceManager@cpp DB 01H
__4D4A49D7_deque DB 01H
__E9D2A317_vector DB 01H
__B33C2DD4_locale DB 01H
__6FF3972A_istream DB 01H
__0C23A210_ostream DB 01H
__0DBB7448_streambuf DB 01H
__EA3A8D1F_unordered_map DB 01H
__DE4BE9BA_utility DB 01H
__CF4B51AF_iterator DB 01H
__68960671_iosfwd DB 01H
__29547EA8_xstddef DB 01H
__8C597A7F_xatomic@h DB 01H
msvcjmc	ENDS
PUBLIC	?__empty_global_delete@@YAXPAX@Z		; __empty_global_delete
PUBLIC	?__empty_global_delete@@YAXPAXI@Z		; __empty_global_delete
PUBLIC	?__empty_global_delete@@YAXPAXW4align_val_t@std@@@Z ; __empty_global_delete
PUBLIC	?__empty_global_delete@@YAXPAXIW4align_val_t@std@@@Z ; __empty_global_delete
PUBLIC	??2@YAPAXIPAX@Z					; operator new
PUBLIC	?c_str@ResourceName@@QBEPBDXZ			; ResourceName::c_str
PUBLIC	_ceilf
PUBLIC	?_Fnv1a_append_bytes@std@@YAIIQBEI@Z		; std::_Fnv1a_append_bytes
PUBLIC	?_Check_C_return@std@@YAHH@Z			; std::_Check_C_return
PUBLIC	??0?$_Atomic_storage@PAVResource@@$03@std@@QAE@QAVResource@@@Z ; std::_Atomic_storage<Resource *,4>::_Atomic_storage<Resource *,4>
PUBLIC	?store@?$_Atomic_storage@PAVResource@@$03@std@@QAEXQAVResource@@@Z ; std::_Atomic_storage<Resource *,4>::store
PUBLIC	?load@?$_Atomic_storage@PAVResource@@$03@std@@QBEPAVResource@@XZ ; std::_Atomic_storage<Resource *,4>::load
PUBLIC	??0?$_Atomic_pointer@PAVResource@@@std@@QAE@QAVResource@@@Z ; std::_Atomic_pointer<Resource *>::_Atomic_pointer<Resource *>
PUBLIC	??4?$atomic@PAVResource@@@std@@QAEPAVResource@@QAV2@@Z ; std::atomic<Resource *>::operator=
PUBLIC	??0?$atomic@PAVResource@@@std@@QAE@QAVResource@@@Z ; std::atomic<Resource *>::atomic<Resource *>
PUBLIC	??0?$_Atomic_storage@I$03@std@@QAE@I@Z		; std::_Atomic_storage<unsigned int,4>::_Atomic_storage<unsigned int,4>
PUBLIC	?store@?$_Atomic_storage@I$03@std@@QAEXI@Z	; std::_Atomic_storage<unsigned int,4>::store
PUBLIC	?load@?$_Atomic_storage@I$03@std@@QBEIXZ	; std::_Atomic_storage<unsigned int,4>::load
PUBLIC	??0?$_Atomic_integral@I$03@std@@QAE@I@Z		; std::_Atomic_integral<unsigned int,4>::_Atomic_integral<unsigned int,4>
PUBLIC	??0?$_Atomic_integral_facade@I@std@@QAE@I@Z	; std::_Atomic_integral_facade<unsigned int>::_Atomic_integral_facade<unsigned int>
PUBLIC	??4?$atomic@I@std@@QAEII@Z			; std::atomic<unsigned int>::operator=
PUBLIC	??0?$atomic@I@std@@QAE@I@Z			; std::atomic<unsigned int>::atomic<unsigned int>
PUBLIC	??0ResourceHandler@@QAE@XZ			; ResourceHandler::ResourceHandler
PUBLIC	??0ResourceHandler@@QAE@$$QAV0@@Z		; ResourceHandler::ResourceHandler
PUBLIC	_wmemcpy
PUBLIC	?max@?$numeric_limits@H@std@@SAHXZ		; std::numeric_limits<int>::max
PUBLIC	??0exception@std@@QAE@QBD@Z			; std::exception::exception
PUBLIC	??0exception@std@@QAE@QBDH@Z			; std::exception::exception
PUBLIC	??0exception@std@@QAE@ABV01@@Z			; std::exception::exception
PUBLIC	??1exception@std@@UAE@XZ			; std::exception::~exception
PUBLIC	?what@exception@std@@UBEPBDXZ			; std::exception::what
PUBLIC	??_Gexception@std@@UAEPAXI@Z			; std::exception::`scalar deleting destructor'
PUBLIC	??0bad_alloc@std@@AAE@QBD@Z			; std::bad_alloc::bad_alloc
PUBLIC	??1bad_alloc@std@@UAE@XZ			; std::bad_alloc::~bad_alloc
PUBLIC	??0bad_alloc@std@@QAE@ABV01@@Z			; std::bad_alloc::bad_alloc
PUBLIC	??_Gbad_alloc@std@@UAEPAXI@Z			; std::bad_alloc::`scalar deleting destructor'
PUBLIC	??0bad_array_new_length@std@@QAE@XZ		; std::bad_array_new_length::bad_array_new_length
PUBLIC	??1bad_array_new_length@std@@UAE@XZ		; std::bad_array_new_length::~bad_array_new_length
PUBLIC	??0bad_array_new_length@std@@QAE@ABV01@@Z	; std::bad_array_new_length::bad_array_new_length
PUBLIC	??_Gbad_array_new_length@std@@UAEPAXI@Z		; std::bad_array_new_length::`scalar deleting destructor'
PUBLIC	?_Throw_bad_array_new_length@std@@YAXXZ		; std::_Throw_bad_array_new_length
PUBLIC	?_Allocate@_Default_allocate_traits@std@@SAPAXI@Z ; std::_Default_allocate_traits::_Allocate
PUBLIC	?_Adjust_manually_vector_aligned@std@@YAXAAPAXAAI@Z ; std::_Adjust_manually_vector_aligned
PUBLIC	??$_Convert_size@I@std@@YAII@Z			; std::_Convert_size<unsigned int>
PUBLIC	?_Adopt@_Iterator_base0@std@@QAEXPBX@Z		; std::_Iterator_base0::_Adopt
PUBLIC	??0_Container_proxy@std@@QAE@PAU_Container_base12@1@@Z ; std::_Container_proxy::_Container_proxy
PUBLIC	??0_Container_base12@std@@QAE@XZ		; std::_Container_base12::_Container_base12
PUBLIC	?_Orphan_all@_Container_base12@std@@QAEXXZ	; std::_Container_base12::_Orphan_all
PUBLIC	?_Swap_proxy_and_iterators@_Container_base12@std@@QAEXAAU12@@Z ; std::_Container_base12::_Swap_proxy_and_iterators
PUBLIC	??0_Iterator_base12@std@@QAE@XZ			; std::_Iterator_base12::_Iterator_base12
PUBLIC	??0_Iterator_base12@std@@QAE@ABU01@@Z		; std::_Iterator_base12::_Iterator_base12
PUBLIC	??4_Iterator_base12@std@@QAEAAU01@ABU01@@Z	; std::_Iterator_base12::operator=
PUBLIC	??1_Iterator_base12@std@@QAE@XZ			; std::_Iterator_base12::~_Iterator_base12
PUBLIC	?_Adopt@_Iterator_base12@std@@QAEXPBU_Container_base12@2@@Z ; std::_Iterator_base12::_Adopt
PUBLIC	?_Getcont@_Iterator_base12@std@@QBEPBU_Container_base12@2@XZ ; std::_Iterator_base12::_Getcont
PUBLIC	?_Orphan_me@_Iterator_base12@std@@QAEXXZ	; std::_Iterator_base12::_Orphan_me
PUBLIC	?_Release@_Basic_container_proxy_ptr12@std@@QAEXXZ ; std::_Basic_container_proxy_ptr12::_Release
PUBLIC	??$addressof@U_Container_base12@std@@@std@@YAPAU_Container_base12@0@AAU10@@Z ; std::addressof<std::_Container_base12>
PUBLIC	??$_Construct_in_place@U_Container_proxy@std@@PAU_Container_base12@2@@std@@YAXAAU_Container_proxy@0@$$QAPAU_Container_base12@0@@Z ; std::_Construct_in_place<std::_Container_proxy,std::_Container_base12 *>
PUBLIC	??0?$allocator@D@std@@QAE@XZ			; std::allocator<char>::allocator<char>
PUBLIC	?deallocate@?$allocator@D@std@@QAEXQADI@Z	; std::allocator<char>::deallocate
PUBLIC	?allocate@?$allocator@D@std@@QAEPADI@Z		; std::allocator<char>::allocate
PUBLIC	?_Floor_of_log_2@std@@YAKI@Z			; std::_Floor_of_log_2
PUBLIC	?_Ceiling_of_log_2@std@@YAKI@Z			; std::_Ceiling_of_log_2
PUBLIC	?copy@?$_Char_traits@DH@std@@SAPADQADQBDI@Z	; std::_Char_traits<char,int>::copy
PUBLIC	?move@?$_Char_traits@DH@std@@SAPADQADQBDI@Z	; std::_Char_traits<char,int>::move
PUBLIC	?length@?$_Narrow_char_traits@DH@std@@SAIQBD@Z	; std::_Narrow_char_traits<char,int>::length
PUBLIC	?assign@?$_Narrow_char_traits@DH@std@@SAXAADABD@Z ; std::_Narrow_char_traits<char,int>::assign
PUBLIC	?_Xlen_string@std@@YAXXZ			; std::_Xlen_string
PUBLIC	?max_size@?$_Default_allocator_traits@V?$allocator@D@std@@@std@@SAIABV?$allocator@D@2@@Z ; std::_Default_allocator_traits<std::allocator<char> >::max_size
PUBLIC	?select_on_container_copy_construction@?$_Default_allocator_traits@V?$allocator@D@std@@@std@@SA?AV?$allocator@D@2@ABV32@@Z ; std::_Default_allocator_traits<std::allocator<char> >::select_on_container_copy_construction
PUBLIC	??0?$_String_val@U?$_Simple_types@D@std@@@std@@QAE@XZ ; std::_String_val<std::_Simple_types<char> >::_String_val<std::_Simple_types<char> >
PUBLIC	?_Myptr@?$_String_val@U?$_Simple_types@D@std@@@std@@QAEPADXZ ; std::_String_val<std::_Simple_types<char> >::_Myptr
PUBLIC	?_Myptr@?$_String_val@U?$_Simple_types@D@std@@@std@@QBEPBDXZ ; std::_String_val<std::_Simple_types<char> >::_Myptr
PUBLIC	?_Large_string_engaged@?$_String_val@U?$_Simple_types@D@std@@@std@@QBE_NXZ ; std::_String_val<std::_Simple_types<char> >::_Large_string_engaged
PUBLIC	??0_Bxty@?$_String_val@U?$_Simple_types@D@std@@@std@@QAE@XZ ; std::_String_val<std::_Simple_types<char> >::_Bxty::_Bxty
PUBLIC	??1_Bxty@?$_String_val@U?$_Simple_types@D@std@@@std@@QAE@XZ ; std::_String_val<std::_Simple_types<char> >::_Bxty::~_Bxty
PUBLIC	??1?$_String_val@U?$_Simple_types@D@std@@@std@@QAE@XZ ; std::_String_val<std::_Simple_types<char> >::~_String_val<std::_Simple_types<char> >
PUBLIC	??0?$basic_string@DU?$char_traits@D@std@@V?$allocator@D@2@@std@@QAE@ABV01@@Z ; std::basic_string<char,std::char_traits<char>,std::allocator<char> >::basic_string<char,std::char_traits<char>,std::allocator<char> >
PUBLIC	??0?$basic_string@DU?$char_traits@D@std@@V?$allocator@D@2@@std@@QAE@QBD@Z ; std::basic_string<char,std::char_traits<char>,std::allocator<char> >::basic_string<char,std::char_traits<char>,std::allocator<char> >
PUBLIC	??0?$basic_string@DU?$char_traits@D@std@@V?$allocator@D@2@@std@@QAE@$$QAV01@@Z ; std::basic_string<char,std::char_traits<char>,std::allocator<char> >::basic_string<char,std::char_traits<char>,std::allocator<char> >
PUBLIC	?_Memcpy_val_from@?$basic_string@DU?$char_traits@D@std@@V?$allocator@D@2@@std@@AAEXABV12@@Z ; std::basic_string<char,std::char_traits<char>,std::allocator<char> >::_Memcpy_val_from
PUBLIC	?_Take_contents@?$basic_string@DU?$char_traits@D@std@@V?$allocator@D@2@@std@@AAEXAAV12@U?$integral_constant@_N$00@2@@Z ; std::basic_string<char,std::char_traits<char>,std::allocator<char> >::_Take_contents
PUBLIC	?_Construct_lv_contents@?$basic_string@DU?$char_traits@D@std@@V?$allocator@D@2@@std@@AAEXABV12@@Z ; std::basic_string<char,std::char_traits<char>,std::allocator<char> >::_Construct_lv_contents
PUBLIC	??1?$basic_string@DU?$char_traits@D@std@@V?$allocator@D@2@@std@@QAE@XZ ; std::basic_string<char,std::char_traits<char>,std::allocator<char> >::~basic_string<char,std::char_traits<char>,std::allocator<char> >
PUBLIC	?append@?$basic_string@DU?$char_traits@D@std@@V?$allocator@D@2@@std@@QAEAAV12@ABV12@@Z ; std::basic_string<char,std::char_traits<char>,std::allocator<char> >::append
PUBLIC	?append@?$basic_string@DU?$char_traits@D@std@@V?$allocator@D@2@@std@@QAEAAV12@QBDI@Z ; std::basic_string<char,std::char_traits<char>,std::allocator<char> >::append
PUBLIC	?append@?$basic_string@DU?$char_traits@D@std@@V?$allocator@D@2@@std@@QAEAAV12@QBD@Z ; std::basic_string<char,std::char_traits<char>,std::allocator<char> >::append
PUBLIC	?assign@?$basic_string@DU?$char_traits@D@std@@V?$allocator@D@2@@std@@QAEAAV12@QBDI@Z ; std::basic_string<char,std::char_traits<char>,std::allocator<char> >::assign
PUBLIC	?assign@?$basic_string@DU?$char_traits@D@std@@V?$allocator@D@2@@std@@QAEAAV12@QBD@Z ; std::basic_string<char,std::char_traits<char>,std::allocator<char> >::assign
PUBLIC	?c_str@?$basic_string@DU?$char_traits@D@std@@V?$allocator@D@2@@std@@QBEPBDXZ ; std::basic_string<char,std::char_traits<char>,std::allocator<char> >::c_str
PUBLIC	?size@?$basic_string@DU?$char_traits@D@std@@V?$allocator@D@2@@std@@QBEIXZ ; std::basic_string<char,std::char_traits<char>,std::allocator<char> >::size
PUBLIC	?max_size@?$basic_string@DU?$char_traits@D@std@@V?$allocator@D@2@@std@@QBEIXZ ; std::basic_string<char,std::char_traits<char>,std::allocator<char> >::max_size
PUBLIC	?empty@?$basic_string@DU?$char_traits@D@std@@V?$allocator@D@2@@std@@QBE_NXZ ; std::basic_string<char,std::char_traits<char>,std::allocator<char> >::empty
PUBLIC	?_Calculate_growth@?$basic_string@DU?$char_traits@D@std@@V?$allocator@D@2@@std@@CAIIII@Z ; std::basic_string<char,std::char_traits<char>,std::allocator<char> >::_Calculate_growth
PUBLIC	?_Calculate_growth@?$basic_string@DU?$char_traits@D@std@@V?$allocator@D@2@@std@@ABEII@Z ; std::basic_string<char,std::char_traits<char>,std::allocator<char> >::_Calculate_growth
PUBLIC	?_Tidy_init@?$basic_string@DU?$char_traits@D@std@@V?$allocator@D@2@@std@@AAEXXZ ; std::basic_string<char,std::char_traits<char>,std::allocator<char> >::_Tidy_init
PUBLIC	?_Tidy_deallocate@?$basic_string@DU?$char_traits@D@std@@V?$allocator@D@2@@std@@AAEXXZ ; std::basic_string<char,std::char_traits<char>,std::allocator<char> >::_Tidy_deallocate
PUBLIC	?_Swap_proxy_and_iterators@?$basic_string@DU?$char_traits@D@std@@V?$allocator@D@2@@std@@AAEXAAV12@@Z ; std::basic_string<char,std::char_traits<char>,std::allocator<char> >::_Swap_proxy_and_iterators
PUBLIC	?_Getal@?$basic_string@DU?$char_traits@D@std@@V?$allocator@D@2@@std@@AAEAAV?$allocator@D@2@XZ ; std::basic_string<char,std::char_traits<char>,std::allocator<char> >::_Getal
PUBLIC	?_Getal@?$basic_string@DU?$char_traits@D@std@@V?$allocator@D@2@@std@@ABEABV?$allocator@D@2@XZ ; std::basic_string<char,std::char_traits<char>,std::allocator<char> >::_Getal
PUBLIC	?_Get_first@?$_Compressed_pair@V?$allocator@D@std@@V?$_String_val@U?$_Simple_types@D@std@@@2@$00@std@@QAEAAV?$allocator@D@2@XZ ; std::_Compressed_pair<std::allocator<char>,std::_String_val<std::_Simple_types<char> >,1>::_Get_first
PUBLIC	?_Get_first@?$_Compressed_pair@V?$allocator@D@std@@V?$_String_val@U?$_Simple_types@D@std@@@2@$00@std@@QBEABV?$allocator@D@2@XZ ; std::_Compressed_pair<std::allocator<char>,std::_String_val<std::_Simple_types<char> >,1>::_Get_first
PUBLIC	??1?$_Compressed_pair@V?$allocator@D@std@@V?$_String_val@U?$_Simple_types@D@std@@@2@$00@std@@QAE@XZ ; std::_Compressed_pair<std::allocator<char>,std::_String_val<std::_Simple_types<char> >,1>::~_Compressed_pair<std::allocator<char>,std::_String_val<std::_Simple_types<char> >,1>
PUBLIC	??0runtime_error@std@@QAE@ABV?$basic_string@DU?$char_traits@D@std@@V?$allocator@D@2@@1@@Z ; std::runtime_error::runtime_error
PUBLIC	??1runtime_error@std@@UAE@XZ			; std::runtime_error::~runtime_error
PUBLIC	??0runtime_error@std@@QAE@ABV01@@Z		; std::runtime_error::runtime_error
PUBLIC	??_Gruntime_error@std@@UAEPAXI@Z		; std::runtime_error::`scalar deleting destructor'
PUBLIC	?make_error_code@std@@YA?AVerror_code@1@W4errc@1@@Z ; std::make_error_code
PUBLIC	?generic_category@std@@YAABVerror_category@1@XZ	; std::generic_category
PUBLIC	??1error_category@std@@UAE@XZ			; std::error_category::~error_category
PUBLIC	?default_error_condition@error_category@std@@UBE?AVerror_condition@2@H@Z ; std::error_category::default_error_condition
PUBLIC	?equivalent@error_category@std@@UBE_NHABVerror_condition@2@@Z ; std::error_category::equivalent
PUBLIC	?equivalent@error_category@std@@UBE_NABVerror_code@2@H@Z ; std::error_category::equivalent
PUBLIC	??8error_category@std@@QBE_NABV01@@Z		; std::error_category::operator==
PUBLIC	??0error_code@std@@QAE@HABVerror_category@1@@Z	; std::error_code::error_code
PUBLIC	?value@error_code@std@@QBEHXZ			; std::error_code::value
PUBLIC	?category@error_code@std@@QBEABVerror_category@2@XZ ; std::error_code::category
PUBLIC	?message@error_code@std@@QBE?AV?$basic_string@DU?$char_traits@D@std@@V?$allocator@D@2@@2@XZ ; std::error_code::message
PUBLIC	??0error_condition@std@@QAE@HABVerror_category@1@@Z ; std::error_condition::error_condition
PUBLIC	?value@error_condition@std@@QBEHXZ		; std::error_condition::value
PUBLIC	?category@error_condition@std@@QBEABVerror_category@2@XZ ; std::error_condition::category
PUBLIC	??8std@@YA_NABVerror_condition@0@0@Z		; std::operator==
PUBLIC	?_Makestr@_System_error@std@@CA?AV?$basic_string@DU?$char_traits@D@std@@V?$allocator@D@2@@2@Verror_code@2@V32@@Z ; std::_System_error::_Makestr
PUBLIC	??0_System_error@std@@IAE@Verror_code@1@ABV?$basic_string@DU?$char_traits@D@std@@V?$allocator@D@2@@1@@Z ; std::_System_error::_System_error
PUBLIC	??1_System_error@std@@UAE@XZ			; std::_System_error::~_System_error
PUBLIC	??0_System_error@std@@QAE@ABV01@@Z		; std::_System_error::_System_error
PUBLIC	??_G_System_error@std@@UAEPAXI@Z		; std::_System_error::`scalar deleting destructor'
PUBLIC	??0system_error@std@@QAE@Verror_code@1@@Z	; std::system_error::system_error
PUBLIC	??1system_error@std@@UAE@XZ			; std::system_error::~system_error
PUBLIC	??0system_error@std@@QAE@ABV01@@Z		; std::system_error::system_error
PUBLIC	??_Gsystem_error@std@@UAEPAXI@Z			; std::system_error::`scalar deleting destructor'
PUBLIC	?_Throw_system_error@std@@YAXW4errc@1@@Z	; std::_Throw_system_error
PUBLIC	?name@_Generic_error_category@std@@UBEPBDXZ	; std::_Generic_error_category::name
PUBLIC	?message@_Generic_error_category@std@@UBE?AV?$basic_string@DU?$char_traits@D@std@@V?$allocator@D@2@@2@H@Z ; std::_Generic_error_category::message
PUBLIC	??1_Generic_error_category@std@@UAE@XZ		; std::_Generic_error_category::~_Generic_error_category
PUBLIC	??_G_Generic_error_category@std@@UAEPAXI@Z	; std::_Generic_error_category::`scalar deleting destructor'
PUBLIC	??$_Immortalize_memcpy_image@V_Generic_error_category@std@@@std@@YAABV_Generic_error_category@0@XZ ; std::_Immortalize_memcpy_image<std::_Generic_error_category>
PUBLIC	??$_Hash_representation@I@std@@YAIABI@Z		; std::_Hash_representation<unsigned int>
PUBLIC	??0_Mutex_base@std@@QAE@H@Z			; std::_Mutex_base::_Mutex_base
PUBLIC	??1_Mutex_base@std@@QAE@XZ			; std::_Mutex_base::~_Mutex_base
PUBLIC	?lock@_Mutex_base@std@@QAEXXZ			; std::_Mutex_base::lock
PUBLIC	?unlock@_Mutex_base@std@@QAEXXZ			; std::_Mutex_base::unlock
PUBLIC	?_Mymtx@_Mutex_base@std@@AAEPAU_Mtx_internal_imp_t@@XZ ; std::_Mutex_base::_Mymtx
PUBLIC	??0mutex@std@@QAE@XZ				; std::mutex::mutex
PUBLIC	??1mutex@std@@QAE@XZ				; std::mutex::~mutex
PUBLIC	??0condition_variable@std@@QAE@XZ		; std::condition_variable::condition_variable
PUBLIC	??1condition_variable@std@@QAE@XZ		; std::condition_variable::~condition_variable
PUBLIC	?_Mycnd@condition_variable@std@@AAEPAU_Cnd_internal_imp_t@@XZ ; std::condition_variable::_Mycnd
PUBLIC	??0?$unique_lock@Vmutex@std@@@std@@QAE@AAVmutex@1@@Z ; std::unique_lock<std::mutex>::unique_lock<std::mutex>
PUBLIC	??1?$unique_lock@Vmutex@std@@@std@@QAE@XZ	; std::unique_lock<std::mutex>::~unique_lock<std::mutex>
PUBLIC	?unlock@?$unique_lock@Vmutex@std@@@std@@QAEXXZ	; std::unique_lock<std::mutex>::unlock
PUBLIC	?__autoclassinit2@?$unique_lock@Vmutex@std@@@std@@QAEXI@Z ; std::unique_lock<std::mutex>::__autoclassinit2
PUBLIC	??0?$_Uhash_compare@IU?$hash@I@std@@U?$equal_to@I@2@@std@@QAE@XZ ; std::_Uhash_compare<unsigned int,std::hash<unsigned int>,std::equal_to<unsigned int> >::_Uhash_compare<unsigned int,std::hash<unsigned int>,std::equal_to<unsigned int> >
PUBLIC	?_Get_max_bucket_size@?$_Uhash_compare@IU?$hash@I@std@@U?$equal_to@I@2@@std@@QAEAAMXZ ; std::_Uhash_compare<unsigned int,std::hash<unsigned int>,std::equal_to<unsigned int> >::_Get_max_bucket_size
PUBLIC	?_Get_max_bucket_size@?$_Uhash_compare@IU?$hash@I@std@@U?$equal_to@I@2@@std@@QBEABMXZ ; std::_Uhash_compare<unsigned int,std::hash<unsigned int>,std::equal_to<unsigned int> >::_Get_max_bucket_size
PUBLIC	??R?$equal_to@I@std@@QBE_NABI0@Z		; std::equal_to<unsigned int>::operator()
PUBLIC	??R?$_Conditionally_enabled_hash@I$00@std@@QBEIABI@Z ; std::_Conditionally_enabled_hash<unsigned int,1>::operator()
PUBLIC	?_Do_hash@?$hash@I@std@@SAIABI@Z		; std::hash<unsigned int>::_Do_hash
PUBLIC	?_Get_first@?$_Compressed_pair@U?$equal_to@I@std@@M$00@std@@QBEABU?$equal_to@I@2@XZ ; std::_Compressed_pair<std::equal_to<unsigned int>,float,1>::_Get_first
PUBLIC	?_Get_first@?$_Compressed_pair@U?$hash@I@std@@V?$_Compressed_pair@U?$equal_to@I@std@@M$00@2@$00@std@@QBEABU?$hash@I@2@XZ ; std::_Compressed_pair<std::hash<unsigned int>,std::_Compressed_pair<std::equal_to<unsigned int>,float,1>,1>::_Get_first
PUBLIC	??0?$allocator@U?$pair@$$CBIVResourceHandler@@@std@@@std@@QAE@XZ ; std::allocator<std::pair<unsigned int const ,ResourceHandler> >::allocator<std::pair<unsigned int const ,ResourceHandler> >
PUBLIC	??0?$_Umap_traits@IVResourceHandler@@V?$_Uhash_compare@IU?$hash@I@std@@U?$equal_to@I@2@@std@@V?$allocator@U?$pair@$$CBIVResourceHandler@@@std@@@3@$0A@@std@@QAE@ABV?$_Uhash_compare@IU?$hash@I@std@@U?$equal_to@I@2@@1@@Z ; std::_Umap_traits<unsigned int,ResourceHandler,std::_Uhash_compare<unsigned int,std::hash<unsigned int>,std::equal_to<unsigned int> >,std::allocator<std::pair<unsigned int const ,ResourceHandler> >,0>::_Umap_traits<unsigned int,ResourceHandler,std::_Uhash_compare<unsigned int,std::hash<unsigned int>,std::equal_to<unsigned int> >,std::allocator<std::pair<unsigned int const ,ResourceHandler> >,0>
PUBLIC	?deallocate@?$allocator@U?$_List_node@U?$pair@$$CBIVResourceHandler@@@std@@PAX@std@@@std@@QAEXQAU?$_List_node@U?$pair@$$CBIVResourceHandler@@@std@@PAX@2@I@Z ; std::allocator<std::_List_node<std::pair<unsigned int const ,ResourceHandler>,void *> >::deallocate
PUBLIC	?allocate@?$allocator@U?$_List_node@U?$pair@$$CBIVResourceHandler@@@std@@PAX@std@@@std@@QAEPAU?$_List_node@U?$pair@$$CBIVResourceHandler@@@std@@PAX@2@I@Z ; std::allocator<std::_List_node<std::pair<unsigned int const ,ResourceHandler>,void *> >::allocate
PUBLIC	?deallocate@?$_Default_allocator_traits@V?$allocator@U?$_List_node@U?$pair@$$CBIVResourceHandler@@@std@@PAX@std@@@std@@@std@@SAXAAV?$allocator@U?$_List_node@U?$pair@$$CBIVResourceHandler@@@std@@PAX@std@@@2@QAU?$_List_node@U?$pair@$$CBIVResourceHandler@@@std@@PAX@2@I@Z ; std::_Default_allocator_traits<std::allocator<std::_List_node<std::pair<unsigned int const ,ResourceHandler>,void *> > >::deallocate
PUBLIC	?max_size@?$_Default_allocator_traits@V?$allocator@U?$_List_node@U?$pair@$$CBIVResourceHandler@@@std@@PAX@std@@@std@@@std@@SAIABV?$allocator@U?$_List_node@U?$pair@$$CBIVResourceHandler@@@std@@PAX@std@@@2@@Z ; std::_Default_allocator_traits<std::allocator<std::_List_node<std::pair<unsigned int const ,ResourceHandler>,void *> > >::max_size
PUBLIC	??0?$list@U?$pair@$$CBIVResourceHandler@@@std@@V?$allocator@U?$pair@$$CBIVResourceHandler@@@std@@@2@@std@@QAE@ABV?$allocator@U?$pair@$$CBIVResourceHandler@@@std@@@1@@Z ; std::list<std::pair<unsigned int const ,ResourceHandler>,std::allocator<std::pair<unsigned int const ,ResourceHandler> > >::list<std::pair<unsigned int const ,ResourceHandler>,std::allocator<std::pair<unsigned int const ,ResourceHandler> > >
PUBLIC	??1?$list@U?$pair@$$CBIVResourceHandler@@@std@@V?$allocator@U?$pair@$$CBIVResourceHandler@@@std@@@2@@std@@QAE@XZ ; std::list<std::pair<unsigned int const ,ResourceHandler>,std::allocator<std::pair<unsigned int const ,ResourceHandler> > >::~list<std::pair<unsigned int const ,ResourceHandler>,std::allocator<std::pair<unsigned int const ,ResourceHandler> > >
PUBLIC	?end@?$list@U?$pair@$$CBIVResourceHandler@@@std@@V?$allocator@U?$pair@$$CBIVResourceHandler@@@std@@@2@@std@@QAE?AV?$_List_iterator@V?$_List_val@U?$_List_simple_types@U?$pair@$$CBIVResourceHandler@@@std@@@std@@@std@@@2@XZ ; std::list<std::pair<unsigned int const ,ResourceHandler>,std::allocator<std::pair<unsigned int const ,ResourceHandler> > >::end
PUBLIC	?_Unchecked_begin@?$list@U?$pair@$$CBIVResourceHandler@@@std@@V?$allocator@U?$pair@$$CBIVResourceHandler@@@std@@@2@@std@@QAE?AV?$_List_unchecked_iterator@V?$_List_val@U?$_List_simple_types@U?$pair@$$CBIVResourceHandler@@@std@@@std@@@std@@@2@XZ ; std::list<std::pair<unsigned int const ,ResourceHandler>,std::allocator<std::pair<unsigned int const ,ResourceHandler> > >::_Unchecked_begin
PUBLIC	?_Unchecked_end@?$list@U?$pair@$$CBIVResourceHandler@@@std@@V?$allocator@U?$pair@$$CBIVResourceHandler@@@std@@@2@@std@@QAE?AV?$_List_unchecked_iterator@V?$_List_val@U?$_List_simple_types@U?$pair@$$CBIVResourceHandler@@@std@@@std@@@std@@@2@XZ ; std::list<std::pair<unsigned int const ,ResourceHandler>,std::allocator<std::pair<unsigned int const ,ResourceHandler> > >::_Unchecked_end
PUBLIC	?_Make_iter@?$list@U?$pair@$$CBIVResourceHandler@@@std@@V?$allocator@U?$pair@$$CBIVResourceHandler@@@std@@@2@@std@@QBE?AV?$_List_iterator@V?$_List_val@U?$_List_simple_types@U?$pair@$$CBIVResourceHandler@@@std@@@std@@@std@@@2@PAU?$_List_node@U?$pair@$$CBIVResourceHandler@@@std@@PAX@2@@Z ; std::list<std::pair<unsigned int const ,ResourceHandler>,std::allocator<std::pair<unsigned int const ,ResourceHandler> > >::_Make_iter
PUBLIC	?max_size@?$list@U?$pair@$$CBIVResourceHandler@@@std@@V?$allocator@U?$pair@$$CBIVResourceHandler@@@std@@@2@@std@@QBEIXZ ; std::list<std::pair<unsigned int const ,ResourceHandler>,std::allocator<std::pair<unsigned int const ,ResourceHandler> > >::max_size
PUBLIC	?_Unchecked_erase@?$list@U?$pair@$$CBIVResourceHandler@@@std@@V?$allocator@U?$pair@$$CBIVResourceHandler@@@std@@@2@@std@@AAEPAU?$_List_node@U?$pair@$$CBIVResourceHandler@@@std@@PAX@2@PAU32@QAU32@@Z ; std::list<std::pair<unsigned int const ,ResourceHandler>,std::allocator<std::pair<unsigned int const ,ResourceHandler> > >::_Unchecked_erase
PUBLIC	?clear@?$list@U?$pair@$$CBIVResourceHandler@@@std@@V?$allocator@U?$pair@$$CBIVResourceHandler@@@std@@@2@@std@@QAEXXZ ; std::list<std::pair<unsigned int const ,ResourceHandler>,std::allocator<std::pair<unsigned int const ,ResourceHandler> > >::clear
PUBLIC	?_Tidy@?$list@U?$pair@$$CBIVResourceHandler@@@std@@V?$allocator@U?$pair@$$CBIVResourceHandler@@@std@@@2@@std@@AAEXXZ ; std::list<std::pair<unsigned int const ,ResourceHandler>,std::allocator<std::pair<unsigned int const ,ResourceHandler> > >::_Tidy
PUBLIC	?_Alloc_sentinel_and_proxy@?$list@U?$pair@$$CBIVResourceHandler@@@std@@V?$allocator@U?$pair@$$CBIVResourceHandler@@@std@@@2@@std@@AAEXXZ ; std::list<std::pair<unsigned int const ,ResourceHandler>,std::allocator<std::pair<unsigned int const ,ResourceHandler> > >::_Alloc_sentinel_and_proxy
PUBLIC	?_Getal@?$list@U?$pair@$$CBIVResourceHandler@@@std@@V?$allocator@U?$pair@$$CBIVResourceHandler@@@std@@@2@@std@@AAEAAV?$allocator@U?$_List_node@U?$pair@$$CBIVResourceHandler@@@std@@PAX@std@@@2@XZ ; std::list<std::pair<unsigned int const ,ResourceHandler>,std::allocator<std::pair<unsigned int const ,ResourceHandler> > >::_Getal
PUBLIC	?_Getal@?$list@U?$pair@$$CBIVResourceHandler@@@std@@V?$allocator@U?$pair@$$CBIVResourceHandler@@@std@@@2@@std@@ABEABV?$allocator@U?$_List_node@U?$pair@$$CBIVResourceHandler@@@std@@PAX@std@@@2@XZ ; std::list<std::pair<unsigned int const ,ResourceHandler>,std::allocator<std::pair<unsigned int const ,ResourceHandler> > >::_Getal
PUBLIC	??0?$_List_val@U?$_List_simple_types@U?$pair@$$CBIVResourceHandler@@@std@@@std@@@std@@QAE@XZ ; std::_List_val<std::_List_simple_types<std::pair<unsigned int const ,ResourceHandler> > >::_List_val<std::_List_simple_types<std::pair<unsigned int const ,ResourceHandler> > >
PUBLIC	?_Orphan_non_end@?$_List_val@U?$_List_simple_types@U?$pair@$$CBIVResourceHandler@@@std@@@std@@@std@@QAEXXZ ; std::_List_val<std::_List_simple_types<std::pair<unsigned int const ,ResourceHandler> > >::_Orphan_non_end
PUBLIC	?_Unchecked_splice@?$_List_val@U?$_List_simple_types@U?$pair@$$CBIVResourceHandler@@@std@@@std@@@std@@SAPAU?$_List_node@U?$pair@$$CBIVResourceHandler@@@std@@PAX@2@QAU32@00@Z ; std::_List_val<std::_List_simple_types<std::pair<unsigned int const ,ResourceHandler> > >::_Unchecked_splice
PUBLIC	?_Get_first@?$_Compressed_pair@V?$allocator@U?$_List_node@U?$pair@$$CBIVResourceHandler@@@std@@PAX@std@@@std@@V?$_List_val@U?$_List_simple_types@U?$pair@$$CBIVResourceHandler@@@std@@@std@@@2@$00@std@@QAEAAV?$allocator@U?$_List_node@U?$pair@$$CBIVResourceHandler@@@std@@PAX@std@@@2@XZ ; std::_Compressed_pair<std::allocator<std::_List_node<std::pair<unsigned int const ,ResourceHandler>,void *> >,std::_List_val<std::_List_simple_types<std::pair<unsigned int const ,ResourceHandler> > >,1>::_Get_first
PUBLIC	?_Get_first@?$_Compressed_pair@V?$allocator@U?$_List_node@U?$pair@$$CBIVResourceHandler@@@std@@PAX@std@@@std@@V?$_List_val@U?$_List_simple_types@U?$pair@$$CBIVResourceHandler@@@std@@@std@@@2@$00@std@@QBEABV?$allocator@U?$_List_node@U?$pair@$$CBIVResourceHandler@@@std@@PAX@std@@@2@XZ ; std::_Compressed_pair<std::allocator<std::_List_node<std::pair<unsigned int const ,ResourceHandler>,void *> >,std::_List_val<std::_List_simple_types<std::pair<unsigned int const ,ResourceHandler> > >,1>::_Get_first
PUBLIC	??0?$_Hash@V?$_Umap_traits@IVResourceHandler@@V?$_Uhash_compare@IU?$hash@I@std@@U?$equal_to@I@2@@std@@V?$allocator@U?$pair@$$CBIVResourceHandler@@@std@@@3@$0A@@std@@@std@@IAE@ABV?$_Uhash_compare@IU?$hash@I@std@@U?$equal_to@I@2@@1@ABV?$allocator@U?$pair@$$CBIVResourceHandler@@@std@@@1@@Z ; std::_Hash<std::_Umap_traits<unsigned int,ResourceHandler,std::_Uhash_compare<unsigned int,std::hash<unsigned int>,std::equal_to<unsigned int> >,std::allocator<std::pair<unsigned int const ,ResourceHandler> >,0> >::_Hash<std::_Umap_traits<unsigned int,ResourceHandler,std::_Uhash_compare<unsigned int,std::hash<unsigned int>,std::equal_to<unsigned int> >,std::allocator<std::pair<unsigned int const ,ResourceHandler> >,0> >
PUBLIC	?end@?$_Hash@V?$_Umap_traits@IVResourceHandler@@V?$_Uhash_compare@IU?$hash@I@std@@U?$equal_to@I@2@@std@@V?$allocator@U?$pair@$$CBIVResourceHandler@@@std@@@3@$0A@@std@@@std@@QAE?AV?$_List_iterator@V?$_List_val@U?$_List_simple_types@U?$pair@$$CBIVResourceHandler@@@std@@@std@@@std@@@2@XZ ; std::_Hash<std::_Umap_traits<unsigned int,ResourceHandler,std::_Uhash_compare<unsigned int,std::hash<unsigned int>,std::equal_to<unsigned int> >,std::allocator<std::pair<unsigned int const ,ResourceHandler> >,0> >::end
PUBLIC	?_Unchecked_begin@?$_Hash@V?$_Umap_traits@IVResourceHandler@@V?$_Uhash_compare@IU?$hash@I@std@@U?$equal_to@I@2@@std@@V?$allocator@U?$pair@$$CBIVResourceHandler@@@std@@@3@$0A@@std@@@std@@QAE?AV?$_List_unchecked_iterator@V?$_List_val@U?$_List_simple_types@U?$pair@$$CBIVResourceHandler@@@std@@@std@@@std@@@2@XZ ; std::_Hash<std::_Umap_traits<unsigned int,ResourceHandler,std::_Uhash_compare<unsigned int,std::hash<unsigned int>,std::equal_to<unsigned int> >,std::allocator<std::pair<unsigned int const ,ResourceHandler> >,0> >::_Unchecked_begin
PUBLIC	?_Unchecked_end@?$_Hash@V?$_Umap_traits@IVResourceHandler@@V?$_Uhash_compare@IU?$hash@I@std@@U?$equal_to@I@2@@std@@V?$allocator@U?$pair@$$CBIVResourceHandler@@@std@@@3@$0A@@std@@@std@@QAE?AV?$_List_unchecked_iterator@V?$_List_val@U?$_List_simple_types@U?$pair@$$CBIVResourceHandler@@@std@@@std@@@std@@@2@XZ ; std::_Hash<std::_Umap_traits<unsigned int,ResourceHandler,std::_Uhash_compare<unsigned int,std::hash<unsigned int>,std::equal_to<unsigned int> >,std::allocator<std::pair<unsigned int const ,ResourceHandler> >,0> >::_Unchecked_end
PUBLIC	?bucket_count@?$_Hash@V?$_Umap_traits@IVResourceHandler@@V?$_Uhash_compare@IU?$hash@I@std@@U?$equal_to@I@2@@std@@V?$allocator@U?$pair@$$CBIVResourceHandler@@@std@@@3@$0A@@std@@@std@@QBEIXZ ; std::_Hash<std::_Umap_traits<unsigned int,ResourceHandler,std::_Uhash_compare<unsigned int,std::hash<unsigned int>,std::equal_to<unsigned int> >,std::allocator<std::pair<unsigned int const ,ResourceHandler> >,0> >::bucket_count
PUBLIC	?bucket@?$_Hash@V?$_Umap_traits@IVResourceHandler@@V?$_Uhash_compare@IU?$hash@I@std@@U?$equal_to@I@2@@std@@V?$allocator@U?$pair@$$CBIVResourceHandler@@@std@@@3@$0A@@std@@@std@@QBEIABI@Z ; std::_Hash<std::_Umap_traits<unsigned int,ResourceHandler,std::_Uhash_compare<unsigned int,std::hash<unsigned int>,std::equal_to<unsigned int> >,std::allocator<std::pair<unsigned int const ,ResourceHandler> >,0> >::bucket
PUBLIC	?max_load_factor@?$_Hash@V?$_Umap_traits@IVResourceHandler@@V?$_Uhash_compare@IU?$hash@I@std@@U?$equal_to@I@2@@std@@V?$allocator@U?$pair@$$CBIVResourceHandler@@@std@@@3@$0A@@std@@@std@@QBEMXZ ; std::_Hash<std::_Umap_traits<unsigned int,ResourceHandler,std::_Uhash_compare<unsigned int,std::hash<unsigned int>,std::equal_to<unsigned int> >,std::allocator<std::pair<unsigned int const ,ResourceHandler> >,0> >::max_load_factor
PUBLIC	?_Unchecked_erase@?$_Hash@V?$_Umap_traits@IVResourceHandler@@V?$_Uhash_compare@IU?$hash@I@std@@U?$equal_to@I@2@@std@@V?$allocator@U?$pair@$$CBIVResourceHandler@@@std@@@3@$0A@@std@@@std@@AAEPAU?$_List_node@U?$pair@$$CBIVResourceHandler@@@std@@PAX@2@PAU32@QAU32@@Z ; std::_Hash<std::_Umap_traits<unsigned int,ResourceHandler,std::_Uhash_compare<unsigned int,std::hash<unsigned int>,std::equal_to<unsigned int> >,std::allocator<std::pair<unsigned int const ,ResourceHandler> >,0> >::_Unchecked_erase
PUBLIC	?clear@?$_Hash@V?$_Umap_traits@IVResourceHandler@@V?$_Uhash_compare@IU?$hash@I@std@@U?$equal_to@I@2@@std@@V?$allocator@U?$pair@$$CBIVResourceHandler@@@std@@@3@$0A@@std@@@std@@QAEXXZ ; std::_Hash<std::_Umap_traits<unsigned int,ResourceHandler,std::_Uhash_compare<unsigned int,std::hash<unsigned int>,std::equal_to<unsigned int> >,std::allocator<std::pair<unsigned int const ,ResourceHandler> >,0> >::clear
PUBLIC	?_Insert_new_node_before@?$_Hash@V?$_Umap_traits@IVResourceHandler@@V?$_Uhash_compare@IU?$hash@I@std@@U?$equal_to@I@2@@std@@V?$allocator@U?$pair@$$CBIVResourceHandler@@@std@@@3@$0A@@std@@@std@@IAEPAU?$_List_node@U?$pair@$$CBIVResourceHandler@@@std@@PAX@2@IQAU32@0@Z ; std::_Hash<std::_Umap_traits<unsigned int,ResourceHandler,std::_Uhash_compare<unsigned int,std::hash<unsigned int>,std::equal_to<unsigned int> >,std::allocator<std::pair<unsigned int const ,ResourceHandler> >,0> >::_Insert_new_node_before
PUBLIC	?_Check_max_size@?$_Hash@V?$_Umap_traits@IVResourceHandler@@V?$_Uhash_compare@IU?$hash@I@std@@U?$equal_to@I@2@@std@@V?$allocator@U?$pair@$$CBIVResourceHandler@@@std@@@3@$0A@@std@@@std@@IBEXXZ ; std::_Hash<std::_Umap_traits<unsigned int,ResourceHandler,std::_Uhash_compare<unsigned int,std::hash<unsigned int>,std::equal_to<unsigned int> >,std::allocator<std::pair<unsigned int const ,ResourceHandler> >,0> >::_Check_max_size
PUBLIC	?_Check_rehash_required_1@?$_Hash@V?$_Umap_traits@IVResourceHandler@@V?$_Uhash_compare@IU?$hash@I@std@@U?$equal_to@I@2@@std@@V?$allocator@U?$pair@$$CBIVResourceHandler@@@std@@@3@$0A@@std@@@std@@IBE_NXZ ; std::_Hash<std::_Umap_traits<unsigned int,ResourceHandler,std::_Uhash_compare<unsigned int,std::hash<unsigned int>,std::equal_to<unsigned int> >,std::allocator<std::pair<unsigned int const ,ResourceHandler> >,0> >::_Check_rehash_required_1
PUBLIC	?_Rehash_for_1@?$_Hash@V?$_Umap_traits@IVResourceHandler@@V?$_Uhash_compare@IU?$hash@I@std@@U?$equal_to@I@2@@std@@V?$allocator@U?$pair@$$CBIVResourceHandler@@@std@@@3@$0A@@std@@@std@@IAEXXZ ; std::_Hash<std::_Umap_traits<unsigned int,ResourceHandler,std::_Uhash_compare<unsigned int,std::hash<unsigned int>,std::equal_to<unsigned int> >,std::allocator<std::pair<unsigned int const ,ResourceHandler> >,0> >::_Rehash_for_1
PUBLIC	?_Min_load_factor_buckets@?$_Hash@V?$_Umap_traits@IVResourceHandler@@V?$_Uhash_compare@IU?$hash@I@std@@U?$equal_to@I@2@@std@@V?$allocator@U?$pair@$$CBIVResourceHandler@@@std@@@3@$0A@@std@@@std@@IBEII@Z ; std::_Hash<std::_Umap_traits<unsigned int,ResourceHandler,std::_Uhash_compare<unsigned int,std::hash<unsigned int>,std::equal_to<unsigned int> >,std::allocator<std::pair<unsigned int const ,ResourceHandler> >,0> >::_Min_load_factor_buckets
PUBLIC	?_Desired_grow_bucket_count@?$_Hash@V?$_Umap_traits@IVResourceHandler@@V?$_Uhash_compare@IU?$hash@I@std@@U?$equal_to@I@2@@std@@V?$allocator@U?$pair@$$CBIVResourceHandler@@@std@@@3@$0A@@std@@@std@@IBEII@Z ; std::_Hash<std::_Umap_traits<unsigned int,ResourceHandler,std::_Uhash_compare<unsigned int,std::hash<unsigned int>,std::equal_to<unsigned int> >,std::allocator<std::pair<unsigned int const ,ResourceHandler> >,0> >::_Desired_grow_bucket_count
PUBLIC	?_Forced_rehash@?$_Hash@V?$_Umap_traits@IVResourceHandler@@V?$_Uhash_compare@IU?$hash@I@std@@U?$equal_to@I@2@@std@@V?$allocator@U?$pair@$$CBIVResourceHandler@@@std@@@3@$0A@@std@@@std@@IAEXI@Z ; std::_Hash<std::_Umap_traits<unsigned int,ResourceHandler,std::_Uhash_compare<unsigned int,std::hash<unsigned int>,std::equal_to<unsigned int> >,std::allocator<std::pair<unsigned int const ,ResourceHandler> >,0> >::_Forced_rehash
PUBLIC	?_Max_bucket_size@?$_Hash@V?$_Umap_traits@IVResourceHandler@@V?$_Uhash_compare@IU?$hash@I@std@@U?$equal_to@I@2@@std@@V?$allocator@U?$pair@$$CBIVResourceHandler@@@std@@@3@$0A@@std@@@std@@IAEAAMXZ ; std::_Hash<std::_Umap_traits<unsigned int,ResourceHandler,std::_Uhash_compare<unsigned int,std::hash<unsigned int>,std::equal_to<unsigned int> >,std::allocator<std::pair<unsigned int const ,ResourceHandler> >,0> >::_Max_bucket_size
PUBLIC	?_Max_bucket_size@?$_Hash@V?$_Umap_traits@IVResourceHandler@@V?$_Uhash_compare@IU?$hash@I@std@@U?$equal_to@I@2@@std@@V?$allocator@U?$pair@$$CBIVResourceHandler@@@std@@@3@$0A@@std@@@std@@IBEABMXZ ; std::_Hash<std::_Umap_traits<unsigned int,ResourceHandler,std::_Uhash_compare<unsigned int,std::hash<unsigned int>,std::equal_to<unsigned int> >,std::allocator<std::pair<unsigned int const ,ResourceHandler> >,0> >::_Max_bucket_size
PUBLIC	?deallocate@?$allocator@V?$_List_unchecked_iterator@V?$_List_val@U?$_List_simple_types@U?$pair@$$CBIVResourceHandler@@@std@@@std@@@std@@@std@@@std@@QAEXQAV?$_List_unchecked_iterator@V?$_List_val@U?$_List_simple_types@U?$pair@$$CBIVResourceHandler@@@std@@@std@@@std@@@2@I@Z ; std::allocator<std::_List_unchecked_iterator<std::_List_val<std::_List_simple_types<std::pair<unsigned int const ,ResourceHandler> > > > >::deallocate
PUBLIC	?allocate@?$allocator@V?$_List_unchecked_iterator@V?$_List_val@U?$_List_simple_types@U?$pair@$$CBIVResourceHandler@@@std@@@std@@@std@@@std@@@std@@QAEPAV?$_List_unchecked_iterator@V?$_List_val@U?$_List_simple_types@U?$pair@$$CBIVResourceHandler@@@std@@@std@@@std@@@2@I@Z ; std::allocator<std::_List_unchecked_iterator<std::_List_val<std::_List_simple_types<std::pair<unsigned int const ,ResourceHandler> > > > >::allocate
PUBLIC	?max_size@?$_Default_allocator_traits@V?$allocator@V?$_List_unchecked_iterator@V?$_List_val@U?$_List_simple_types@U?$pair@$$CBIVResourceHandler@@@std@@@std@@@std@@@std@@@std@@@std@@SAIABV?$allocator@V?$_List_unchecked_iterator@V?$_List_val@U?$_List_simple_types@U?$pair@$$CBIVResourceHandler@@@std@@@std@@@std@@@std@@@2@@Z ; std::_Default_allocator_traits<std::allocator<std::_List_unchecked_iterator<std::_List_val<std::_List_simple_types<std::pair<unsigned int const ,ResourceHandler> > > > > >::max_size
PUBLIC	?size@?$_Hash_vec@V?$allocator@V?$_List_unchecked_iterator@V?$_List_val@U?$_List_simple_types@U?$pair@$$CBIVResourceHandler@@@std@@@std@@@std@@@std@@@std@@@std@@QBEIXZ ; std::_Hash_vec<std::allocator<std::_List_unchecked_iterator<std::_List_val<std::_List_simple_types<std::pair<unsigned int const ,ResourceHandler> > > > > >::size
PUBLIC	?max_size@?$_Hash_vec@V?$allocator@V?$_List_unchecked_iterator@V?$_List_val@U?$_List_simple_types@U?$pair@$$CBIVResourceHandler@@@std@@@std@@@std@@@std@@@std@@@std@@QBEIXZ ; std::_Hash_vec<std::allocator<std::_List_unchecked_iterator<std::_List_val<std::_List_simple_types<std::pair<unsigned int const ,ResourceHandler> > > > > >::max_size
PUBLIC	?_Assign_grow@?$_Hash_vec@V?$allocator@V?$_List_unchecked_iterator@V?$_List_val@U?$_List_simple_types@U?$pair@$$CBIVResourceHandler@@@std@@@std@@@std@@@std@@@std@@@std@@QAEXIV?$_List_unchecked_iterator@V?$_List_val@U?$_List_simple_types@U?$pair@$$CBIVResourceHandler@@@std@@@std@@@std@@@2@@Z ; std::_Hash_vec<std::allocator<std::_List_unchecked_iterator<std::_List_val<std::_List_simple_types<std::pair<unsigned int const ,ResourceHandler> > > > > >::_Assign_grow
PUBLIC	?_Tidy@?$_Hash_vec@V?$allocator@V?$_List_unchecked_iterator@V?$_List_val@U?$_List_simple_types@U?$pair@$$CBIVResourceHandler@@@std@@@std@@@std@@@std@@@std@@@std@@QAEXXZ ; std::_Hash_vec<std::allocator<std::_List_unchecked_iterator<std::_List_val<std::_List_simple_types<std::pair<unsigned int const ,ResourceHandler> > > > > >::_Tidy
PUBLIC	??1?$_Hash_vec@V?$allocator@V?$_List_unchecked_iterator@V?$_List_val@U?$_List_simple_types@U?$pair@$$CBIVResourceHandler@@@std@@@std@@@std@@@std@@@std@@@std@@QAE@XZ ; std::_Hash_vec<std::allocator<std::_List_unchecked_iterator<std::_List_val<std::_List_simple_types<std::pair<unsigned int const ,ResourceHandler> > > > > >::~_Hash_vec<std::allocator<std::_List_unchecked_iterator<std::_List_val<std::_List_simple_types<std::pair<unsigned int const ,ResourceHandler> > > > > >
PUBLIC	??0?$_Vector_val@U?$_Simple_types@V?$_List_unchecked_iterator@V?$_List_val@U?$_List_simple_types@U?$pair@$$CBIVResourceHandler@@@std@@@std@@@std@@@std@@@std@@@std@@QAE@XZ ; std::_Vector_val<std::_Simple_types<std::_List_unchecked_iterator<std::_List_val<std::_List_simple_types<std::pair<unsigned int const ,ResourceHandler> > > > > >::_Vector_val<std::_Simple_types<std::_List_unchecked_iterator<std::_List_val<std::_List_simple_types<std::pair<unsigned int const ,ResourceHandler> > > > > >
PUBLIC	?_Get_first@?$_Compressed_pair@V?$allocator@V?$_List_unchecked_iterator@V?$_List_val@U?$_List_simple_types@U?$pair@$$CBIVResourceHandler@@@std@@@std@@@std@@@std@@@std@@V?$_Vector_val@U?$_Simple_types@V?$_List_unchecked_iterator@V?$_List_val@U?$_List_simple_types@U?$pair@$$CBIVResourceHandler@@@std@@@std@@@std@@@std@@@std@@@2@$00@std@@QAEAAV?$allocator@V?$_List_unchecked_iterator@V?$_List_val@U?$_List_simple_types@U?$pair@$$CBIVResourceHandler@@@std@@@std@@@std@@@std@@@2@XZ ; std::_Compressed_pair<std::allocator<std::_List_unchecked_iterator<std::_List_val<std::_List_simple_types<std::pair<unsigned int const ,ResourceHandler> > > > >,std::_Vector_val<std::_Simple_types<std::_List_unchecked_iterator<std::_List_val<std::_List_simple_types<std::pair<unsigned int const ,ResourceHandler> > > > > >,1>::_Get_first
PUBLIC	?_Get_first@?$_Compressed_pair@V?$allocator@V?$_List_unchecked_iterator@V?$_List_val@U?$_List_simple_types@U?$pair@$$CBIVResourceHandler@@@std@@@std@@@std@@@std@@@std@@V?$_Vector_val@U?$_Simple_types@V?$_List_unchecked_iterator@V?$_List_val@U?$_List_simple_types@U?$pair@$$CBIVResourceHandler@@@std@@@std@@@std@@@std@@@std@@@2@$00@std@@QBEABV?$allocator@V?$_List_unchecked_iterator@V?$_List_val@U?$_List_simple_types@U?$pair@$$CBIVResourceHandler@@@std@@@std@@@std@@@std@@@2@XZ ; std::_Compressed_pair<std::allocator<std::_List_unchecked_iterator<std::_List_val<std::_List_simple_types<std::pair<unsigned int const ,ResourceHandler> > > > >,std::_Vector_val<std::_Simple_types<std::_List_unchecked_iterator<std::_List_val<std::_List_simple_types<std::pair<unsigned int const ,ResourceHandler> > > > > >,1>::_Get_first
PUBLIC	??1?$_Hash@V?$_Umap_traits@IVResourceHandler@@V?$_Uhash_compare@IU?$hash@I@std@@U?$equal_to@I@2@@std@@V?$allocator@U?$pair@$$CBIVResourceHandler@@@std@@@3@$0A@@std@@@std@@QAE@XZ ; std::_Hash<std::_Umap_traits<unsigned int,ResourceHandler,std::_Uhash_compare<unsigned int,std::hash<unsigned int>,std::equal_to<unsigned int> >,std::allocator<std::pair<unsigned int const ,ResourceHandler> >,0> >::~_Hash<std::_Umap_traits<unsigned int,ResourceHandler,std::_Uhash_compare<unsigned int,std::hash<unsigned int>,std::equal_to<unsigned int> >,std::allocator<std::pair<unsigned int const ,ResourceHandler> >,0> >
PUBLIC	??0?$unordered_map@IVResourceHandler@@U?$hash@I@std@@U?$equal_to@I@3@V?$allocator@U?$pair@$$CBIVResourceHandler@@@std@@@3@@std@@QAE@XZ ; std::unordered_map<unsigned int,ResourceHandler,std::hash<unsigned int>,std::equal_to<unsigned int>,std::allocator<std::pair<unsigned int const ,ResourceHandler> > >::unordered_map<unsigned int,ResourceHandler,std::hash<unsigned int>,std::equal_to<unsigned int>,std::allocator<std::pair<unsigned int const ,ResourceHandler> > >
PUBLIC	??1?$unordered_map@IVResourceHandler@@U?$hash@I@std@@U?$equal_to@I@3@V?$allocator@U?$pair@$$CBIVResourceHandler@@@std@@@3@@std@@QAE@XZ ; std::unordered_map<unsigned int,ResourceHandler,std::hash<unsigned int>,std::equal_to<unsigned int>,std::allocator<std::pair<unsigned int const ,ResourceHandler> > >::~unordered_map<unsigned int,ResourceHandler,std::hash<unsigned int>,std::equal_to<unsigned int>,std::allocator<std::pair<unsigned int const ,ResourceHandler> > >
PUBLIC	??0?$_Uhash_compare@W4ResourceType@@U?$hash@W4ResourceType@@@std@@U?$equal_to@W4ResourceType@@@3@@std@@QAE@XZ ; std::_Uhash_compare<enum ResourceType,std::hash<enum ResourceType>,std::equal_to<enum ResourceType> >::_Uhash_compare<enum ResourceType,std::hash<enum ResourceType>,std::equal_to<enum ResourceType> >
PUBLIC	?_Get_max_bucket_size@?$_Uhash_compare@W4ResourceType@@U?$hash@W4ResourceType@@@std@@U?$equal_to@W4ResourceType@@@3@@std@@QAEAAMXZ ; std::_Uhash_compare<enum ResourceType,std::hash<enum ResourceType>,std::equal_to<enum ResourceType> >::_Get_max_bucket_size
PUBLIC	??R?$_Conditionally_enabled_hash@W4ResourceType@@$00@std@@QBEIABW4ResourceType@@@Z ; std::_Conditionally_enabled_hash<enum ResourceType,1>::operator()
PUBLIC	?_Do_hash@?$hash@W4ResourceType@@@std@@SAIABW4ResourceType@@@Z ; std::hash<enum ResourceType>::_Do_hash
PUBLIC	?_Get_first@?$_Compressed_pair@U?$hash@W4ResourceType@@@std@@V?$_Compressed_pair@U?$equal_to@W4ResourceType@@@std@@M$00@2@$00@std@@QBEABU?$hash@W4ResourceType@@@2@XZ ; std::_Compressed_pair<std::hash<enum ResourceType>,std::_Compressed_pair<std::equal_to<enum ResourceType>,float,1>,1>::_Get_first
PUBLIC	??0?$allocator@U?$pair@$$CBW4ResourceType@@PAVResourceCreator@@@std@@@std@@QAE@XZ ; std::allocator<std::pair<enum ResourceType const ,ResourceCreator *> >::allocator<std::pair<enum ResourceType const ,ResourceCreator *> >
PUBLIC	??0?$_Umap_traits@W4ResourceType@@PAVResourceCreator@@V?$_Uhash_compare@W4ResourceType@@U?$hash@W4ResourceType@@@std@@U?$equal_to@W4ResourceType@@@3@@std@@V?$allocator@U?$pair@$$CBW4ResourceType@@PAVResourceCreator@@@std@@@4@$0A@@std@@QAE@ABV?$_Uhash_compare@W4ResourceType@@U?$hash@W4ResourceType@@@std@@U?$equal_to@W4ResourceType@@@3@@1@@Z ; std::_Umap_traits<enum ResourceType,ResourceCreator *,std::_Uhash_compare<enum ResourceType,std::hash<enum ResourceType>,std::equal_to<enum ResourceType> >,std::allocator<std::pair<enum ResourceType const ,ResourceCreator *> >,0>::_Umap_traits<enum ResourceType,ResourceCreator *,std::_Uhash_compare<enum ResourceType,std::hash<enum ResourceType>,std::equal_to<enum ResourceType> >,std::allocator<std::pair<enum ResourceType const ,ResourceCreator *> >,0>
PUBLIC	?allocate@?$allocator@U?$_List_node@U?$pair@$$CBW4ResourceType@@PAVResourceCreator@@@std@@PAX@std@@@std@@QAEPAU?$_List_node@U?$pair@$$CBW4ResourceType@@PAVResourceCreator@@@std@@PAX@2@I@Z ; std::allocator<std::_List_node<std::pair<enum ResourceType const ,ResourceCreator *>,void *> >::allocate
PUBLIC	?deallocate@?$_Default_allocator_traits@V?$allocator@U?$_List_node@U?$pair@$$CBW4ResourceType@@PAVResourceCreator@@@std@@PAX@std@@@std@@@std@@SAXAAV?$allocator@U?$_List_node@U?$pair@$$CBW4ResourceType@@PAVResourceCreator@@@std@@PAX@std@@@2@QAU?$_List_node@U?$pair@$$CBW4ResourceType@@PAVResourceCreator@@@std@@PAX@2@I@Z ; std::_Default_allocator_traits<std::allocator<std::_List_node<std::pair<enum ResourceType const ,ResourceCreator *>,void *> > >::deallocate
PUBLIC	??0?$list@U?$pair@$$CBW4ResourceType@@PAVResourceCreator@@@std@@V?$allocator@U?$pair@$$CBW4ResourceType@@PAVResourceCreator@@@std@@@2@@std@@QAE@ABV?$allocator@U?$pair@$$CBW4ResourceType@@PAVResourceCreator@@@std@@@1@@Z ; std::list<std::pair<enum ResourceType const ,ResourceCreator *>,std::allocator<std::pair<enum ResourceType const ,ResourceCreator *> > >::list<std::pair<enum ResourceType const ,ResourceCreator *>,std::allocator<std::pair<enum ResourceType const ,ResourceCreator *> > >
PUBLIC	?_Swap_val@?$list@U?$pair@$$CBW4ResourceType@@PAVResourceCreator@@@std@@V?$allocator@U?$pair@$$CBW4ResourceType@@PAVResourceCreator@@@std@@@2@@std@@AAEXAAV12@@Z ; std::list<std::pair<enum ResourceType const ,ResourceCreator *>,std::allocator<std::pair<enum ResourceType const ,ResourceCreator *> > >::_Swap_val
PUBLIC	??1?$list@U?$pair@$$CBW4ResourceType@@PAVResourceCreator@@@std@@V?$allocator@U?$pair@$$CBW4ResourceType@@PAVResourceCreator@@@std@@@2@@std@@QAE@XZ ; std::list<std::pair<enum ResourceType const ,ResourceCreator *>,std::allocator<std::pair<enum ResourceType const ,ResourceCreator *> > >::~list<std::pair<enum ResourceType const ,ResourceCreator *>,std::allocator<std::pair<enum ResourceType const ,ResourceCreator *> > >
PUBLIC	?_Unchecked_begin@?$list@U?$pair@$$CBW4ResourceType@@PAVResourceCreator@@@std@@V?$allocator@U?$pair@$$CBW4ResourceType@@PAVResourceCreator@@@std@@@2@@std@@QAE?AV?$_List_unchecked_iterator@V?$_List_val@U?$_List_simple_types@U?$pair@$$CBW4ResourceType@@PAVResourceCreator@@@std@@@std@@@std@@@2@XZ ; std::list<std::pair<enum ResourceType const ,ResourceCreator *>,std::allocator<std::pair<enum ResourceType const ,ResourceCreator *> > >::_Unchecked_begin
PUBLIC	?_Unchecked_end@?$list@U?$pair@$$CBW4ResourceType@@PAVResourceCreator@@@std@@V?$allocator@U?$pair@$$CBW4ResourceType@@PAVResourceCreator@@@std@@@2@@std@@QAE?AV?$_List_unchecked_iterator@V?$_List_val@U?$_List_simple_types@U?$pair@$$CBW4ResourceType@@PAVResourceCreator@@@std@@@std@@@std@@@2@XZ ; std::list<std::pair<enum ResourceType const ,ResourceCreator *>,std::allocator<std::pair<enum ResourceType const ,ResourceCreator *> > >::_Unchecked_end
PUBLIC	?_Unchecked_erase@?$list@U?$pair@$$CBW4ResourceType@@PAVResourceCreator@@@std@@V?$allocator@U?$pair@$$CBW4ResourceType@@PAVResourceCreator@@@std@@@2@@std@@AAEPAU?$_List_node@U?$pair@$$CBW4ResourceType@@PAVResourceCreator@@@std@@PAX@2@PAU32@QAU32@@Z ; std::list<std::pair<enum ResourceType const ,ResourceCreator *>,std::allocator<std::pair<enum ResourceType const ,ResourceCreator *> > >::_Unchecked_erase
PUBLIC	?clear@?$list@U?$pair@$$CBW4ResourceType@@PAVResourceCreator@@@std@@V?$allocator@U?$pair@$$CBW4ResourceType@@PAVResourceCreator@@@std@@@2@@std@@QAEXXZ ; std::list<std::pair<enum ResourceType const ,ResourceCreator *>,std::allocator<std::pair<enum ResourceType const ,ResourceCreator *> > >::clear
PUBLIC	?_Tidy@?$list@U?$pair@$$CBW4ResourceType@@PAVResourceCreator@@@std@@V?$allocator@U?$pair@$$CBW4ResourceType@@PAVResourceCreator@@@std@@@2@@std@@AAEXXZ ; std::list<std::pair<enum ResourceType const ,ResourceCreator *>,std::allocator<std::pair<enum ResourceType const ,ResourceCreator *> > >::_Tidy
PUBLIC	?_Alloc_sentinel_and_proxy@?$list@U?$pair@$$CBW4ResourceType@@PAVResourceCreator@@@std@@V?$allocator@U?$pair@$$CBW4ResourceType@@PAVResourceCreator@@@std@@@2@@std@@AAEXXZ ; std::list<std::pair<enum ResourceType const ,ResourceCreator *>,std::allocator<std::pair<enum ResourceType const ,ResourceCreator *> > >::_Alloc_sentinel_and_proxy
PUBLIC	?_Getal@?$list@U?$pair@$$CBW4ResourceType@@PAVResourceCreator@@@std@@V?$allocator@U?$pair@$$CBW4ResourceType@@PAVResourceCreator@@@std@@@2@@std@@AAEAAV?$allocator@U?$_List_node@U?$pair@$$CBW4ResourceType@@PAVResourceCreator@@@std@@PAX@std@@@2@XZ ; std::list<std::pair<enum ResourceType const ,ResourceCreator *>,std::allocator<std::pair<enum ResourceType const ,ResourceCreator *> > >::_Getal
PUBLIC	??0?$_List_val@U?$_List_simple_types@U?$pair@$$CBW4ResourceType@@PAVResourceCreator@@@std@@@std@@@std@@QAE@XZ ; std::_List_val<std::_List_simple_types<std::pair<enum ResourceType const ,ResourceCreator *> > >::_List_val<std::_List_simple_types<std::pair<enum ResourceType const ,ResourceCreator *> > >
PUBLIC	?_Orphan_non_end@?$_List_val@U?$_List_simple_types@U?$pair@$$CBW4ResourceType@@PAVResourceCreator@@@std@@@std@@@std@@QAEXXZ ; std::_List_val<std::_List_simple_types<std::pair<enum ResourceType const ,ResourceCreator *> > >::_Orphan_non_end
PUBLIC	?_Get_first@?$_Compressed_pair@V?$allocator@U?$_List_node@U?$pair@$$CBW4ResourceType@@PAVResourceCreator@@@std@@PAX@std@@@std@@V?$_List_val@U?$_List_simple_types@U?$pair@$$CBW4ResourceType@@PAVResourceCreator@@@std@@@std@@@2@$00@std@@QAEAAV?$allocator@U?$_List_node@U?$pair@$$CBW4ResourceType@@PAVResourceCreator@@@std@@PAX@std@@@2@XZ ; std::_Compressed_pair<std::allocator<std::_List_node<std::pair<enum ResourceType const ,ResourceCreator *>,void *> >,std::_List_val<std::_List_simple_types<std::pair<enum ResourceType const ,ResourceCreator *> > >,1>::_Get_first
PUBLIC	??0?$_Hash@V?$_Umap_traits@W4ResourceType@@PAVResourceCreator@@V?$_Uhash_compare@W4ResourceType@@U?$hash@W4ResourceType@@@std@@U?$equal_to@W4ResourceType@@@3@@std@@V?$allocator@U?$pair@$$CBW4ResourceType@@PAVResourceCreator@@@std@@@4@$0A@@std@@@std@@IAE@ABV?$_Uhash_compare@W4ResourceType@@U?$hash@W4ResourceType@@@std@@U?$equal_to@W4ResourceType@@@3@@1@ABV?$allocator@U?$pair@$$CBW4ResourceType@@PAVResourceCreator@@@std@@@1@@Z ; std::_Hash<std::_Umap_traits<enum ResourceType,ResourceCreator *,std::_Uhash_compare<enum ResourceType,std::hash<enum ResourceType>,std::equal_to<enum ResourceType> >,std::allocator<std::pair<enum ResourceType const ,ResourceCreator *> >,0> >::_Hash<std::_Umap_traits<enum ResourceType,ResourceCreator *,std::_Uhash_compare<enum ResourceType,std::hash<enum ResourceType>,std::equal_to<enum ResourceType> >,std::allocator<std::pair<enum ResourceType const ,ResourceCreator *> >,0> >
PUBLIC	?_Swap_val@?$_Hash@V?$_Umap_traits@W4ResourceType@@PAVResourceCreator@@V?$_Uhash_compare@W4ResourceType@@U?$hash@W4ResourceType@@@std@@U?$equal_to@W4ResourceType@@@3@@std@@V?$allocator@U?$pair@$$CBW4ResourceType@@PAVResourceCreator@@@std@@@4@$0A@@std@@@std@@AAEXAAV12@@Z ; std::_Hash<std::_Umap_traits<enum ResourceType,ResourceCreator *,std::_Uhash_compare<enum ResourceType,std::hash<enum ResourceType>,std::equal_to<enum ResourceType> >,std::allocator<std::pair<enum ResourceType const ,ResourceCreator *> >,0> >::_Swap_val
PUBLIC	?_Pocma_both@?$_Hash@V?$_Umap_traits@W4ResourceType@@PAVResourceCreator@@V?$_Uhash_compare@W4ResourceType@@U?$hash@W4ResourceType@@@std@@U?$equal_to@W4ResourceType@@@3@@std@@V?$allocator@U?$pair@$$CBW4ResourceType@@PAVResourceCreator@@@std@@@4@$0A@@std@@@std@@AAEXAAV12@@Z ; std::_Hash<std::_Umap_traits<enum ResourceType,ResourceCreator *,std::_Uhash_compare<enum ResourceType,std::hash<enum ResourceType>,std::equal_to<enum ResourceType> >,std::allocator<std::pair<enum ResourceType const ,ResourceCreator *> >,0> >::_Pocma_both
PUBLIC	?_Move_assign@?$_Hash@V?$_Umap_traits@W4ResourceType@@PAVResourceCreator@@V?$_Uhash_compare@W4ResourceType@@U?$hash@W4ResourceType@@@std@@U?$equal_to@W4ResourceType@@@3@@std@@V?$allocator@U?$pair@$$CBW4ResourceType@@PAVResourceCreator@@@std@@@4@$0A@@std@@@std@@AAEXAAV12@U_Equal_allocators@2@@Z ; std::_Hash<std::_Umap_traits<enum ResourceType,ResourceCreator *,std::_Uhash_compare<enum ResourceType,std::hash<enum ResourceType>,std::equal_to<enum ResourceType> >,std::allocator<std::pair<enum ResourceType const ,ResourceCreator *> >,0> >::_Move_assign
PUBLIC	??4?$_Hash@V?$_Umap_traits@W4ResourceType@@PAVResourceCreator@@V?$_Uhash_compare@W4ResourceType@@U?$hash@W4ResourceType@@@std@@U?$equal_to@W4ResourceType@@@3@@std@@V?$allocator@U?$pair@$$CBW4ResourceType@@PAVResourceCreator@@@std@@@4@$0A@@std@@@std@@QAEAAV01@$$QAV01@@Z ; std::_Hash<std::_Umap_traits<enum ResourceType,ResourceCreator *,std::_Uhash_compare<enum ResourceType,std::hash<enum ResourceType>,std::equal_to<enum ResourceType> >,std::allocator<std::pair<enum ResourceType const ,ResourceCreator *> >,0> >::operator=
PUBLIC	?_Unchecked_begin@?$_Hash@V?$_Umap_traits@W4ResourceType@@PAVResourceCreator@@V?$_Uhash_compare@W4ResourceType@@U?$hash@W4ResourceType@@@std@@U?$equal_to@W4ResourceType@@@3@@std@@V?$allocator@U?$pair@$$CBW4ResourceType@@PAVResourceCreator@@@std@@@4@$0A@@std@@@std@@QAE?AV?$_List_unchecked_iterator@V?$_List_val@U?$_List_simple_types@U?$pair@$$CBW4ResourceType@@PAVResourceCreator@@@std@@@std@@@std@@@2@XZ ; std::_Hash<std::_Umap_traits<enum ResourceType,ResourceCreator *,std::_Uhash_compare<enum ResourceType,std::hash<enum ResourceType>,std::equal_to<enum ResourceType> >,std::allocator<std::pair<enum ResourceType const ,ResourceCreator *> >,0> >::_Unchecked_begin
PUBLIC	?_Unchecked_end@?$_Hash@V?$_Umap_traits@W4ResourceType@@PAVResourceCreator@@V?$_Uhash_compare@W4ResourceType@@U?$hash@W4ResourceType@@@std@@U?$equal_to@W4ResourceType@@@3@@std@@V?$allocator@U?$pair@$$CBW4ResourceType@@PAVResourceCreator@@@std@@@4@$0A@@std@@@std@@QAE?AV?$_List_unchecked_iterator@V?$_List_val@U?$_List_simple_types@U?$pair@$$CBW4ResourceType@@PAVResourceCreator@@@std@@@std@@@std@@@2@XZ ; std::_Hash<std::_Umap_traits<enum ResourceType,ResourceCreator *,std::_Uhash_compare<enum ResourceType,std::hash<enum ResourceType>,std::equal_to<enum ResourceType> >,std::allocator<std::pair<enum ResourceType const ,ResourceCreator *> >,0> >::_Unchecked_end
PUBLIC	?bucket_count@?$_Hash@V?$_Umap_traits@W4ResourceType@@PAVResourceCreator@@V?$_Uhash_compare@W4ResourceType@@U?$hash@W4ResourceType@@@std@@U?$equal_to@W4ResourceType@@@3@@std@@V?$allocator@U?$pair@$$CBW4ResourceType@@PAVResourceCreator@@@std@@@4@$0A@@std@@@std@@QBEIXZ ; std::_Hash<std::_Umap_traits<enum ResourceType,ResourceCreator *,std::_Uhash_compare<enum ResourceType,std::hash<enum ResourceType>,std::equal_to<enum ResourceType> >,std::allocator<std::pair<enum ResourceType const ,ResourceCreator *> >,0> >::bucket_count
PUBLIC	?bucket@?$_Hash@V?$_Umap_traits@W4ResourceType@@PAVResourceCreator@@V?$_Uhash_compare@W4ResourceType@@U?$hash@W4ResourceType@@@std@@U?$equal_to@W4ResourceType@@@3@@std@@V?$allocator@U?$pair@$$CBW4ResourceType@@PAVResourceCreator@@@std@@@4@$0A@@std@@@std@@QBEIABW4ResourceType@@@Z ; std::_Hash<std::_Umap_traits<enum ResourceType,ResourceCreator *,std::_Uhash_compare<enum ResourceType,std::hash<enum ResourceType>,std::equal_to<enum ResourceType> >,std::allocator<std::pair<enum ResourceType const ,ResourceCreator *> >,0> >::bucket
PUBLIC	?_Unchecked_erase@?$_Hash@V?$_Umap_traits@W4ResourceType@@PAVResourceCreator@@V?$_Uhash_compare@W4ResourceType@@U?$hash@W4ResourceType@@@std@@U?$equal_to@W4ResourceType@@@3@@std@@V?$allocator@U?$pair@$$CBW4ResourceType@@PAVResourceCreator@@@std@@@4@$0A@@std@@@std@@AAEPAU?$_List_node@U?$pair@$$CBW4ResourceType@@PAVResourceCreator@@@std@@PAX@2@PAU32@QAU32@@Z ; std::_Hash<std::_Umap_traits<enum ResourceType,ResourceCreator *,std::_Uhash_compare<enum ResourceType,std::hash<enum ResourceType>,std::equal_to<enum ResourceType> >,std::allocator<std::pair<enum ResourceType const ,ResourceCreator *> >,0> >::_Unchecked_erase
PUBLIC	?clear@?$_Hash@V?$_Umap_traits@W4ResourceType@@PAVResourceCreator@@V?$_Uhash_compare@W4ResourceType@@U?$hash@W4ResourceType@@@std@@U?$equal_to@W4ResourceType@@@3@@std@@V?$allocator@U?$pair@$$CBW4ResourceType@@PAVResourceCreator@@@std@@@4@$0A@@std@@@std@@QAEXXZ ; std::_Hash<std::_Umap_traits<enum ResourceType,ResourceCreator *,std::_Uhash_compare<enum ResourceType,std::hash<enum ResourceType>,std::equal_to<enum ResourceType> >,std::allocator<std::pair<enum ResourceType const ,ResourceCreator *> >,0> >::clear
PUBLIC	?_Max_bucket_size@?$_Hash@V?$_Umap_traits@W4ResourceType@@PAVResourceCreator@@V?$_Uhash_compare@W4ResourceType@@U?$hash@W4ResourceType@@@std@@U?$equal_to@W4ResourceType@@@3@@std@@V?$allocator@U?$pair@$$CBW4ResourceType@@PAVResourceCreator@@@std@@@4@$0A@@std@@@std@@IAEAAMXZ ; std::_Hash<std::_Umap_traits<enum ResourceType,ResourceCreator *,std::_Uhash_compare<enum ResourceType,std::hash<enum ResourceType>,std::equal_to<enum ResourceType> >,std::allocator<std::pair<enum ResourceType const ,ResourceCreator *> >,0> >::_Max_bucket_size
PUBLIC	?deallocate@?$allocator@V?$_List_unchecked_iterator@V?$_List_val@U?$_List_simple_types@U?$pair@$$CBW4ResourceType@@PAVResourceCreator@@@std@@@std@@@std@@@std@@@std@@QAEXQAV?$_List_unchecked_iterator@V?$_List_val@U?$_List_simple_types@U?$pair@$$CBW4ResourceType@@PAVResourceCreator@@@std@@@std@@@std@@@2@I@Z ; std::allocator<std::_List_unchecked_iterator<std::_List_val<std::_List_simple_types<std::pair<enum ResourceType const ,ResourceCreator *> > > > >::deallocate
PUBLIC	?allocate@?$allocator@V?$_List_unchecked_iterator@V?$_List_val@U?$_List_simple_types@U?$pair@$$CBW4ResourceType@@PAVResourceCreator@@@std@@@std@@@std@@@std@@@std@@QAEPAV?$_List_unchecked_iterator@V?$_List_val@U?$_List_simple_types@U?$pair@$$CBW4ResourceType@@PAVResourceCreator@@@std@@@std@@@std@@@2@I@Z ; std::allocator<std::_List_unchecked_iterator<std::_List_val<std::_List_simple_types<std::pair<enum ResourceType const ,ResourceCreator *> > > > >::allocate
PUBLIC	?size@?$_Hash_vec@V?$allocator@V?$_List_unchecked_iterator@V?$_List_val@U?$_List_simple_types@U?$pair@$$CBW4ResourceType@@PAVResourceCreator@@@std@@@std@@@std@@@std@@@std@@@std@@QBEIXZ ; std::_Hash_vec<std::allocator<std::_List_unchecked_iterator<std::_List_val<std::_List_simple_types<std::pair<enum ResourceType const ,ResourceCreator *> > > > > >::size
PUBLIC	?_Assign_grow@?$_Hash_vec@V?$allocator@V?$_List_unchecked_iterator@V?$_List_val@U?$_List_simple_types@U?$pair@$$CBW4ResourceType@@PAVResourceCreator@@@std@@@std@@@std@@@std@@@std@@@std@@QAEXIV?$_List_unchecked_iterator@V?$_List_val@U?$_List_simple_types@U?$pair@$$CBW4ResourceType@@PAVResourceCreator@@@std@@@std@@@std@@@2@@Z ; std::_Hash_vec<std::allocator<std::_List_unchecked_iterator<std::_List_val<std::_List_simple_types<std::pair<enum ResourceType const ,ResourceCreator *> > > > > >::_Assign_grow
PUBLIC	?_Tidy@?$_Hash_vec@V?$allocator@V?$_List_unchecked_iterator@V?$_List_val@U?$_List_simple_types@U?$pair@$$CBW4ResourceType@@PAVResourceCreator@@@std@@@std@@@std@@@std@@@std@@@std@@QAEXXZ ; std::_Hash_vec<std::allocator<std::_List_unchecked_iterator<std::_List_val<std::_List_simple_types<std::pair<enum ResourceType const ,ResourceCreator *> > > > > >::_Tidy
PUBLIC	??1?$_Hash_vec@V?$allocator@V?$_List_unchecked_iterator@V?$_List_val@U?$_List_simple_types@U?$pair@$$CBW4ResourceType@@PAVResourceCreator@@@std@@@std@@@std@@@std@@@std@@@std@@QAE@XZ ; std::_Hash_vec<std::allocator<std::_List_unchecked_iterator<std::_List_val<std::_List_simple_types<std::pair<enum ResourceType const ,ResourceCreator *> > > > > >::~_Hash_vec<std::allocator<std::_List_unchecked_iterator<std::_List_val<std::_List_simple_types<std::pair<enum ResourceType const ,ResourceCreator *> > > > > >
PUBLIC	??0?$_Vector_val@U?$_Simple_types@V?$_List_unchecked_iterator@V?$_List_val@U?$_List_simple_types@U?$pair@$$CBW4ResourceType@@PAVResourceCreator@@@std@@@std@@@std@@@std@@@std@@@std@@QAE@XZ ; std::_Vector_val<std::_Simple_types<std::_List_unchecked_iterator<std::_List_val<std::_List_simple_types<std::pair<enum ResourceType const ,ResourceCreator *> > > > > >::_Vector_val<std::_Simple_types<std::_List_unchecked_iterator<std::_List_val<std::_List_simple_types<std::pair<enum ResourceType const ,ResourceCreator *> > > > > >
PUBLIC	?_Swap_val@?$_Vector_val@U?$_Simple_types@V?$_List_unchecked_iterator@V?$_List_val@U?$_List_simple_types@U?$pair@$$CBW4ResourceType@@PAVResourceCreator@@@std@@@std@@@std@@@std@@@std@@@std@@QAEXAAV12@@Z ; std::_Vector_val<std::_Simple_types<std::_List_unchecked_iterator<std::_List_val<std::_List_simple_types<std::pair<enum ResourceType const ,ResourceCreator *> > > > > >::_Swap_val
PUBLIC	?_Get_first@?$_Compressed_pair@V?$allocator@V?$_List_unchecked_iterator@V?$_List_val@U?$_List_simple_types@U?$pair@$$CBW4ResourceType@@PAVResourceCreator@@@std@@@std@@@std@@@std@@@std@@V?$_Vector_val@U?$_Simple_types@V?$_List_unchecked_iterator@V?$_List_val@U?$_List_simple_types@U?$pair@$$CBW4ResourceType@@PAVResourceCreator@@@std@@@std@@@std@@@std@@@std@@@2@$00@std@@QAEAAV?$allocator@V?$_List_unchecked_iterator@V?$_List_val@U?$_List_simple_types@U?$pair@$$CBW4ResourceType@@PAVResourceCreator@@@std@@@std@@@std@@@std@@@2@XZ ; std::_Compressed_pair<std::allocator<std::_List_unchecked_iterator<std::_List_val<std::_List_simple_types<std::pair<enum ResourceType const ,ResourceCreator *> > > > >,std::_Vector_val<std::_Simple_types<std::_List_unchecked_iterator<std::_List_val<std::_List_simple_types<std::pair<enum ResourceType const ,ResourceCreator *> > > > > >,1>::_Get_first
PUBLIC	??1?$_Hash@V?$_Umap_traits@W4ResourceType@@PAVResourceCreator@@V?$_Uhash_compare@W4ResourceType@@U?$hash@W4ResourceType@@@std@@U?$equal_to@W4ResourceType@@@3@@std@@V?$allocator@U?$pair@$$CBW4ResourceType@@PAVResourceCreator@@@std@@@4@$0A@@std@@@std@@QAE@XZ ; std::_Hash<std::_Umap_traits<enum ResourceType,ResourceCreator *,std::_Uhash_compare<enum ResourceType,std::hash<enum ResourceType>,std::equal_to<enum ResourceType> >,std::allocator<std::pair<enum ResourceType const ,ResourceCreator *> >,0> >::~_Hash<std::_Umap_traits<enum ResourceType,ResourceCreator *,std::_Uhash_compare<enum ResourceType,std::hash<enum ResourceType>,std::equal_to<enum ResourceType> >,std::allocator<std::pair<enum ResourceType const ,ResourceCreator *> >,0> >
PUBLIC	??0?$unordered_map@W4ResourceType@@PAVResourceCreator@@U?$hash@W4ResourceType@@@std@@U?$equal_to@W4ResourceType@@@4@V?$allocator@U?$pair@$$CBW4ResourceType@@PAVResourceCreator@@@std@@@4@@std@@QAE@XZ ; std::unordered_map<enum ResourceType,ResourceCreator *,std::hash<enum ResourceType>,std::equal_to<enum ResourceType>,std::allocator<std::pair<enum ResourceType const ,ResourceCreator *> > >::unordered_map<enum ResourceType,ResourceCreator *,std::hash<enum ResourceType>,std::equal_to<enum ResourceType>,std::allocator<std::pair<enum ResourceType const ,ResourceCreator *> > >
PUBLIC	??4?$unordered_map@W4ResourceType@@PAVResourceCreator@@U?$hash@W4ResourceType@@@std@@U?$equal_to@W4ResourceType@@@4@V?$allocator@U?$pair@$$CBW4ResourceType@@PAVResourceCreator@@@std@@@4@@std@@QAEAAV01@$$QAV01@@Z ; std::unordered_map<enum ResourceType,ResourceCreator *,std::hash<enum ResourceType>,std::equal_to<enum ResourceType>,std::allocator<std::pair<enum ResourceType const ,ResourceCreator *> > >::operator=
PUBLIC	??1?$unordered_map@W4ResourceType@@PAVResourceCreator@@U?$hash@W4ResourceType@@@std@@U?$equal_to@W4ResourceType@@@4@V?$allocator@U?$pair@$$CBW4ResourceType@@PAVResourceCreator@@@std@@@4@@std@@QAE@XZ ; std::unordered_map<enum ResourceType,ResourceCreator *,std::hash<enum ResourceType>,std::equal_to<enum ResourceType>,std::allocator<std::pair<enum ResourceType const ,ResourceCreator *> > >::~unordered_map<enum ResourceType,ResourceCreator *,std::hash<enum ResourceType>,std::equal_to<enum ResourceType>,std::allocator<std::pair<enum ResourceType const ,ResourceCreator *> > >
PUBLIC	??0ResourceManager@@AAE@XZ			; ResourceManager::ResourceManager
PUBLIC	?initResourceCreators@ResourceManager@@AAE_NXZ	; ResourceManager::initResourceCreators
PUBLIC	?chooseResourceCreator@ResourceManager@@AAEAAVResourceCreator@@ABVResourceName@@@Z ; ResourceManager::chooseResourceCreator
PUBLIC	?createNewHandler@ResourceManager@@AAEAAVResourceHandler@@I@Z ; ResourceManager::createNewHandler
PUBLIC	?loadNewResourceFromArchive@ResourceManager@@AAE?AVResourceReference@@AAVResourceHandler@@ABVResourceName@@I@Z ; ResourceManager::loadNewResourceFromArchive
PUBLIC	?get@ResourceManager@@SAAAV1@XZ			; ResourceManager::get
PUBLIC	?init@ResourceManager@@QAE_NXZ			; ResourceManager::init
PUBLIC	?release@ResourceManager@@QAEXXZ		; ResourceManager::release
PUBLIC	?getResourceFromArchive@ResourceManager@@QAE?AVResourceReference@@ABVResourceName@@@Z ; ResourceManager::getResourceFromArchive
PUBLIC	?getResourceFromArchive@ResourceManager@@QAE?AVResourceReference@@I@Z ; ResourceManager::getResourceFromArchive
PUBLIC	?getResourceAsyncFromArchive@ResourceManager@@QAE?AVResourceReference@@ABVResourceName@@@Z ; ResourceManager::getResourceAsyncFromArchive
PUBLIC	?getResourceAsyncFromArchive@ResourceManager@@QAE?AVResourceReference@@I@Z ; ResourceManager::getResourceAsyncFromArchive
PUBLIC	?getRawResourceFromArchive@ResourceManager@@QAEPAXABVResourceName@@AAI@Z ; ResourceManager::getRawResourceFromArchive
PUBLIC	?getRawResourceFromNativeFileSystem@ResourceManager@@QAEPAXABVResourceName@@AAI@Z ; ResourceManager::getRawResourceFromNativeFileSystem
PUBLIC	??1ResourceManager@@QAE@XZ			; ResourceManager::~ResourceManager
PUBLIC	?__autoclassinit2@ResourceManager@@QAEXI@Z	; ResourceManager::__autoclassinit2
PUBLIC	??1ResourceCreator@@UAE@XZ			; ResourceCreator::~ResourceCreator
PUBLIC	??0ResourceCreator@@QAE@XZ			; ResourceCreator::ResourceCreator
PUBLIC	??_GResourceCreator@@UAEPAXI@Z			; ResourceCreator::`scalar deleting destructor'
PUBLIC	?getFilePattern@DefaultResourceCreator@@UBEPBDXZ ; DefaultResourceCreator::getFilePattern
PUBLIC	??0DefaultResourceCreator@@QAE@XZ		; DefaultResourceCreator::DefaultResourceCreator
PUBLIC	??1DefaultResourceCreator@@UAE@XZ		; DefaultResourceCreator::~DefaultResourceCreator
PUBLIC	??_GDefaultResourceCreator@@UAEPAXI@Z		; DefaultResourceCreator::`scalar deleting destructor'
PUBLIC	??0FileSystem@@QAE@XZ				; FileSystem::FileSystem
PUBLIC	??1FileSystem@@UAE@XZ				; FileSystem::~FileSystem
PUBLIC	??_GFileSystem@@UAEPAXI@Z			; FileSystem::`scalar deleting destructor'
PUBLIC	??0IndexedFileSystem@@QAE@XZ			; IndexedFileSystem::IndexedFileSystem
PUBLIC	??1IndexedFileSystem@@UAE@XZ			; IndexedFileSystem::~IndexedFileSystem
PUBLIC	??_GIndexedFileSystem@@UAEPAXI@Z		; IndexedFileSystem::`scalar deleting destructor'
PUBLIC	??0?$allocator@U?$pair@$$CBII@std@@@std@@QAE@XZ	; std::allocator<std::pair<unsigned int const ,unsigned int> >::allocator<std::pair<unsigned int const ,unsigned int> >
PUBLIC	??0?$_Umap_traits@IIV?$_Uhash_compare@IU?$hash@I@std@@U?$equal_to@I@2@@std@@V?$allocator@U?$pair@$$CBII@std@@@2@$0A@@std@@QAE@ABV?$_Uhash_compare@IU?$hash@I@std@@U?$equal_to@I@2@@1@@Z ; std::_Umap_traits<unsigned int,unsigned int,std::_Uhash_compare<unsigned int,std::hash<unsigned int>,std::equal_to<unsigned int> >,std::allocator<std::pair<unsigned int const ,unsigned int> >,0>::_Umap_traits<unsigned int,unsigned int,std::_Uhash_compare<unsigned int,std::hash<unsigned int>,std::equal_to<unsigned int> >,std::allocator<std::pair<unsigned int const ,unsigned int> >,0>
PUBLIC	?allocate@?$allocator@U?$_List_node@U?$pair@$$CBII@std@@PAX@std@@@std@@QAEPAU?$_List_node@U?$pair@$$CBII@std@@PAX@2@I@Z ; std::allocator<std::_List_node<std::pair<unsigned int const ,unsigned int>,void *> >::allocate
PUBLIC	?deallocate@?$_Default_allocator_traits@V?$allocator@U?$_List_node@U?$pair@$$CBII@std@@PAX@std@@@std@@@std@@SAXAAV?$allocator@U?$_List_node@U?$pair@$$CBII@std@@PAX@std@@@2@QAU?$_List_node@U?$pair@$$CBII@std@@PAX@2@I@Z ; std::_Default_allocator_traits<std::allocator<std::_List_node<std::pair<unsigned int const ,unsigned int>,void *> > >::deallocate
PUBLIC	??0?$list@U?$pair@$$CBII@std@@V?$allocator@U?$pair@$$CBII@std@@@2@@std@@QAE@ABV?$allocator@U?$pair@$$CBII@std@@@1@@Z ; std::list<std::pair<unsigned int const ,unsigned int>,std::allocator<std::pair<unsigned int const ,unsigned int> > >::list<std::pair<unsigned int const ,unsigned int>,std::allocator<std::pair<unsigned int const ,unsigned int> > >
PUBLIC	??1?$list@U?$pair@$$CBII@std@@V?$allocator@U?$pair@$$CBII@std@@@2@@std@@QAE@XZ ; std::list<std::pair<unsigned int const ,unsigned int>,std::allocator<std::pair<unsigned int const ,unsigned int> > >::~list<std::pair<unsigned int const ,unsigned int>,std::allocator<std::pair<unsigned int const ,unsigned int> > >
PUBLIC	?_Unchecked_end@?$list@U?$pair@$$CBII@std@@V?$allocator@U?$pair@$$CBII@std@@@2@@std@@QAE?AV?$_List_unchecked_iterator@V?$_List_val@U?$_List_simple_types@U?$pair@$$CBII@std@@@std@@@std@@@2@XZ ; std::list<std::pair<unsigned int const ,unsigned int>,std::allocator<std::pair<unsigned int const ,unsigned int> > >::_Unchecked_end
PUBLIC	?_Tidy@?$list@U?$pair@$$CBII@std@@V?$allocator@U?$pair@$$CBII@std@@@2@@std@@AAEXXZ ; std::list<std::pair<unsigned int const ,unsigned int>,std::allocator<std::pair<unsigned int const ,unsigned int> > >::_Tidy
PUBLIC	?_Alloc_sentinel_and_proxy@?$list@U?$pair@$$CBII@std@@V?$allocator@U?$pair@$$CBII@std@@@2@@std@@AAEXXZ ; std::list<std::pair<unsigned int const ,unsigned int>,std::allocator<std::pair<unsigned int const ,unsigned int> > >::_Alloc_sentinel_and_proxy
PUBLIC	?_Getal@?$list@U?$pair@$$CBII@std@@V?$allocator@U?$pair@$$CBII@std@@@2@@std@@AAEAAV?$allocator@U?$_List_node@U?$pair@$$CBII@std@@PAX@std@@@2@XZ ; std::list<std::pair<unsigned int const ,unsigned int>,std::allocator<std::pair<unsigned int const ,unsigned int> > >::_Getal
PUBLIC	??0?$_List_val@U?$_List_simple_types@U?$pair@$$CBII@std@@@std@@@std@@QAE@XZ ; std::_List_val<std::_List_simple_types<std::pair<unsigned int const ,unsigned int> > >::_List_val<std::_List_simple_types<std::pair<unsigned int const ,unsigned int> > >
PUBLIC	?_Get_first@?$_Compressed_pair@V?$allocator@U?$_List_node@U?$pair@$$CBII@std@@PAX@std@@@std@@V?$_List_val@U?$_List_simple_types@U?$pair@$$CBII@std@@@std@@@2@$00@std@@QAEAAV?$allocator@U?$_List_node@U?$pair@$$CBII@std@@PAX@std@@@2@XZ ; std::_Compressed_pair<std::allocator<std::_List_node<std::pair<unsigned int const ,unsigned int>,void *> >,std::_List_val<std::_List_simple_types<std::pair<unsigned int const ,unsigned int> > >,1>::_Get_first
PUBLIC	??0?$_Hash@V?$_Umap_traits@IIV?$_Uhash_compare@IU?$hash@I@std@@U?$equal_to@I@2@@std@@V?$allocator@U?$pair@$$CBII@std@@@2@$0A@@std@@@std@@IAE@ABV?$_Uhash_compare@IU?$hash@I@std@@U?$equal_to@I@2@@1@ABV?$allocator@U?$pair@$$CBII@std@@@1@@Z ; std::_Hash<std::_Umap_traits<unsigned int,unsigned int,std::_Uhash_compare<unsigned int,std::hash<unsigned int>,std::equal_to<unsigned int> >,std::allocator<std::pair<unsigned int const ,unsigned int> >,0> >::_Hash<std::_Umap_traits<unsigned int,unsigned int,std::_Uhash_compare<unsigned int,std::hash<unsigned int>,std::equal_to<unsigned int> >,std::allocator<std::pair<unsigned int const ,unsigned int> >,0> >
PUBLIC	?_Max_bucket_size@?$_Hash@V?$_Umap_traits@IIV?$_Uhash_compare@IU?$hash@I@std@@U?$equal_to@I@2@@std@@V?$allocator@U?$pair@$$CBII@std@@@2@$0A@@std@@@std@@IAEAAMXZ ; std::_Hash<std::_Umap_traits<unsigned int,unsigned int,std::_Uhash_compare<unsigned int,std::hash<unsigned int>,std::equal_to<unsigned int> >,std::allocator<std::pair<unsigned int const ,unsigned int> >,0> >::_Max_bucket_size
PUBLIC	?deallocate@?$allocator@V?$_List_unchecked_iterator@V?$_List_val@U?$_List_simple_types@U?$pair@$$CBII@std@@@std@@@std@@@std@@@std@@QAEXQAV?$_List_unchecked_iterator@V?$_List_val@U?$_List_simple_types@U?$pair@$$CBII@std@@@std@@@std@@@2@I@Z ; std::allocator<std::_List_unchecked_iterator<std::_List_val<std::_List_simple_types<std::pair<unsigned int const ,unsigned int> > > > >::deallocate
PUBLIC	?allocate@?$allocator@V?$_List_unchecked_iterator@V?$_List_val@U?$_List_simple_types@U?$pair@$$CBII@std@@@std@@@std@@@std@@@std@@QAEPAV?$_List_unchecked_iterator@V?$_List_val@U?$_List_simple_types@U?$pair@$$CBII@std@@@std@@@std@@@2@I@Z ; std::allocator<std::_List_unchecked_iterator<std::_List_val<std::_List_simple_types<std::pair<unsigned int const ,unsigned int> > > > >::allocate
PUBLIC	?size@?$_Hash_vec@V?$allocator@V?$_List_unchecked_iterator@V?$_List_val@U?$_List_simple_types@U?$pair@$$CBII@std@@@std@@@std@@@std@@@std@@@std@@QBEIXZ ; std::_Hash_vec<std::allocator<std::_List_unchecked_iterator<std::_List_val<std::_List_simple_types<std::pair<unsigned int const ,unsigned int> > > > > >::size
PUBLIC	?_Assign_grow@?$_Hash_vec@V?$allocator@V?$_List_unchecked_iterator@V?$_List_val@U?$_List_simple_types@U?$pair@$$CBII@std@@@std@@@std@@@std@@@std@@@std@@QAEXIV?$_List_unchecked_iterator@V?$_List_val@U?$_List_simple_types@U?$pair@$$CBII@std@@@std@@@std@@@2@@Z ; std::_Hash_vec<std::allocator<std::_List_unchecked_iterator<std::_List_val<std::_List_simple_types<std::pair<unsigned int const ,unsigned int> > > > > >::_Assign_grow
PUBLIC	?_Tidy@?$_Hash_vec@V?$allocator@V?$_List_unchecked_iterator@V?$_List_val@U?$_List_simple_types@U?$pair@$$CBII@std@@@std@@@std@@@std@@@std@@@std@@QAEXXZ ; std::_Hash_vec<std::allocator<std::_List_unchecked_iterator<std::_List_val<std::_List_simple_types<std::pair<unsigned int const ,unsigned int> > > > > >::_Tidy
PUBLIC	??1?$_Hash_vec@V?$allocator@V?$_List_unchecked_iterator@V?$_List_val@U?$_List_simple_types@U?$pair@$$CBII@std@@@std@@@std@@@std@@@std@@@std@@QAE@XZ ; std::_Hash_vec<std::allocator<std::_List_unchecked_iterator<std::_List_val<std::_List_simple_types<std::pair<unsigned int const ,unsigned int> > > > > >::~_Hash_vec<std::allocator<std::_List_unchecked_iterator<std::_List_val<std::_List_simple_types<std::pair<unsigned int const ,unsigned int> > > > > >
PUBLIC	??0?$_Vector_val@U?$_Simple_types@V?$_List_unchecked_iterator@V?$_List_val@U?$_List_simple_types@U?$pair@$$CBII@std@@@std@@@std@@@std@@@std@@@std@@QAE@XZ ; std::_Vector_val<std::_Simple_types<std::_List_unchecked_iterator<std::_List_val<std::_List_simple_types<std::pair<unsigned int const ,unsigned int> > > > > >::_Vector_val<std::_Simple_types<std::_List_unchecked_iterator<std::_List_val<std::_List_simple_types<std::pair<unsigned int const ,unsigned int> > > > > >
PUBLIC	?_Get_first@?$_Compressed_pair@V?$allocator@V?$_List_unchecked_iterator@V?$_List_val@U?$_List_simple_types@U?$pair@$$CBII@std@@@std@@@std@@@std@@@std@@V?$_Vector_val@U?$_Simple_types@V?$_List_unchecked_iterator@V?$_List_val@U?$_List_simple_types@U?$pair@$$CBII@std@@@std@@@std@@@std@@@std@@@2@$00@std@@QAEAAV?$allocator@V?$_List_unchecked_iterator@V?$_List_val@U?$_List_simple_types@U?$pair@$$CBII@std@@@std@@@std@@@std@@@2@XZ ; std::_Compressed_pair<std::allocator<std::_List_unchecked_iterator<std::_List_val<std::_List_simple_types<std::pair<unsigned int const ,unsigned int> > > > >,std::_Vector_val<std::_Simple_types<std::_List_unchecked_iterator<std::_List_val<std::_List_simple_types<std::pair<unsigned int const ,unsigned int> > > > > >,1>::_Get_first
PUBLIC	??1?$_Hash@V?$_Umap_traits@IIV?$_Uhash_compare@IU?$hash@I@std@@U?$equal_to@I@2@@std@@V?$allocator@U?$pair@$$CBII@std@@@2@$0A@@std@@@std@@QAE@XZ ; std::_Hash<std::_Umap_traits<unsigned int,unsigned int,std::_Uhash_compare<unsigned int,std::hash<unsigned int>,std::equal_to<unsigned int> >,std::allocator<std::pair<unsigned int const ,unsigned int> >,0> >::~_Hash<std::_Umap_traits<unsigned int,unsigned int,std::_Uhash_compare<unsigned int,std::hash<unsigned int>,std::equal_to<unsigned int> >,std::allocator<std::pair<unsigned int const ,unsigned int> >,0> >
PUBLIC	??0?$unordered_map@IIU?$hash@I@std@@U?$equal_to@I@2@V?$allocator@U?$pair@$$CBII@std@@@2@@std@@QAE@XZ ; std::unordered_map<unsigned int,unsigned int,std::hash<unsigned int>,std::equal_to<unsigned int>,std::allocator<std::pair<unsigned int const ,unsigned int> > >::unordered_map<unsigned int,unsigned int,std::hash<unsigned int>,std::equal_to<unsigned int>,std::allocator<std::pair<unsigned int const ,unsigned int> > >
PUBLIC	??1?$unordered_map@IIU?$hash@I@std@@U?$equal_to@I@2@V?$allocator@U?$pair@$$CBII@std@@@2@@std@@QAE@XZ ; std::unordered_map<unsigned int,unsigned int,std::hash<unsigned int>,std::equal_to<unsigned int>,std::allocator<std::pair<unsigned int const ,unsigned int> > >::~unordered_map<unsigned int,unsigned int,std::hash<unsigned int>,std::equal_to<unsigned int>,std::allocator<std::pair<unsigned int const ,unsigned int> > >
PUBLIC	??0ZipFile@@QAE@XZ				; ZipFile::ZipFile
PUBLIC	??1ZipFile@@QAE@XZ				; ZipFile::~ZipFile
PUBLIC	??0ZipFileSystem@@QAE@XZ			; ZipFileSystem::ZipFileSystem
PUBLIC	??1ZipFileSystem@@UAE@XZ			; ZipFileSystem::~ZipFileSystem
PUBLIC	?__autoclassinit2@ZipFileSystem@@QAEXI@Z	; ZipFileSystem::__autoclassinit2
PUBLIC	??_GZipFileSystem@@UAEPAXI@Z			; ZipFileSystem::`scalar deleting destructor'
PUBLIC	??$_Maklocstr@_W@std@@YAPA_WPBDPA_WABU_Cvtvec@@@Z ; std::_Maklocstr<wchar_t>
PUBLIC	?_Maklocwcs@std@@YAPA_WPB_W@Z			; std::_Maklocwcs
PUBLIC	??$_Maklocstr@D@std@@YAPADPBDPADABU_Cvtvec@@@Z	; std::_Maklocstr<char>
PUBLIC	??$_Getvals@_W@?$time_get@DV?$istreambuf_iterator@DU?$char_traits@D@std@@@std@@@std@@IAEX_WABV_Locinfo@1@@Z ; std::time_get<char,std::istreambuf_iterator<char,std::char_traits<char> > >::_Getvals<wchar_t>
PUBLIC	??$_Getvals@_W@?$time_get@_WV?$istreambuf_iterator@_WU?$char_traits@_W@std@@@std@@@std@@IAEX_WABV_Locinfo@1@@Z ; std::time_get<wchar_t,std::istreambuf_iterator<wchar_t,std::char_traits<wchar_t> > >::_Getvals<wchar_t>
PUBLIC	??$forward@I@std@@YA$$QAIAAI@Z			; std::forward<unsigned int>
PUBLIC	??0NativeFileSystem@@QAE@XZ			; NativeFileSystem::NativeFileSystem
PUBLIC	??1NativeFileSystem@@UAE@XZ			; NativeFileSystem::~NativeFileSystem
PUBLIC	?init@NativeFileSystem@@UAE_NABVResourceName@@@Z ; NativeFileSystem::init
PUBLIC	?release@NativeFileSystem@@UAEXXZ		; NativeFileSystem::release
PUBLIC	??_GNativeFileSystem@@UAEPAXI@Z			; NativeFileSystem::`scalar deleting destructor'
PUBLIC	??0Thread@@QAE@XZ				; Thread::Thread
PUBLIC	??0?$allocator@UResourceLoadingInformation@ResourceAsyncLoader@@@std@@QAE@XZ ; std::allocator<ResourceAsyncLoader::ResourceLoadingInformation>::allocator<ResourceAsyncLoader::ResourceLoadingInformation>
PUBLIC	?deallocate@?$allocator@UResourceLoadingInformation@ResourceAsyncLoader@@@std@@QAEXQAUResourceLoadingInformation@ResourceAsyncLoader@@I@Z ; std::allocator<ResourceAsyncLoader::ResourceLoadingInformation>::deallocate
PUBLIC	?deallocate@?$allocator@PAUResourceLoadingInformation@ResourceAsyncLoader@@@std@@QAEXQAPAUResourceLoadingInformation@ResourceAsyncLoader@@I@Z ; std::allocator<ResourceAsyncLoader::ResourceLoadingInformation *>::deallocate
PUBLIC	??0?$deque@UResourceLoadingInformation@ResourceAsyncLoader@@V?$allocator@UResourceLoadingInformation@ResourceAsyncLoader@@@std@@@std@@QAE@XZ ; std::deque<ResourceAsyncLoader::ResourceLoadingInformation,std::allocator<ResourceAsyncLoader::ResourceLoadingInformation> >::deque<ResourceAsyncLoader::ResourceLoadingInformation,std::allocator<ResourceAsyncLoader::ResourceLoadingInformation> >
PUBLIC	??1?$deque@UResourceLoadingInformation@ResourceAsyncLoader@@V?$allocator@UResourceLoadingInformation@ResourceAsyncLoader@@@std@@@std@@QAE@XZ ; std::deque<ResourceAsyncLoader::ResourceLoadingInformation,std::allocator<ResourceAsyncLoader::ResourceLoadingInformation> >::~deque<ResourceAsyncLoader::ResourceLoadingInformation,std::allocator<ResourceAsyncLoader::ResourceLoadingInformation> >
PUBLIC	?empty@?$deque@UResourceLoadingInformation@ResourceAsyncLoader@@V?$allocator@UResourceLoadingInformation@ResourceAsyncLoader@@@std@@@std@@QBE_NXZ ; std::deque<ResourceAsyncLoader::ResourceLoadingInformation,std::allocator<ResourceAsyncLoader::ResourceLoadingInformation> >::empty
PUBLIC	?pop_back@?$deque@UResourceLoadingInformation@ResourceAsyncLoader@@V?$allocator@UResourceLoadingInformation@ResourceAsyncLoader@@@std@@@std@@QAEXXZ ; std::deque<ResourceAsyncLoader::ResourceLoadingInformation,std::allocator<ResourceAsyncLoader::ResourceLoadingInformation> >::pop_back
PUBLIC	?_Tidy@?$deque@UResourceLoadingInformation@ResourceAsyncLoader@@V?$allocator@UResourceLoadingInformation@ResourceAsyncLoader@@@std@@@std@@AAEXXZ ; std::deque<ResourceAsyncLoader::ResourceLoadingInformation,std::allocator<ResourceAsyncLoader::ResourceLoadingInformation> >::_Tidy
PUBLIC	?_Orphan_off@?$deque@UResourceLoadingInformation@ResourceAsyncLoader@@V?$allocator@UResourceLoadingInformation@ResourceAsyncLoader@@@std@@@std@@ABEXI@Z ; std::deque<ResourceAsyncLoader::ResourceLoadingInformation,std::allocator<ResourceAsyncLoader::ResourceLoadingInformation> >::_Orphan_off
PUBLIC	?_Getblock@?$deque@UResourceLoadingInformation@ResourceAsyncLoader@@V?$allocator@UResourceLoadingInformation@ResourceAsyncLoader@@@std@@@std@@ABEII@Z ; std::deque<ResourceAsyncLoader::ResourceLoadingInformation,std::allocator<ResourceAsyncLoader::ResourceLoadingInformation> >::_Getblock
PUBLIC	?_Orphan_all@?$deque@UResourceLoadingInformation@ResourceAsyncLoader@@V?$allocator@UResourceLoadingInformation@ResourceAsyncLoader@@@std@@@std@@AAEXXZ ; std::deque<ResourceAsyncLoader::ResourceLoadingInformation,std::allocator<ResourceAsyncLoader::ResourceLoadingInformation> >::_Orphan_all
PUBLIC	?_Getal@?$deque@UResourceLoadingInformation@ResourceAsyncLoader@@V?$allocator@UResourceLoadingInformation@ResourceAsyncLoader@@@std@@@std@@AAEAAV?$allocator@UResourceLoadingInformation@ResourceAsyncLoader@@@2@XZ ; std::deque<ResourceAsyncLoader::ResourceLoadingInformation,std::allocator<ResourceAsyncLoader::ResourceLoadingInformation> >::_Getal
PUBLIC	?_Get_data@?$deque@UResourceLoadingInformation@ResourceAsyncLoader@@V?$allocator@UResourceLoadingInformation@ResourceAsyncLoader@@@std@@@std@@AAEAAV?$_Deque_val@U?$_Deque_simple_types@UResourceLoadingInformation@ResourceAsyncLoader@@@std@@@2@XZ ; std::deque<ResourceAsyncLoader::ResourceLoadingInformation,std::allocator<ResourceAsyncLoader::ResourceLoadingInformation> >::_Get_data
PUBLIC	?_Get_data@?$deque@UResourceLoadingInformation@ResourceAsyncLoader@@V?$allocator@UResourceLoadingInformation@ResourceAsyncLoader@@@std@@@std@@ABEABV?$_Deque_val@U?$_Deque_simple_types@UResourceLoadingInformation@ResourceAsyncLoader@@@std@@@2@XZ ; std::deque<ResourceAsyncLoader::ResourceLoadingInformation,std::allocator<ResourceAsyncLoader::ResourceLoadingInformation> >::_Get_data
PUBLIC	?_Map@?$deque@UResourceLoadingInformation@ResourceAsyncLoader@@V?$allocator@UResourceLoadingInformation@ResourceAsyncLoader@@@std@@@std@@AAEAAPAPAUResourceLoadingInformation@ResourceAsyncLoader@@XZ ; std::deque<ResourceAsyncLoader::ResourceLoadingInformation,std::allocator<ResourceAsyncLoader::ResourceLoadingInformation> >::_Map
PUBLIC	?_Mapsize@?$deque@UResourceLoadingInformation@ResourceAsyncLoader@@V?$allocator@UResourceLoadingInformation@ResourceAsyncLoader@@@std@@@std@@AAEAAIXZ ; std::deque<ResourceAsyncLoader::ResourceLoadingInformation,std::allocator<ResourceAsyncLoader::ResourceLoadingInformation> >::_Mapsize
PUBLIC	?_Myoff@?$deque@UResourceLoadingInformation@ResourceAsyncLoader@@V?$allocator@UResourceLoadingInformation@ResourceAsyncLoader@@@std@@@std@@AAEAAIXZ ; std::deque<ResourceAsyncLoader::ResourceLoadingInformation,std::allocator<ResourceAsyncLoader::ResourceLoadingInformation> >::_Myoff
PUBLIC	?_Myoff@?$deque@UResourceLoadingInformation@ResourceAsyncLoader@@V?$allocator@UResourceLoadingInformation@ResourceAsyncLoader@@@std@@@std@@ABEABIXZ ; std::deque<ResourceAsyncLoader::ResourceLoadingInformation,std::allocator<ResourceAsyncLoader::ResourceLoadingInformation> >::_Myoff
PUBLIC	?_Mysize@?$deque@UResourceLoadingInformation@ResourceAsyncLoader@@V?$allocator@UResourceLoadingInformation@ResourceAsyncLoader@@@std@@@std@@AAEAAIXZ ; std::deque<ResourceAsyncLoader::ResourceLoadingInformation,std::allocator<ResourceAsyncLoader::ResourceLoadingInformation> >::_Mysize
PUBLIC	?_Mysize@?$deque@UResourceLoadingInformation@ResourceAsyncLoader@@V?$allocator@UResourceLoadingInformation@ResourceAsyncLoader@@@std@@@std@@ABEABIXZ ; std::deque<ResourceAsyncLoader::ResourceLoadingInformation,std::allocator<ResourceAsyncLoader::ResourceLoadingInformation> >::_Mysize
PUBLIC	??0?$_Deque_val@U?$_Deque_simple_types@UResourceLoadingInformation@ResourceAsyncLoader@@@std@@@std@@QAE@XZ ; std::_Deque_val<std::_Deque_simple_types<ResourceAsyncLoader::ResourceLoadingInformation> >::_Deque_val<std::_Deque_simple_types<ResourceAsyncLoader::ResourceLoadingInformation> >
PUBLIC	?_Getblock@?$_Deque_val@U?$_Deque_simple_types@UResourceLoadingInformation@ResourceAsyncLoader@@@std@@@std@@QBEII@Z ; std::_Deque_val<std::_Deque_simple_types<ResourceAsyncLoader::ResourceLoadingInformation> >::_Getblock
PUBLIC	?_Get_first@?$_Compressed_pair@V?$allocator@UResourceLoadingInformation@ResourceAsyncLoader@@@std@@V?$_Deque_val@U?$_Deque_simple_types@UResourceLoadingInformation@ResourceAsyncLoader@@@std@@@2@$00@std@@QAEAAV?$allocator@UResourceLoadingInformation@ResourceAsyncLoader@@@2@XZ ; std::_Compressed_pair<std::allocator<ResourceAsyncLoader::ResourceLoadingInformation>,std::_Deque_val<std::_Deque_simple_types<ResourceAsyncLoader::ResourceLoadingInformation> >,1>::_Get_first
PUBLIC	??0?$queue@UResourceLoadingInformation@ResourceAsyncLoader@@V?$deque@UResourceLoadingInformation@ResourceAsyncLoader@@V?$allocator@UResourceLoadingInformation@ResourceAsyncLoader@@@std@@@std@@@std@@QAE@XZ ; std::queue<ResourceAsyncLoader::ResourceLoadingInformation,std::deque<ResourceAsyncLoader::ResourceLoadingInformation,std::allocator<ResourceAsyncLoader::ResourceLoadingInformation> > >::queue<ResourceAsyncLoader::ResourceLoadingInformation,std::deque<ResourceAsyncLoader::ResourceLoadingInformation,std::allocator<ResourceAsyncLoader::ResourceLoadingInformation> > >
PUBLIC	??1?$queue@UResourceLoadingInformation@ResourceAsyncLoader@@V?$deque@UResourceLoadingInformation@ResourceAsyncLoader@@V?$allocator@UResourceLoadingInformation@ResourceAsyncLoader@@@std@@@std@@@std@@QAE@XZ ; std::queue<ResourceAsyncLoader::ResourceLoadingInformation,std::deque<ResourceAsyncLoader::ResourceLoadingInformation,std::allocator<ResourceAsyncLoader::ResourceLoadingInformation> > >::~queue<ResourceAsyncLoader::ResourceLoadingInformation,std::deque<ResourceAsyncLoader::ResourceLoadingInformation,std::allocator<ResourceAsyncLoader::ResourceLoadingInformation> > >
PUBLIC	??0?$ThreadItemQueue@UResourceLoadingInformation@ResourceAsyncLoader@@@@QAE@XZ ; ThreadItemQueue<ResourceAsyncLoader::ResourceLoadingInformation>::ThreadItemQueue<ResourceAsyncLoader::ResourceLoadingInformation>
PUBLIC	??1?$ThreadItemQueue@UResourceLoadingInformation@ResourceAsyncLoader@@@@QAE@XZ ; ThreadItemQueue<ResourceAsyncLoader::ResourceLoadingInformation>::~ThreadItemQueue<ResourceAsyncLoader::ResourceLoadingInformation>
PUBLIC	??0ResourceAsyncLoader@@QAE@XZ			; ResourceAsyncLoader::ResourceAsyncLoader
PUBLIC	??1ResourceAsyncLoader@@QAE@XZ			; ResourceAsyncLoader::~ResourceAsyncLoader
PUBLIC	?__autoclassinit2@ResourceAsyncLoader@@QAEXI@Z	; ResourceAsyncLoader::__autoclassinit2
PUBLIC	??_GResourceAsyncLoader@@QAEPAXI@Z		; ResourceAsyncLoader::`scalar deleting destructor'
PUBLIC	??0?$_List_unchecked_const_iterator@V?$_List_val@U?$_List_simple_types@U?$pair@$$CBW4ResourceType@@PAVResourceCreator@@@std@@@std@@@std@@U_Iterator_base0@2@@std@@QAE@PAU?$_List_node@U?$pair@$$CBW4ResourceType@@PAVResourceCreator@@@std@@PAX@1@PBV?$_List_val@U?$_List_simple_types@U?$pair@$$CBW4ResourceType@@PAVResourceCreator@@@std@@@std@@@1@@Z ; std::_List_unchecked_const_iterator<std::_List_val<std::_List_simple_types<std::pair<enum ResourceType const ,ResourceCreator *> > >,std::_Iterator_base0>::_List_unchecked_const_iterator<std::_List_val<std::_List_simple_types<std::pair<enum ResourceType const ,ResourceCreator *> > >,std::_Iterator_base0>
PUBLIC	??D?$_List_unchecked_const_iterator@V?$_List_val@U?$_List_simple_types@U?$pair@$$CBW4ResourceType@@PAVResourceCreator@@@std@@@std@@@std@@U_Iterator_base0@2@@std@@QBEABU?$pair@$$CBW4ResourceType@@PAVResourceCreator@@@1@XZ ; std::_List_unchecked_const_iterator<std::_List_val<std::_List_simple_types<std::pair<enum ResourceType const ,ResourceCreator *> > >,std::_Iterator_base0>::operator*
PUBLIC	??E?$_List_unchecked_const_iterator@V?$_List_val@U?$_List_simple_types@U?$pair@$$CBW4ResourceType@@PAVResourceCreator@@@std@@@std@@@std@@U_Iterator_base0@2@@std@@QAEAAV01@XZ ; std::_List_unchecked_const_iterator<std::_List_val<std::_List_simple_types<std::pair<enum ResourceType const ,ResourceCreator *> > >,std::_Iterator_base0>::operator++
PUBLIC	??8?$_List_unchecked_const_iterator@V?$_List_val@U?$_List_simple_types@U?$pair@$$CBW4ResourceType@@PAVResourceCreator@@@std@@@std@@@std@@U_Iterator_base0@2@@std@@QBE_NABV01@@Z ; std::_List_unchecked_const_iterator<std::_List_val<std::_List_simple_types<std::pair<enum ResourceType const ,ResourceCreator *> > >,std::_Iterator_base0>::operator==
PUBLIC	??9?$_List_unchecked_const_iterator@V?$_List_val@U?$_List_simple_types@U?$pair@$$CBW4ResourceType@@PAVResourceCreator@@@std@@@std@@@std@@U_Iterator_base0@2@@std@@QBE_NABV01@@Z ; std::_List_unchecked_const_iterator<std::_List_val<std::_List_simple_types<std::pair<enum ResourceType const ,ResourceCreator *> > >,std::_Iterator_base0>::operator!=
PUBLIC	??D?$_List_unchecked_iterator@V?$_List_val@U?$_List_simple_types@U?$pair@$$CBW4ResourceType@@PAVResourceCreator@@@std@@@std@@@std@@@std@@QBEAAU?$pair@$$CBW4ResourceType@@PAVResourceCreator@@@1@XZ ; std::_List_unchecked_iterator<std::_List_val<std::_List_simple_types<std::pair<enum ResourceType const ,ResourceCreator *> > > >::operator*
PUBLIC	??E?$_List_unchecked_iterator@V?$_List_val@U?$_List_simple_types@U?$pair@$$CBW4ResourceType@@PAVResourceCreator@@@std@@@std@@@std@@@std@@QAEAAV01@XZ ; std::_List_unchecked_iterator<std::_List_val<std::_List_simple_types<std::pair<enum ResourceType const ,ResourceCreator *> > > >::operator++
PUBLIC	?__autoclassinit2@?$_List_unchecked_iterator@V?$_List_val@U?$_List_simple_types@U?$pair@$$CBW4ResourceType@@PAVResourceCreator@@@std@@@std@@@std@@@std@@QAEXI@Z ; std::_List_unchecked_iterator<std::_List_val<std::_List_simple_types<std::pair<enum ResourceType const ,ResourceCreator *> > > >::__autoclassinit2
PUBLIC	??0?$_List_unchecked_iterator@V?$_List_val@U?$_List_simple_types@U?$pair@$$CBW4ResourceType@@PAVResourceCreator@@@std@@@std@@@std@@@std@@QAE@PAU?$_List_node@U?$pair@$$CBW4ResourceType@@PAVResourceCreator@@@std@@PAX@1@PBV?$_List_val@U?$_List_simple_types@U?$pair@$$CBW4ResourceType@@PAVResourceCreator@@@std@@@std@@@1@@Z ; std::_List_unchecked_iterator<std::_List_val<std::_List_simple_types<std::pair<enum ResourceType const ,ResourceCreator *> > > >::_List_unchecked_iterator<std::_List_val<std::_List_simple_types<std::pair<enum ResourceType const ,ResourceCreator *> > > >
PUBLIC	??$move@AAVResourceHandler@@@std@@YA$$QAVResourceHandler@@AAV1@@Z ; std::move<ResourceHandler &>
PUBLIC	??$make_pair@AAIVResourceHandler@@@std@@YA?AU?$pair@IVResourceHandler@@@0@AAI$$QAVResourceHandler@@@Z ; std::make_pair<unsigned int &,ResourceHandler>
PUBLIC	??$?0IVResourceHandler@@$0A@@?$pair@$$CBIVResourceHandler@@@std@@QAE@$$QAU?$pair@IVResourceHandler@@@1@@Z ; std::pair<unsigned int const ,ResourceHandler>::pair<unsigned int const ,ResourceHandler><unsigned int,ResourceHandler,0>
PUBLIC	??$insert@U?$pair@IVResourceHandler@@@std@@$0A@@?$unordered_map@IVResourceHandler@@U?$hash@I@std@@U?$equal_to@I@3@V?$allocator@U?$pair@$$CBIVResourceHandler@@@std@@@3@@std@@QAE?AU?$pair@V?$_List_iterator@V?$_List_val@U?$_List_simple_types@U?$pair@$$CBIVResourceHandler@@@std@@@std@@@std@@@std@@_N@1@$$QAU?$pair@IVResourceHandler@@@1@@Z ; std::unordered_map<unsigned int,ResourceHandler,std::hash<unsigned int>,std::equal_to<unsigned int>,std::allocator<std::pair<unsigned int const ,ResourceHandler> > >::insert<std::pair<unsigned int,ResourceHandler>,0>
PUBLIC	??0?$_List_unchecked_const_iterator@V?$_List_val@U?$_List_simple_types@U?$pair@$$CBIVResourceHandler@@@std@@@std@@@std@@U_Iterator_base12@2@@std@@QAE@PAU?$_List_node@U?$pair@$$CBIVResourceHandler@@@std@@PAX@1@PBV?$_List_val@U?$_List_simple_types@U?$pair@$$CBIVResourceHandler@@@std@@@std@@@1@@Z ; std::_List_unchecked_const_iterator<std::_List_val<std::_List_simple_types<std::pair<unsigned int const ,ResourceHandler> > >,std::_Iterator_base12>::_List_unchecked_const_iterator<std::_List_val<std::_List_simple_types<std::pair<unsigned int const ,ResourceHandler> > >,std::_Iterator_base12>
PUBLIC	??1?$_List_unchecked_const_iterator@V?$_List_val@U?$_List_simple_types@U?$pair@$$CBIVResourceHandler@@@std@@@std@@@std@@U_Iterator_base12@2@@std@@QAE@XZ ; std::_List_unchecked_const_iterator<std::_List_val<std::_List_simple_types<std::pair<unsigned int const ,ResourceHandler> > >,std::_Iterator_base12>::~_List_unchecked_const_iterator<std::_List_val<std::_List_simple_types<std::pair<unsigned int const ,ResourceHandler> > >,std::_Iterator_base12>
PUBLIC	??0?$_List_unchecked_const_iterator@V?$_List_val@U?$_List_simple_types@U?$pair@$$CBIVResourceHandler@@@std@@@std@@@std@@U_Iterator_base12@2@@std@@QAE@$$QAV01@@Z ; std::_List_unchecked_const_iterator<std::_List_val<std::_List_simple_types<std::pair<unsigned int const ,ResourceHandler> > >,std::_Iterator_base12>::_List_unchecked_const_iterator<std::_List_val<std::_List_simple_types<std::pair<unsigned int const ,ResourceHandler> > >,std::_Iterator_base12>
PUBLIC	??D?$_List_const_iterator@V?$_List_val@U?$_List_simple_types@U?$pair@$$CBIVResourceHandler@@@std@@@std@@@std@@@std@@QBEABU?$pair@$$CBIVResourceHandler@@@1@XZ ; std::_List_const_iterator<std::_List_val<std::_List_simple_types<std::pair<unsigned int const ,ResourceHandler> > > >::operator*
PUBLIC	??8?$_List_const_iterator@V?$_List_val@U?$_List_simple_types@U?$pair@$$CBIVResourceHandler@@@std@@@std@@@std@@@std@@QBE_NABV01@@Z ; std::_List_const_iterator<std::_List_val<std::_List_simple_types<std::pair<unsigned int const ,ResourceHandler> > > >::operator==
PUBLIC	??1?$_List_const_iterator@V?$_List_val@U?$_List_simple_types@U?$pair@$$CBIVResourceHandler@@@std@@@std@@@std@@@std@@QAE@XZ ; std::_List_const_iterator<std::_List_val<std::_List_simple_types<std::pair<unsigned int const ,ResourceHandler> > > >::~_List_const_iterator<std::_List_val<std::_List_simple_types<std::pair<unsigned int const ,ResourceHandler> > > >
PUBLIC	??0?$_List_const_iterator@V?$_List_val@U?$_List_simple_types@U?$pair@$$CBIVResourceHandler@@@std@@@std@@@std@@@std@@QAE@$$QAV01@@Z ; std::_List_const_iterator<std::_List_val<std::_List_simple_types<std::pair<unsigned int const ,ResourceHandler> > > >::_List_const_iterator<std::_List_val<std::_List_simple_types<std::pair<unsigned int const ,ResourceHandler> > > >
PUBLIC	??0?$_List_const_iterator@V?$_List_val@U?$_List_simple_types@U?$pair@$$CBIVResourceHandler@@@std@@@std@@@std@@@std@@QAE@PAU?$_List_node@U?$pair@$$CBIVResourceHandler@@@std@@PAX@1@PBV?$_List_val@U?$_List_simple_types@U?$pair@$$CBIVResourceHandler@@@std@@@std@@@1@@Z ; std::_List_const_iterator<std::_List_val<std::_List_simple_types<std::pair<unsigned int const ,ResourceHandler> > > >::_List_const_iterator<std::_List_val<std::_List_simple_types<std::pair<unsigned int const ,ResourceHandler> > > >
PUBLIC	??D?$_List_iterator@V?$_List_val@U?$_List_simple_types@U?$pair@$$CBIVResourceHandler@@@std@@@std@@@std@@@std@@QBEAAU?$pair@$$CBIVResourceHandler@@@1@XZ ; std::_List_iterator<std::_List_val<std::_List_simple_types<std::pair<unsigned int const ,ResourceHandler> > > >::operator*
PUBLIC	??C?$_List_iterator@V?$_List_val@U?$_List_simple_types@U?$pair@$$CBIVResourceHandler@@@std@@@std@@@std@@@std@@QBEPAU?$pair@$$CBIVResourceHandler@@@1@XZ ; std::_List_iterator<std::_List_val<std::_List_simple_types<std::pair<unsigned int const ,ResourceHandler> > > >::operator->
PUBLIC	??1?$_List_iterator@V?$_List_val@U?$_List_simple_types@U?$pair@$$CBIVResourceHandler@@@std@@@std@@@std@@@std@@QAE@XZ ; std::_List_iterator<std::_List_val<std::_List_simple_types<std::pair<unsigned int const ,ResourceHandler> > > >::~_List_iterator<std::_List_val<std::_List_simple_types<std::pair<unsigned int const ,ResourceHandler> > > >
PUBLIC	??0?$_List_iterator@V?$_List_val@U?$_List_simple_types@U?$pair@$$CBIVResourceHandler@@@std@@@std@@@std@@@std@@QAE@$$QAV01@@Z ; std::_List_iterator<std::_List_val<std::_List_simple_types<std::pair<unsigned int const ,ResourceHandler> > > >::_List_iterator<std::_List_val<std::_List_simple_types<std::pair<unsigned int const ,ResourceHandler> > > >
PUBLIC	?__autoclassinit2@?$_List_iterator@V?$_List_val@U?$_List_simple_types@U?$pair@$$CBIVResourceHandler@@@std@@@std@@@std@@@std@@QAEXI@Z ; std::_List_iterator<std::_List_val<std::_List_simple_types<std::pair<unsigned int const ,ResourceHandler> > > >::__autoclassinit2
PUBLIC	??0?$_List_iterator@V?$_List_val@U?$_List_simple_types@U?$pair@$$CBIVResourceHandler@@@std@@@std@@@std@@@std@@QAE@PAU?$_List_node@U?$pair@$$CBIVResourceHandler@@@std@@PAX@1@PBV?$_List_val@U?$_List_simple_types@U?$pair@$$CBIVResourceHandler@@@std@@@std@@@1@@Z ; std::_List_iterator<std::_List_val<std::_List_simple_types<std::pair<unsigned int const ,ResourceHandler> > > >::_List_iterator<std::_List_val<std::_List_simple_types<std::pair<unsigned int const ,ResourceHandler> > > >
PUBLIC	??1?$pair@V?$_List_iterator@V?$_List_val@U?$_List_simple_types@U?$pair@$$CBIVResourceHandler@@@std@@@std@@@std@@@std@@_N@std@@QAE@XZ ; std::pair<std::_List_iterator<std::_List_val<std::_List_simple_types<std::pair<unsigned int const ,ResourceHandler> > > >,bool>::~pair<std::_List_iterator<std::_List_val<std::_List_simple_types<std::pair<unsigned int const ,ResourceHandler> > > >,bool>
PUBLIC	??$find@X@?$_Hash@V?$_Umap_traits@IVResourceHandler@@V?$_Uhash_compare@IU?$hash@I@std@@U?$equal_to@I@2@@std@@V?$allocator@U?$pair@$$CBIVResourceHandler@@@std@@@3@$0A@@std@@@std@@QAE?AV?$_List_iterator@V?$_List_val@U?$_List_simple_types@U?$pair@$$CBIVResourceHandler@@@std@@@std@@@std@@@1@ABI@Z ; std::_Hash<std::_Umap_traits<unsigned int,ResourceHandler,std::_Uhash_compare<unsigned int,std::hash<unsigned int>,std::equal_to<unsigned int> >,std::allocator<std::pair<unsigned int const ,ResourceHandler> >,0> >::find<void>
PUBLIC	?pointer_to@?$pointer_traits@PAU?$pair@$$CBIVResourceHandler@@@std@@@std@@SAPAU?$pair@$$CBIVResourceHandler@@@2@AAU32@@Z ; std::pointer_traits<std::pair<unsigned int const ,ResourceHandler> *>::pointer_to
PUBLIC	?allocate@?$allocator@U_Container_proxy@std@@@std@@QAEPAU_Container_proxy@2@I@Z ; std::allocator<std::_Container_proxy>::allocate
PUBLIC	??$?0UResourceLoadingInformation@ResourceAsyncLoader@@@?$allocator@U_Container_proxy@std@@@std@@QAE@ABV?$allocator@UResourceLoadingInformation@ResourceAsyncLoader@@@1@@Z ; std::allocator<std::_Container_proxy>::allocator<std::_Container_proxy><ResourceAsyncLoader::ResourceLoadingInformation>
PUBLIC	??$exchange@PAU_Container_proxy@std@@$$T@std@@YAPAU_Container_proxy@0@AAPAU10@$$QA$$T@Z ; std::exchange<std::_Container_proxy *,std::nullptr_t>
PUBLIC	??$_Delete_plain_internal@V?$allocator@U_Container_proxy@std@@@std@@@std@@YAXAAV?$allocator@U_Container_proxy@std@@@0@QAU_Container_proxy@0@@Z ; std::_Delete_plain_internal<std::allocator<std::_Container_proxy> >
PUBLIC	??$?0$$V@?$_Compressed_pair@V?$allocator@UResourceLoadingInformation@ResourceAsyncLoader@@@std@@V?$_Deque_val@U?$_Deque_simple_types@UResourceLoadingInformation@ResourceAsyncLoader@@@std@@@2@$00@std@@QAE@U_Zero_then_variadic_args_t@1@@Z ; std::_Compressed_pair<std::allocator<ResourceAsyncLoader::ResourceLoadingInformation>,std::_Deque_val<std::_Deque_simple_types<ResourceAsyncLoader::ResourceLoadingInformation> >,1>::_Compressed_pair<std::allocator<ResourceAsyncLoader::ResourceLoadingInformation>,std::_Deque_val<std::_Deque_simple_types<ResourceAsyncLoader::ResourceLoadingInformation> >,1><>
PUBLIC	??$_Alloc_proxy@V?$allocator@U_Container_proxy@std@@@std@@@_Container_base12@std@@QAEX$$QAV?$allocator@U_Container_proxy@std@@@1@@Z ; std::_Container_base12::_Alloc_proxy<std::allocator<std::_Container_proxy> >
PUBLIC	??$min@I@std@@YAABIABI0@Z			; std::min<unsigned int>
PUBLIC	??$?0V?$_List_unchecked_iterator@V?$_List_val@U?$_List_simple_types@U?$pair@$$CBII@std@@@std@@@std@@@std@@@?$allocator@U_Container_proxy@std@@@std@@QAE@ABV?$allocator@V?$_List_unchecked_iterator@V?$_List_val@U?$_List_simple_types@U?$pair@$$CBII@std@@@std@@@std@@@std@@@1@@Z ; std::allocator<std::_Container_proxy>::allocator<std::_Container_proxy><std::_List_unchecked_iterator<std::_List_val<std::_List_simple_types<std::pair<unsigned int const ,unsigned int> > > > >
PUBLIC	??$?0U?$_List_node@U?$pair@$$CBII@std@@PAX@std@@@?$allocator@U_Container_proxy@std@@@std@@QAE@ABV?$allocator@U?$_List_node@U?$pair@$$CBII@std@@PAX@std@@@1@@Z ; std::allocator<std::_Container_proxy>::allocator<std::_Container_proxy><std::_List_node<std::pair<unsigned int const ,unsigned int>,void *> >
PUBLIC	??$move@AAV?$unordered_map@W4ResourceType@@PAVResourceCreator@@U?$hash@W4ResourceType@@@std@@U?$equal_to@W4ResourceType@@@4@V?$allocator@U?$pair@$$CBW4ResourceType@@PAVResourceCreator@@@std@@@4@@std@@@std@@YA$$QAV?$unordered_map@W4ResourceType@@PAVResourceCreator@@U?$hash@W4ResourceType@@@std@@U?$equal_to@W4ResourceType@@@4@V?$allocator@U?$pair@$$CBW4ResourceType@@PAVResourceCreator@@@std@@@4@@0@AAV10@@Z ; std::move<std::unordered_map<enum ResourceType,ResourceCreator *,std::hash<enum ResourceType>,std::equal_to<enum ResourceType>,std::allocator<std::pair<enum ResourceType const ,ResourceCreator *> > > &>
PUBLIC	??$?0V?$_List_unchecked_iterator@V?$_List_val@U?$_List_simple_types@U?$pair@$$CBW4ResourceType@@PAVResourceCreator@@@std@@@std@@@std@@@std@@@?$allocator@U_Container_proxy@std@@@std@@QAE@ABV?$allocator@V?$_List_unchecked_iterator@V?$_List_val@U?$_List_simple_types@U?$pair@$$CBW4ResourceType@@PAVResourceCreator@@@std@@@std@@@std@@@std@@@1@@Z ; std::allocator<std::_Container_proxy>::allocator<std::_Container_proxy><std::_List_unchecked_iterator<std::_List_val<std::_List_simple_types<std::pair<enum ResourceType const ,ResourceCreator *> > > > >
PUBLIC	??$?0U?$_List_node@U?$pair@$$CBW4ResourceType@@PAVResourceCreator@@@std@@PAX@std@@@?$allocator@U_Container_proxy@std@@@std@@QAE@ABV?$allocator@U?$_List_node@U?$pair@$$CBW4ResourceType@@PAVResourceCreator@@@std@@PAX@std@@@1@@Z ; std::allocator<std::_Container_proxy>::allocator<std::_Container_proxy><std::_List_node<std::pair<enum ResourceType const ,ResourceCreator *>,void *> >
PUBLIC	??$?0V?$_List_unchecked_iterator@V?$_List_val@U?$_List_simple_types@U?$pair@$$CBIVResourceHandler@@@std@@@std@@@std@@@std@@@?$allocator@U_Container_proxy@std@@@std@@QAE@ABV?$allocator@V?$_List_unchecked_iterator@V?$_List_val@U?$_List_simple_types@U?$pair@$$CBIVResourceHandler@@@std@@@std@@@std@@@std@@@1@@Z ; std::allocator<std::_Container_proxy>::allocator<std::_Container_proxy><std::_List_unchecked_iterator<std::_List_val<std::_List_simple_types<std::pair<unsigned int const ,ResourceHandler> > > > >
PUBLIC	??$?0U?$_List_node@U?$pair@$$CBIVResourceHandler@@@std@@PAX@std@@@?$allocator@U_Container_proxy@std@@@std@@QAE@ABV?$allocator@U?$_List_node@U?$pair@$$CBIVResourceHandler@@@std@@PAX@std@@@1@@Z ; std::allocator<std::_Container_proxy>::allocator<std::_Container_proxy><std::_List_node<std::pair<unsigned int const ,ResourceHandler>,void *> >
PUBLIC	??$addressof@Vmutex@std@@@std@@YAPAVmutex@0@AAV10@@Z ; std::addressof<std::mutex>
PUBLIC	??0?$_Container_proxy_ptr12@V?$allocator@U_Container_proxy@std@@@std@@@std@@QAE@AAV?$allocator@U_Container_proxy@std@@@1@AAU_Container_base12@1@@Z ; std::_Container_proxy_ptr12<std::allocator<std::_Container_proxy> >::_Container_proxy_ptr12<std::allocator<std::_Container_proxy> >
PUBLIC	??1?$_Container_proxy_ptr12@V?$allocator@U_Container_proxy@std@@@std@@@std@@QAE@XZ ; std::_Container_proxy_ptr12<std::allocator<std::_Container_proxy> >::~_Container_proxy_ptr12<std::allocator<std::_Container_proxy> >
PUBLIC	??$max@I@std@@YAABIABI0@Z			; std::max<unsigned int>
PUBLIC	??$addressof@V?$_String_val@U?$_Simple_types@D@std@@@std@@@std@@YAPAV?$_String_val@U?$_Simple_types@D@std@@@0@AAV10@@Z ; std::addressof<std::_String_val<std::_Simple_types<char> > >
PUBLIC	??$?0D@?$allocator@U_Container_proxy@std@@@std@@QAE@ABV?$allocator@D@1@@Z ; std::allocator<std::_Container_proxy>::allocator<std::_Container_proxy><char>
PUBLIC	??$move@AAV?$allocator@D@std@@@std@@YA$$QAV?$allocator@D@0@AAV10@@Z ; std::move<std::allocator<char> &>
PUBLIC	??$?0V?$allocator@D@std@@$$V@?$_Compressed_pair@V?$allocator@D@std@@V?$_String_val@U?$_Simple_types@D@std@@@2@$00@std@@QAE@U_One_then_variadic_args_t@1@$$QAV?$allocator@D@1@@Z ; std::_Compressed_pair<std::allocator<char>,std::_String_val<std::_Simple_types<char> >,1>::_Compressed_pair<std::allocator<char>,std::_String_val<std::_Simple_types<char> >,1><std::allocator<char> >
PUBLIC	??$?0$$V@?$_Compressed_pair@V?$allocator@D@std@@V?$_String_val@U?$_Simple_types@D@std@@@2@$00@std@@QAE@U_Zero_then_variadic_args_t@1@@Z ; std::_Compressed_pair<std::allocator<char>,std::_String_val<std::_Simple_types<char> >,1>::_Compressed_pair<std::allocator<char>,std::_String_val<std::_Simple_types<char> >,1><>
PUBLIC	??$_Atomic_address_as@JU?$_Atomic_padded@I@std@@@std@@YAPCJAAU?$_Atomic_padded@I@0@@Z ; std::_Atomic_address_as<long,std::_Atomic_padded<unsigned int> >
PUBLIC	??$_Atomic_address_as@HU?$_Atomic_padded@I@std@@@std@@YAPDHABU?$_Atomic_padded@I@0@@Z ; std::_Atomic_address_as<int,std::_Atomic_padded<unsigned int> >
PUBLIC	??$_Atomic_address_as@HU?$_Atomic_padded@PAVResource@@@std@@@std@@YAPDHABU?$_Atomic_padded@PAVResource@@@0@@Z ; std::_Atomic_address_as<int,std::_Atomic_padded<Resource *> >
PUBLIC	??$_Unfancy@U_Container_proxy@std@@@std@@YAPAU_Container_proxy@0@PAU10@@Z ; std::_Unfancy<std::_Container_proxy>
PUBLIC	??$addressof@U?$pair@$$CBIVResourceHandler@@@std@@@std@@YAPAU?$pair@$$CBIVResourceHandler@@@0@AAU10@@Z ; std::addressof<std::pair<unsigned int const ,ResourceHandler> >
PUBLIC	??$?0UResourceLoadingInformation@ResourceAsyncLoader@@@?$allocator@PAUResourceLoadingInformation@ResourceAsyncLoader@@@std@@QAE@ABV?$allocator@UResourceLoadingInformation@ResourceAsyncLoader@@@1@@Z ; std::allocator<ResourceAsyncLoader::ResourceLoadingInformation *>::allocator<ResourceAsyncLoader::ResourceLoadingInformation *><ResourceAsyncLoader::ResourceLoadingInformation>
PUBLIC	??$_Destroy_in_place@PAUResourceLoadingInformation@ResourceAsyncLoader@@@std@@YAXAAPAUResourceLoadingInformation@ResourceAsyncLoader@@@Z ; std::_Destroy_in_place<ResourceAsyncLoader::ResourceLoadingInformation *>
PUBLIC	??0?$_List_unchecked_const_iterator@V?$_List_val@U?$_List_simple_types@U?$pair@$$CBII@std@@@std@@@std@@U_Iterator_base0@2@@std@@QAE@PAU?$_List_node@U?$pair@$$CBII@std@@PAX@1@PBV?$_List_val@U?$_List_simple_types@U?$pair@$$CBII@std@@@std@@@1@@Z ; std::_List_unchecked_const_iterator<std::_List_val<std::_List_simple_types<std::pair<unsigned int const ,unsigned int> > >,std::_Iterator_base0>::_List_unchecked_const_iterator<std::_List_val<std::_List_simple_types<std::pair<unsigned int const ,unsigned int> > >,std::_Iterator_base0>
PUBLIC	??0?$_List_unchecked_iterator@V?$_List_val@U?$_List_simple_types@U?$pair@$$CBII@std@@@std@@@std@@@std@@QAE@PAU?$_List_node@U?$pair@$$CBII@std@@PAX@1@PBV?$_List_val@U?$_List_simple_types@U?$pair@$$CBII@std@@@std@@@1@@Z ; std::_List_unchecked_iterator<std::_List_val<std::_List_simple_types<std::pair<unsigned int const ,unsigned int> > > >::_List_unchecked_iterator<std::_List_val<std::_List_simple_types<std::pair<unsigned int const ,unsigned int> > > >
PUBLIC	??$_Destroy_range@PAV?$_List_unchecked_iterator@V?$_List_val@U?$_List_simple_types@U?$pair@$$CBII@std@@@std@@@std@@@std@@PAV12@@std@@YAXPAV?$_List_unchecked_iterator@V?$_List_val@U?$_List_simple_types@U?$pair@$$CBII@std@@@std@@@std@@@0@QAV10@@Z ; std::_Destroy_range<std::_List_unchecked_iterator<std::_List_val<std::_List_simple_types<std::pair<unsigned int const ,unsigned int> > > > *,std::_List_unchecked_iterator<std::_List_val<std::_List_simple_types<std::pair<unsigned int const ,unsigned int> > > > *>
PUBLIC	??$?0ABV?$allocator@U?$pair@$$CBII@std@@@std@@$0A@@?$_Hash_vec@V?$allocator@V?$_List_unchecked_iterator@V?$_List_val@U?$_List_simple_types@U?$pair@$$CBII@std@@@std@@@std@@@std@@@std@@@std@@QAE@ABV?$allocator@U?$pair@$$CBII@std@@@1@@Z ; std::_Hash_vec<std::allocator<std::_List_unchecked_iterator<std::_List_val<std::_List_simple_types<std::pair<unsigned int const ,unsigned int> > > > > >::_Hash_vec<std::allocator<std::_List_unchecked_iterator<std::_List_val<std::_List_simple_types<std::pair<unsigned int const ,unsigned int> > > > > ><std::allocator<std::pair<unsigned int const ,unsigned int> > const &,0>
PUBLIC	??$_Free_non_head@V?$allocator@U?$_List_node@U?$pair@$$CBII@std@@PAX@std@@@std@@@?$_List_node@U?$pair@$$CBII@std@@PAX@std@@SAXAAV?$allocator@U?$_List_node@U?$pair@$$CBII@std@@PAX@std@@@1@PAU01@@Z ; std::_List_node<std::pair<unsigned int const ,unsigned int>,void *>::_Free_non_head<std::allocator<std::_List_node<std::pair<unsigned int const ,unsigned int>,void *> > >
PUBLIC	??$_Freenode0@V?$allocator@U?$_List_node@U?$pair@$$CBII@std@@PAX@std@@@std@@@?$_List_node@U?$pair@$$CBII@std@@PAX@std@@SAXAAV?$allocator@U?$_List_node@U?$pair@$$CBII@std@@PAX@std@@@1@PAU01@@Z ; std::_List_node<std::pair<unsigned int const ,unsigned int>,void *>::_Freenode0<std::allocator<std::_List_node<std::pair<unsigned int const ,unsigned int>,void *> > >
PUBLIC	??$_Destroy_range@PAV?$_List_unchecked_iterator@V?$_List_val@U?$_List_simple_types@U?$pair@$$CBW4ResourceType@@PAVResourceCreator@@@std@@@std@@@std@@@std@@PAV12@@std@@YAXPAV?$_List_unchecked_iterator@V?$_List_val@U?$_List_simple_types@U?$pair@$$CBW4ResourceType@@PAVResourceCreator@@@std@@@std@@@std@@@0@QAV10@@Z ; std::_Destroy_range<std::_List_unchecked_iterator<std::_List_val<std::_List_simple_types<std::pair<enum ResourceType const ,ResourceCreator *> > > > *,std::_List_unchecked_iterator<std::_List_val<std::_List_simple_types<std::pair<enum ResourceType const ,ResourceCreator *> > > > *>
PUBLIC	??$addressof@V?$_Hash@V?$_Umap_traits@W4ResourceType@@PAVResourceCreator@@V?$_Uhash_compare@W4ResourceType@@U?$hash@W4ResourceType@@@std@@U?$equal_to@W4ResourceType@@@3@@std@@V?$allocator@U?$pair@$$CBW4ResourceType@@PAVResourceCreator@@@std@@@4@$0A@@std@@@std@@@std@@YAPAV?$_Hash@V?$_Umap_traits@W4ResourceType@@PAVResourceCreator@@V?$_Uhash_compare@W4ResourceType@@U?$hash@W4ResourceType@@@std@@U?$equal_to@W4ResourceType@@@3@@std@@V?$allocator@U?$pair@$$CBW4ResourceType@@PAVResourceCreator@@@std@@@4@$0A@@std@@@0@AAV10@@Z ; std::addressof<std::_Hash<std::_Umap_traits<enum ResourceType,ResourceCreator *,std::_Uhash_compare<enum ResourceType,std::hash<enum ResourceType>,std::equal_to<enum ResourceType> >,std::allocator<std::pair<enum ResourceType const ,ResourceCreator *> >,0> > >
PUBLIC	??$?0ABV?$allocator@U?$pair@$$CBW4ResourceType@@PAVResourceCreator@@@std@@@std@@$0A@@?$_Hash_vec@V?$allocator@V?$_List_unchecked_iterator@V?$_List_val@U?$_List_simple_types@U?$pair@$$CBW4ResourceType@@PAVResourceCreator@@@std@@@std@@@std@@@std@@@std@@@std@@QAE@ABV?$allocator@U?$pair@$$CBW4ResourceType@@PAVResourceCreator@@@std@@@1@@Z ; std::_Hash_vec<std::allocator<std::_List_unchecked_iterator<std::_List_val<std::_List_simple_types<std::pair<enum ResourceType const ,ResourceCreator *> > > > > >::_Hash_vec<std::allocator<std::_List_unchecked_iterator<std::_List_val<std::_List_simple_types<std::pair<enum ResourceType const ,ResourceCreator *> > > > > ><std::allocator<std::pair<enum ResourceType const ,ResourceCreator *> > const &,0>
PUBLIC	??$_Free_non_head@V?$allocator@U?$_List_node@U?$pair@$$CBW4ResourceType@@PAVResourceCreator@@@std@@PAX@std@@@std@@@?$_List_node@U?$pair@$$CBW4ResourceType@@PAVResourceCreator@@@std@@PAX@std@@SAXAAV?$allocator@U?$_List_node@U?$pair@$$CBW4ResourceType@@PAVResourceCreator@@@std@@PAX@std@@@1@PAU01@@Z ; std::_List_node<std::pair<enum ResourceType const ,ResourceCreator *>,void *>::_Free_non_head<std::allocator<std::_List_node<std::pair<enum ResourceType const ,ResourceCreator *>,void *> > >
PUBLIC	??$_Freenode0@V?$allocator@U?$_List_node@U?$pair@$$CBW4ResourceType@@PAVResourceCreator@@@std@@PAX@std@@@std@@@?$_List_node@U?$pair@$$CBW4ResourceType@@PAVResourceCreator@@@std@@PAX@std@@SAXAAV?$allocator@U?$_List_node@U?$pair@$$CBW4ResourceType@@PAVResourceCreator@@@std@@PAX@std@@@1@PAU01@@Z ; std::_List_node<std::pair<enum ResourceType const ,ResourceCreator *>,void *>::_Freenode0<std::allocator<std::_List_node<std::pair<enum ResourceType const ,ResourceCreator *>,void *> > >
PUBLIC	??$?0U_Zero_then_variadic_args_t@std@@M@?$_Compressed_pair@U?$hash@W4ResourceType@@@std@@V?$_Compressed_pair@U?$equal_to@W4ResourceType@@@std@@M$00@2@$00@std@@QAE@U_Zero_then_variadic_args_t@1@$$QAU21@$$QAM@Z ; std::_Compressed_pair<std::hash<enum ResourceType>,std::_Compressed_pair<std::equal_to<enum ResourceType>,float,1>,1>::_Compressed_pair<std::hash<enum ResourceType>,std::_Compressed_pair<std::equal_to<enum ResourceType>,float,1>,1><std::_Zero_then_variadic_args_t,float>
PUBLIC	??$?0M@?$_Compressed_pair@U?$equal_to@W4ResourceType@@@std@@M$00@std@@QAE@U_Zero_then_variadic_args_t@1@$$QAM@Z ; std::_Compressed_pair<std::equal_to<enum ResourceType>,float,1>::_Compressed_pair<std::equal_to<enum ResourceType>,float,1><float>
PUBLIC	??0?$_List_unchecked_const_iterator@V?$_List_val@U?$_List_simple_types@U?$pair@$$CBIVResourceHandler@@@std@@@std@@@std@@U_Iterator_base0@2@@std@@QAE@PAU?$_List_node@U?$pair@$$CBIVResourceHandler@@@std@@PAX@1@PBV?$_List_val@U?$_List_simple_types@U?$pair@$$CBIVResourceHandler@@@std@@@std@@@1@@Z ; std::_List_unchecked_const_iterator<std::_List_val<std::_List_simple_types<std::pair<unsigned int const ,ResourceHandler> > >,std::_Iterator_base0>::_List_unchecked_const_iterator<std::_List_val<std::_List_simple_types<std::pair<unsigned int const ,ResourceHandler> > >,std::_Iterator_base0>
PUBLIC	??D?$_List_unchecked_const_iterator@V?$_List_val@U?$_List_simple_types@U?$pair@$$CBIVResourceHandler@@@std@@@std@@@std@@U_Iterator_base0@2@@std@@QBEABU?$pair@$$CBIVResourceHandler@@@1@XZ ; std::_List_unchecked_const_iterator<std::_List_val<std::_List_simple_types<std::pair<unsigned int const ,ResourceHandler> > >,std::_Iterator_base0>::operator*
PUBLIC	??E?$_List_unchecked_const_iterator@V?$_List_val@U?$_List_simple_types@U?$pair@$$CBIVResourceHandler@@@std@@@std@@@std@@U_Iterator_base0@2@@std@@QAEAAV01@XZ ; std::_List_unchecked_const_iterator<std::_List_val<std::_List_simple_types<std::pair<unsigned int const ,ResourceHandler> > >,std::_Iterator_base0>::operator++
PUBLIC	??F?$_List_unchecked_const_iterator@V?$_List_val@U?$_List_simple_types@U?$pair@$$CBIVResourceHandler@@@std@@@std@@@std@@U_Iterator_base0@2@@std@@QAEAAV01@XZ ; std::_List_unchecked_const_iterator<std::_List_val<std::_List_simple_types<std::pair<unsigned int const ,ResourceHandler> > >,std::_Iterator_base0>::operator--
PUBLIC	??8?$_List_unchecked_const_iterator@V?$_List_val@U?$_List_simple_types@U?$pair@$$CBIVResourceHandler@@@std@@@std@@@std@@U_Iterator_base0@2@@std@@QBE_NABV01@@Z ; std::_List_unchecked_const_iterator<std::_List_val<std::_List_simple_types<std::pair<unsigned int const ,ResourceHandler> > >,std::_Iterator_base0>::operator==
PUBLIC	??9?$_List_unchecked_const_iterator@V?$_List_val@U?$_List_simple_types@U?$pair@$$CBIVResourceHandler@@@std@@@std@@@std@@U_Iterator_base0@2@@std@@QBE_NABV01@@Z ; std::_List_unchecked_const_iterator<std::_List_val<std::_List_simple_types<std::pair<unsigned int const ,ResourceHandler> > >,std::_Iterator_base0>::operator!=
PUBLIC	?__autoclassinit2@?$_List_unchecked_const_iterator@V?$_List_val@U?$_List_simple_types@U?$pair@$$CBIVResourceHandler@@@std@@@std@@@std@@U_Iterator_base0@2@@std@@QAEXI@Z ; std::_List_unchecked_const_iterator<std::_List_val<std::_List_simple_types<std::pair<unsigned int const ,ResourceHandler> > >,std::_Iterator_base0>::__autoclassinit2
PUBLIC	??D?$_List_unchecked_iterator@V?$_List_val@U?$_List_simple_types@U?$pair@$$CBIVResourceHandler@@@std@@@std@@@std@@@std@@QBEAAU?$pair@$$CBIVResourceHandler@@@1@XZ ; std::_List_unchecked_iterator<std::_List_val<std::_List_simple_types<std::pair<unsigned int const ,ResourceHandler> > > >::operator*
PUBLIC	??E?$_List_unchecked_iterator@V?$_List_val@U?$_List_simple_types@U?$pair@$$CBIVResourceHandler@@@std@@@std@@@std@@@std@@QAEAAV01@XZ ; std::_List_unchecked_iterator<std::_List_val<std::_List_simple_types<std::pair<unsigned int const ,ResourceHandler> > > >::operator++
PUBLIC	?__autoclassinit2@?$_List_unchecked_iterator@V?$_List_val@U?$_List_simple_types@U?$pair@$$CBIVResourceHandler@@@std@@@std@@@std@@@std@@QAEXI@Z ; std::_List_unchecked_iterator<std::_List_val<std::_List_simple_types<std::pair<unsigned int const ,ResourceHandler> > > >::__autoclassinit2
PUBLIC	??0?$_List_unchecked_iterator@V?$_List_val@U?$_List_simple_types@U?$pair@$$CBIVResourceHandler@@@std@@@std@@@std@@@std@@QAE@PAU?$_List_node@U?$pair@$$CBIVResourceHandler@@@std@@PAX@1@PBV?$_List_val@U?$_List_simple_types@U?$pair@$$CBIVResourceHandler@@@std@@@std@@@1@@Z ; std::_List_unchecked_iterator<std::_List_val<std::_List_simple_types<std::pair<unsigned int const ,ResourceHandler> > > >::_List_unchecked_iterator<std::_List_val<std::_List_simple_types<std::pair<unsigned int const ,ResourceHandler> > > >
PUBLIC	??$_Destroy_range@PAV?$_List_unchecked_iterator@V?$_List_val@U?$_List_simple_types@U?$pair@$$CBIVResourceHandler@@@std@@@std@@@std@@@std@@PAV12@@std@@YAXPAV?$_List_unchecked_iterator@V?$_List_val@U?$_List_simple_types@U?$pair@$$CBIVResourceHandler@@@std@@@std@@@std@@@0@QAV10@@Z ; std::_Destroy_range<std::_List_unchecked_iterator<std::_List_val<std::_List_simple_types<std::pair<unsigned int const ,ResourceHandler> > > > *,std::_List_unchecked_iterator<std::_List_val<std::_List_simple_types<std::pair<unsigned int const ,ResourceHandler> > > > *>
PUBLIC	??$?0ABV?$allocator@U?$pair@$$CBIVResourceHandler@@@std@@@std@@$0A@@?$_Hash_vec@V?$allocator@V?$_List_unchecked_iterator@V?$_List_val@U?$_List_simple_types@U?$pair@$$CBIVResourceHandler@@@std@@@std@@@std@@@std@@@std@@@std@@QAE@ABV?$allocator@U?$pair@$$CBIVResourceHandler@@@std@@@1@@Z ; std::_Hash_vec<std::allocator<std::_List_unchecked_iterator<std::_List_val<std::_List_simple_types<std::pair<unsigned int const ,ResourceHandler> > > > > >::_Hash_vec<std::allocator<std::_List_unchecked_iterator<std::_List_val<std::_List_simple_types<std::pair<unsigned int const ,ResourceHandler> > > > > ><std::allocator<std::pair<unsigned int const ,ResourceHandler> > const &,0>
PUBLIC	??$_Free_non_head@V?$allocator@U?$_List_node@U?$pair@$$CBIVResourceHandler@@@std@@PAX@std@@@std@@@?$_List_node@U?$pair@$$CBIVResourceHandler@@@std@@PAX@std@@SAXAAV?$allocator@U?$_List_node@U?$pair@$$CBIVResourceHandler@@@std@@PAX@std@@@1@PAU01@@Z ; std::_List_node<std::pair<unsigned int const ,ResourceHandler>,void *>::_Free_non_head<std::allocator<std::_List_node<std::pair<unsigned int const ,ResourceHandler>,void *> > >
PUBLIC	??$_Freenode0@V?$allocator@U?$_List_node@U?$pair@$$CBIVResourceHandler@@@std@@PAX@std@@@std@@@?$_List_node@U?$pair@$$CBIVResourceHandler@@@std@@PAX@std@@SAXAAV?$allocator@U?$_List_node@U?$pair@$$CBIVResourceHandler@@@std@@PAX@std@@@1@PAU01@@Z ; std::_List_node<std::pair<unsigned int const ,ResourceHandler>,void *>::_Freenode0<std::allocator<std::_List_node<std::pair<unsigned int const ,ResourceHandler>,void *> > >
PUBLIC	??$addressof@V?$_List_val@U?$_List_simple_types@U?$pair@$$CBIVResourceHandler@@@std@@@std@@@std@@@std@@YAPAV?$_List_val@U?$_List_simple_types@U?$pair@$$CBIVResourceHandler@@@std@@@std@@@0@AAV10@@Z ; std::addressof<std::_List_val<std::_List_simple_types<std::pair<unsigned int const ,ResourceHandler> > > >
PUBLIC	??$?0U_Zero_then_variadic_args_t@std@@M@?$_Compressed_pair@U?$hash@I@std@@V?$_Compressed_pair@U?$equal_to@I@std@@M$00@2@$00@std@@QAE@U_Zero_then_variadic_args_t@1@$$QAU21@$$QAM@Z ; std::_Compressed_pair<std::hash<unsigned int>,std::_Compressed_pair<std::equal_to<unsigned int>,float,1>,1>::_Compressed_pair<std::hash<unsigned int>,std::_Compressed_pair<std::equal_to<unsigned int>,float,1>,1><std::_Zero_then_variadic_args_t,float>
PUBLIC	??$?0M@?$_Compressed_pair@U?$equal_to@I@std@@M$00@std@@QAE@U_Zero_then_variadic_args_t@1@$$QAM@Z ; std::_Compressed_pair<std::equal_to<unsigned int>,float,1>::_Compressed_pair<std::equal_to<unsigned int>,float,1><float>
PUBLIC	??$_Destroy_in_place@PAD@std@@YAXAAPAD@Z	; std::_Destroy_in_place<char *>
PUBLIC	??$_Unfancy@D@std@@YAPADPAD@Z			; std::_Unfancy<char>
PUBLIC	??R<lambda_9366063389c5f42a00a5088cf24e69de>@@QBEXQADIQBD@Z ; <lambda_9366063389c5f42a00a5088cf24e69de>::operator()
PUBLIC	??$_Reallocate_for@V<lambda_9366063389c5f42a00a5088cf24e69de>@@PBD@?$basic_string@DU?$char_traits@D@std@@V?$allocator@D@2@@std@@AAEAAV01@IV<lambda_9366063389c5f42a00a5088cf24e69de>@@PBD@Z ; std::basic_string<char,std::char_traits<char>,std::allocator<char> >::_Reallocate_for<<lambda_9366063389c5f42a00a5088cf24e69de>,char const *>
PUBLIC	??R<lambda_ab246b20b9526e2ef7792587e4298a77>@@QBEXQADQBDI1I@Z ; <lambda_ab246b20b9526e2ef7792587e4298a77>::operator()
PUBLIC	??$_Reallocate_grow_by@V<lambda_ab246b20b9526e2ef7792587e4298a77>@@PBDI@?$basic_string@DU?$char_traits@D@std@@V?$allocator@D@2@@std@@AAEAAV01@IV<lambda_ab246b20b9526e2ef7792587e4298a77>@@PBDI@Z ; std::basic_string<char,std::char_traits<char>,std::allocator<char> >::_Reallocate_grow_by<<lambda_ab246b20b9526e2ef7792587e4298a77>,char const *,unsigned int>
PUBLIC	??$_Construct_in_place@PADABQAD@std@@YAXAAPADABQAD@Z ; std::_Construct_in_place<char *,char * const &>
PUBLIC	??$_Atomic_reinterpret_as@JI@std@@YAJABI@Z	; std::_Atomic_reinterpret_as<long,unsigned int>
PUBLIC	??$_Atomic_address_as@JU?$_Atomic_padded@PAVResource@@@std@@@std@@YAPCJAAU?$_Atomic_padded@PAVResource@@@0@@Z ; std::_Atomic_address_as<long,std::_Atomic_padded<Resource *> >
PUBLIC	??$_Atomic_reinterpret_as@JPAVResource@@@std@@YAJABQAVResource@@@Z ; std::_Atomic_reinterpret_as<long,Resource *>
PUBLIC	??$_Get_size_of_n@$07@std@@YAII@Z		; std::_Get_size_of_n<8>
PUBLIC	??$_Allocate@$07U_Default_allocate_traits@std@@$0A@@std@@YAPAXI@Z ; std::_Allocate<8,std::_Default_allocate_traits,0>
PUBLIC	??$_Unfancy@UResourceLoadingInformation@ResourceAsyncLoader@@@std@@YAPAUResourceLoadingInformation@ResourceAsyncLoader@@PAU12@@Z ; std::_Unfancy<ResourceAsyncLoader::ResourceLoadingInformation>
PUBLIC	??$destroy@UResourceLoadingInformation@ResourceAsyncLoader@@@?$_Default_allocator_traits@V?$allocator@UResourceLoadingInformation@ResourceAsyncLoader@@@std@@@std@@SAXAAV?$allocator@UResourceLoadingInformation@ResourceAsyncLoader@@@1@QAUResourceLoadingInformation@ResourceAsyncLoader@@@Z ; std::_Default_allocator_traits<std::allocator<ResourceAsyncLoader::ResourceLoadingInformation> >::destroy<ResourceAsyncLoader::ResourceLoadingInformation>
PUBLIC	??$_Deallocate@$07$0A@@std@@YAXPAXI@Z		; std::_Deallocate<8,0>
PUBLIC	??$_Get_size_of_n@$0BA@@std@@YAII@Z		; std::_Get_size_of_n<16>
PUBLIC	??$uninitialized_fill@PAV?$_List_unchecked_iterator@V?$_List_val@U?$_List_simple_types@U?$pair@$$CBII@std@@@std@@@std@@@std@@V12@@std@@YAXQAV?$_List_unchecked_iterator@V?$_List_val@U?$_List_simple_types@U?$pair@$$CBII@std@@@std@@@std@@@0@0ABV10@@Z ; std::uninitialized_fill<std::_List_unchecked_iterator<std::_List_val<std::_List_simple_types<std::pair<unsigned int const ,unsigned int> > > > *,std::_List_unchecked_iterator<std::_List_val<std::_List_simple_types<std::pair<unsigned int const ,unsigned int> > > > >
PUBLIC	??$fill@PAV?$_List_unchecked_iterator@V?$_List_val@U?$_List_simple_types@U?$pair@$$CBII@std@@@std@@@std@@@std@@V12@@std@@YAXQAV?$_List_unchecked_iterator@V?$_List_val@U?$_List_simple_types@U?$pair@$$CBII@std@@@std@@@std@@@0@0ABV10@@Z ; std::fill<std::_List_unchecked_iterator<std::_List_val<std::_List_simple_types<std::pair<unsigned int const ,unsigned int> > > > *,std::_List_unchecked_iterator<std::_List_val<std::_List_simple_types<std::pair<unsigned int const ,unsigned int> > > > >
PUBLIC	??$?0ABV?$allocator@U?$pair@$$CBII@std@@@std@@$$V@?$_Compressed_pair@V?$allocator@U?$_List_node@U?$pair@$$CBII@std@@PAX@std@@@std@@V?$_List_val@U?$_List_simple_types@U?$pair@$$CBII@std@@@std@@@2@$00@std@@QAE@U_One_then_variadic_args_t@1@ABV?$allocator@U?$pair@$$CBII@std@@@1@@Z ; std::_Compressed_pair<std::allocator<std::_List_node<std::pair<unsigned int const ,unsigned int>,void *> >,std::_List_val<std::_List_simple_types<std::pair<unsigned int const ,unsigned int> > >,1>::_Compressed_pair<std::allocator<std::_List_node<std::pair<unsigned int const ,unsigned int>,void *> >,std::_List_val<std::_List_simple_types<std::pair<unsigned int const ,unsigned int> > >,1><std::allocator<std::pair<unsigned int const ,unsigned int> > const &>
PUBLIC	??$?0U?$pair@$$CBII@std@@@?$allocator@U?$_List_node@U?$pair@$$CBII@std@@PAX@std@@@std@@QAE@ABV?$allocator@U?$pair@$$CBII@std@@@1@@Z ; std::allocator<std::_List_node<std::pair<unsigned int const ,unsigned int>,void *> >::allocator<std::_List_node<std::pair<unsigned int const ,unsigned int>,void *> ><std::pair<unsigned int const ,unsigned int> >
PUBLIC	??$uninitialized_fill@PAV?$_List_unchecked_iterator@V?$_List_val@U?$_List_simple_types@U?$pair@$$CBW4ResourceType@@PAVResourceCreator@@@std@@@std@@@std@@@std@@V12@@std@@YAXQAV?$_List_unchecked_iterator@V?$_List_val@U?$_List_simple_types@U?$pair@$$CBW4ResourceType@@PAVResourceCreator@@@std@@@std@@@std@@@0@0ABV10@@Z ; std::uninitialized_fill<std::_List_unchecked_iterator<std::_List_val<std::_List_simple_types<std::pair<enum ResourceType const ,ResourceCreator *> > > > *,std::_List_unchecked_iterator<std::_List_val<std::_List_simple_types<std::pair<enum ResourceType const ,ResourceCreator *> > > > >
PUBLIC	??$fill@PAV?$_List_unchecked_iterator@V?$_List_val@U?$_List_simple_types@U?$pair@$$CBW4ResourceType@@PAVResourceCreator@@@std@@@std@@@std@@@std@@V12@@std@@YAXQAV?$_List_unchecked_iterator@V?$_List_val@U?$_List_simple_types@U?$pair@$$CBW4ResourceType@@PAVResourceCreator@@@std@@@std@@@std@@@0@0ABV10@@Z ; std::fill<std::_List_unchecked_iterator<std::_List_val<std::_List_simple_types<std::pair<enum ResourceType const ,ResourceCreator *> > > > *,std::_List_unchecked_iterator<std::_List_val<std::_List_simple_types<std::pair<enum ResourceType const ,ResourceCreator *> > > > >
PUBLIC	??$?0ABV?$allocator@U?$pair@$$CBW4ResourceType@@PAVResourceCreator@@@std@@@std@@$$V@?$_Compressed_pair@V?$allocator@U?$_List_node@U?$pair@$$CBW4ResourceType@@PAVResourceCreator@@@std@@PAX@std@@@std@@V?$_List_val@U?$_List_simple_types@U?$pair@$$CBW4ResourceType@@PAVResourceCreator@@@std@@@std@@@2@$00@std@@QAE@U_One_then_variadic_args_t@1@ABV?$allocator@U?$pair@$$CBW4ResourceType@@PAVResourceCreator@@@std@@@1@@Z ; std::_Compressed_pair<std::allocator<std::_List_node<std::pair<enum ResourceType const ,ResourceCreator *>,void *> >,std::_List_val<std::_List_simple_types<std::pair<enum ResourceType const ,ResourceCreator *> > >,1>::_Compressed_pair<std::allocator<std::_List_node<std::pair<enum ResourceType const ,ResourceCreator *>,void *> >,std::_List_val<std::_List_simple_types<std::pair<enum ResourceType const ,ResourceCreator *> > >,1><std::allocator<std::pair<enum ResourceType const ,ResourceCreator *> > const &>
PUBLIC	??$?0U?$pair@$$CBW4ResourceType@@PAVResourceCreator@@@std@@@?$allocator@U?$_List_node@U?$pair@$$CBW4ResourceType@@PAVResourceCreator@@@std@@PAX@std@@@std@@QAE@ABV?$allocator@U?$pair@$$CBW4ResourceType@@PAVResourceCreator@@@std@@@1@@Z ; std::allocator<std::_List_node<std::pair<enum ResourceType const ,ResourceCreator *>,void *> >::allocator<std::_List_node<std::pair<enum ResourceType const ,ResourceCreator *>,void *> ><std::pair<enum ResourceType const ,ResourceCreator *> >
PUBLIC	??$uninitialized_fill@PAV?$_List_unchecked_iterator@V?$_List_val@U?$_List_simple_types@U?$pair@$$CBIVResourceHandler@@@std@@@std@@@std@@@std@@V12@@std@@YAXQAV?$_List_unchecked_iterator@V?$_List_val@U?$_List_simple_types@U?$pair@$$CBIVResourceHandler@@@std@@@std@@@std@@@0@0ABV10@@Z ; std::uninitialized_fill<std::_List_unchecked_iterator<std::_List_val<std::_List_simple_types<std::pair<unsigned int const ,ResourceHandler> > > > *,std::_List_unchecked_iterator<std::_List_val<std::_List_simple_types<std::pair<unsigned int const ,ResourceHandler> > > > >
PUBLIC	??$fill@PAV?$_List_unchecked_iterator@V?$_List_val@U?$_List_simple_types@U?$pair@$$CBIVResourceHandler@@@std@@@std@@@std@@@std@@V12@@std@@YAXQAV?$_List_unchecked_iterator@V?$_List_val@U?$_List_simple_types@U?$pair@$$CBIVResourceHandler@@@std@@@std@@@std@@@0@0ABV10@@Z ; std::fill<std::_List_unchecked_iterator<std::_List_val<std::_List_simple_types<std::pair<unsigned int const ,ResourceHandler> > > > *,std::_List_unchecked_iterator<std::_List_val<std::_List_simple_types<std::pair<unsigned int const ,ResourceHandler> > > > >
PUBLIC	??$?0ABV?$allocator@U?$pair@$$CBIVResourceHandler@@@std@@@std@@$$V@?$_Compressed_pair@V?$allocator@U?$_List_node@U?$pair@$$CBIVResourceHandler@@@std@@PAX@std@@@std@@V?$_List_val@U?$_List_simple_types@U?$pair@$$CBIVResourceHandler@@@std@@@std@@@2@$00@std@@QAE@U_One_then_variadic_args_t@1@ABV?$allocator@U?$pair@$$CBIVResourceHandler@@@std@@@1@@Z ; std::_Compressed_pair<std::allocator<std::_List_node<std::pair<unsigned int const ,ResourceHandler>,void *> >,std::_List_val<std::_List_simple_types<std::pair<unsigned int const ,ResourceHandler> > >,1>::_Compressed_pair<std::allocator<std::_List_node<std::pair<unsigned int const ,ResourceHandler>,void *> >,std::_List_val<std::_List_simple_types<std::pair<unsigned int const ,ResourceHandler> > >,1><std::allocator<std::pair<unsigned int const ,ResourceHandler> > const &>
PUBLIC	??$?0U?$pair@$$CBIVResourceHandler@@@std@@@?$allocator@U?$_List_node@U?$pair@$$CBIVResourceHandler@@@std@@PAX@std@@@std@@QAE@ABV?$allocator@U?$pair@$$CBIVResourceHandler@@@std@@@1@@Z ; std::allocator<std::_List_node<std::pair<unsigned int const ,ResourceHandler>,void *> >::allocator<std::_List_node<std::pair<unsigned int const ,ResourceHandler>,void *> ><std::pair<unsigned int const ,ResourceHandler> >
PUBLIC	??$addressof@$$CBV?$_String_val@U?$_Simple_types@D@std@@@std@@@std@@YAPBV?$_String_val@U?$_Simple_types@D@std@@@0@ABV10@@Z ; std::addressof<std::_String_val<std::_Simple_types<char> > const >
PUBLIC	??$_Get_size_of_n@$00@std@@YAII@Z		; std::_Get_size_of_n<1>
PUBLIC	??$_Get_size_of_n@$03@std@@YAII@Z		; std::_Get_size_of_n<4>
PUBLIC	??$_Construct_in_place@PAU?$_List_node@U?$pair@$$CBII@std@@PAX@std@@AAPAU12@@std@@YAXAAPAU?$_List_node@U?$pair@$$CBII@std@@PAX@0@0@Z ; std::_Construct_in_place<std::_List_node<std::pair<unsigned int const ,unsigned int>,void *> *,std::_List_node<std::pair<unsigned int const ,unsigned int>,void *> * &>
PUBLIC	??$?RW4ResourceType@@@?$_Uhash_compare@W4ResourceType@@U?$hash@W4ResourceType@@@std@@U?$equal_to@W4ResourceType@@@3@@std@@QBEIABW4ResourceType@@@Z ; std::_Uhash_compare<enum ResourceType,std::hash<enum ResourceType>,std::equal_to<enum ResourceType> >::operator()<enum ResourceType>
PUBLIC	??$_Pocma@V?$allocator@U?$_List_node@U?$pair@$$CBW4ResourceType@@PAVResourceCreator@@@std@@PAX@std@@@std@@@std@@YAXAAV?$allocator@U?$_List_node@U?$pair@$$CBW4ResourceType@@PAVResourceCreator@@@std@@PAX@std@@@0@0@Z ; std::_Pocma<std::allocator<std::_List_node<std::pair<enum ResourceType const ,ResourceCreator *>,void *> > >
PUBLIC	??$_Pocma@V?$allocator@V?$_List_unchecked_iterator@V?$_List_val@U?$_List_simple_types@U?$pair@$$CBW4ResourceType@@PAVResourceCreator@@@std@@@std@@@std@@@std@@@std@@@std@@YAXAAV?$allocator@V?$_List_unchecked_iterator@V?$_List_val@U?$_List_simple_types@U?$pair@$$CBW4ResourceType@@PAVResourceCreator@@@std@@@std@@@std@@@std@@@0@0@Z ; std::_Pocma<std::allocator<std::_List_unchecked_iterator<std::_List_val<std::_List_simple_types<std::pair<enum ResourceType const ,ResourceCreator *> > > > > >
PUBLIC	??$swap@I$0A@@std@@YAXAAI0@Z			; std::swap<unsigned int,0>
PUBLIC	??$_Construct_in_place@PAU?$_List_node@U?$pair@$$CBW4ResourceType@@PAVResourceCreator@@@std@@PAX@std@@AAPAU12@@std@@YAXAAPAU?$_List_node@U?$pair@$$CBW4ResourceType@@PAVResourceCreator@@@std@@PAX@0@0@Z ; std::_Construct_in_place<std::_List_node<std::pair<enum ResourceType const ,ResourceCreator *>,void *> *,std::_List_node<std::pair<enum ResourceType const ,ResourceCreator *>,void *> * &>
PUBLIC	??$_Construct_in_place@PAU?$_List_node@U?$pair@$$CBIVResourceHandler@@@std@@PAX@std@@AAPAU12@@std@@YAXAAPAU?$_List_node@U?$pair@$$CBIVResourceHandler@@@std@@PAX@0@0@Z ; std::_Construct_in_place<std::_List_node<std::pair<unsigned int const ,ResourceHandler>,void *> *,std::_List_node<std::pair<unsigned int const ,ResourceHandler>,void *> * &>
PUBLIC	??$_Swap_adl@PAV?$_List_unchecked_iterator@V?$_List_val@U?$_List_simple_types@U?$pair@$$CBW4ResourceType@@PAVResourceCreator@@@std@@@std@@@std@@@std@@@std@@YAXAAPAV?$_List_unchecked_iterator@V?$_List_val@U?$_List_simple_types@U?$pair@$$CBW4ResourceType@@PAVResourceCreator@@@std@@@std@@@std@@@0@0@Z ; std::_Swap_adl<std::_List_unchecked_iterator<std::_List_val<std::_List_simple_types<std::pair<enum ResourceType const ,ResourceCreator *> > > > *>
PUBLIC	??$swap@PAV?$_List_unchecked_iterator@V?$_List_val@U?$_List_simple_types@U?$pair@$$CBW4ResourceType@@PAVResourceCreator@@@std@@@std@@@std@@@std@@$0A@@std@@YAXAAPAV?$_List_unchecked_iterator@V?$_List_val@U?$_List_simple_types@U?$pair@$$CBW4ResourceType@@PAVResourceCreator@@@std@@@std@@@std@@@0@0@Z ; std::swap<std::_List_unchecked_iterator<std::_List_val<std::_List_simple_types<std::pair<enum ResourceType const ,ResourceCreator *> > > > *,0>
PUBLIC	??0_Range_eraser@?$_Hash@V?$_Umap_traits@W4ResourceType@@PAVResourceCreator@@V?$_Uhash_compare@W4ResourceType@@U?$hash@W4ResourceType@@@std@@U?$equal_to@W4ResourceType@@@3@@std@@V?$allocator@U?$pair@$$CBW4ResourceType@@PAVResourceCreator@@@std@@@4@$0A@@std@@@std@@QAE@AAV?$list@U?$pair@$$CBW4ResourceType@@PAVResourceCreator@@@std@@V?$allocator@U?$pair@$$CBW4ResourceType@@PAVResourceCreator@@@std@@@2@@2@QAU?$_List_node@U?$pair@$$CBW4ResourceType@@PAVResourceCreator@@@std@@PAX@2@@Z ; std::_Hash<std::_Umap_traits<enum ResourceType,ResourceCreator *,std::_Uhash_compare<enum ResourceType,std::hash<enum ResourceType>,std::equal_to<enum ResourceType> >,std::allocator<std::pair<enum ResourceType const ,ResourceCreator *> >,0> >::_Range_eraser::_Range_eraser
PUBLIC	?_Bump_erased@_Range_eraser@?$_Hash@V?$_Umap_traits@W4ResourceType@@PAVResourceCreator@@V?$_Uhash_compare@W4ResourceType@@U?$hash@W4ResourceType@@@std@@U?$equal_to@W4ResourceType@@@3@@std@@V?$allocator@U?$pair@$$CBW4ResourceType@@PAVResourceCreator@@@std@@@4@$0A@@std@@@std@@QAEXXZ ; std::_Hash<std::_Umap_traits<enum ResourceType,ResourceCreator *,std::_Uhash_compare<enum ResourceType,std::hash<enum ResourceType>,std::equal_to<enum ResourceType> >,std::allocator<std::pair<enum ResourceType const ,ResourceCreator *> >,0> >::_Range_eraser::_Bump_erased
PUBLIC	??1_Range_eraser@?$_Hash@V?$_Umap_traits@W4ResourceType@@PAVResourceCreator@@V?$_Uhash_compare@W4ResourceType@@U?$hash@W4ResourceType@@@std@@U?$equal_to@W4ResourceType@@@3@@std@@V?$allocator@U?$pair@$$CBW4ResourceType@@PAVResourceCreator@@@std@@@4@$0A@@std@@@std@@QAE@XZ ; std::_Hash<std::_Umap_traits<enum ResourceType,ResourceCreator *,std::_Uhash_compare<enum ResourceType,std::hash<enum ResourceType>,std::equal_to<enum ResourceType> >,std::allocator<std::pair<enum ResourceType const ,ResourceCreator *> >,0> >::_Range_eraser::~_Range_eraser
PUBLIC	??$_Kfn@$$CBW4ResourceType@@PAVResourceCreator@@@?$_Umap_traits@W4ResourceType@@PAVResourceCreator@@V?$_Uhash_compare@W4ResourceType@@U?$hash@W4ResourceType@@@std@@U?$equal_to@W4ResourceType@@@3@@std@@V?$allocator@U?$pair@$$CBW4ResourceType@@PAVResourceCreator@@@std@@@4@$0A@@std@@SAABW4ResourceType@@ABU?$pair@$$CBW4ResourceType@@PAVResourceCreator@@@1@@Z ; std::_Umap_traits<enum ResourceType,ResourceCreator *,std::_Uhash_compare<enum ResourceType,std::hash<enum ResourceType>,std::equal_to<enum ResourceType> >,std::allocator<std::pair<enum ResourceType const ,ResourceCreator *> >,0>::_Kfn<enum ResourceType const ,ResourceCreator *>
PUBLIC	??$_Swap_adl@PAU?$_List_node@U?$pair@$$CBW4ResourceType@@PAVResourceCreator@@@std@@PAX@std@@@std@@YAXAAPAU?$_List_node@U?$pair@$$CBW4ResourceType@@PAVResourceCreator@@@std@@PAX@0@0@Z ; std::_Swap_adl<std::_List_node<std::pair<enum ResourceType const ,ResourceCreator *>,void *> *>
PUBLIC	??$swap@PAU?$_List_node@U?$pair@$$CBW4ResourceType@@PAVResourceCreator@@@std@@PAX@std@@$0A@@std@@YAXAAPAU?$_List_node@U?$pair@$$CBW4ResourceType@@PAVResourceCreator@@@std@@PAX@0@0@Z ; std::swap<std::_List_node<std::pair<enum ResourceType const ,ResourceCreator *>,void *> *,0>
PUBLIC	??$_Get_size_of_n@$0BE@@std@@YAII@Z		; std::_Get_size_of_n<20>
PUBLIC	??$_Freenode@V?$allocator@U?$_List_node@U?$pair@$$CBW4ResourceType@@PAVResourceCreator@@@std@@PAX@std@@@std@@@?$_List_node@U?$pair@$$CBW4ResourceType@@PAVResourceCreator@@@std@@PAX@std@@SAXAAV?$allocator@U?$_List_node@U?$pair@$$CBW4ResourceType@@PAVResourceCreator@@@std@@PAX@std@@@1@PAU01@@Z ; std::_List_node<std::pair<enum ResourceType const ,ResourceCreator *>,void *>::_Freenode<std::allocator<std::_List_node<std::pair<enum ResourceType const ,ResourceCreator *>,void *> > >
PUBLIC	??$addressof@U_Container_proxy@std@@@std@@YAPAU_Container_proxy@0@AAU10@@Z ; std::addressof<std::_Container_proxy>
PUBLIC	??$forward@PAU_Container_base12@std@@@std@@YA$$QAPAU_Container_base12@0@AAPAU10@@Z ; std::forward<std::_Container_base12 *>
PUBLIC	??$_Fnv1a_append_value@I@std@@YAIIABI@Z		; std::_Fnv1a_append_value<unsigned int>
PUBLIC	??$forward@_N@std@@YA$$QA_NAA_N@Z		; std::forward<bool>
PUBLIC	??$forward@AAI@std@@YAAAIAAI@Z			; std::forward<unsigned int &>
PUBLIC	??$forward@VResourceHandler@@@std@@YA$$QAVResourceHandler@@AAV1@@Z ; std::forward<ResourceHandler>
PUBLIC	??$?0AAIVResourceHandler@@$0A@@?$pair@IVResourceHandler@@@std@@QAE@AAI$$QAVResourceHandler@@@Z ; std::pair<unsigned int,ResourceHandler>::pair<unsigned int,ResourceHandler><unsigned int &,ResourceHandler,0>
PUBLIC	??$forward@U?$pair@IVResourceHandler@@@std@@@std@@YA$$QAU?$pair@IVResourceHandler@@@0@AAU10@@Z ; std::forward<std::pair<unsigned int,ResourceHandler> >
PUBLIC	??$emplace@U?$pair@IVResourceHandler@@@std@@@?$_Hash@V?$_Umap_traits@IVResourceHandler@@V?$_Uhash_compare@IU?$hash@I@std@@U?$equal_to@I@2@@std@@V?$allocator@U?$pair@$$CBIVResourceHandler@@@std@@@3@$0A@@std@@@std@@QAE?AU?$pair@V?$_List_iterator@V?$_List_val@U?$_List_simple_types@U?$pair@$$CBIVResourceHandler@@@std@@@std@@@std@@@std@@_N@1@$$QAU?$pair@IVResourceHandler@@@1@@Z ; std::_Hash<std::_Umap_traits<unsigned int,ResourceHandler,std::_Uhash_compare<unsigned int,std::hash<unsigned int>,std::equal_to<unsigned int> >,std::allocator<std::pair<unsigned int const ,ResourceHandler> >,0> >::emplace<std::pair<unsigned int,ResourceHandler> >
PUBLIC	??$?RI@?$_Uhash_compare@IU?$hash@I@std@@U?$equal_to@I@2@@std@@QBEIABI@Z ; std::_Uhash_compare<unsigned int,std::hash<unsigned int>,std::equal_to<unsigned int> >::operator()<unsigned int>
PUBLIC	??$_Find@I@?$_Hash@V?$_Umap_traits@IVResourceHandler@@V?$_Uhash_compare@IU?$hash@I@std@@U?$equal_to@I@2@@std@@V?$allocator@U?$pair@$$CBIVResourceHandler@@@std@@@3@$0A@@std@@@std@@ABEPAU?$_List_node@U?$pair@$$CBIVResourceHandler@@@std@@PAX@1@ABII@Z ; std::_Hash<std::_Umap_traits<unsigned int,ResourceHandler,std::_Uhash_compare<unsigned int,std::hash<unsigned int>,std::equal_to<unsigned int> >,std::allocator<std::pair<unsigned int const ,ResourceHandler> >,0> >::_Find<unsigned int>
PUBLIC	??$_Deallocate_plain@V?$allocator@U_Container_proxy@std@@@std@@@std@@YAXAAV?$allocator@U_Container_proxy@std@@@0@QAU_Container_proxy@0@@Z ; std::_Deallocate_plain<std::allocator<std::_Container_proxy> >
PUBLIC	??$forward@V?$allocator@D@std@@@std@@YA$$QAV?$allocator@D@0@AAV10@@Z ; std::forward<std::allocator<char> >
PUBLIC	??$forward@ABV?$allocator@U?$pair@$$CBII@std@@@std@@@std@@YAABV?$allocator@U?$pair@$$CBII@std@@@0@ABV10@@Z ; std::forward<std::allocator<std::pair<unsigned int const ,unsigned int> > const &>
PUBLIC	??$?0ABV?$allocator@U?$pair@$$CBII@std@@@std@@$$V@?$_Compressed_pair@V?$allocator@V?$_List_unchecked_iterator@V?$_List_val@U?$_List_simple_types@U?$pair@$$CBII@std@@@std@@@std@@@std@@@std@@V?$_Vector_val@U?$_Simple_types@V?$_List_unchecked_iterator@V?$_List_val@U?$_List_simple_types@U?$pair@$$CBII@std@@@std@@@std@@@std@@@std@@@2@$00@std@@QAE@U_One_then_variadic_args_t@1@ABV?$allocator@U?$pair@$$CBII@std@@@1@@Z ; std::_Compressed_pair<std::allocator<std::_List_unchecked_iterator<std::_List_val<std::_List_simple_types<std::pair<unsigned int const ,unsigned int> > > > >,std::_Vector_val<std::_Simple_types<std::_List_unchecked_iterator<std::_List_val<std::_List_simple_types<std::pair<unsigned int const ,unsigned int> > > > > >,1>::_Compressed_pair<std::allocator<std::_List_unchecked_iterator<std::_List_val<std::_List_simple_types<std::pair<unsigned int const ,unsigned int> > > > >,std::_Vector_val<std::_Simple_types<std::_List_unchecked_iterator<std::_List_val<std::_List_simple_types<std::pair<unsigned int const ,unsigned int> > > > > >,1><std::allocator<std::pair<unsigned int const ,unsigned int> > const &>
PUBLIC	??$?0U?$pair@$$CBII@std@@@?$allocator@V?$_List_unchecked_iterator@V?$_List_val@U?$_List_simple_types@U?$pair@$$CBII@std@@@std@@@std@@@std@@@std@@QAE@ABV?$allocator@U?$pair@$$CBII@std@@@1@@Z ; std::allocator<std::_List_unchecked_iterator<std::_List_val<std::_List_simple_types<std::pair<unsigned int const ,unsigned int> > > > >::allocator<std::_List_unchecked_iterator<std::_List_val<std::_List_simple_types<std::pair<unsigned int const ,unsigned int> > > > ><std::pair<unsigned int const ,unsigned int> >
PUBLIC	??$_Freenode@V?$allocator@U?$_List_node@U?$pair@$$CBII@std@@PAX@std@@@std@@@?$_List_node@U?$pair@$$CBII@std@@PAX@std@@SAXAAV?$allocator@U?$_List_node@U?$pair@$$CBII@std@@PAX@std@@@1@PAU01@@Z ; std::_List_node<std::pair<unsigned int const ,unsigned int>,void *>::_Freenode<std::allocator<std::_List_node<std::pair<unsigned int const ,unsigned int>,void *> > >
PUBLIC	??$_Destroy_in_place@PAU?$_List_node@U?$pair@$$CBII@std@@PAX@std@@@std@@YAXAAPAU?$_List_node@U?$pair@$$CBII@std@@PAX@0@@Z ; std::_Destroy_in_place<std::_List_node<std::pair<unsigned int const ,unsigned int>,void *> *>
PUBLIC	??$forward@ABV?$allocator@U?$pair@$$CBW4ResourceType@@PAVResourceCreator@@@std@@@std@@@std@@YAABV?$allocator@U?$pair@$$CBW4ResourceType@@PAVResourceCreator@@@std@@@0@ABV10@@Z ; std::forward<std::allocator<std::pair<enum ResourceType const ,ResourceCreator *> > const &>
PUBLIC	??$?0ABV?$allocator@U?$pair@$$CBW4ResourceType@@PAVResourceCreator@@@std@@@std@@$$V@?$_Compressed_pair@V?$allocator@V?$_List_unchecked_iterator@V?$_List_val@U?$_List_simple_types@U?$pair@$$CBW4ResourceType@@PAVResourceCreator@@@std@@@std@@@std@@@std@@@std@@V?$_Vector_val@U?$_Simple_types@V?$_List_unchecked_iterator@V?$_List_val@U?$_List_simple_types@U?$pair@$$CBW4ResourceType@@PAVResourceCreator@@@std@@@std@@@std@@@std@@@std@@@2@$00@std@@QAE@U_One_then_variadic_args_t@1@ABV?$allocator@U?$pair@$$CBW4ResourceType@@PAVResourceCreator@@@std@@@1@@Z ; std::_Compressed_pair<std::allocator<std::_List_unchecked_iterator<std::_List_val<std::_List_simple_types<std::pair<enum ResourceType const ,ResourceCreator *> > > > >,std::_Vector_val<std::_Simple_types<std::_List_unchecked_iterator<std::_List_val<std::_List_simple_types<std::pair<enum ResourceType const ,ResourceCreator *> > > > > >,1>::_Compressed_pair<std::allocator<std::_List_unchecked_iterator<std::_List_val<std::_List_simple_types<std::pair<enum ResourceType const ,ResourceCreator *> > > > >,std::_Vector_val<std::_Simple_types<std::_List_unchecked_iterator<std::_List_val<std::_List_simple_types<std::pair<enum ResourceType const ,ResourceCreator *> > > > > >,1><std::allocator<std::pair<enum ResourceType const ,ResourceCreator *> > const &>
PUBLIC	??$?0U?$pair@$$CBW4ResourceType@@PAVResourceCreator@@@std@@@?$allocator@V?$_List_unchecked_iterator@V?$_List_val@U?$_List_simple_types@U?$pair@$$CBW4ResourceType@@PAVResourceCreator@@@std@@@std@@@std@@@std@@@std@@QAE@ABV?$allocator@U?$pair@$$CBW4ResourceType@@PAVResourceCreator@@@std@@@1@@Z ; std::allocator<std::_List_unchecked_iterator<std::_List_val<std::_List_simple_types<std::pair<enum ResourceType const ,ResourceCreator *> > > > >::allocator<std::_List_unchecked_iterator<std::_List_val<std::_List_simple_types<std::pair<enum ResourceType const ,ResourceCreator *> > > > ><std::pair<enum ResourceType const ,ResourceCreator *> >
PUBLIC	??$_Destroy_in_place@PAU?$_List_node@U?$pair@$$CBW4ResourceType@@PAVResourceCreator@@@std@@PAX@std@@@std@@YAXAAPAU?$_List_node@U?$pair@$$CBW4ResourceType@@PAVResourceCreator@@@std@@PAX@0@@Z ; std::_Destroy_in_place<std::_List_node<std::pair<enum ResourceType const ,ResourceCreator *>,void *> *>
PUBLIC	??$forward@U_Zero_then_variadic_args_t@std@@@std@@YA$$QAU_Zero_then_variadic_args_t@0@AAU10@@Z ; std::forward<std::_Zero_then_variadic_args_t>
PUBLIC	??$forward@M@std@@YA$$QAMAAM@Z			; std::forward<float>
PUBLIC	??$forward@ABV?$allocator@U?$pair@$$CBIVResourceHandler@@@std@@@std@@@std@@YAABV?$allocator@U?$pair@$$CBIVResourceHandler@@@std@@@0@ABV10@@Z ; std::forward<std::allocator<std::pair<unsigned int const ,ResourceHandler> > const &>
PUBLIC	??$?0ABV?$allocator@U?$pair@$$CBIVResourceHandler@@@std@@@std@@$$V@?$_Compressed_pair@V?$allocator@V?$_List_unchecked_iterator@V?$_List_val@U?$_List_simple_types@U?$pair@$$CBIVResourceHandler@@@std@@@std@@@std@@@std@@@std@@V?$_Vector_val@U?$_Simple_types@V?$_List_unchecked_iterator@V?$_List_val@U?$_List_simple_types@U?$pair@$$CBIVResourceHandler@@@std@@@std@@@std@@@std@@@std@@@2@$00@std@@QAE@U_One_then_variadic_args_t@1@ABV?$allocator@U?$pair@$$CBIVResourceHandler@@@std@@@1@@Z ; std::_Compressed_pair<std::allocator<std::_List_unchecked_iterator<std::_List_val<std::_List_simple_types<std::pair<unsigned int const ,ResourceHandler> > > > >,std::_Vector_val<std::_Simple_types<std::_List_unchecked_iterator<std::_List_val<std::_List_simple_types<std::pair<unsigned int const ,ResourceHandler> > > > > >,1>::_Compressed_pair<std::allocator<std::_List_unchecked_iterator<std::_List_val<std::_List_simple_types<std::pair<unsigned int const ,ResourceHandler> > > > >,std::_Vector_val<std::_Simple_types<std::_List_unchecked_iterator<std::_List_val<std::_List_simple_types<std::pair<unsigned int const ,ResourceHandler> > > > > >,1><std::allocator<std::pair<unsigned int const ,ResourceHandler> > const &>
PUBLIC	??$?0U?$pair@$$CBIVResourceHandler@@@std@@@?$allocator@V?$_List_unchecked_iterator@V?$_List_val@U?$_List_simple_types@U?$pair@$$CBIVResourceHandler@@@std@@@std@@@std@@@std@@@std@@QAE@ABV?$allocator@U?$pair@$$CBIVResourceHandler@@@std@@@1@@Z ; std::allocator<std::_List_unchecked_iterator<std::_List_val<std::_List_simple_types<std::pair<unsigned int const ,ResourceHandler> > > > >::allocator<std::_List_unchecked_iterator<std::_List_val<std::_List_simple_types<std::pair<unsigned int const ,ResourceHandler> > > > ><std::pair<unsigned int const ,ResourceHandler> >
PUBLIC	??$_Freenode@V?$allocator@U?$_List_node@U?$pair@$$CBIVResourceHandler@@@std@@PAX@std@@@std@@@?$_List_node@U?$pair@$$CBIVResourceHandler@@@std@@PAX@std@@SAXAAV?$allocator@U?$_List_node@U?$pair@$$CBIVResourceHandler@@@std@@PAX@std@@@1@PAU01@@Z ; std::_List_node<std::pair<unsigned int const ,ResourceHandler>,void *>::_Freenode<std::allocator<std::_List_node<std::pair<unsigned int const ,ResourceHandler>,void *> > >
PUBLIC	??$_Destroy_in_place@PAU?$_List_node@U?$pair@$$CBIVResourceHandler@@@std@@PAX@std@@@std@@YAXAAPAU?$_List_node@U?$pair@$$CBIVResourceHandler@@@std@@PAX@0@@Z ; std::_Destroy_in_place<std::_List_node<std::pair<unsigned int const ,ResourceHandler>,void *> *>
PUBLIC	??$addressof@PAD@std@@YAPAPADAAPAD@Z		; std::addressof<char *>
PUBLIC	??$forward@ABQAD@std@@YAABQADABQAD@Z		; std::forward<char * const &>
PUBLIC	??$_Allocate_manually_vector_aligned@U_Default_allocate_traits@std@@@std@@YAPAXI@Z ; std::_Allocate_manually_vector_aligned<std::_Default_allocate_traits>
PUBLIC	??$_Adl_verify_range@PAV?$_List_unchecked_iterator@V?$_List_val@U?$_List_simple_types@U?$pair@$$CBII@std@@@std@@@std@@@std@@PAV12@@std@@YAXABQAV?$_List_unchecked_iterator@V?$_List_val@U?$_List_simple_types@U?$pair@$$CBII@std@@@std@@@std@@@0@0@Z ; std::_Adl_verify_range<std::_List_unchecked_iterator<std::_List_val<std::_List_simple_types<std::pair<unsigned int const ,unsigned int> > > > *,std::_List_unchecked_iterator<std::_List_val<std::_List_simple_types<std::pair<unsigned int const ,unsigned int> > > > *>
PUBLIC	??$_Get_unwrapped@ABQAV?$_List_unchecked_iterator@V?$_List_val@U?$_List_simple_types@U?$pair@$$CBII@std@@@std@@@std@@@std@@@std@@YA@ABQAV?$_List_unchecked_iterator@V?$_List_val@U?$_List_simple_types@U?$pair@$$CBII@std@@@std@@@std@@@0@@Z ; std::_Get_unwrapped<std::_List_unchecked_iterator<std::_List_val<std::_List_simple_types<std::pair<unsigned int const ,unsigned int> > > > * const &>
PUBLIC	??0?$_Uninitialized_backout@PAV?$_List_unchecked_iterator@V?$_List_val@U?$_List_simple_types@U?$pair@$$CBII@std@@@std@@@std@@@std@@@std@@QAE@PAV?$_List_unchecked_iterator@V?$_List_val@U?$_List_simple_types@U?$pair@$$CBII@std@@@std@@@std@@@1@@Z ; std::_Uninitialized_backout<std::_List_unchecked_iterator<std::_List_val<std::_List_simple_types<std::pair<unsigned int const ,unsigned int> > > > *>::_Uninitialized_backout<std::_List_unchecked_iterator<std::_List_val<std::_List_simple_types<std::pair<unsigned int const ,unsigned int> > > > *>
PUBLIC	??1?$_Uninitialized_backout@PAV?$_List_unchecked_iterator@V?$_List_val@U?$_List_simple_types@U?$pair@$$CBII@std@@@std@@@std@@@std@@@std@@QAE@XZ ; std::_Uninitialized_backout<std::_List_unchecked_iterator<std::_List_val<std::_List_simple_types<std::pair<unsigned int const ,unsigned int> > > > *>::~_Uninitialized_backout<std::_List_unchecked_iterator<std::_List_val<std::_List_simple_types<std::pair<unsigned int const ,unsigned int> > > > *>
PUBLIC	?_Release@?$_Uninitialized_backout@PAV?$_List_unchecked_iterator@V?$_List_val@U?$_List_simple_types@U?$pair@$$CBII@std@@@std@@@std@@@std@@@std@@QAEPAV?$_List_unchecked_iterator@V?$_List_val@U?$_List_simple_types@U?$pair@$$CBII@std@@@std@@@std@@@2@XZ ; std::_Uninitialized_backout<std::_List_unchecked_iterator<std::_List_val<std::_List_simple_types<std::pair<unsigned int const ,unsigned int> > > > *>::_Release
PUBLIC	??$_Emplace_back@ABV?$_List_unchecked_iterator@V?$_List_val@U?$_List_simple_types@U?$pair@$$CBII@std@@@std@@@std@@@std@@@?$_Uninitialized_backout@PAV?$_List_unchecked_iterator@V?$_List_val@U?$_List_simple_types@U?$pair@$$CBII@std@@@std@@@std@@@std@@@std@@QAEXABV?$_List_unchecked_iterator@V?$_List_val@U?$_List_simple_types@U?$pair@$$CBII@std@@@std@@@std@@@1@@Z ; std::_Uninitialized_backout<std::_List_unchecked_iterator<std::_List_val<std::_List_simple_types<std::pair<unsigned int const ,unsigned int> > > > *>::_Emplace_back<std::_List_unchecked_iterator<std::_List_val<std::_List_simple_types<std::pair<unsigned int const ,unsigned int> > > > const &>
PUBLIC	??$_Adl_verify_range@PAV?$_List_unchecked_iterator@V?$_List_val@U?$_List_simple_types@U?$pair@$$CBW4ResourceType@@PAVResourceCreator@@@std@@@std@@@std@@@std@@PAV12@@std@@YAXABQAV?$_List_unchecked_iterator@V?$_List_val@U?$_List_simple_types@U?$pair@$$CBW4ResourceType@@PAVResourceCreator@@@std@@@std@@@std@@@0@0@Z ; std::_Adl_verify_range<std::_List_unchecked_iterator<std::_List_val<std::_List_simple_types<std::pair<enum ResourceType const ,ResourceCreator *> > > > *,std::_List_unchecked_iterator<std::_List_val<std::_List_simple_types<std::pair<enum ResourceType const ,ResourceCreator *> > > > *>
PUBLIC	??$_Get_unwrapped@ABQAV?$_List_unchecked_iterator@V?$_List_val@U?$_List_simple_types@U?$pair@$$CBW4ResourceType@@PAVResourceCreator@@@std@@@std@@@std@@@std@@@std@@YA@ABQAV?$_List_unchecked_iterator@V?$_List_val@U?$_List_simple_types@U?$pair@$$CBW4ResourceType@@PAVResourceCreator@@@std@@@std@@@std@@@0@@Z ; std::_Get_unwrapped<std::_List_unchecked_iterator<std::_List_val<std::_List_simple_types<std::pair<enum ResourceType const ,ResourceCreator *> > > > * const &>
PUBLIC	??0?$_Uninitialized_backout@PAV?$_List_unchecked_iterator@V?$_List_val@U?$_List_simple_types@U?$pair@$$CBW4ResourceType@@PAVResourceCreator@@@std@@@std@@@std@@@std@@@std@@QAE@PAV?$_List_unchecked_iterator@V?$_List_val@U?$_List_simple_types@U?$pair@$$CBW4ResourceType@@PAVResourceCreator@@@std@@@std@@@std@@@1@@Z ; std::_Uninitialized_backout<std::_List_unchecked_iterator<std::_List_val<std::_List_simple_types<std::pair<enum ResourceType const ,ResourceCreator *> > > > *>::_Uninitialized_backout<std::_List_unchecked_iterator<std::_List_val<std::_List_simple_types<std::pair<enum ResourceType const ,ResourceCreator *> > > > *>
PUBLIC	??1?$_Uninitialized_backout@PAV?$_List_unchecked_iterator@V?$_List_val@U?$_List_simple_types@U?$pair@$$CBW4ResourceType@@PAVResourceCreator@@@std@@@std@@@std@@@std@@@std@@QAE@XZ ; std::_Uninitialized_backout<std::_List_unchecked_iterator<std::_List_val<std::_List_simple_types<std::pair<enum ResourceType const ,ResourceCreator *> > > > *>::~_Uninitialized_backout<std::_List_unchecked_iterator<std::_List_val<std::_List_simple_types<std::pair<enum ResourceType const ,ResourceCreator *> > > > *>
PUBLIC	?_Release@?$_Uninitialized_backout@PAV?$_List_unchecked_iterator@V?$_List_val@U?$_List_simple_types@U?$pair@$$CBW4ResourceType@@PAVResourceCreator@@@std@@@std@@@std@@@std@@@std@@QAEPAV?$_List_unchecked_iterator@V?$_List_val@U?$_List_simple_types@U?$pair@$$CBW4ResourceType@@PAVResourceCreator@@@std@@@std@@@std@@@2@XZ ; std::_Uninitialized_backout<std::_List_unchecked_iterator<std::_List_val<std::_List_simple_types<std::pair<enum ResourceType const ,ResourceCreator *> > > > *>::_Release
PUBLIC	??$_Emplace_back@ABV?$_List_unchecked_iterator@V?$_List_val@U?$_List_simple_types@U?$pair@$$CBW4ResourceType@@PAVResourceCreator@@@std@@@std@@@std@@@std@@@?$_Uninitialized_backout@PAV?$_List_unchecked_iterator@V?$_List_val@U?$_List_simple_types@U?$pair@$$CBW4ResourceType@@PAVResourceCreator@@@std@@@std@@@std@@@std@@@std@@QAEXABV?$_List_unchecked_iterator@V?$_List_val@U?$_List_simple_types@U?$pair@$$CBW4ResourceType@@PAVResourceCreator@@@std@@@std@@@std@@@1@@Z ; std::_Uninitialized_backout<std::_List_unchecked_iterator<std::_List_val<std::_List_simple_types<std::pair<enum ResourceType const ,ResourceCreator *> > > > *>::_Emplace_back<std::_List_unchecked_iterator<std::_List_val<std::_List_simple_types<std::pair<enum ResourceType const ,ResourceCreator *> > > > const &>
PUBLIC	??$_Adl_verify_range@PAV?$_List_unchecked_iterator@V?$_List_val@U?$_List_simple_types@U?$pair@$$CBIVResourceHandler@@@std@@@std@@@std@@@std@@PAV12@@std@@YAXABQAV?$_List_unchecked_iterator@V?$_List_val@U?$_List_simple_types@U?$pair@$$CBIVResourceHandler@@@std@@@std@@@std@@@0@0@Z ; std::_Adl_verify_range<std::_List_unchecked_iterator<std::_List_val<std::_List_simple_types<std::pair<unsigned int const ,ResourceHandler> > > > *,std::_List_unchecked_iterator<std::_List_val<std::_List_simple_types<std::pair<unsigned int const ,ResourceHandler> > > > *>
PUBLIC	??$_Get_unwrapped@ABQAV?$_List_unchecked_iterator@V?$_List_val@U?$_List_simple_types@U?$pair@$$CBIVResourceHandler@@@std@@@std@@@std@@@std@@@std@@YA@ABQAV?$_List_unchecked_iterator@V?$_List_val@U?$_List_simple_types@U?$pair@$$CBIVResourceHandler@@@std@@@std@@@std@@@0@@Z ; std::_Get_unwrapped<std::_List_unchecked_iterator<std::_List_val<std::_List_simple_types<std::pair<unsigned int const ,ResourceHandler> > > > * const &>
PUBLIC	??0?$_Uninitialized_backout@PAV?$_List_unchecked_iterator@V?$_List_val@U?$_List_simple_types@U?$pair@$$CBIVResourceHandler@@@std@@@std@@@std@@@std@@@std@@QAE@PAV?$_List_unchecked_iterator@V?$_List_val@U?$_List_simple_types@U?$pair@$$CBIVResourceHandler@@@std@@@std@@@std@@@1@@Z ; std::_Uninitialized_backout<std::_List_unchecked_iterator<std::_List_val<std::_List_simple_types<std::pair<unsigned int const ,ResourceHandler> > > > *>::_Uninitialized_backout<std::_List_unchecked_iterator<std::_List_val<std::_List_simple_types<std::pair<unsigned int const ,ResourceHandler> > > > *>
PUBLIC	??1?$_Uninitialized_backout@PAV?$_List_unchecked_iterator@V?$_List_val@U?$_List_simple_types@U?$pair@$$CBIVResourceHandler@@@std@@@std@@@std@@@std@@@std@@QAE@XZ ; std::_Uninitialized_backout<std::_List_unchecked_iterator<std::_List_val<std::_List_simple_types<std::pair<unsigned int const ,ResourceHandler> > > > *>::~_Uninitialized_backout<std::_List_unchecked_iterator<std::_List_val<std::_List_simple_types<std::pair<unsigned int const ,ResourceHandler> > > > *>
PUBLIC	?_Release@?$_Uninitialized_backout@PAV?$_List_unchecked_iterator@V?$_List_val@U?$_List_simple_types@U?$pair@$$CBIVResourceHandler@@@std@@@std@@@std@@@std@@@std@@QAEPAV?$_List_unchecked_iterator@V?$_List_val@U?$_List_simple_types@U?$pair@$$CBIVResourceHandler@@@std@@@std@@@std@@@2@XZ ; std::_Uninitialized_backout<std::_List_unchecked_iterator<std::_List_val<std::_List_simple_types<std::pair<unsigned int const ,ResourceHandler> > > > *>::_Release
PUBLIC	??$_Emplace_back@ABV?$_List_unchecked_iterator@V?$_List_val@U?$_List_simple_types@U?$pair@$$CBIVResourceHandler@@@std@@@std@@@std@@@std@@@?$_Uninitialized_backout@PAV?$_List_unchecked_iterator@V?$_List_val@U?$_List_simple_types@U?$pair@$$CBIVResourceHandler@@@std@@@std@@@std@@@std@@@std@@QAEXABV?$_List_unchecked_iterator@V?$_List_val@U?$_List_simple_types@U?$pair@$$CBIVResourceHandler@@@std@@@std@@@std@@@1@@Z ; std::_Uninitialized_backout<std::_List_unchecked_iterator<std::_List_val<std::_List_simple_types<std::pair<unsigned int const ,ResourceHandler> > > > *>::_Emplace_back<std::_List_unchecked_iterator<std::_List_val<std::_List_simple_types<std::pair<unsigned int const ,ResourceHandler> > > > const &>
PUBLIC	??$addressof@PAU?$_List_node@U?$pair@$$CBII@std@@PAX@std@@@std@@YAPAPAU?$_List_node@U?$pair@$$CBII@std@@PAX@0@AAPAU10@@Z ; std::addressof<std::_List_node<std::pair<unsigned int const ,unsigned int>,void *> *>
PUBLIC	??$forward@AAPAU?$_List_node@U?$pair@$$CBII@std@@PAX@std@@@std@@YAAAPAU?$_List_node@U?$pair@$$CBII@std@@PAX@0@AAPAU10@@Z ; std::forward<std::_List_node<std::pair<unsigned int const ,unsigned int>,void *> * &>
PUBLIC	??$move@AAV?$allocator@U?$_List_node@U?$pair@$$CBW4ResourceType@@PAVResourceCreator@@@std@@PAX@std@@@std@@@std@@YA$$QAV?$allocator@U?$_List_node@U?$pair@$$CBW4ResourceType@@PAVResourceCreator@@@std@@PAX@std@@@0@AAV10@@Z ; std::move<std::allocator<std::_List_node<std::pair<enum ResourceType const ,ResourceCreator *>,void *> > &>
PUBLIC	??$move@AAV?$allocator@V?$_List_unchecked_iterator@V?$_List_val@U?$_List_simple_types@U?$pair@$$CBW4ResourceType@@PAVResourceCreator@@@std@@@std@@@std@@@std@@@std@@@std@@YA$$QAV?$allocator@V?$_List_unchecked_iterator@V?$_List_val@U?$_List_simple_types@U?$pair@$$CBW4ResourceType@@PAVResourceCreator@@@std@@@std@@@std@@@std@@@0@AAV10@@Z ; std::move<std::allocator<std::_List_unchecked_iterator<std::_List_val<std::_List_simple_types<std::pair<enum ResourceType const ,ResourceCreator *> > > > > &>
PUBLIC	??$move@AAI@std@@YA$$QAIAAI@Z			; std::move<unsigned int &>
PUBLIC	??$addressof@PAU?$_List_node@U?$pair@$$CBW4ResourceType@@PAVResourceCreator@@@std@@PAX@std@@@std@@YAPAPAU?$_List_node@U?$pair@$$CBW4ResourceType@@PAVResourceCreator@@@std@@PAX@0@AAPAU10@@Z ; std::addressof<std::_List_node<std::pair<enum ResourceType const ,ResourceCreator *>,void *> *>
PUBLIC	??$forward@AAPAU?$_List_node@U?$pair@$$CBW4ResourceType@@PAVResourceCreator@@@std@@PAX@std@@@std@@YAAAPAU?$_List_node@U?$pair@$$CBW4ResourceType@@PAVResourceCreator@@@std@@PAX@0@AAPAU10@@Z ; std::forward<std::_List_node<std::pair<enum ResourceType const ,ResourceCreator *>,void *> * &>
PUBLIC	??$addressof@PAU?$_List_node@U?$pair@$$CBIVResourceHandler@@@std@@PAX@std@@@std@@YAPAPAU?$_List_node@U?$pair@$$CBIVResourceHandler@@@std@@PAX@0@AAPAU10@@Z ; std::addressof<std::_List_node<std::pair<unsigned int const ,ResourceHandler>,void *> *>
PUBLIC	??$forward@AAPAU?$_List_node@U?$pair@$$CBIVResourceHandler@@@std@@PAX@std@@@std@@YAAAPAU?$_List_node@U?$pair@$$CBIVResourceHandler@@@std@@PAX@0@AAPAU10@@Z ; std::forward<std::_List_node<std::pair<unsigned int const ,ResourceHandler>,void *> * &>
PUBLIC	??$addressof@U?$pair@$$CBW4ResourceType@@PAVResourceCreator@@@std@@@std@@YAPAU?$pair@$$CBW4ResourceType@@PAVResourceCreator@@@0@AAU10@@Z ; std::addressof<std::pair<enum ResourceType const ,ResourceCreator *> >
PUBLIC	??$destroy@U?$pair@$$CBW4ResourceType@@PAVResourceCreator@@@std@@@?$_Default_allocator_traits@V?$allocator@U?$_List_node@U?$pair@$$CBW4ResourceType@@PAVResourceCreator@@@std@@PAX@std@@@std@@@std@@SAXAAV?$allocator@U?$_List_node@U?$pair@$$CBW4ResourceType@@PAVResourceCreator@@@std@@PAX@std@@@1@QAU?$pair@$$CBW4ResourceType@@PAVResourceCreator@@@1@@Z ; std::_Default_allocator_traits<std::allocator<std::_List_node<std::pair<enum ResourceType const ,ResourceCreator *>,void *> > >::destroy<std::pair<enum ResourceType const ,ResourceCreator *> >
PUBLIC	??$addressof@$$CBV?$_List_val@U?$_List_simple_types@U?$pair@$$CBIVResourceHandler@@@std@@@std@@@std@@@std@@YAPBV?$_List_val@U?$_List_simple_types@U?$pair@$$CBIVResourceHandler@@@std@@@std@@@0@ABV10@@Z ; std::addressof<std::_List_val<std::_List_simple_types<std::pair<unsigned int const ,ResourceHandler> > > const >
PUBLIC	??$_Hash_representation@W4ResourceType@@@std@@YAIABW4ResourceType@@@Z ; std::_Hash_representation<enum ResourceType>
PUBLIC	??$move@AAPAV?$_List_unchecked_iterator@V?$_List_val@U?$_List_simple_types@U?$pair@$$CBW4ResourceType@@PAVResourceCreator@@@std@@@std@@@std@@@std@@@std@@YA$$QAPAV?$_List_unchecked_iterator@V?$_List_val@U?$_List_simple_types@U?$pair@$$CBW4ResourceType@@PAVResourceCreator@@@std@@@std@@@std@@@0@AAPAV10@@Z ; std::move<std::_List_unchecked_iterator<std::_List_val<std::_List_simple_types<std::pair<enum ResourceType const ,ResourceCreator *> > > > * &>
PUBLIC	??$move@AAPAU?$_List_node@U?$pair@$$CBW4ResourceType@@PAVResourceCreator@@@std@@PAX@std@@@std@@YA$$QAPAU?$_List_node@U?$pair@$$CBW4ResourceType@@PAVResourceCreator@@@std@@PAX@0@AAPAU10@@Z ; std::move<std::_List_node<std::pair<enum ResourceType const ,ResourceCreator *>,void *> * &>
PUBLIC	?_Extract@?$_In_place_key_extract_map@IU?$pair@IVResourceHandler@@@std@@@std@@SAABIABU?$pair@IVResourceHandler@@@2@@Z ; std::_In_place_key_extract_map<unsigned int,std::pair<unsigned int,ResourceHandler> >::_Extract
PUBLIC	??$_Find_last@I@?$_Hash@V?$_Umap_traits@IVResourceHandler@@V?$_Uhash_compare@IU?$hash@I@std@@U?$equal_to@I@2@@std@@V?$allocator@U?$pair@$$CBIVResourceHandler@@@std@@@3@$0A@@std@@@std@@IBE?AU?$_Hash_find_last_result@PAU?$_List_node@U?$pair@$$CBIVResourceHandler@@@std@@PAX@std@@@1@ABII@Z ; std::_Hash<std::_Umap_traits<unsigned int,ResourceHandler,std::_Uhash_compare<unsigned int,std::hash<unsigned int>,std::equal_to<unsigned int> >,std::allocator<std::pair<unsigned int const ,ResourceHandler> >,0> >::_Find_last<unsigned int>
PUBLIC	??$?0V?$_List_iterator@V?$_List_val@U?$_List_simple_types@U?$pair@$$CBIVResourceHandler@@@std@@@std@@@std@@@std@@_N$0A@@?$pair@V?$_List_iterator@V?$_List_val@U?$_List_simple_types@U?$pair@$$CBIVResourceHandler@@@std@@@std@@@std@@@std@@_N@std@@QAE@$$QAV?$_List_iterator@V?$_List_val@U?$_List_simple_types@U?$pair@$$CBIVResourceHandler@@@std@@@std@@@std@@@1@$$QA_N@Z ; std::pair<std::_List_iterator<std::_List_val<std::_List_simple_types<std::pair<unsigned int const ,ResourceHandler> > > >,bool>::pair<std::_List_iterator<std::_List_val<std::_List_simple_types<std::pair<unsigned int const ,ResourceHandler> > > >,bool><std::_List_iterator<std::_List_val<std::_List_simple_types<std::pair<unsigned int const ,ResourceHandler> > > >,bool,0>
PUBLIC	??0?$_Alloc_construct_ptr@V?$allocator@U?$_List_node@U?$pair@$$CBIVResourceHandler@@@std@@PAX@std@@@std@@@std@@QAE@AAV?$allocator@U?$_List_node@U?$pair@$$CBIVResourceHandler@@@std@@PAX@std@@@1@@Z ; std::_Alloc_construct_ptr<std::allocator<std::_List_node<std::pair<unsigned int const ,ResourceHandler>,void *> > >::_Alloc_construct_ptr<std::allocator<std::_List_node<std::pair<unsigned int const ,ResourceHandler>,void *> > >
PUBLIC	?_Release@?$_Alloc_construct_ptr@V?$allocator@U?$_List_node@U?$pair@$$CBIVResourceHandler@@@std@@PAX@std@@@std@@@std@@QAEPAU?$_List_node@U?$pair@$$CBIVResourceHandler@@@std@@PAX@2@XZ ; std::_Alloc_construct_ptr<std::allocator<std::_List_node<std::pair<unsigned int const ,ResourceHandler>,void *> > >::_Release
PUBLIC	?_Allocate@?$_Alloc_construct_ptr@V?$allocator@U?$_List_node@U?$pair@$$CBIVResourceHandler@@@std@@PAX@std@@@std@@@std@@QAEXXZ ; std::_Alloc_construct_ptr<std::allocator<std::_List_node<std::pair<unsigned int const ,ResourceHandler>,void *> > >::_Allocate
PUBLIC	??1?$_Alloc_construct_ptr@V?$allocator@U?$_List_node@U?$pair@$$CBIVResourceHandler@@@std@@PAX@std@@@std@@@std@@QAE@XZ ; std::_Alloc_construct_ptr<std::allocator<std::_List_node<std::pair<unsigned int const ,ResourceHandler>,void *> > >::~_Alloc_construct_ptr<std::allocator<std::_List_node<std::pair<unsigned int const ,ResourceHandler>,void *> > >
PUBLIC	??1?$_List_node_emplace_op2@V?$allocator@U?$_List_node@U?$pair@$$CBIVResourceHandler@@@std@@PAX@std@@@std@@@std@@QAE@XZ ; std::_List_node_emplace_op2<std::allocator<std::_List_node<std::pair<unsigned int const ,ResourceHandler>,void *> > >::~_List_node_emplace_op2<std::allocator<std::_List_node<std::pair<unsigned int const ,ResourceHandler>,void *> > >
PUBLIC	??$?0U?$pair@IVResourceHandler@@@std@@@?$_List_node_emplace_op2@V?$allocator@U?$_List_node@U?$pair@$$CBIVResourceHandler@@@std@@PAX@std@@@std@@@std@@QAE@AAV?$allocator@U?$_List_node@U?$pair@$$CBIVResourceHandler@@@std@@PAX@std@@@1@$$QAU?$pair@IVResourceHandler@@@1@@Z ; std::_List_node_emplace_op2<std::allocator<std::_List_node<std::pair<unsigned int const ,ResourceHandler>,void *> > >::_List_node_emplace_op2<std::allocator<std::_List_node<std::pair<unsigned int const ,ResourceHandler>,void *> > ><std::pair<unsigned int,ResourceHandler> >
PUBLIC	??$_Kfn@$$CBIVResourceHandler@@@?$_Umap_traits@IVResourceHandler@@V?$_Uhash_compare@IU?$hash@I@std@@U?$equal_to@I@2@@std@@V?$allocator@U?$pair@$$CBIVResourceHandler@@@std@@@3@$0A@@std@@SAABIABU?$pair@$$CBIVResourceHandler@@@1@@Z ; std::_Umap_traits<unsigned int,ResourceHandler,std::_Uhash_compare<unsigned int,std::hash<unsigned int>,std::equal_to<unsigned int> >,std::allocator<std::pair<unsigned int const ,ResourceHandler> >,0>::_Kfn<unsigned int const ,ResourceHandler>
PUBLIC	?deallocate@?$_Default_allocator_traits@V?$allocator@U_Container_proxy@std@@@std@@@std@@SAXAAV?$allocator@U_Container_proxy@std@@@2@QAU_Container_proxy@2@I@Z ; std::_Default_allocator_traits<std::allocator<std::_Container_proxy> >::deallocate
PUBLIC	??$addressof@U?$pair@$$CBII@std@@@std@@YAPAU?$pair@$$CBII@0@AAU10@@Z ; std::addressof<std::pair<unsigned int const ,unsigned int> >
PUBLIC	??$destroy@U?$pair@$$CBII@std@@@?$_Default_allocator_traits@V?$allocator@U?$_List_node@U?$pair@$$CBII@std@@PAX@std@@@std@@@std@@SAXAAV?$allocator@U?$_List_node@U?$pair@$$CBII@std@@PAX@std@@@1@QAU?$pair@$$CBII@1@@Z ; std::_Default_allocator_traits<std::allocator<std::_List_node<std::pair<unsigned int const ,unsigned int>,void *> > >::destroy<std::pair<unsigned int const ,unsigned int> >
PUBLIC	??$destroy@U?$pair@$$CBIVResourceHandler@@@std@@@?$_Default_allocator_traits@V?$allocator@U?$_List_node@U?$pair@$$CBIVResourceHandler@@@std@@PAX@std@@@std@@@std@@SAXAAV?$allocator@U?$_List_node@U?$pair@$$CBIVResourceHandler@@@std@@PAX@std@@@1@QAU?$pair@$$CBIVResourceHandler@@@1@@Z ; std::_Default_allocator_traits<std::allocator<std::_List_node<std::pair<unsigned int const ,ResourceHandler>,void *> > >::destroy<std::pair<unsigned int const ,ResourceHandler> >
PUBLIC	??$_Verify_range@V?$_List_unchecked_iterator@V?$_List_val@U?$_List_simple_types@U?$pair@$$CBII@std@@@std@@@std@@@std@@@std@@YAXQBV?$_List_unchecked_iterator@V?$_List_val@U?$_List_simple_types@U?$pair@$$CBII@std@@@std@@@std@@@0@0@Z ; std::_Verify_range<std::_List_unchecked_iterator<std::_List_val<std::_List_simple_types<std::pair<unsigned int const ,unsigned int> > > > >
PUBLIC	??$forward@ABV?$_List_unchecked_iterator@V?$_List_val@U?$_List_simple_types@U?$pair@$$CBII@std@@@std@@@std@@@std@@@std@@YAABV?$_List_unchecked_iterator@V?$_List_val@U?$_List_simple_types@U?$pair@$$CBII@std@@@std@@@std@@@0@ABV10@@Z ; std::forward<std::_List_unchecked_iterator<std::_List_val<std::_List_simple_types<std::pair<unsigned int const ,unsigned int> > > > const &>
PUBLIC	??$_Construct_in_place@V?$_List_unchecked_iterator@V?$_List_val@U?$_List_simple_types@U?$pair@$$CBII@std@@@std@@@std@@@std@@ABV12@@std@@YAXAAV?$_List_unchecked_iterator@V?$_List_val@U?$_List_simple_types@U?$pair@$$CBII@std@@@std@@@std@@@0@ABV10@@Z ; std::_Construct_in_place<std::_List_unchecked_iterator<std::_List_val<std::_List_simple_types<std::pair<unsigned int const ,unsigned int> > > >,std::_List_unchecked_iterator<std::_List_val<std::_List_simple_types<std::pair<unsigned int const ,unsigned int> > > > const &>
PUBLIC	??$_Verify_range@V?$_List_unchecked_iterator@V?$_List_val@U?$_List_simple_types@U?$pair@$$CBW4ResourceType@@PAVResourceCreator@@@std@@@std@@@std@@@std@@@std@@YAXQBV?$_List_unchecked_iterator@V?$_List_val@U?$_List_simple_types@U?$pair@$$CBW4ResourceType@@PAVResourceCreator@@@std@@@std@@@std@@@0@0@Z ; std::_Verify_range<std::_List_unchecked_iterator<std::_List_val<std::_List_simple_types<std::pair<enum ResourceType const ,ResourceCreator *> > > > >
PUBLIC	??$forward@ABV?$_List_unchecked_iterator@V?$_List_val@U?$_List_simple_types@U?$pair@$$CBW4ResourceType@@PAVResourceCreator@@@std@@@std@@@std@@@std@@@std@@YAABV?$_List_unchecked_iterator@V?$_List_val@U?$_List_simple_types@U?$pair@$$CBW4ResourceType@@PAVResourceCreator@@@std@@@std@@@std@@@0@ABV10@@Z ; std::forward<std::_List_unchecked_iterator<std::_List_val<std::_List_simple_types<std::pair<enum ResourceType const ,ResourceCreator *> > > > const &>
PUBLIC	??$_Construct_in_place@V?$_List_unchecked_iterator@V?$_List_val@U?$_List_simple_types@U?$pair@$$CBW4ResourceType@@PAVResourceCreator@@@std@@@std@@@std@@@std@@ABV12@@std@@YAXAAV?$_List_unchecked_iterator@V?$_List_val@U?$_List_simple_types@U?$pair@$$CBW4ResourceType@@PAVResourceCreator@@@std@@@std@@@std@@@0@ABV10@@Z ; std::_Construct_in_place<std::_List_unchecked_iterator<std::_List_val<std::_List_simple_types<std::pair<enum ResourceType const ,ResourceCreator *> > > >,std::_List_unchecked_iterator<std::_List_val<std::_List_simple_types<std::pair<enum ResourceType const ,ResourceCreator *> > > > const &>
PUBLIC	??$_Verify_range@V?$_List_unchecked_iterator@V?$_List_val@U?$_List_simple_types@U?$pair@$$CBIVResourceHandler@@@std@@@std@@@std@@@std@@@std@@YAXQBV?$_List_unchecked_iterator@V?$_List_val@U?$_List_simple_types@U?$pair@$$CBIVResourceHandler@@@std@@@std@@@std@@@0@0@Z ; std::_Verify_range<std::_List_unchecked_iterator<std::_List_val<std::_List_simple_types<std::pair<unsigned int const ,ResourceHandler> > > > >
PUBLIC	??$forward@ABV?$_List_unchecked_iterator@V?$_List_val@U?$_List_simple_types@U?$pair@$$CBIVResourceHandler@@@std@@@std@@@std@@@std@@@std@@YAABV?$_List_unchecked_iterator@V?$_List_val@U?$_List_simple_types@U?$pair@$$CBIVResourceHandler@@@std@@@std@@@std@@@0@ABV10@@Z ; std::forward<std::_List_unchecked_iterator<std::_List_val<std::_List_simple_types<std::pair<unsigned int const ,ResourceHandler> > > > const &>
PUBLIC	??$_Construct_in_place@V?$_List_unchecked_iterator@V?$_List_val@U?$_List_simple_types@U?$pair@$$CBIVResourceHandler@@@std@@@std@@@std@@@std@@ABV12@@std@@YAXAAV?$_List_unchecked_iterator@V?$_List_val@U?$_List_simple_types@U?$pair@$$CBIVResourceHandler@@@std@@@std@@@std@@@0@ABV10@@Z ; std::_Construct_in_place<std::_List_unchecked_iterator<std::_List_val<std::_List_simple_types<std::pair<unsigned int const ,ResourceHandler> > > >,std::_List_unchecked_iterator<std::_List_val<std::_List_simple_types<std::pair<unsigned int const ,ResourceHandler> > > > const &>
PUBLIC	??$_Fnv1a_append_value@W4ResourceType@@@std@@YAIIABW4ResourceType@@@Z ; std::_Fnv1a_append_value<enum ResourceType>
PUBLIC	??$exchange@PAU?$_List_node@U?$pair@$$CBIVResourceHandler@@@std@@PAX@std@@$$T@std@@YAPAU?$_List_node@U?$pair@$$CBIVResourceHandler@@@std@@PAX@0@AAPAU10@$$QA$$T@Z ; std::exchange<std::_List_node<std::pair<unsigned int const ,ResourceHandler>,void *> *,std::nullptr_t>
PUBLIC	??$_Construct_in_place@PAU?$_List_node@U?$pair@$$CBIVResourceHandler@@@std@@PAX@std@@ABQAU12@@std@@YAXAAPAU?$_List_node@U?$pair@$$CBIVResourceHandler@@@std@@PAX@0@ABQAU10@@Z ; std::_Construct_in_place<std::_List_node<std::pair<unsigned int const ,ResourceHandler>,void *> *,std::_List_node<std::pair<unsigned int const ,ResourceHandler>,void *> * const &>
PUBLIC	??0_Clear_guard@?$_Hash@V?$_Umap_traits@IVResourceHandler@@V?$_Uhash_compare@IU?$hash@I@std@@U?$equal_to@I@2@@std@@V?$allocator@U?$pair@$$CBIVResourceHandler@@@std@@@3@$0A@@std@@@std@@QAE@QAV12@@Z ; std::_Hash<std::_Umap_traits<unsigned int,ResourceHandler,std::_Uhash_compare<unsigned int,std::hash<unsigned int>,std::equal_to<unsigned int> >,std::allocator<std::pair<unsigned int const ,ResourceHandler> >,0> >::_Clear_guard::_Clear_guard
PUBLIC	??1_Clear_guard@?$_Hash@V?$_Umap_traits@IVResourceHandler@@V?$_Uhash_compare@IU?$hash@I@std@@U?$equal_to@I@2@@std@@V?$allocator@U?$pair@$$CBIVResourceHandler@@@std@@@3@$0A@@std@@@std@@QAE@XZ ; std::_Hash<std::_Umap_traits<unsigned int,ResourceHandler,std::_Uhash_compare<unsigned int,std::hash<unsigned int>,std::equal_to<unsigned int> >,std::allocator<std::pair<unsigned int const ,ResourceHandler> >,0> >::_Clear_guard::~_Clear_guard
PUBLIC	??$?RII@?$_Uhash_compare@IU?$hash@I@std@@U?$equal_to@I@2@@std@@QBE_NABI0@Z ; std::_Uhash_compare<unsigned int,std::hash<unsigned int>,std::equal_to<unsigned int> >::operator()<unsigned int,unsigned int>
PUBLIC	??0_Range_eraser@?$_Hash@V?$_Umap_traits@IVResourceHandler@@V?$_Uhash_compare@IU?$hash@I@std@@U?$equal_to@I@2@@std@@V?$allocator@U?$pair@$$CBIVResourceHandler@@@std@@@3@$0A@@std@@@std@@QAE@AAV?$list@U?$pair@$$CBIVResourceHandler@@@std@@V?$allocator@U?$pair@$$CBIVResourceHandler@@@std@@@2@@2@QAU?$_List_node@U?$pair@$$CBIVResourceHandler@@@std@@PAX@2@@Z ; std::_Hash<std::_Umap_traits<unsigned int,ResourceHandler,std::_Uhash_compare<unsigned int,std::hash<unsigned int>,std::equal_to<unsigned int> >,std::allocator<std::pair<unsigned int const ,ResourceHandler> >,0> >::_Range_eraser::_Range_eraser
PUBLIC	?_Bump_erased@_Range_eraser@?$_Hash@V?$_Umap_traits@IVResourceHandler@@V?$_Uhash_compare@IU?$hash@I@std@@U?$equal_to@I@2@@std@@V?$allocator@U?$pair@$$CBIVResourceHandler@@@std@@@3@$0A@@std@@@std@@QAEXXZ ; std::_Hash<std::_Umap_traits<unsigned int,ResourceHandler,std::_Uhash_compare<unsigned int,std::hash<unsigned int>,std::equal_to<unsigned int> >,std::allocator<std::pair<unsigned int const ,ResourceHandler> >,0> >::_Range_eraser::_Bump_erased
PUBLIC	??1_Range_eraser@?$_Hash@V?$_Umap_traits@IVResourceHandler@@V?$_Uhash_compare@IU?$hash@I@std@@U?$equal_to@I@2@@std@@V?$allocator@U?$pair@$$CBIVResourceHandler@@@std@@@3@$0A@@std@@@std@@QAE@XZ ; std::_Hash<std::_Umap_traits<unsigned int,ResourceHandler,std::_Uhash_compare<unsigned int,std::hash<unsigned int>,std::equal_to<unsigned int> >,std::allocator<std::pair<unsigned int const ,ResourceHandler> >,0> >::_Range_eraser::~_Range_eraser
PUBLIC	??$forward@V?$_List_iterator@V?$_List_val@U?$_List_simple_types@U?$pair@$$CBIVResourceHandler@@@std@@@std@@@std@@@std@@@std@@YA$$QAV?$_List_iterator@V?$_List_val@U?$_List_simple_types@U?$pair@$$CBIVResourceHandler@@@std@@@std@@@std@@@0@AAV10@@Z ; std::forward<std::_List_iterator<std::_List_val<std::_List_simple_types<std::pair<unsigned int const ,ResourceHandler> > > > >
PUBLIC	??$construct@U?$pair@$$CBIVResourceHandler@@@std@@U?$pair@IVResourceHandler@@@2@@?$_Default_allocator_traits@V?$allocator@U?$_List_node@U?$pair@$$CBIVResourceHandler@@@std@@PAX@std@@@std@@@std@@SAXAAV?$allocator@U?$_List_node@U?$pair@$$CBIVResourceHandler@@@std@@PAX@std@@@1@QAU?$pair@$$CBIVResourceHandler@@@1@$$QAU?$pair@IVResourceHandler@@@1@@Z ; std::_Default_allocator_traits<std::allocator<std::_List_node<std::pair<unsigned int const ,ResourceHandler>,void *> > >::construct<std::pair<unsigned int const ,ResourceHandler>,std::pair<unsigned int,ResourceHandler> >
PUBLIC	??$addressof@V?$_List_unchecked_iterator@V?$_List_val@U?$_List_simple_types@U?$pair@$$CBII@std@@@std@@@std@@@std@@@std@@YAPAV?$_List_unchecked_iterator@V?$_List_val@U?$_List_simple_types@U?$pair@$$CBII@std@@@std@@@std@@@0@AAV10@@Z ; std::addressof<std::_List_unchecked_iterator<std::_List_val<std::_List_simple_types<std::pair<unsigned int const ,unsigned int> > > > >
PUBLIC	??$addressof@V?$_List_unchecked_iterator@V?$_List_val@U?$_List_simple_types@U?$pair@$$CBW4ResourceType@@PAVResourceCreator@@@std@@@std@@@std@@@std@@@std@@YAPAV?$_List_unchecked_iterator@V?$_List_val@U?$_List_simple_types@U?$pair@$$CBW4ResourceType@@PAVResourceCreator@@@std@@@std@@@std@@@0@AAV10@@Z ; std::addressof<std::_List_unchecked_iterator<std::_List_val<std::_List_simple_types<std::pair<enum ResourceType const ,ResourceCreator *> > > > >
PUBLIC	??$addressof@V?$_List_unchecked_iterator@V?$_List_val@U?$_List_simple_types@U?$pair@$$CBIVResourceHandler@@@std@@@std@@@std@@@std@@@std@@YAPAV?$_List_unchecked_iterator@V?$_List_val@U?$_List_simple_types@U?$pair@$$CBIVResourceHandler@@@std@@@std@@@std@@@0@AAV10@@Z ; std::addressof<std::_List_unchecked_iterator<std::_List_val<std::_List_simple_types<std::pair<unsigned int const ,ResourceHandler> > > > >
PUBLIC	??$forward@ABQAU?$_List_node@U?$pair@$$CBIVResourceHandler@@@std@@PAX@std@@@std@@YAABQAU?$_List_node@U?$pair@$$CBIVResourceHandler@@@std@@PAX@0@ABQAU10@@Z ; std::forward<std::_List_node<std::pair<unsigned int const ,ResourceHandler>,void *> * const &>
PUBLIC	__JustMyCode_Default
PUBLIC	??_C@_00CNPNBAHC@@				; `string'
PUBLIC	??_C@_02DKCKIIND@?$CFs@				; `string'
PUBLIC	??_7exception@std@@6B@				; std::exception::`vftable'
PUBLIC	??_C@_0BC@EOODALEL@Unknown?5exception@		; `string'
PUBLIC	??_7bad_alloc@std@@6B@				; std::bad_alloc::`vftable'
PUBLIC	??_7bad_array_new_length@std@@6B@		; std::bad_array_new_length::`vftable'
PUBLIC	??_C@_0BF@KINCDENJ@bad?5array?5new?5length@	; `string'
PUBLIC	__TI3?AVbad_array_new_length@std@@
PUBLIC	__CTA3?AVbad_array_new_length@std@@
PUBLIC	??_R0?AVbad_array_new_length@std@@@8		; std::bad_array_new_length `RTTI Type Descriptor'
PUBLIC	__CT??_R0?AVbad_array_new_length@std@@@8??0bad_array_new_length@std@@QAE@ABV01@@Z12
PUBLIC	??_R0?AVbad_alloc@std@@@8			; std::bad_alloc `RTTI Type Descriptor'
PUBLIC	__CT??_R0?AVbad_alloc@std@@@8??0bad_alloc@std@@QAE@ABV01@@Z12
PUBLIC	??_R0?AVexception@std@@@8			; std::exception `RTTI Type Descriptor'
PUBLIC	__CT??_R0?AVexception@std@@@8??0exception@std@@QAE@ABV01@@Z12
PUBLIC	?__LINE__Var@?0??_Adjust_manually_vector_aligned@std@@YAXAAPAXAAI@Z@4JA ; `std::_Adjust_manually_vector_aligned'::`1'::__LINE__Var
PUBLIC	??_C@_0BB@FCMFBGOM@invalid?5argument@		; `string'
PUBLIC	??_C@_0GL@KFPMFPIC@C?3?2Program?5Files?5?$CIx86?$CJ?2Microsof@ ; `string'
PUBLIC	??_C@_1NG@FKHEBIAG@?$AAC?$AA?3?$AA?2?$AAP?$AAr?$AAo?$AAg?$AAr?$AAa?$AAm?$AA?5?$AAF?$AAi?$AAl?$AAe@ ; `string'
PUBLIC	??_C@_1EK@NIFDJFDG@?$AAs?$AAt?$AAd?$AA?3?$AA?3?$AA_?$AAA?$AAd?$AAj?$AAu?$AAs?$AAt?$AA_?$AAm?$AAa@ ; `string'
PUBLIC	??_C@_1CG@JNLFBNGN@?$AA?$CC?$AAi?$AAn?$AAv?$AAa?$AAl?$AAi?$AAd?$AA?5?$AAa?$AAr?$AAg?$AAu?$AAm?$AAe@ ; `string'
PUBLIC	??_C@_0BJ@LFDBABJJ@ITERATOR?5LIST?5CORRUPTED?$CB@ ; `string'
PUBLIC	??_C@_1EE@KLDMFDFL@?$AAs?$AAt?$AAd?$AA?3?$AA?3?$AA_?$AAI?$AAt?$AAe?$AAr?$AAa?$AAt?$AAo?$AAr?$AA_@ ; `string'
PUBLIC	??_C@_1DG@PLBPCAEM@?$AA?$CC?$AAI?$AAT?$AAE?$AAR?$AAA?$AAT?$AAO?$AAR?$AA?5?$AAL?$AAI?$AAS?$AAT?$AA?5@ ; `string'
PUBLIC	??_C@_0BA@JFNIOLAK@string?5too?5long@		; `string'
PUBLIC	??_7runtime_error@std@@6B@			; std::runtime_error::`vftable'
PUBLIC	??_R0?AVruntime_error@std@@@8			; std::runtime_error `RTTI Type Descriptor'
PUBLIC	__CT??_R0?AVruntime_error@std@@@8??0runtime_error@std@@QAE@ABV01@@Z12
PUBLIC	??_7_System_error@std@@6B@			; std::_System_error::`vftable'
PUBLIC	??_C@_02LMMGGCAJ@?3?5@				; `string'
PUBLIC	??_7system_error@std@@6B@			; std::system_error::`vftable'
PUBLIC	__TI4?AVsystem_error@std@@
PUBLIC	__CTA4?AVsystem_error@std@@
PUBLIC	??_R0?AVsystem_error@std@@@8			; std::system_error `RTTI Type Descriptor'
PUBLIC	__CT??_R0?AVsystem_error@std@@@8??0system_error@std@@QAE@ABV01@@Z20
PUBLIC	??_R0?AV_System_error@std@@@8			; std::_System_error `RTTI Type Descriptor'
PUBLIC	__CT??_R0?AV_System_error@std@@@8??0_System_error@std@@QAE@ABV01@@Z20
PUBLIC	??_7_Generic_error_category@std@@6B@		; std::_Generic_error_category::`vftable'
PUBLIC	??_C@_07DCLBNMLN@generic@			; `string'
PUBLIC	?_Min_buckets@?$_Hash@V?$_Umap_traits@IVResourceHandler@@V?$_Uhash_compare@IU?$hash@I@std@@U?$equal_to@I@2@@std@@V?$allocator@U?$pair@$$CBIVResourceHandler@@@std@@@3@$0A@@std@@@std@@2IB ; std::_Hash<std::_Umap_traits<unsigned int,ResourceHandler,std::_Uhash_compare<unsigned int,std::hash<unsigned int>,std::equal_to<unsigned int> >,std::allocator<std::pair<unsigned int const ,ResourceHandler> >,0> >::_Min_buckets
PUBLIC	??_7ResourceCreator@@6B@			; ResourceCreator::`vftable'
PUBLIC	??_7DefaultResourceCreator@@6B@			; DefaultResourceCreator::`vftable'
PUBLIC	??_C@_01NBENCBCI@?$CK@				; `string'
PUBLIC	??_7FileSystem@@6B@				; FileSystem::`vftable'
PUBLIC	??_7IndexedFileSystem@@6B@			; IndexedFileSystem::`vftable'
PUBLIC	??_7ZipFileSystem@@6B@				; ZipFileSystem::`vftable'
PUBLIC	??_C@_0GL@NDAGNCF@C?3?2Program?5Files?5?$CIx86?$CJ?2Microsof@ ; `string'
PUBLIC	?__LINE__Var@?0??_Maklocwcs@std@@YAPA_WPB_W@Z@4JA ; `std::_Maklocwcs'::`1'::__LINE__Var
PUBLIC	??_C@_0GL@IOHNGPIE@C?3?2Program?5Files?5?$CIx86?$CJ?2Microsof@ ; `string'
PUBLIC	??_7NativeFileSystem@@6B@			; NativeFileSystem::`vftable'
PUBLIC	??_C@_0L@EIDODEPL@Assets?4zip@			; `string'
PUBLIC	??_C@_0BM@BALDKKHE@list?5iterators?5incompatible@ ; `string'
PUBLIC	??_C@_0GI@DIELDAIG@C?3?2Program?5Files?5?$CIx86?$CJ?2Microsof@ ; `string'
PUBLIC	??_C@_1NA@FLPGDINF@?$AAC?$AA?3?$AA?2?$AAP?$AAr?$AAo?$AAg?$AAr?$AAa?$AAm?$AA?5?$AAF?$AAi?$AAl?$AAe@ ; `string'
PUBLIC	??_C@_1BDK@GJICOFCC@?$AAs?$AAt?$AAd?$AA?3?$AA?3?$AA_?$AAL?$AAi?$AAs?$AAt?$AA_?$AAc?$AAo?$AAn?$AAs@ ; `string'
PUBLIC	??_C@_1DM@KDLJAKOP@?$AA?$CC?$AAl?$AAi?$AAs?$AAt?$AA?5?$AAi?$AAt?$AAe?$AAr?$AAa?$AAt?$AAo?$AAr?$AAs@ ; `string'
PUBLIC	??_C@_0N@LPFKKEBD@?3AM?3am?3PM?3pm@		; `string'
PUBLIC	??_C@_0DD@MBIHGLJE@cannot?5dereference?5value?9initia@ ; `string'
PUBLIC	??_C@_1GK@NKIMOCIG@?$AA?$CC?$AAc?$AAa?$AAn?$AAn?$AAo?$AAt?$AA?5?$AAd?$AAe?$AAr?$AAe?$AAf?$AAe?$AAr@ ; `string'
PUBLIC	??_C@_0CF@JCBFHMPL@cannot?5dereference?5end?5list?5ite@ ; `string'
PUBLIC	??_C@_1EO@CNEFBDCF@?$AA?$CC?$AAc?$AAa?$AAn?$AAn?$AAo?$AAt?$AA?5?$AAd?$AAe?$AAr?$AAe?$AAf?$AAe?$AAr@ ; `string'
PUBLIC	??_C@_1BDI@DOLLGKIL@?$AAs?$AAt?$AAd?$AA?3?$AA?3?$AA_?$AAL?$AAi?$AAs?$AAt?$AA_?$AAc?$AAo?$AAn?$AAs@ ; `string'
PUBLIC	??_C@_0BH@EDKEEENI@deque?5empty?5before?5pop@	; `string'
PUBLIC	??_C@_0GJ@JOABDPBH@C?3?2Program?5Files?5?$CIx86?$CJ?2Microsof@ ; `string'
PUBLIC	??_C@_1NC@ENPMJHKL@?$AAC?$AA?3?$AA?2?$AAP?$AAr?$AAo?$AAg?$AAr?$AAa?$AAm?$AA?5?$AAF?$AAi?$AAl?$AAe@ ; `string'
PUBLIC	??_C@_1BDG@ONCOIODA@?$AAs?$AAt?$AAd?$AA?3?$AA?3?$AAd?$AAe?$AAq?$AAu?$AAe?$AA?$DM?$AAs?$AAt?$AAr?$AAu@ ; `string'
PUBLIC	??_C@_1DC@NJAACHCD@?$AA?$CC?$AAd?$AAe?$AAq?$AAu?$AAe?$AA?5?$AAe?$AAm?$AAp?$AAt?$AAy?$AA?5?$AAb?$AAe@ ; `string'
PUBLIC	?_Static@?1???$_Immortalize_memcpy_image@V_Generic_error_category@std@@@std@@YAABV_Generic_error_category@1@XZ@4U?$_Constexpr_immortalize_impl@V_Generic_error_category@std@@@1@A ; `std::_Immortalize_memcpy_image<std::_Generic_error_category>'::`2'::_Static
PUBLIC	??_C@_1BK@MHIKGOKE@?$AA?3?$AAA?$AAM?$AA?3?$AAa?$AAm?$AA?3?$AAP?$AAM?$AA?3?$AAp?$AAm@ ; `string'
PUBLIC	??_C@_0GM@MAOIBKAD@C?3?2Program?5Files?5?$CIx86?$CJ?2Microsof@ ; `string'
PUBLIC	??_C@_1NI@EIPGEIKG@?$AAC?$AA?3?$AA?2?$AAP?$AAr?$AAo?$AAg?$AAr?$AAa?$AAm?$AA?5?$AAF?$AAi?$AAl?$AAe@ ; `string'
PUBLIC	??_C@_1CG@LJCPDKEJ@?$AAs?$AAt?$AAd?$AA?3?$AA?3?$AA_?$AAV?$AAe?$AAr?$AAi?$AAf?$AAy?$AA_?$AAr?$AAa@ ; `string'
PUBLIC	??_C@_0BJ@HAJGEHKO@transposed?5pointer?5range@	; `string'
PUBLIC	??_C@_1DG@FJIKMGFD@?$AA?$CC?$AAt?$AAr?$AAa?$AAn?$AAs?$AAp?$AAo?$AAs?$AAe?$AAd?$AA?5?$AAp?$AAo?$AAi@ ; `string'
PUBLIC	??_C@_1EO@GFNCMDLA@?$AAs?$AAt?$AAd?$AA?3?$AA?3?$AA_?$AAA?$AAl?$AAl?$AAo?$AAc?$AAa?$AAt?$AAe?$AA_@ ; `string'
PUBLIC	??_C@_0BL@GOIGLPKN@unordered_map?1set?5too?5long@ ; `string'
PUBLIC	??_C@_0BK@OGNNAFAB@invalid?5hash?5bucket?5count@ ; `string'
PUBLIC	??_R4exception@std@@6B@				; std::exception::`RTTI Complete Object Locator'
PUBLIC	??_R3exception@std@@8				; std::exception::`RTTI Class Hierarchy Descriptor'
PUBLIC	??_R2exception@std@@8				; std::exception::`RTTI Base Class Array'
PUBLIC	??_R1A@?0A@EA@exception@std@@8			; std::exception::`RTTI Base Class Descriptor at (0,-1,0,64)'
PUBLIC	??_R4bad_alloc@std@@6B@				; std::bad_alloc::`RTTI Complete Object Locator'
PUBLIC	??_R3bad_alloc@std@@8				; std::bad_alloc::`RTTI Class Hierarchy Descriptor'
PUBLIC	??_R2bad_alloc@std@@8				; std::bad_alloc::`RTTI Base Class Array'
PUBLIC	??_R1A@?0A@EA@bad_alloc@std@@8			; std::bad_alloc::`RTTI Base Class Descriptor at (0,-1,0,64)'
PUBLIC	??_R4bad_array_new_length@std@@6B@		; std::bad_array_new_length::`RTTI Complete Object Locator'
PUBLIC	??_R3bad_array_new_length@std@@8		; std::bad_array_new_length::`RTTI Class Hierarchy Descriptor'
PUBLIC	??_R2bad_array_new_length@std@@8		; std::bad_array_new_length::`RTTI Base Class Array'
PUBLIC	??_R1A@?0A@EA@bad_array_new_length@std@@8	; std::bad_array_new_length::`RTTI Base Class Descriptor at (0,-1,0,64)'
PUBLIC	??_R4runtime_error@std@@6B@			; std::runtime_error::`RTTI Complete Object Locator'
PUBLIC	??_R3runtime_error@std@@8			; std::runtime_error::`RTTI Class Hierarchy Descriptor'
PUBLIC	??_R2runtime_error@std@@8			; std::runtime_error::`RTTI Base Class Array'
PUBLIC	??_R1A@?0A@EA@runtime_error@std@@8		; std::runtime_error::`RTTI Base Class Descriptor at (0,-1,0,64)'
PUBLIC	??_R0?AVerror_category@std@@@8			; std::error_category `RTTI Type Descriptor'
PUBLIC	??_R3error_category@std@@8			; std::error_category::`RTTI Class Hierarchy Descriptor'
PUBLIC	??_R2error_category@std@@8			; std::error_category::`RTTI Base Class Array'
PUBLIC	??_R1A@?0A@EA@error_category@std@@8		; std::error_category::`RTTI Base Class Descriptor at (0,-1,0,64)'
PUBLIC	??_R4_System_error@std@@6B@			; std::_System_error::`RTTI Complete Object Locator'
PUBLIC	??_R3_System_error@std@@8			; std::_System_error::`RTTI Class Hierarchy Descriptor'
PUBLIC	??_R2_System_error@std@@8			; std::_System_error::`RTTI Base Class Array'
PUBLIC	??_R1A@?0A@EA@_System_error@std@@8		; std::_System_error::`RTTI Base Class Descriptor at (0,-1,0,64)'
PUBLIC	??_R4system_error@std@@6B@			; std::system_error::`RTTI Complete Object Locator'
PUBLIC	??_R3system_error@std@@8			; std::system_error::`RTTI Class Hierarchy Descriptor'
PUBLIC	??_R2system_error@std@@8			; std::system_error::`RTTI Base Class Array'
PUBLIC	??_R1A@?0A@EA@system_error@std@@8		; std::system_error::`RTTI Base Class Descriptor at (0,-1,0,64)'
PUBLIC	??_R4_Generic_error_category@std@@6B@		; std::_Generic_error_category::`RTTI Complete Object Locator'
PUBLIC	??_R0?AV_Generic_error_category@std@@@8		; std::_Generic_error_category `RTTI Type Descriptor'
PUBLIC	??_R3_Generic_error_category@std@@8		; std::_Generic_error_category::`RTTI Class Hierarchy Descriptor'
PUBLIC	??_R2_Generic_error_category@std@@8		; std::_Generic_error_category::`RTTI Base Class Array'
PUBLIC	??_R1A@?0A@EA@_Generic_error_category@std@@8	; std::_Generic_error_category::`RTTI Base Class Descriptor at (0,-1,0,64)'
PUBLIC	??_R4ResourceCreator@@6B@			; ResourceCreator::`RTTI Complete Object Locator'
PUBLIC	??_R0?AVResourceCreator@@@8			; ResourceCreator `RTTI Type Descriptor'
PUBLIC	??_R3ResourceCreator@@8				; ResourceCreator::`RTTI Class Hierarchy Descriptor'
PUBLIC	??_R2ResourceCreator@@8				; ResourceCreator::`RTTI Base Class Array'
PUBLIC	??_R1A@?0A@EA@ResourceCreator@@8		; ResourceCreator::`RTTI Base Class Descriptor at (0,-1,0,64)'
PUBLIC	??_R4DefaultResourceCreator@@6B@		; DefaultResourceCreator::`RTTI Complete Object Locator'
PUBLIC	??_R0?AVDefaultResourceCreator@@@8		; DefaultResourceCreator `RTTI Type Descriptor'
PUBLIC	??_R3DefaultResourceCreator@@8			; DefaultResourceCreator::`RTTI Class Hierarchy Descriptor'
PUBLIC	??_R2DefaultResourceCreator@@8			; DefaultResourceCreator::`RTTI Base Class Array'
PUBLIC	??_R1A@?0A@EA@DefaultResourceCreator@@8		; DefaultResourceCreator::`RTTI Base Class Descriptor at (0,-1,0,64)'
PUBLIC	??_R4ZipFileSystem@@6B@				; ZipFileSystem::`RTTI Complete Object Locator'
PUBLIC	??_R0?AVZipFileSystem@@@8			; ZipFileSystem `RTTI Type Descriptor'
PUBLIC	??_R3ZipFileSystem@@8				; ZipFileSystem::`RTTI Class Hierarchy Descriptor'
PUBLIC	??_R2ZipFileSystem@@8				; ZipFileSystem::`RTTI Base Class Array'
PUBLIC	??_R1A@?0A@EA@ZipFileSystem@@8			; ZipFileSystem::`RTTI Base Class Descriptor at (0,-1,0,64)'
PUBLIC	??_R1A@?0A@EA@IndexedFileSystem@@8		; IndexedFileSystem::`RTTI Base Class Descriptor at (0,-1,0,64)'
PUBLIC	??_R0?AVIndexedFileSystem@@@8			; IndexedFileSystem `RTTI Type Descriptor'
PUBLIC	??_R3IndexedFileSystem@@8			; IndexedFileSystem::`RTTI Class Hierarchy Descriptor'
PUBLIC	??_R2IndexedFileSystem@@8			; IndexedFileSystem::`RTTI Base Class Array'
PUBLIC	??_R1A@?0A@EA@FileSystem@@8			; FileSystem::`RTTI Base Class Descriptor at (0,-1,0,64)'
PUBLIC	??_R0?AVFileSystem@@@8				; FileSystem `RTTI Type Descriptor'
PUBLIC	??_R3FileSystem@@8				; FileSystem::`RTTI Class Hierarchy Descriptor'
PUBLIC	??_R2FileSystem@@8				; FileSystem::`RTTI Base Class Array'
PUBLIC	??_R4NativeFileSystem@@6B@			; NativeFileSystem::`RTTI Complete Object Locator'
PUBLIC	??_R0?AVNativeFileSystem@@@8			; NativeFileSystem `RTTI Type Descriptor'
PUBLIC	??_R3NativeFileSystem@@8			; NativeFileSystem::`RTTI Class Hierarchy Descriptor'
PUBLIC	??_R2NativeFileSystem@@8			; NativeFileSystem::`RTTI Base Class Array'
PUBLIC	??_R1A@?0A@EA@NativeFileSystem@@8		; NativeFileSystem::`RTTI Base Class Descriptor at (0,-1,0,64)'
PUBLIC	??_R4FileSystem@@6B@				; FileSystem::`RTTI Complete Object Locator'
PUBLIC	??_R4IndexedFileSystem@@6B@			; IndexedFileSystem::`RTTI Complete Object Locator'
PUBLIC	__real@3f800000
PUBLIC	__xmm@41f00000000000000000000000000000
EXTRN	__purecall:PROC
EXTRN	??2@YAPAXI@Z:PROC				; operator new
EXTRN	??3@YAXPAXI@Z:PROC				; operator delete
EXTRN	_atexit:PROC
EXTRN	__Init_thread_header:PROC
EXTRN	__Init_thread_abort:PROC
EXTRN	__Init_thread_footer:PROC
EXTRN	__imp___invalid_parameter:PROC
EXTRN	__imp___calloc_dbg:PROC
EXTRN	__imp___CrtDbgReport:PROC
EXTRN	__imp_??0_Lockit@std@@QAE@H@Z:PROC
EXTRN	__imp_??1_Lockit@std@@QAE@XZ:PROC
EXTRN	??0ResourceName@@QAE@PBD@Z:PROC			; ResourceName::ResourceName
EXTRN	?hash@ResourceName@@QBEIXZ:PROC			; ResourceName::hash
EXTRN	_memcpy:PROC
EXTRN	_memmove:PROC
EXTRN	__imp__wcslen:PROC
EXTRN	_strlen:PROC
EXTRN	__imp__ceil:PROC
EXTRN	__Mtx_init_in_situ:PROC
EXTRN	__Mtx_destroy_in_situ:PROC
EXTRN	__Mtx_lock:PROC
EXTRN	__Mtx_unlock:PROC
EXTRN	__Cnd_init_in_situ:PROC
EXTRN	__Cnd_destroy_in_situ:PROC
EXTRN	?_Throw_C_error@std@@YAXH@Z:PROC		; std::_Throw_C_error
EXTRN	??0ResourceReference@@QAE@AAVResourceHandler@@@Z:PROC ; ResourceReference::ResourceReference
EXTRN	___std_exception_copy:PROC
EXTRN	___std_exception_destroy:PROC
EXTRN	??_Eexception@std@@UAEPAXI@Z:PROC		; std::exception::`vector deleting destructor'
EXTRN	??_Ebad_alloc@std@@UAEPAXI@Z:PROC		; std::bad_alloc::`vector deleting destructor'
EXTRN	??_Ebad_array_new_length@std@@UAEPAXI@Z:PROC	; std::bad_array_new_length::`vector deleting destructor'
EXTRN	?_Xbad_alloc@std@@YAXXZ:PROC			; std::_Xbad_alloc
EXTRN	?_Xlength_error@std@@YAXPBD@Z:PROC		; std::_Xlength_error
EXTRN	??_Eruntime_error@std@@UAEPAXI@Z:PROC		; std::runtime_error::`vector deleting destructor'
EXTRN	??_E_System_error@std@@UAEPAXI@Z:PROC		; std::_System_error::`vector deleting destructor'
EXTRN	??_Esystem_error@std@@UAEPAXI@Z:PROC		; std::system_error::`vector deleting destructor'
EXTRN	?_Syserror_map@std@@YAPBDH@Z:PROC		; std::_Syserror_map
EXTRN	??_E_Generic_error_category@std@@UAEPAXI@Z:PROC	; std::_Generic_error_category::`vector deleting destructor'
EXTRN	??_EResourceCreator@@UAEPAXI@Z:PROC		; ResourceCreator::`vector deleting destructor'
EXTRN	?createResourceFromZipFileSystem@DefaultResourceCreator@@UAEXAAVResourceHandler@@IAAVZipFileSystem@@@Z:PROC ; DefaultResourceCreator::createResourceFromZipFileSystem
EXTRN	?createResourceFromMemory@DefaultResourceCreator@@UAEXAAVResourceHandler@@PAXI@Z:PROC ; DefaultResourceCreator::createResourceFromMemory
EXTRN	??_EDefaultResourceCreator@@UAEPAXI@Z:PROC	; DefaultResourceCreator::`vector deleting destructor'
EXTRN	??_EFileSystem@@UAEPAXI@Z:PROC			; FileSystem::`vector deleting destructor'
EXTRN	??_EIndexedFileSystem@@UAEPAXI@Z:PROC		; IndexedFileSystem::`vector deleting destructor'
EXTRN	?release@ZipFile@@QAEXXZ:PROC			; ZipFile::release
EXTRN	?init@ZipFileSystem@@UAE_NABVResourceName@@@Z:PROC ; ZipFileSystem::init
EXTRN	?release@ZipFileSystem@@UAEXXZ:PROC		; ZipFileSystem::release
EXTRN	?getResourceSize@ZipFileSystem@@UAE_NABVResourceName@@AAI@Z:PROC ; ZipFileSystem::getResourceSize
EXTRN	?getResourceSize@ZipFileSystem@@UAE_NIAAI@Z:PROC ; ZipFileSystem::getResourceSize
EXTRN	?getResourceData@ZipFileSystem@@UAE_NABVResourceName@@PAXI@Z:PROC ; ZipFileSystem::getResourceData
EXTRN	?getResourceData@ZipFileSystem@@UAE_NIPAXI@Z:PROC ; ZipFileSystem::getResourceData
EXTRN	?getResourceBinaryData@ZipFileSystem@@UAE_NABVResourceName@@PAXI@Z:PROC ; ZipFileSystem::getResourceBinaryData
EXTRN	?getResourceBinaryData@ZipFileSystem@@UAE_NIPAXI@Z:PROC ; ZipFileSystem::getResourceBinaryData
EXTRN	?getResourceName@ZipFileSystem@@QAE?AVResourceName@@I@Z:PROC ; ZipFileSystem::getResourceName
EXTRN	??_EZipFileSystem@@UAEPAXI@Z:PROC		; ZipFileSystem::`vector deleting destructor'
EXTRN	__Mbrtowc:PROC
EXTRN	__imp_?_Getcvt@_Locinfo@std@@QBE?AU_Cvtvec@@XZ:PROC
EXTRN	__imp_?_Getdays@_Locinfo@std@@QBEPBDXZ:PROC
EXTRN	__imp_?_Getmonths@_Locinfo@std@@QBEPBDXZ:PROC
EXTRN	__imp_?_W_Getdays@_Locinfo@std@@QBEPBGXZ:PROC
EXTRN	__imp_?_W_Getmonths@_Locinfo@std@@QBEPBGXZ:PROC
EXTRN	?getResourceSize@NativeFileSystem@@UAE_NABVResourceName@@AAI@Z:PROC ; NativeFileSystem::getResourceSize
EXTRN	?getResourceData@NativeFileSystem@@UAE_NABVResourceName@@PAXI@Z:PROC ; NativeFileSystem::getResourceData
EXTRN	?getResourceBinaryData@NativeFileSystem@@UAE_NABVResourceName@@PAXI@Z:PROC ; NativeFileSystem::getResourceBinaryData
EXTRN	??_ENativeFileSystem@@UAEPAXI@Z:PROC		; NativeFileSystem::`vector deleting destructor'
EXTRN	?release@ResourceAsyncLoader@@QAEXXZ:PROC	; ResourceAsyncLoader::release
EXTRN	?loadResource@ResourceAsyncLoader@@QAEXIAAVResourceHandler@@@Z:PROC ; ResourceAsyncLoader::loadResource
EXTRN	?WildcardMatch@@YA_NPBD0@Z:PROC			; WildcardMatch
EXTRN	@_RTC_CheckStackVars@8:PROC
EXTRN	@__CheckForDebuggerJustMyCode@4:PROC
EXTRN	@__security_check_cookie@4:PROC
EXTRN	__CxxThrowException@8:PROC
EXTRN	__RTC_CheckEsp:PROC
EXTRN	__RTC_InitBase:PROC
EXTRN	__RTC_Shutdown:PROC
EXTRN	___CxxFrameHandler3:PROC
EXTRN	__ftoui3:PROC
EXTRN	_memset:PROC
EXTRN	__Init_thread_epoch:DWORD
EXTRN	??_7type_info@@6B@:QWORD			; type_info::`vftable'
EXTRN	___security_cookie:DWORD
EXTRN	__fltused:DWORD
EXTRN	__tls_array:DWORD
EXTRN	__tls_index:DWORD
_BSS	SEGMENT
?uniqueResourceManager@?1??get@ResourceManager@@SAAAV2@XZ@4V2@A DB 090H DUP (?) ; `ResourceManager::get'::`2'::uniqueResourceManager
?$TSS0@?1??get@ResourceManager@@SAAAV2@XZ@4HA DD 01H DUP (?) ; `ResourceManager::get'::`2'::$TSS0
_BSS	ENDS
;	COMDAT __xmm@41f00000000000000000000000000000
CONST	SEGMENT
__xmm@41f00000000000000000000000000000 DB 00H, 00H, 00H, 00H, 00H, 00H, 00H
	DB	00H, 00H, 00H, 00H, 00H, 00H, 00H, 0f0H, 'A'
CONST	ENDS
;	COMDAT __real@3f800000
CONST	SEGMENT
__real@3f800000 DD 03f800000r			; 1
CONST	ENDS
;	COMDAT rtc$TMZ
rtc$TMZ	SEGMENT
__RTC_Shutdown.rtc$TMZ DD FLAT:__RTC_Shutdown
rtc$TMZ	ENDS
;	COMDAT rtc$IMZ
rtc$IMZ	SEGMENT
__RTC_InitBase.rtc$IMZ DD FLAT:__RTC_InitBase
rtc$IMZ	ENDS
;	COMDAT ??_R4IndexedFileSystem@@6B@
rdata$r	SEGMENT
??_R4IndexedFileSystem@@6B@ DD 00H			; IndexedFileSystem::`RTTI Complete Object Locator'
	DD	00H
	DD	00H
	DD	FLAT:??_R0?AVIndexedFileSystem@@@8
	DD	FLAT:??_R3IndexedFileSystem@@8
rdata$r	ENDS
;	COMDAT ??_R4FileSystem@@6B@
rdata$r	SEGMENT
??_R4FileSystem@@6B@ DD 00H				; FileSystem::`RTTI Complete Object Locator'
	DD	00H
	DD	00H
	DD	FLAT:??_R0?AVFileSystem@@@8
	DD	FLAT:??_R3FileSystem@@8
rdata$r	ENDS
;	COMDAT ??_R1A@?0A@EA@NativeFileSystem@@8
rdata$r	SEGMENT
??_R1A@?0A@EA@NativeFileSystem@@8 DD FLAT:??_R0?AVNativeFileSystem@@@8 ; NativeFileSystem::`RTTI Base Class Descriptor at (0,-1,0,64)'
	DD	01H
	DD	00H
	DD	0ffffffffH
	DD	00H
	DD	040H
	DD	FLAT:??_R3NativeFileSystem@@8
rdata$r	ENDS
;	COMDAT ??_R2NativeFileSystem@@8
rdata$r	SEGMENT
??_R2NativeFileSystem@@8 DD FLAT:??_R1A@?0A@EA@NativeFileSystem@@8 ; NativeFileSystem::`RTTI Base Class Array'
	DD	FLAT:??_R1A@?0A@EA@FileSystem@@8
rdata$r	ENDS
;	COMDAT ??_R3NativeFileSystem@@8
rdata$r	SEGMENT
??_R3NativeFileSystem@@8 DD 00H				; NativeFileSystem::`RTTI Class Hierarchy Descriptor'
	DD	00H
	DD	02H
	DD	FLAT:??_R2NativeFileSystem@@8
rdata$r	ENDS
;	COMDAT ??_R0?AVNativeFileSystem@@@8
data$rs	SEGMENT
??_R0?AVNativeFileSystem@@@8 DD FLAT:??_7type_info@@6B@	; NativeFileSystem `RTTI Type Descriptor'
	DD	00H
	DB	'.?AVNativeFileSystem@@', 00H
data$rs	ENDS
;	COMDAT ??_R4NativeFileSystem@@6B@
rdata$r	SEGMENT
??_R4NativeFileSystem@@6B@ DD 00H			; NativeFileSystem::`RTTI Complete Object Locator'
	DD	00H
	DD	00H
	DD	FLAT:??_R0?AVNativeFileSystem@@@8
	DD	FLAT:??_R3NativeFileSystem@@8
rdata$r	ENDS
;	COMDAT ??_R2FileSystem@@8
rdata$r	SEGMENT
??_R2FileSystem@@8 DD FLAT:??_R1A@?0A@EA@FileSystem@@8	; FileSystem::`RTTI Base Class Array'
rdata$r	ENDS
;	COMDAT ??_R3FileSystem@@8
rdata$r	SEGMENT
??_R3FileSystem@@8 DD 00H				; FileSystem::`RTTI Class Hierarchy Descriptor'
	DD	00H
	DD	01H
	DD	FLAT:??_R2FileSystem@@8
rdata$r	ENDS
;	COMDAT ??_R0?AVFileSystem@@@8
data$rs	SEGMENT
??_R0?AVFileSystem@@@8 DD FLAT:??_7type_info@@6B@	; FileSystem `RTTI Type Descriptor'
	DD	00H
	DB	'.?AVFileSystem@@', 00H
data$rs	ENDS
;	COMDAT ??_R1A@?0A@EA@FileSystem@@8
rdata$r	SEGMENT
??_R1A@?0A@EA@FileSystem@@8 DD FLAT:??_R0?AVFileSystem@@@8 ; FileSystem::`RTTI Base Class Descriptor at (0,-1,0,64)'
	DD	00H
	DD	00H
	DD	0ffffffffH
	DD	00H
	DD	040H
	DD	FLAT:??_R3FileSystem@@8
rdata$r	ENDS
;	COMDAT ??_R2IndexedFileSystem@@8
rdata$r	SEGMENT
??_R2IndexedFileSystem@@8 DD FLAT:??_R1A@?0A@EA@IndexedFileSystem@@8 ; IndexedFileSystem::`RTTI Base Class Array'
	DD	FLAT:??_R1A@?0A@EA@FileSystem@@8
rdata$r	ENDS
;	COMDAT ??_R3IndexedFileSystem@@8
rdata$r	SEGMENT
??_R3IndexedFileSystem@@8 DD 00H			; IndexedFileSystem::`RTTI Class Hierarchy Descriptor'
	DD	00H
	DD	02H
	DD	FLAT:??_R2IndexedFileSystem@@8
rdata$r	ENDS
;	COMDAT ??_R0?AVIndexedFileSystem@@@8
data$rs	SEGMENT
??_R0?AVIndexedFileSystem@@@8 DD FLAT:??_7type_info@@6B@ ; IndexedFileSystem `RTTI Type Descriptor'
	DD	00H
	DB	'.?AVIndexedFileSystem@@', 00H
data$rs	ENDS
;	COMDAT ??_R1A@?0A@EA@IndexedFileSystem@@8
rdata$r	SEGMENT
??_R1A@?0A@EA@IndexedFileSystem@@8 DD FLAT:??_R0?AVIndexedFileSystem@@@8 ; IndexedFileSystem::`RTTI Base Class Descriptor at (0,-1,0,64)'
	DD	01H
	DD	00H
	DD	0ffffffffH
	DD	00H
	DD	040H
	DD	FLAT:??_R3IndexedFileSystem@@8
rdata$r	ENDS
;	COMDAT ??_R1A@?0A@EA@ZipFileSystem@@8
rdata$r	SEGMENT
??_R1A@?0A@EA@ZipFileSystem@@8 DD FLAT:??_R0?AVZipFileSystem@@@8 ; ZipFileSystem::`RTTI Base Class Descriptor at (0,-1,0,64)'
	DD	02H
	DD	00H
	DD	0ffffffffH
	DD	00H
	DD	040H
	DD	FLAT:??_R3ZipFileSystem@@8
rdata$r	ENDS
;	COMDAT ??_R2ZipFileSystem@@8
rdata$r	SEGMENT
??_R2ZipFileSystem@@8 DD FLAT:??_R1A@?0A@EA@ZipFileSystem@@8 ; ZipFileSystem::`RTTI Base Class Array'
	DD	FLAT:??_R1A@?0A@EA@IndexedFileSystem@@8
	DD	FLAT:??_R1A@?0A@EA@FileSystem@@8
rdata$r	ENDS
;	COMDAT ??_R3ZipFileSystem@@8
rdata$r	SEGMENT
??_R3ZipFileSystem@@8 DD 00H				; ZipFileSystem::`RTTI Class Hierarchy Descriptor'
	DD	00H
	DD	03H
	DD	FLAT:??_R2ZipFileSystem@@8
rdata$r	ENDS
;	COMDAT ??_R0?AVZipFileSystem@@@8
data$rs	SEGMENT
??_R0?AVZipFileSystem@@@8 DD FLAT:??_7type_info@@6B@	; ZipFileSystem `RTTI Type Descriptor'
	DD	00H
	DB	'.?AVZipFileSystem@@', 00H
data$rs	ENDS
;	COMDAT ??_R4ZipFileSystem@@6B@
rdata$r	SEGMENT
??_R4ZipFileSystem@@6B@ DD 00H				; ZipFileSystem::`RTTI Complete Object Locator'
	DD	00H
	DD	00H
	DD	FLAT:??_R0?AVZipFileSystem@@@8
	DD	FLAT:??_R3ZipFileSystem@@8
rdata$r	ENDS
;	COMDAT ??_R1A@?0A@EA@DefaultResourceCreator@@8
rdata$r	SEGMENT
??_R1A@?0A@EA@DefaultResourceCreator@@8 DD FLAT:??_R0?AVDefaultResourceCreator@@@8 ; DefaultResourceCreator::`RTTI Base Class Descriptor at (0,-1,0,64)'
	DD	01H
	DD	00H
	DD	0ffffffffH
	DD	00H
	DD	040H
	DD	FLAT:??_R3DefaultResourceCreator@@8
rdata$r	ENDS
;	COMDAT ??_R2DefaultResourceCreator@@8
rdata$r	SEGMENT
??_R2DefaultResourceCreator@@8 DD FLAT:??_R1A@?0A@EA@DefaultResourceCreator@@8 ; DefaultResourceCreator::`RTTI Base Class Array'
	DD	FLAT:??_R1A@?0A@EA@ResourceCreator@@8
rdata$r	ENDS
;	COMDAT ??_R3DefaultResourceCreator@@8
rdata$r	SEGMENT
??_R3DefaultResourceCreator@@8 DD 00H			; DefaultResourceCreator::`RTTI Class Hierarchy Descriptor'
	DD	00H
	DD	02H
	DD	FLAT:??_R2DefaultResourceCreator@@8
rdata$r	ENDS
;	COMDAT ??_R0?AVDefaultResourceCreator@@@8
data$rs	SEGMENT
??_R0?AVDefaultResourceCreator@@@8 DD FLAT:??_7type_info@@6B@ ; DefaultResourceCreator `RTTI Type Descriptor'
	DD	00H
	DB	'.?AVDefaultResourceCreator@@', 00H
data$rs	ENDS
;	COMDAT ??_R4DefaultResourceCreator@@6B@
rdata$r	SEGMENT
??_R4DefaultResourceCreator@@6B@ DD 00H			; DefaultResourceCreator::`RTTI Complete Object Locator'
	DD	00H
	DD	00H
	DD	FLAT:??_R0?AVDefaultResourceCreator@@@8
	DD	FLAT:??_R3DefaultResourceCreator@@8
rdata$r	ENDS
;	COMDAT ??_R1A@?0A@EA@ResourceCreator@@8
rdata$r	SEGMENT
??_R1A@?0A@EA@ResourceCreator@@8 DD FLAT:??_R0?AVResourceCreator@@@8 ; ResourceCreator::`RTTI Base Class Descriptor at (0,-1,0,64)'
	DD	00H
	DD	00H
	DD	0ffffffffH
	DD	00H
	DD	040H
	DD	FLAT:??_R3ResourceCreator@@8
rdata$r	ENDS
;	COMDAT ??_R2ResourceCreator@@8
rdata$r	SEGMENT
??_R2ResourceCreator@@8 DD FLAT:??_R1A@?0A@EA@ResourceCreator@@8 ; ResourceCreator::`RTTI Base Class Array'
rdata$r	ENDS
;	COMDAT ??_R3ResourceCreator@@8
rdata$r	SEGMENT
??_R3ResourceCreator@@8 DD 00H				; ResourceCreator::`RTTI Class Hierarchy Descriptor'
	DD	00H
	DD	01H
	DD	FLAT:??_R2ResourceCreator@@8
rdata$r	ENDS
;	COMDAT ??_R0?AVResourceCreator@@@8
data$rs	SEGMENT
??_R0?AVResourceCreator@@@8 DD FLAT:??_7type_info@@6B@	; ResourceCreator `RTTI Type Descriptor'
	DD	00H
	DB	'.?AVResourceCreator@@', 00H
data$rs	ENDS
;	COMDAT ??_R4ResourceCreator@@6B@
rdata$r	SEGMENT
??_R4ResourceCreator@@6B@ DD 00H			; ResourceCreator::`RTTI Complete Object Locator'
	DD	00H
	DD	00H
	DD	FLAT:??_R0?AVResourceCreator@@@8
	DD	FLAT:??_R3ResourceCreator@@8
rdata$r	ENDS
;	COMDAT ??_R1A@?0A@EA@_Generic_error_category@std@@8
rdata$r	SEGMENT
??_R1A@?0A@EA@_Generic_error_category@std@@8 DD FLAT:??_R0?AV_Generic_error_category@std@@@8 ; std::_Generic_error_category::`RTTI Base Class Descriptor at (0,-1,0,64)'
	DD	01H
	DD	00H
	DD	0ffffffffH
	DD	00H
	DD	040H
	DD	FLAT:??_R3_Generic_error_category@std@@8
rdata$r	ENDS
;	COMDAT ??_R2_Generic_error_category@std@@8
rdata$r	SEGMENT
??_R2_Generic_error_category@std@@8 DD FLAT:??_R1A@?0A@EA@_Generic_error_category@std@@8 ; std::_Generic_error_category::`RTTI Base Class Array'
	DD	FLAT:??_R1A@?0A@EA@error_category@std@@8
rdata$r	ENDS
;	COMDAT ??_R3_Generic_error_category@std@@8
rdata$r	SEGMENT
??_R3_Generic_error_category@std@@8 DD 00H		; std::_Generic_error_category::`RTTI Class Hierarchy Descriptor'
	DD	00H
	DD	02H
	DD	FLAT:??_R2_Generic_error_category@std@@8
rdata$r	ENDS
;	COMDAT ??_R0?AV_Generic_error_category@std@@@8
data$rs	SEGMENT
??_R0?AV_Generic_error_category@std@@@8 DD FLAT:??_7type_info@@6B@ ; std::_Generic_error_category `RTTI Type Descriptor'
	DD	00H
	DB	'.?AV_Generic_error_category@std@@', 00H
data$rs	ENDS
;	COMDAT ??_R4_Generic_error_category@std@@6B@
rdata$r	SEGMENT
??_R4_Generic_error_category@std@@6B@ DD 00H		; std::_Generic_error_category::`RTTI Complete Object Locator'
	DD	00H
	DD	00H
	DD	FLAT:??_R0?AV_Generic_error_category@std@@@8
	DD	FLAT:??_R3_Generic_error_category@std@@8
rdata$r	ENDS
;	COMDAT ??_R1A@?0A@EA@system_error@std@@8
rdata$r	SEGMENT
??_R1A@?0A@EA@system_error@std@@8 DD FLAT:??_R0?AVsystem_error@std@@@8 ; std::system_error::`RTTI Base Class Descriptor at (0,-1,0,64)'
	DD	03H
	DD	00H
	DD	0ffffffffH
	DD	00H
	DD	040H
	DD	FLAT:??_R3system_error@std@@8
rdata$r	ENDS
;	COMDAT ??_R2system_error@std@@8
rdata$r	SEGMENT
??_R2system_error@std@@8 DD FLAT:??_R1A@?0A@EA@system_error@std@@8 ; std::system_error::`RTTI Base Class Array'
	DD	FLAT:??_R1A@?0A@EA@_System_error@std@@8
	DD	FLAT:??_R1A@?0A@EA@runtime_error@std@@8
	DD	FLAT:??_R1A@?0A@EA@exception@std@@8
rdata$r	ENDS
;	COMDAT ??_R3system_error@std@@8
rdata$r	SEGMENT
??_R3system_error@std@@8 DD 00H				; std::system_error::`RTTI Class Hierarchy Descriptor'
	DD	00H
	DD	04H
	DD	FLAT:??_R2system_error@std@@8
rdata$r	ENDS
;	COMDAT ??_R4system_error@std@@6B@
rdata$r	SEGMENT
??_R4system_error@std@@6B@ DD 00H			; std::system_error::`RTTI Complete Object Locator'
	DD	00H
	DD	00H
	DD	FLAT:??_R0?AVsystem_error@std@@@8
	DD	FLAT:??_R3system_error@std@@8
rdata$r	ENDS
;	COMDAT ??_R1A@?0A@EA@_System_error@std@@8
rdata$r	SEGMENT
??_R1A@?0A@EA@_System_error@std@@8 DD FLAT:??_R0?AV_System_error@std@@@8 ; std::_System_error::`RTTI Base Class Descriptor at (0,-1,0,64)'
	DD	02H
	DD	00H
	DD	0ffffffffH
	DD	00H
	DD	040H
	DD	FLAT:??_R3_System_error@std@@8
rdata$r	ENDS
;	COMDAT ??_R2_System_error@std@@8
rdata$r	SEGMENT
??_R2_System_error@std@@8 DD FLAT:??_R1A@?0A@EA@_System_error@std@@8 ; std::_System_error::`RTTI Base Class Array'
	DD	FLAT:??_R1A@?0A@EA@runtime_error@std@@8
	DD	FLAT:??_R1A@?0A@EA@exception@std@@8
rdata$r	ENDS
;	COMDAT ??_R3_System_error@std@@8
rdata$r	SEGMENT
??_R3_System_error@std@@8 DD 00H			; std::_System_error::`RTTI Class Hierarchy Descriptor'
	DD	00H
	DD	03H
	DD	FLAT:??_R2_System_error@std@@8
rdata$r	ENDS
;	COMDAT ??_R4_System_error@std@@6B@
rdata$r	SEGMENT
??_R4_System_error@std@@6B@ DD 00H			; std::_System_error::`RTTI Complete Object Locator'
	DD	00H
	DD	00H
	DD	FLAT:??_R0?AV_System_error@std@@@8
	DD	FLAT:??_R3_System_error@std@@8
rdata$r	ENDS
;	COMDAT ??_R1A@?0A@EA@error_category@std@@8
rdata$r	SEGMENT
??_R1A@?0A@EA@error_category@std@@8 DD FLAT:??_R0?AVerror_category@std@@@8 ; std::error_category::`RTTI Base Class Descriptor at (0,-1,0,64)'
	DD	00H
	DD	00H
	DD	0ffffffffH
	DD	00H
	DD	040H
	DD	FLAT:??_R3error_category@std@@8
rdata$r	ENDS
;	COMDAT ??_R2error_category@std@@8
rdata$r	SEGMENT
??_R2error_category@std@@8 DD FLAT:??_R1A@?0A@EA@error_category@std@@8 ; std::error_category::`RTTI Base Class Array'
rdata$r	ENDS
;	COMDAT ??_R3error_category@std@@8
rdata$r	SEGMENT
??_R3error_category@std@@8 DD 00H			; std::error_category::`RTTI Class Hierarchy Descriptor'
	DD	00H
	DD	01H
	DD	FLAT:??_R2error_category@std@@8
rdata$r	ENDS
;	COMDAT ??_R0?AVerror_category@std@@@8
data$rs	SEGMENT
??_R0?AVerror_category@std@@@8 DD FLAT:??_7type_info@@6B@ ; std::error_category `RTTI Type Descriptor'
	DD	00H
	DB	'.?AVerror_category@std@@', 00H
data$rs	ENDS
;	COMDAT ??_R1A@?0A@EA@runtime_error@std@@8
rdata$r	SEGMENT
??_R1A@?0A@EA@runtime_error@std@@8 DD FLAT:??_R0?AVruntime_error@std@@@8 ; std::runtime_error::`RTTI Base Class Descriptor at (0,-1,0,64)'
	DD	01H
	DD	00H
	DD	0ffffffffH
	DD	00H
	DD	040H
	DD	FLAT:??_R3runtime_error@std@@8
rdata$r	ENDS
;	COMDAT ??_R2runtime_error@std@@8
rdata$r	SEGMENT
??_R2runtime_error@std@@8 DD FLAT:??_R1A@?0A@EA@runtime_error@std@@8 ; std::runtime_error::`RTTI Base Class Array'
	DD	FLAT:??_R1A@?0A@EA@exception@std@@8
rdata$r	ENDS
;	COMDAT ??_R3runtime_error@std@@8
rdata$r	SEGMENT
??_R3runtime_error@std@@8 DD 00H			; std::runtime_error::`RTTI Class Hierarchy Descriptor'
	DD	00H
	DD	02H
	DD	FLAT:??_R2runtime_error@std@@8
rdata$r	ENDS
;	COMDAT ??_R4runtime_error@std@@6B@
rdata$r	SEGMENT
??_R4runtime_error@std@@6B@ DD 00H			; std::runtime_error::`RTTI Complete Object Locator'
	DD	00H
	DD	00H
	DD	FLAT:??_R0?AVruntime_error@std@@@8
	DD	FLAT:??_R3runtime_error@std@@8
rdata$r	ENDS
;	COMDAT ??_R1A@?0A@EA@bad_array_new_length@std@@8
rdata$r	SEGMENT
??_R1A@?0A@EA@bad_array_new_length@std@@8 DD FLAT:??_R0?AVbad_array_new_length@std@@@8 ; std::bad_array_new_length::`RTTI Base Class Descriptor at (0,-1,0,64)'
	DD	02H
	DD	00H
	DD	0ffffffffH
	DD	00H
	DD	040H
	DD	FLAT:??_R3bad_array_new_length@std@@8
rdata$r	ENDS
;	COMDAT ??_R2bad_array_new_length@std@@8
rdata$r	SEGMENT
??_R2bad_array_new_length@std@@8 DD FLAT:??_R1A@?0A@EA@bad_array_new_length@std@@8 ; std::bad_array_new_length::`RTTI Base Class Array'
	DD	FLAT:??_R1A@?0A@EA@bad_alloc@std@@8
	DD	FLAT:??_R1A@?0A@EA@exception@std@@8
rdata$r	ENDS
;	COMDAT ??_R3bad_array_new_length@std@@8
rdata$r	SEGMENT
??_R3bad_array_new_length@std@@8 DD 00H			; std::bad_array_new_length::`RTTI Class Hierarchy Descriptor'
	DD	00H
	DD	03H
	DD	FLAT:??_R2bad_array_new_length@std@@8
rdata$r	ENDS
;	COMDAT ??_R4bad_array_new_length@std@@6B@
rdata$r	SEGMENT
??_R4bad_array_new_length@std@@6B@ DD 00H		; std::bad_array_new_length::`RTTI Complete Object Locator'
	DD	00H
	DD	00H
	DD	FLAT:??_R0?AVbad_array_new_length@std@@@8
	DD	FLAT:??_R3bad_array_new_length@std@@8
rdata$r	ENDS
;	COMDAT ??_R1A@?0A@EA@bad_alloc@std@@8
rdata$r	SEGMENT
??_R1A@?0A@EA@bad_alloc@std@@8 DD FLAT:??_R0?AVbad_alloc@std@@@8 ; std::bad_alloc::`RTTI Base Class Descriptor at (0,-1,0,64)'
	DD	01H
	DD	00H
	DD	0ffffffffH
	DD	00H
	DD	040H
	DD	FLAT:??_R3bad_alloc@std@@8
rdata$r	ENDS
;	COMDAT ??_R2bad_alloc@std@@8
rdata$r	SEGMENT
??_R2bad_alloc@std@@8 DD FLAT:??_R1A@?0A@EA@bad_alloc@std@@8 ; std::bad_alloc::`RTTI Base Class Array'
	DD	FLAT:??_R1A@?0A@EA@exception@std@@8
rdata$r	ENDS
;	COMDAT ??_R3bad_alloc@std@@8
rdata$r	SEGMENT
??_R3bad_alloc@std@@8 DD 00H				; std::bad_alloc::`RTTI Class Hierarchy Descriptor'
	DD	00H
	DD	02H
	DD	FLAT:??_R2bad_alloc@std@@8
rdata$r	ENDS
;	COMDAT ??_R4bad_alloc@std@@6B@
rdata$r	SEGMENT
??_R4bad_alloc@std@@6B@ DD 00H				; std::bad_alloc::`RTTI Complete Object Locator'
	DD	00H
	DD	00H
	DD	FLAT:??_R0?AVbad_alloc@std@@@8
	DD	FLAT:??_R3bad_alloc@std@@8
rdata$r	ENDS
;	COMDAT ??_R1A@?0A@EA@exception@std@@8
rdata$r	SEGMENT
??_R1A@?0A@EA@exception@std@@8 DD FLAT:??_R0?AVexception@std@@@8 ; std::exception::`RTTI Base Class Descriptor at (0,-1,0,64)'
	DD	00H
	DD	00H
	DD	0ffffffffH
	DD	00H
	DD	040H
	DD	FLAT:??_R3exception@std@@8
rdata$r	ENDS
;	COMDAT ??_R2exception@std@@8
rdata$r	SEGMENT
??_R2exception@std@@8 DD FLAT:??_R1A@?0A@EA@exception@std@@8 ; std::exception::`RTTI Base Class Array'
rdata$r	ENDS
;	COMDAT ??_R3exception@std@@8
rdata$r	SEGMENT
??_R3exception@std@@8 DD 00H				; std::exception::`RTTI Class Hierarchy Descriptor'
	DD	00H
	DD	01H
	DD	FLAT:??_R2exception@std@@8
rdata$r	ENDS
;	COMDAT ??_R4exception@std@@6B@
rdata$r	SEGMENT
??_R4exception@std@@6B@ DD 00H				; std::exception::`RTTI Complete Object Locator'
	DD	00H
	DD	00H
	DD	FLAT:??_R0?AVexception@std@@@8
	DD	FLAT:??_R3exception@std@@8
rdata$r	ENDS
;	COMDAT ??_C@_0BK@OGNNAFAB@invalid?5hash?5bucket?5count@
CONST	SEGMENT
??_C@_0BK@OGNNAFAB@invalid?5hash?5bucket?5count@ DB 'invalid hash bucket '
	DB	'count', 00H					; `string'
CONST	ENDS
;	COMDAT ??_C@_0BL@GOIGLPKN@unordered_map?1set?5too?5long@
CONST	SEGMENT
??_C@_0BL@GOIGLPKN@unordered_map?1set?5too?5long@ DB 'unordered_map/set t'
	DB	'oo long', 00H				; `string'
CONST	ENDS
;	COMDAT ??_C@_1EO@GFNCMDLA@?$AAs?$AAt?$AAd?$AA?3?$AA?3?$AA_?$AAA?$AAl?$AAl?$AAo?$AAc?$AAa?$AAt?$AAe?$AA_@
CONST	SEGMENT
??_C@_1EO@GFNCMDLA@?$AAs?$AAt?$AAd?$AA?3?$AA?3?$AA_?$AAA?$AAl?$AAl?$AAo?$AAc?$AAa?$AAt?$AAe?$AA_@ DB 's'
	DB	00H, 't', 00H, 'd', 00H, ':', 00H, ':', 00H, '_', 00H, 'A', 00H
	DB	'l', 00H, 'l', 00H, 'o', 00H, 'c', 00H, 'a', 00H, 't', 00H, 'e'
	DB	00H, '_', 00H, 'm', 00H, 'a', 00H, 'n', 00H, 'u', 00H, 'a', 00H
	DB	'l', 00H, 'l', 00H, 'y', 00H, '_', 00H, 'v', 00H, 'e', 00H, 'c'
	DB	00H, 't', 00H, 'o', 00H, 'r', 00H, '_', 00H, 'a', 00H, 'l', 00H
	DB	'i', 00H, 'g', 00H, 'n', 00H, 'e', 00H, 'd', 00H, 00H, 00H ; `string'
CONST	ENDS
;	COMDAT ??_C@_1DG@FJIKMGFD@?$AA?$CC?$AAt?$AAr?$AAa?$AAn?$AAs?$AAp?$AAo?$AAs?$AAe?$AAd?$AA?5?$AAp?$AAo?$AAi@
CONST	SEGMENT
??_C@_1DG@FJIKMGFD@?$AA?$CC?$AAt?$AAr?$AAa?$AAn?$AAs?$AAp?$AAo?$AAs?$AAe?$AAd?$AA?5?$AAp?$AAo?$AAi@ DB '"'
	DB	00H, 't', 00H, 'r', 00H, 'a', 00H, 'n', 00H, 's', 00H, 'p', 00H
	DB	'o', 00H, 's', 00H, 'e', 00H, 'd', 00H, ' ', 00H, 'p', 00H, 'o'
	DB	00H, 'i', 00H, 'n', 00H, 't', 00H, 'e', 00H, 'r', 00H, ' ', 00H
	DB	'r', 00H, 'a', 00H, 'n', 00H, 'g', 00H, 'e', 00H, '"', 00H, 00H
	DB	00H						; `string'
CONST	ENDS
;	COMDAT ??_C@_0BJ@HAJGEHKO@transposed?5pointer?5range@
CONST	SEGMENT
??_C@_0BJ@HAJGEHKO@transposed?5pointer?5range@ DB 'transposed pointer ran'
	DB	'ge', 00H					; `string'
CONST	ENDS
;	COMDAT ??_C@_1CG@LJCPDKEJ@?$AAs?$AAt?$AAd?$AA?3?$AA?3?$AA_?$AAV?$AAe?$AAr?$AAi?$AAf?$AAy?$AA_?$AAr?$AAa@
CONST	SEGMENT
??_C@_1CG@LJCPDKEJ@?$AAs?$AAt?$AAd?$AA?3?$AA?3?$AA_?$AAV?$AAe?$AAr?$AAi?$AAf?$AAy?$AA_?$AAr?$AAa@ DB 's'
	DB	00H, 't', 00H, 'd', 00H, ':', 00H, ':', 00H, '_', 00H, 'V', 00H
	DB	'e', 00H, 'r', 00H, 'i', 00H, 'f', 00H, 'y', 00H, '_', 00H, 'r'
	DB	00H, 'a', 00H, 'n', 00H, 'g', 00H, 'e', 00H, 00H, 00H ; `string'
CONST	ENDS
;	COMDAT ??_C@_1NI@EIPGEIKG@?$AAC?$AA?3?$AA?2?$AAP?$AAr?$AAo?$AAg?$AAr?$AAa?$AAm?$AA?5?$AAF?$AAi?$AAl?$AAe@
CONST	SEGMENT
??_C@_1NI@EIPGEIKG@?$AAC?$AA?3?$AA?2?$AAP?$AAr?$AAo?$AAg?$AAr?$AAa?$AAm?$AA?5?$AAF?$AAi?$AAl?$AAe@ DB 'C'
	DB	00H, ':', 00H, '\', 00H, 'P', 00H, 'r', 00H, 'o', 00H, 'g', 00H
	DB	'r', 00H, 'a', 00H, 'm', 00H, ' ', 00H, 'F', 00H, 'i', 00H, 'l'
	DB	00H, 'e', 00H, 's', 00H, ' ', 00H, '(', 00H, 'x', 00H, '8', 00H
	DB	'6', 00H, ')', 00H, '\', 00H, 'M', 00H, 'i', 00H, 'c', 00H, 'r'
	DB	00H, 'o', 00H, 's', 00H, 'o', 00H, 'f', 00H, 't', 00H, ' ', 00H
	DB	'V', 00H, 'i', 00H, 's', 00H, 'u', 00H, 'a', 00H, 'l', 00H, ' '
	DB	00H, 'S', 00H, 't', 00H, 'u', 00H, 'd', 00H, 'i', 00H, 'o', 00H
	DB	'\', 00H, '2', 00H, '0', 00H, '1', 00H, '9', 00H, '\', 00H, 'P'
	DB	00H, 'r', 00H, 'o', 00H, 'f', 00H, 'e', 00H, 's', 00H, 's', 00H
	DB	'i', 00H, 'o', 00H, 'n', 00H, 'a', 00H, 'l', 00H, '\', 00H, 'V'
	DB	00H, 'C', 00H, '\', 00H, 'T', 00H, 'o', 00H, 'o', 00H, 'l', 00H
	DB	's', 00H, '\', 00H, 'M', 00H, 'S', 00H, 'V', 00H, 'C', 00H, '\'
	DB	00H, '1', 00H, '4', 00H, '.', 00H, '2', 00H, '8', 00H, '.', 00H
	DB	'2', 00H, '9', 00H, '3', 00H, '3', 00H, '3', 00H, '\', 00H, 'i'
	DB	00H, 'n', 00H, 'c', 00H, 'l', 00H, 'u', 00H, 'd', 00H, 'e', 00H
	DB	'\', 00H, 'x', 00H, 'u', 00H, 't', 00H, 'i', 00H, 'l', 00H, 'i'
	DB	00H, 't', 00H, 'y', 00H, 00H, 00H		; `string'
CONST	ENDS
;	COMDAT ??_C@_0GM@MAOIBKAD@C?3?2Program?5Files?5?$CIx86?$CJ?2Microsof@
CONST	SEGMENT
??_C@_0GM@MAOIBKAD@C?3?2Program?5Files?5?$CIx86?$CJ?2Microsof@ DB 'C:\Pro'
	DB	'gram Files (x86)\Microsoft Visual Studio\2019\Professional\VC'
	DB	'\Tools\MSVC\14.28.29333\include\xutility', 00H ; `string'
CONST	ENDS
;	COMDAT ??_C@_1BK@MHIKGOKE@?$AA?3?$AAA?$AAM?$AA?3?$AAa?$AAm?$AA?3?$AAP?$AAM?$AA?3?$AAp?$AAm@
CONST	SEGMENT
??_C@_1BK@MHIKGOKE@?$AA?3?$AAA?$AAM?$AA?3?$AAa?$AAm?$AA?3?$AAP?$AAM?$AA?3?$AAp?$AAm@ DB ':'
	DB	00H, 'A', 00H, 'M', 00H, ':', 00H, 'a', 00H, 'm', 00H, ':', 00H
	DB	'P', 00H, 'M', 00H, ':', 00H, 'p', 00H, 'm', 00H, 00H, 00H ; `string'
CONST	ENDS
;	COMDAT ?_Static@?1???$_Immortalize_memcpy_image@V_Generic_error_category@std@@@std@@YAABV_Generic_error_category@1@XZ@4U?$_Constexpr_immortalize_impl@V_Generic_error_category@std@@@1@A
_DATA	SEGMENT
?_Static@?1???$_Immortalize_memcpy_image@V_Generic_error_category@std@@@std@@YAABV_Generic_error_category@1@XZ@4U?$_Constexpr_immortalize_impl@V_Generic_error_category@std@@@1@A DD FLAT:??_7_Generic_error_category@std@@6B@ ; `std::_Immortalize_memcpy_image<std::_Generic_error_category>'::`2'::_Static
	DD	03H
_DATA	ENDS
;	COMDAT ??_C@_1DC@NJAACHCD@?$AA?$CC?$AAd?$AAe?$AAq?$AAu?$AAe?$AA?5?$AAe?$AAm?$AAp?$AAt?$AAy?$AA?5?$AAb?$AAe@
CONST	SEGMENT
??_C@_1DC@NJAACHCD@?$AA?$CC?$AAd?$AAe?$AAq?$AAu?$AAe?$AA?5?$AAe?$AAm?$AAp?$AAt?$AAy?$AA?5?$AAb?$AAe@ DB '"'
	DB	00H, 'd', 00H, 'e', 00H, 'q', 00H, 'u', 00H, 'e', 00H, ' ', 00H
	DB	'e', 00H, 'm', 00H, 'p', 00H, 't', 00H, 'y', 00H, ' ', 00H, 'b'
	DB	00H, 'e', 00H, 'f', 00H, 'o', 00H, 'r', 00H, 'e', 00H, ' ', 00H
	DB	'p', 00H, 'o', 00H, 'p', 00H, '"', 00H, 00H, 00H ; `string'
CONST	ENDS
;	COMDAT ??_C@_1BDG@ONCOIODA@?$AAs?$AAt?$AAd?$AA?3?$AA?3?$AAd?$AAe?$AAq?$AAu?$AAe?$AA?$DM?$AAs?$AAt?$AAr?$AAu@
CONST	SEGMENT
??_C@_1BDG@ONCOIODA@?$AAs?$AAt?$AAd?$AA?3?$AA?3?$AAd?$AAe?$AAq?$AAu?$AAe?$AA?$DM?$AAs?$AAt?$AAr?$AAu@ DB 's'
	DB	00H, 't', 00H, 'd', 00H, ':', 00H, ':', 00H, 'd', 00H, 'e', 00H
	DB	'q', 00H, 'u', 00H, 'e', 00H, '<', 00H, 's', 00H, 't', 00H, 'r'
	DB	00H, 'u', 00H, 'c', 00H, 't', 00H, ' ', 00H, 'R', 00H, 'e', 00H
	DB	's', 00H, 'o', 00H, 'u', 00H, 'r', 00H, 'c', 00H, 'e', 00H, 'A'
	DB	00H, 's', 00H, 'y', 00H, 'n', 00H, 'c', 00H, 'L', 00H, 'o', 00H
	DB	'a', 00H, 'd', 00H, 'e', 00H, 'r', 00H, ':', 00H, ':', 00H, 'R'
	DB	00H, 'e', 00H, 's', 00H, 'o', 00H, 'u', 00H, 'r', 00H, 'c', 00H
	DB	'e', 00H, 'L', 00H, 'o', 00H, 'a', 00H, 'd', 00H, 'i', 00H, 'n'
	DB	00H, 'g', 00H, 'I', 00H, 'n', 00H, 'f', 00H, 'o', 00H, 'r', 00H
	DB	'm', 00H, 'a', 00H, 't', 00H, 'i', 00H, 'o', 00H, 'n', 00H, ','
	DB	00H, 'c', 00H, 'l', 00H, 'a', 00H, 's', 00H, 's', 00H, ' ', 00H
	DB	's', 00H, 't', 00H, 'd', 00H, ':', 00H, ':', 00H, 'a', 00H, 'l'
	DB	00H, 'l', 00H, 'o', 00H, 'c', 00H, 'a', 00H, 't', 00H, 'o', 00H
	DB	'r', 00H, '<', 00H, 's', 00H, 't', 00H, 'r', 00H, 'u', 00H, 'c'
	DB	00H, 't', 00H, ' ', 00H, 'R', 00H, 'e', 00H, 's', 00H, 'o', 00H
	DB	'u', 00H, 'r', 00H, 'c', 00H, 'e', 00H, 'A', 00H, 's', 00H, 'y'
	DB	00H, 'n', 00H, 'c', 00H, 'L', 00H, 'o', 00H, 'a', 00H, 'd', 00H
	DB	'e', 00H, 'r', 00H, ':', 00H, ':', 00H, 'R', 00H, 'e', 00H, 's'
	DB	00H, 'o', 00H, 'u', 00H, 'r', 00H, 'c', 00H, 'e', 00H, 'L', 00H
	DB	'o', 00H, 'a', 00H, 'd', 00H, 'i', 00H, 'n', 00H, 'g', 00H, 'I'
	DB	00H, 'n', 00H, 'f', 00H, 'o', 00H, 'r', 00H, 'm', 00H, 'a', 00H
	DB	't', 00H, 'i', 00H, 'o', 00H, 'n', 00H, '>', 00H, ' ', 00H, '>'
	DB	00H, ':', 00H, ':', 00H, 'p', 00H, 'o', 00H, 'p', 00H, '_', 00H
	DB	'b', 00H, 'a', 00H, 'c', 00H, 'k', 00H, 00H, 00H ; `string'
CONST	ENDS
;	COMDAT ??_C@_1NC@ENPMJHKL@?$AAC?$AA?3?$AA?2?$AAP?$AAr?$AAo?$AAg?$AAr?$AAa?$AAm?$AA?5?$AAF?$AAi?$AAl?$AAe@
CONST	SEGMENT
??_C@_1NC@ENPMJHKL@?$AAC?$AA?3?$AA?2?$AAP?$AAr?$AAo?$AAg?$AAr?$AAa?$AAm?$AA?5?$AAF?$AAi?$AAl?$AAe@ DB 'C'
	DB	00H, ':', 00H, '\', 00H, 'P', 00H, 'r', 00H, 'o', 00H, 'g', 00H
	DB	'r', 00H, 'a', 00H, 'm', 00H, ' ', 00H, 'F', 00H, 'i', 00H, 'l'
	DB	00H, 'e', 00H, 's', 00H, ' ', 00H, '(', 00H, 'x', 00H, '8', 00H
	DB	'6', 00H, ')', 00H, '\', 00H, 'M', 00H, 'i', 00H, 'c', 00H, 'r'
	DB	00H, 'o', 00H, 's', 00H, 'o', 00H, 'f', 00H, 't', 00H, ' ', 00H
	DB	'V', 00H, 'i', 00H, 's', 00H, 'u', 00H, 'a', 00H, 'l', 00H, ' '
	DB	00H, 'S', 00H, 't', 00H, 'u', 00H, 'd', 00H, 'i', 00H, 'o', 00H
	DB	'\', 00H, '2', 00H, '0', 00H, '1', 00H, '9', 00H, '\', 00H, 'P'
	DB	00H, 'r', 00H, 'o', 00H, 'f', 00H, 'e', 00H, 's', 00H, 's', 00H
	DB	'i', 00H, 'o', 00H, 'n', 00H, 'a', 00H, 'l', 00H, '\', 00H, 'V'
	DB	00H, 'C', 00H, '\', 00H, 'T', 00H, 'o', 00H, 'o', 00H, 'l', 00H
	DB	's', 00H, '\', 00H, 'M', 00H, 'S', 00H, 'V', 00H, 'C', 00H, '\'
	DB	00H, '1', 00H, '4', 00H, '.', 00H, '2', 00H, '8', 00H, '.', 00H
	DB	'2', 00H, '9', 00H, '3', 00H, '3', 00H, '3', 00H, '\', 00H, 'i'
	DB	00H, 'n', 00H, 'c', 00H, 'l', 00H, 'u', 00H, 'd', 00H, 'e', 00H
	DB	'\', 00H, 'd', 00H, 'e', 00H, 'q', 00H, 'u', 00H, 'e', 00H, 00H
	DB	00H						; `string'
CONST	ENDS
;	COMDAT ??_C@_0GJ@JOABDPBH@C?3?2Program?5Files?5?$CIx86?$CJ?2Microsof@
CONST	SEGMENT
??_C@_0GJ@JOABDPBH@C?3?2Program?5Files?5?$CIx86?$CJ?2Microsof@ DB 'C:\Pro'
	DB	'gram Files (x86)\Microsoft Visual Studio\2019\Professional\VC'
	DB	'\Tools\MSVC\14.28.29333\include\deque', 00H	; `string'
CONST	ENDS
;	COMDAT ??_C@_0BH@EDKEEENI@deque?5empty?5before?5pop@
CONST	SEGMENT
??_C@_0BH@EDKEEENI@deque?5empty?5before?5pop@ DB 'deque empty before pop', 00H ; `string'
CONST	ENDS
;	COMDAT ??_C@_1BDI@DOLLGKIL@?$AAs?$AAt?$AAd?$AA?3?$AA?3?$AA_?$AAL?$AAi?$AAs?$AAt?$AA_?$AAc?$AAo?$AAn?$AAs@
CONST	SEGMENT
??_C@_1BDI@DOLLGKIL@?$AAs?$AAt?$AAd?$AA?3?$AA?3?$AA_?$AAL?$AAi?$AAs?$AAt?$AA_?$AAc?$AAo?$AAn?$AAs@ DB 's'
	DB	00H, 't', 00H, 'd', 00H, ':', 00H, ':', 00H, '_', 00H, 'L', 00H
	DB	'i', 00H, 's', 00H, 't', 00H, '_', 00H, 'c', 00H, 'o', 00H, 'n'
	DB	00H, 's', 00H, 't', 00H, '_', 00H, 'i', 00H, 't', 00H, 'e', 00H
	DB	'r', 00H, 'a', 00H, 't', 00H, 'o', 00H, 'r', 00H, '<', 00H, 'c'
	DB	00H, 'l', 00H, 'a', 00H, 's', 00H, 's', 00H, ' ', 00H, 's', 00H
	DB	't', 00H, 'd', 00H, ':', 00H, ':', 00H, '_', 00H, 'L', 00H, 'i'
	DB	00H, 's', 00H, 't', 00H, '_', 00H, 'v', 00H, 'a', 00H, 'l', 00H
	DB	'<', 00H, 's', 00H, 't', 00H, 'r', 00H, 'u', 00H, 'c', 00H, 't'
	DB	00H, ' ', 00H, 's', 00H, 't', 00H, 'd', 00H, ':', 00H, ':', 00H
	DB	'_', 00H, 'L', 00H, 'i', 00H, 's', 00H, 't', 00H, '_', 00H, 's'
	DB	00H, 'i', 00H, 'm', 00H, 'p', 00H, 'l', 00H, 'e', 00H, '_', 00H
	DB	't', 00H, 'y', 00H, 'p', 00H, 'e', 00H, 's', 00H, '<', 00H, 's'
	DB	00H, 't', 00H, 'r', 00H, 'u', 00H, 'c', 00H, 't', 00H, ' ', 00H
	DB	's', 00H, 't', 00H, 'd', 00H, ':', 00H, ':', 00H, 'p', 00H, 'a'
	DB	00H, 'i', 00H, 'r', 00H, '<', 00H, 'u', 00H, 'n', 00H, 's', 00H
	DB	'i', 00H, 'g', 00H, 'n', 00H, 'e', 00H, 'd', 00H, ' ', 00H, 'i'
	DB	00H, 'n', 00H, 't', 00H, ' ', 00H, 'c', 00H, 'o', 00H, 'n', 00H
	DB	's', 00H, 't', 00H, ' ', 00H, ',', 00H, 'c', 00H, 'l', 00H, 'a'
	DB	00H, 's', 00H, 's', 00H, ' ', 00H, 'R', 00H, 'e', 00H, 's', 00H
	DB	'o', 00H, 'u', 00H, 'r', 00H, 'c', 00H, 'e', 00H, 'H', 00H, 'a'
	DB	00H, 'n', 00H, 'd', 00H, 'l', 00H, 'e', 00H, 'r', 00H, '>', 00H
	DB	' ', 00H, '>', 00H, ' ', 00H, '>', 00H, ' ', 00H, '>', 00H, ':'
	DB	00H, ':', 00H, 'o', 00H, 'p', 00H, 'e', 00H, 'r', 00H, 'a', 00H
	DB	't', 00H, 'o', 00H, 'r', 00H, ' ', 00H, '*', 00H, 00H, 00H ; `string'
CONST	ENDS
;	COMDAT ??_C@_1EO@CNEFBDCF@?$AA?$CC?$AAc?$AAa?$AAn?$AAn?$AAo?$AAt?$AA?5?$AAd?$AAe?$AAr?$AAe?$AAf?$AAe?$AAr@
CONST	SEGMENT
??_C@_1EO@CNEFBDCF@?$AA?$CC?$AAc?$AAa?$AAn?$AAn?$AAo?$AAt?$AA?5?$AAd?$AAe?$AAr?$AAe?$AAf?$AAe?$AAr@ DB '"'
	DB	00H, 'c', 00H, 'a', 00H, 'n', 00H, 'n', 00H, 'o', 00H, 't', 00H
	DB	' ', 00H, 'd', 00H, 'e', 00H, 'r', 00H, 'e', 00H, 'f', 00H, 'e'
	DB	00H, 'r', 00H, 'e', 00H, 'n', 00H, 'c', 00H, 'e', 00H, ' ', 00H
	DB	'e', 00H, 'n', 00H, 'd', 00H, ' ', 00H, 'l', 00H, 'i', 00H, 's'
	DB	00H, 't', 00H, ' ', 00H, 'i', 00H, 't', 00H, 'e', 00H, 'r', 00H
	DB	'a', 00H, 't', 00H, 'o', 00H, 'r', 00H, '"', 00H, 00H, 00H ; `string'
CONST	ENDS
;	COMDAT ??_C@_0CF@JCBFHMPL@cannot?5dereference?5end?5list?5ite@
CONST	SEGMENT
??_C@_0CF@JCBFHMPL@cannot?5dereference?5end?5list?5ite@ DB 'cannot derefe'
	DB	'rence end list iterator', 00H		; `string'
CONST	ENDS
;	COMDAT ??_C@_1GK@NKIMOCIG@?$AA?$CC?$AAc?$AAa?$AAn?$AAn?$AAo?$AAt?$AA?5?$AAd?$AAe?$AAr?$AAe?$AAf?$AAe?$AAr@
CONST	SEGMENT
??_C@_1GK@NKIMOCIG@?$AA?$CC?$AAc?$AAa?$AAn?$AAn?$AAo?$AAt?$AA?5?$AAd?$AAe?$AAr?$AAe?$AAf?$AAe?$AAr@ DB '"'
	DB	00H, 'c', 00H, 'a', 00H, 'n', 00H, 'n', 00H, 'o', 00H, 't', 00H
	DB	' ', 00H, 'd', 00H, 'e', 00H, 'r', 00H, 'e', 00H, 'f', 00H, 'e'
	DB	00H, 'r', 00H, 'e', 00H, 'n', 00H, 'c', 00H, 'e', 00H, ' ', 00H
	DB	'v', 00H, 'a', 00H, 'l', 00H, 'u', 00H, 'e', 00H, '-', 00H, 'i'
	DB	00H, 'n', 00H, 'i', 00H, 't', 00H, 'i', 00H, 'a', 00H, 'l', 00H
	DB	'i', 00H, 'z', 00H, 'e', 00H, 'd', 00H, ' ', 00H, 'l', 00H, 'i'
	DB	00H, 's', 00H, 't', 00H, ' ', 00H, 'i', 00H, 't', 00H, 'e', 00H
	DB	'r', 00H, 'a', 00H, 't', 00H, 'o', 00H, 'r', 00H, '"', 00H, 00H
	DB	00H						; `string'
CONST	ENDS
;	COMDAT ??_C@_0DD@MBIHGLJE@cannot?5dereference?5value?9initia@
CONST	SEGMENT
??_C@_0DD@MBIHGLJE@cannot?5dereference?5value?9initia@ DB 'cannot derefer'
	DB	'ence value-initialized list iterator', 00H	; `string'
CONST	ENDS
;	COMDAT ??_C@_0N@LPFKKEBD@?3AM?3am?3PM?3pm@
CONST	SEGMENT
??_C@_0N@LPFKKEBD@?3AM?3am?3PM?3pm@ DB ':AM:am:PM:pm', 00H ; `string'
CONST	ENDS
;	COMDAT ??_C@_1DM@KDLJAKOP@?$AA?$CC?$AAl?$AAi?$AAs?$AAt?$AA?5?$AAi?$AAt?$AAe?$AAr?$AAa?$AAt?$AAo?$AAr?$AAs@
CONST	SEGMENT
??_C@_1DM@KDLJAKOP@?$AA?$CC?$AAl?$AAi?$AAs?$AAt?$AA?5?$AAi?$AAt?$AAe?$AAr?$AAa?$AAt?$AAo?$AAr?$AAs@ DB '"'
	DB	00H, 'l', 00H, 'i', 00H, 's', 00H, 't', 00H, ' ', 00H, 'i', 00H
	DB	't', 00H, 'e', 00H, 'r', 00H, 'a', 00H, 't', 00H, 'o', 00H, 'r'
	DB	00H, 's', 00H, ' ', 00H, 'i', 00H, 'n', 00H, 'c', 00H, 'o', 00H
	DB	'm', 00H, 'p', 00H, 'a', 00H, 't', 00H, 'i', 00H, 'b', 00H, 'l'
	DB	00H, 'e', 00H, '"', 00H, 00H, 00H		; `string'
CONST	ENDS
;	COMDAT ??_C@_1BDK@GJICOFCC@?$AAs?$AAt?$AAd?$AA?3?$AA?3?$AA_?$AAL?$AAi?$AAs?$AAt?$AA_?$AAc?$AAo?$AAn?$AAs@
CONST	SEGMENT
??_C@_1BDK@GJICOFCC@?$AAs?$AAt?$AAd?$AA?3?$AA?3?$AA_?$AAL?$AAi?$AAs?$AAt?$AA_?$AAc?$AAo?$AAn?$AAs@ DB 's'
	DB	00H, 't', 00H, 'd', 00H, ':', 00H, ':', 00H, '_', 00H, 'L', 00H
	DB	'i', 00H, 's', 00H, 't', 00H, '_', 00H, 'c', 00H, 'o', 00H, 'n'
	DB	00H, 's', 00H, 't', 00H, '_', 00H, 'i', 00H, 't', 00H, 'e', 00H
	DB	'r', 00H, 'a', 00H, 't', 00H, 'o', 00H, 'r', 00H, '<', 00H, 'c'
	DB	00H, 'l', 00H, 'a', 00H, 's', 00H, 's', 00H, ' ', 00H, 's', 00H
	DB	't', 00H, 'd', 00H, ':', 00H, ':', 00H, '_', 00H, 'L', 00H, 'i'
	DB	00H, 's', 00H, 't', 00H, '_', 00H, 'v', 00H, 'a', 00H, 'l', 00H
	DB	'<', 00H, 's', 00H, 't', 00H, 'r', 00H, 'u', 00H, 'c', 00H, 't'
	DB	00H, ' ', 00H, 's', 00H, 't', 00H, 'd', 00H, ':', 00H, ':', 00H
	DB	'_', 00H, 'L', 00H, 'i', 00H, 's', 00H, 't', 00H, '_', 00H, 's'
	DB	00H, 'i', 00H, 'm', 00H, 'p', 00H, 'l', 00H, 'e', 00H, '_', 00H
	DB	't', 00H, 'y', 00H, 'p', 00H, 'e', 00H, 's', 00H, '<', 00H, 's'
	DB	00H, 't', 00H, 'r', 00H, 'u', 00H, 'c', 00H, 't', 00H, ' ', 00H
	DB	's', 00H, 't', 00H, 'd', 00H, ':', 00H, ':', 00H, 'p', 00H, 'a'
	DB	00H, 'i', 00H, 'r', 00H, '<', 00H, 'u', 00H, 'n', 00H, 's', 00H
	DB	'i', 00H, 'g', 00H, 'n', 00H, 'e', 00H, 'd', 00H, ' ', 00H, 'i'
	DB	00H, 'n', 00H, 't', 00H, ' ', 00H, 'c', 00H, 'o', 00H, 'n', 00H
	DB	's', 00H, 't', 00H, ' ', 00H, ',', 00H, 'c', 00H, 'l', 00H, 'a'
	DB	00H, 's', 00H, 's', 00H, ' ', 00H, 'R', 00H, 'e', 00H, 's', 00H
	DB	'o', 00H, 'u', 00H, 'r', 00H, 'c', 00H, 'e', 00H, 'H', 00H, 'a'
	DB	00H, 'n', 00H, 'd', 00H, 'l', 00H, 'e', 00H, 'r', 00H, '>', 00H
	DB	' ', 00H, '>', 00H, ' ', 00H, '>', 00H, ' ', 00H, '>', 00H, ':'
	DB	00H, ':', 00H, 'o', 00H, 'p', 00H, 'e', 00H, 'r', 00H, 'a', 00H
	DB	't', 00H, 'o', 00H, 'r', 00H, ' ', 00H, '=', 00H, '=', 00H, 00H
	DB	00H						; `string'
CONST	ENDS
;	COMDAT ??_C@_1NA@FLPGDINF@?$AAC?$AA?3?$AA?2?$AAP?$AAr?$AAo?$AAg?$AAr?$AAa?$AAm?$AA?5?$AAF?$AAi?$AAl?$AAe@
CONST	SEGMENT
??_C@_1NA@FLPGDINF@?$AAC?$AA?3?$AA?2?$AAP?$AAr?$AAo?$AAg?$AAr?$AAa?$AAm?$AA?5?$AAF?$AAi?$AAl?$AAe@ DB 'C'
	DB	00H, ':', 00H, '\', 00H, 'P', 00H, 'r', 00H, 'o', 00H, 'g', 00H
	DB	'r', 00H, 'a', 00H, 'm', 00H, ' ', 00H, 'F', 00H, 'i', 00H, 'l'
	DB	00H, 'e', 00H, 's', 00H, ' ', 00H, '(', 00H, 'x', 00H, '8', 00H
	DB	'6', 00H, ')', 00H, '\', 00H, 'M', 00H, 'i', 00H, 'c', 00H, 'r'
	DB	00H, 'o', 00H, 's', 00H, 'o', 00H, 'f', 00H, 't', 00H, ' ', 00H
	DB	'V', 00H, 'i', 00H, 's', 00H, 'u', 00H, 'a', 00H, 'l', 00H, ' '
	DB	00H, 'S', 00H, 't', 00H, 'u', 00H, 'd', 00H, 'i', 00H, 'o', 00H
	DB	'\', 00H, '2', 00H, '0', 00H, '1', 00H, '9', 00H, '\', 00H, 'P'
	DB	00H, 'r', 00H, 'o', 00H, 'f', 00H, 'e', 00H, 's', 00H, 's', 00H
	DB	'i', 00H, 'o', 00H, 'n', 00H, 'a', 00H, 'l', 00H, '\', 00H, 'V'
	DB	00H, 'C', 00H, '\', 00H, 'T', 00H, 'o', 00H, 'o', 00H, 'l', 00H
	DB	's', 00H, '\', 00H, 'M', 00H, 'S', 00H, 'V', 00H, 'C', 00H, '\'
	DB	00H, '1', 00H, '4', 00H, '.', 00H, '2', 00H, '8', 00H, '.', 00H
	DB	'2', 00H, '9', 00H, '3', 00H, '3', 00H, '3', 00H, '\', 00H, 'i'
	DB	00H, 'n', 00H, 'c', 00H, 'l', 00H, 'u', 00H, 'd', 00H, 'e', 00H
	DB	'\', 00H, 'l', 00H, 'i', 00H, 's', 00H, 't', 00H, 00H, 00H ; `string'
CONST	ENDS
;	COMDAT ??_C@_0GI@DIELDAIG@C?3?2Program?5Files?5?$CIx86?$CJ?2Microsof@
CONST	SEGMENT
??_C@_0GI@DIELDAIG@C?3?2Program?5Files?5?$CIx86?$CJ?2Microsof@ DB 'C:\Pro'
	DB	'gram Files (x86)\Microsoft Visual Studio\2019\Professional\VC'
	DB	'\Tools\MSVC\14.28.29333\include\list', 00H	; `string'
CONST	ENDS
;	COMDAT ??_C@_0BM@BALDKKHE@list?5iterators?5incompatible@
CONST	SEGMENT
??_C@_0BM@BALDKKHE@list?5iterators?5incompatible@ DB 'list iterators inco'
	DB	'mpatible', 00H				; `string'
CONST	ENDS
;	COMDAT ??_C@_0L@EIDODEPL@Assets?4zip@
CONST	SEGMENT
??_C@_0L@EIDODEPL@Assets?4zip@ DB 'Assets.zip', 00H	; `string'
CONST	ENDS
;	COMDAT ??_7NativeFileSystem@@6B@
CONST	SEGMENT
??_7NativeFileSystem@@6B@ DD FLAT:??_R4NativeFileSystem@@6B@ ; NativeFileSystem::`vftable'
	DD	FLAT:??_ENativeFileSystem@@UAEPAXI@Z
	DD	FLAT:?init@NativeFileSystem@@UAE_NABVResourceName@@@Z
	DD	FLAT:?release@NativeFileSystem@@UAEXXZ
	DD	FLAT:?getResourceSize@NativeFileSystem@@UAE_NABVResourceName@@AAI@Z
	DD	FLAT:?getResourceData@NativeFileSystem@@UAE_NABVResourceName@@PAXI@Z
	DD	FLAT:?getResourceBinaryData@NativeFileSystem@@UAE_NABVResourceName@@PAXI@Z
CONST	ENDS
;	COMDAT ??_C@_0GL@IOHNGPIE@C?3?2Program?5Files?5?$CIx86?$CJ?2Microsof@
CONST	SEGMENT
??_C@_0GL@IOHNGPIE@C?3?2Program?5Files?5?$CIx86?$CJ?2Microsof@ DB 'C:\Pro'
	DB	'gram Files (x86)\Microsoft Visual Studio\2019\Professional\VC'
	DB	'\Tools\MSVC\14.28.29333\include\xlocnum', 00H ; `string'
CONST	ENDS
;	COMDAT ?__LINE__Var@?0??_Maklocwcs@std@@YAPA_WPB_W@Z@4JA
_DATA	SEGMENT
?__LINE__Var@?0??_Maklocwcs@std@@YAPA_WPB_W@Z@4JA DD 05aH ; `std::_Maklocwcs'::`1'::__LINE__Var
_DATA	ENDS
;	COMDAT ??_C@_0GL@NDAGNCF@C?3?2Program?5Files?5?$CIx86?$CJ?2Microsof@
CONST	SEGMENT
??_C@_0GL@NDAGNCF@C?3?2Program?5Files?5?$CIx86?$CJ?2Microsof@ DB 'C:\Prog'
	DB	'ram Files (x86)\Microsoft Visual Studio\2019\Professional\VC\'
	DB	'Tools\MSVC\14.28.29333\include\xlocale', 00H ; `string'
CONST	ENDS
;	COMDAT ??_7ZipFileSystem@@6B@
CONST	SEGMENT
??_7ZipFileSystem@@6B@ DD FLAT:??_R4ZipFileSystem@@6B@	; ZipFileSystem::`vftable'
	DD	FLAT:??_EZipFileSystem@@UAEPAXI@Z
	DD	FLAT:?init@ZipFileSystem@@UAE_NABVResourceName@@@Z
	DD	FLAT:?release@ZipFileSystem@@UAEXXZ
	DD	FLAT:?getResourceSize@ZipFileSystem@@UAE_NABVResourceName@@AAI@Z
	DD	FLAT:?getResourceData@ZipFileSystem@@UAE_NABVResourceName@@PAXI@Z
	DD	FLAT:?getResourceBinaryData@ZipFileSystem@@UAE_NABVResourceName@@PAXI@Z
	DD	FLAT:?getResourceSize@ZipFileSystem@@UAE_NIAAI@Z
	DD	FLAT:?getResourceData@ZipFileSystem@@UAE_NIPAXI@Z
	DD	FLAT:?getResourceBinaryData@ZipFileSystem@@UAE_NIPAXI@Z
CONST	ENDS
;	COMDAT ??_7IndexedFileSystem@@6B@
CONST	SEGMENT
??_7IndexedFileSystem@@6B@ DD FLAT:??_R4IndexedFileSystem@@6B@ ; IndexedFileSystem::`vftable'
	DD	FLAT:??_EIndexedFileSystem@@UAEPAXI@Z
	DD	FLAT:__purecall
	DD	FLAT:__purecall
	DD	FLAT:__purecall
	DD	FLAT:__purecall
	DD	FLAT:__purecall
	DD	FLAT:__purecall
	DD	FLAT:__purecall
	DD	FLAT:__purecall
CONST	ENDS
;	COMDAT ??_7FileSystem@@6B@
CONST	SEGMENT
??_7FileSystem@@6B@ DD FLAT:??_R4FileSystem@@6B@	; FileSystem::`vftable'
	DD	FLAT:??_EFileSystem@@UAEPAXI@Z
	DD	FLAT:__purecall
	DD	FLAT:__purecall
	DD	FLAT:__purecall
	DD	FLAT:__purecall
	DD	FLAT:__purecall
CONST	ENDS
;	COMDAT ??_C@_01NBENCBCI@?$CK@
CONST	SEGMENT
??_C@_01NBENCBCI@?$CK@ DB '*', 00H			; `string'
CONST	ENDS
;	COMDAT ??_7DefaultResourceCreator@@6B@
CONST	SEGMENT
??_7DefaultResourceCreator@@6B@ DD FLAT:??_R4DefaultResourceCreator@@6B@ ; DefaultResourceCreator::`vftable'
	DD	FLAT:??_EDefaultResourceCreator@@UAEPAXI@Z
	DD	FLAT:?getFilePattern@DefaultResourceCreator@@UBEPBDXZ
	DD	FLAT:?createResourceFromZipFileSystem@DefaultResourceCreator@@UAEXAAVResourceHandler@@IAAVZipFileSystem@@@Z
	DD	FLAT:?createResourceFromMemory@DefaultResourceCreator@@UAEXAAVResourceHandler@@PAXI@Z
CONST	ENDS
;	COMDAT ??_7ResourceCreator@@6B@
CONST	SEGMENT
??_7ResourceCreator@@6B@ DD FLAT:??_R4ResourceCreator@@6B@ ; ResourceCreator::`vftable'
	DD	FLAT:??_EResourceCreator@@UAEPAXI@Z
	DD	FLAT:__purecall
	DD	FLAT:__purecall
	DD	FLAT:__purecall
CONST	ENDS
;	COMDAT ?_Min_buckets@?$_Hash@V?$_Umap_traits@IVResourceHandler@@V?$_Uhash_compare@IU?$hash@I@std@@U?$equal_to@I@2@@std@@V?$allocator@U?$pair@$$CBIVResourceHandler@@@std@@@3@$0A@@std@@@std@@2IB
CONST	SEGMENT
?_Min_buckets@?$_Hash@V?$_Umap_traits@IVResourceHandler@@V?$_Uhash_compare@IU?$hash@I@std@@U?$equal_to@I@2@@std@@V?$allocator@U?$pair@$$CBIVResourceHandler@@@std@@@3@$0A@@std@@@std@@2IB DD 08H ; std::_Hash<std::_Umap_traits<unsigned int,ResourceHandler,std::_Uhash_compare<unsigned int,std::hash<unsigned int>,std::equal_to<unsigned int> >,std::allocator<std::pair<unsigned int const ,ResourceHandler> >,0> >::_Min_buckets
CONST	ENDS
;	COMDAT ??_C@_07DCLBNMLN@generic@
CONST	SEGMENT
??_C@_07DCLBNMLN@generic@ DB 'generic', 00H		; `string'
CONST	ENDS
;	COMDAT ??_7_Generic_error_category@std@@6B@
CONST	SEGMENT
??_7_Generic_error_category@std@@6B@ DD FLAT:??_R4_Generic_error_category@std@@6B@ ; std::_Generic_error_category::`vftable'
	DD	FLAT:??_E_Generic_error_category@std@@UAEPAXI@Z
	DD	FLAT:?name@_Generic_error_category@std@@UBEPBDXZ
	DD	FLAT:?message@_Generic_error_category@std@@UBE?AV?$basic_string@DU?$char_traits@D@std@@V?$allocator@D@2@@2@H@Z
	DD	FLAT:?default_error_condition@error_category@std@@UBE?AVerror_condition@2@H@Z
	DD	FLAT:?equivalent@error_category@std@@UBE_NABVerror_code@2@H@Z
	DD	FLAT:?equivalent@error_category@std@@UBE_NHABVerror_condition@2@@Z
CONST	ENDS
;	COMDAT __CT??_R0?AV_System_error@std@@@8??0_System_error@std@@QAE@ABV01@@Z20
xdata$x	SEGMENT
__CT??_R0?AV_System_error@std@@@8??0_System_error@std@@QAE@ABV01@@Z20 DD 00H
	DD	FLAT:??_R0?AV_System_error@std@@@8
	DD	00H
	DD	0ffffffffH
	ORG $+4
	DD	014H
	DD	FLAT:??0_System_error@std@@QAE@ABV01@@Z
xdata$x	ENDS
;	COMDAT ??_R0?AV_System_error@std@@@8
data$r	SEGMENT
??_R0?AV_System_error@std@@@8 DD FLAT:??_7type_info@@6B@ ; std::_System_error `RTTI Type Descriptor'
	DD	00H
	DB	'.?AV_System_error@std@@', 00H
data$r	ENDS
;	COMDAT __CT??_R0?AVsystem_error@std@@@8??0system_error@std@@QAE@ABV01@@Z20
xdata$x	SEGMENT
__CT??_R0?AVsystem_error@std@@@8??0system_error@std@@QAE@ABV01@@Z20 DD 00H
	DD	FLAT:??_R0?AVsystem_error@std@@@8
	DD	00H
	DD	0ffffffffH
	ORG $+4
	DD	014H
	DD	FLAT:??0system_error@std@@QAE@ABV01@@Z
xdata$x	ENDS
;	COMDAT ??_R0?AVsystem_error@std@@@8
data$r	SEGMENT
??_R0?AVsystem_error@std@@@8 DD FLAT:??_7type_info@@6B@	; std::system_error `RTTI Type Descriptor'
	DD	00H
	DB	'.?AVsystem_error@std@@', 00H
data$r	ENDS
;	COMDAT __CTA4?AVsystem_error@std@@
xdata$x	SEGMENT
__CTA4?AVsystem_error@std@@ DD 04H
	DD	FLAT:__CT??_R0?AVsystem_error@std@@@8??0system_error@std@@QAE@ABV01@@Z20
	DD	FLAT:__CT??_R0?AV_System_error@std@@@8??0_System_error@std@@QAE@ABV01@@Z20
	DD	FLAT:__CT??_R0?AVruntime_error@std@@@8??0runtime_error@std@@QAE@ABV01@@Z12
	DD	FLAT:__CT??_R0?AVexception@std@@@8??0exception@std@@QAE@ABV01@@Z12
xdata$x	ENDS
;	COMDAT __TI4?AVsystem_error@std@@
xdata$x	SEGMENT
__TI4?AVsystem_error@std@@ DD 00H
	DD	FLAT:??1system_error@std@@UAE@XZ
	DD	00H
	DD	FLAT:__CTA4?AVsystem_error@std@@
xdata$x	ENDS
;	COMDAT ??_7system_error@std@@6B@
CONST	SEGMENT
??_7system_error@std@@6B@ DD FLAT:??_R4system_error@std@@6B@ ; std::system_error::`vftable'
	DD	FLAT:??_Esystem_error@std@@UAEPAXI@Z
	DD	FLAT:?what@exception@std@@UBEPBDXZ
CONST	ENDS
;	COMDAT ??_C@_02LMMGGCAJ@?3?5@
CONST	SEGMENT
??_C@_02LMMGGCAJ@?3?5@ DB ': ', 00H			; `string'
CONST	ENDS
;	COMDAT ??_7_System_error@std@@6B@
CONST	SEGMENT
??_7_System_error@std@@6B@ DD FLAT:??_R4_System_error@std@@6B@ ; std::_System_error::`vftable'
	DD	FLAT:??_E_System_error@std@@UAEPAXI@Z
	DD	FLAT:?what@exception@std@@UBEPBDXZ
CONST	ENDS
;	COMDAT __CT??_R0?AVruntime_error@std@@@8??0runtime_error@std@@QAE@ABV01@@Z12
xdata$x	SEGMENT
__CT??_R0?AVruntime_error@std@@@8??0runtime_error@std@@QAE@ABV01@@Z12 DD 00H
	DD	FLAT:??_R0?AVruntime_error@std@@@8
	DD	00H
	DD	0ffffffffH
	ORG $+4
	DD	0cH
	DD	FLAT:??0runtime_error@std@@QAE@ABV01@@Z
xdata$x	ENDS
;	COMDAT ??_R0?AVruntime_error@std@@@8
data$r	SEGMENT
??_R0?AVruntime_error@std@@@8 DD FLAT:??_7type_info@@6B@ ; std::runtime_error `RTTI Type Descriptor'
	DD	00H
	DB	'.?AVruntime_error@std@@', 00H
data$r	ENDS
;	COMDAT ??_7runtime_error@std@@6B@
CONST	SEGMENT
??_7runtime_error@std@@6B@ DD FLAT:??_R4runtime_error@std@@6B@ ; std::runtime_error::`vftable'
	DD	FLAT:??_Eruntime_error@std@@UAEPAXI@Z
	DD	FLAT:?what@exception@std@@UBEPBDXZ
CONST	ENDS
;	COMDAT ??_C@_0BA@JFNIOLAK@string?5too?5long@
CONST	SEGMENT
??_C@_0BA@JFNIOLAK@string?5too?5long@ DB 'string too long', 00H ; `string'
CONST	ENDS
;	COMDAT ??_C@_1DG@PLBPCAEM@?$AA?$CC?$AAI?$AAT?$AAE?$AAR?$AAA?$AAT?$AAO?$AAR?$AA?5?$AAL?$AAI?$AAS?$AAT?$AA?5@
CONST	SEGMENT
??_C@_1DG@PLBPCAEM@?$AA?$CC?$AAI?$AAT?$AAE?$AAR?$AAA?$AAT?$AAO?$AAR?$AA?5?$AAL?$AAI?$AAS?$AAT?$AA?5@ DB '"'
	DB	00H, 'I', 00H, 'T', 00H, 'E', 00H, 'R', 00H, 'A', 00H, 'T', 00H
	DB	'O', 00H, 'R', 00H, ' ', 00H, 'L', 00H, 'I', 00H, 'S', 00H, 'T'
	DB	00H, ' ', 00H, 'C', 00H, 'O', 00H, 'R', 00H, 'R', 00H, 'U', 00H
	DB	'P', 00H, 'T', 00H, 'E', 00H, 'D', 00H, '!', 00H, '"', 00H, 00H
	DB	00H						; `string'
CONST	ENDS
;	COMDAT ??_C@_1EE@KLDMFDFL@?$AAs?$AAt?$AAd?$AA?3?$AA?3?$AA_?$AAI?$AAt?$AAe?$AAr?$AAa?$AAt?$AAo?$AAr?$AA_@
CONST	SEGMENT
??_C@_1EE@KLDMFDFL@?$AAs?$AAt?$AAd?$AA?3?$AA?3?$AA_?$AAI?$AAt?$AAe?$AAr?$AAa?$AAt?$AAo?$AAr?$AA_@ DB 's'
	DB	00H, 't', 00H, 'd', 00H, ':', 00H, ':', 00H, '_', 00H, 'I', 00H
	DB	't', 00H, 'e', 00H, 'r', 00H, 'a', 00H, 't', 00H, 'o', 00H, 'r'
	DB	00H, '_', 00H, 'b', 00H, 'a', 00H, 's', 00H, 'e', 00H, '1', 00H
	DB	'2', 00H, ':', 00H, ':', 00H, '_', 00H, 'O', 00H, 'r', 00H, 'p'
	DB	00H, 'h', 00H, 'a', 00H, 'n', 00H, '_', 00H, 'm', 00H, 'e', 00H
	DB	00H, 00H					; `string'
CONST	ENDS
;	COMDAT ??_C@_0BJ@LFDBABJJ@ITERATOR?5LIST?5CORRUPTED?$CB@
CONST	SEGMENT
??_C@_0BJ@LFDBABJJ@ITERATOR?5LIST?5CORRUPTED?$CB@ DB 'ITERATOR LIST CORRU'
	DB	'PTED!', 00H					; `string'
CONST	ENDS
;	COMDAT ??_C@_1CG@JNLFBNGN@?$AA?$CC?$AAi?$AAn?$AAv?$AAa?$AAl?$AAi?$AAd?$AA?5?$AAa?$AAr?$AAg?$AAu?$AAm?$AAe@
CONST	SEGMENT
??_C@_1CG@JNLFBNGN@?$AA?$CC?$AAi?$AAn?$AAv?$AAa?$AAl?$AAi?$AAd?$AA?5?$AAa?$AAr?$AAg?$AAu?$AAm?$AAe@ DB '"'
	DB	00H, 'i', 00H, 'n', 00H, 'v', 00H, 'a', 00H, 'l', 00H, 'i', 00H
	DB	'd', 00H, ' ', 00H, 'a', 00H, 'r', 00H, 'g', 00H, 'u', 00H, 'm'
	DB	00H, 'e', 00H, 'n', 00H, 't', 00H, '"', 00H, 00H, 00H ; `string'
CONST	ENDS
;	COMDAT ??_C@_1EK@NIFDJFDG@?$AAs?$AAt?$AAd?$AA?3?$AA?3?$AA_?$AAA?$AAd?$AAj?$AAu?$AAs?$AAt?$AA_?$AAm?$AAa@
CONST	SEGMENT
??_C@_1EK@NIFDJFDG@?$AAs?$AAt?$AAd?$AA?3?$AA?3?$AA_?$AAA?$AAd?$AAj?$AAu?$AAs?$AAt?$AA_?$AAm?$AAa@ DB 's'
	DB	00H, 't', 00H, 'd', 00H, ':', 00H, ':', 00H, '_', 00H, 'A', 00H
	DB	'd', 00H, 'j', 00H, 'u', 00H, 's', 00H, 't', 00H, '_', 00H, 'm'
	DB	00H, 'a', 00H, 'n', 00H, 'u', 00H, 'a', 00H, 'l', 00H, 'l', 00H
	DB	'y', 00H, '_', 00H, 'v', 00H, 'e', 00H, 'c', 00H, 't', 00H, 'o'
	DB	00H, 'r', 00H, '_', 00H, 'a', 00H, 'l', 00H, 'i', 00H, 'g', 00H
	DB	'n', 00H, 'e', 00H, 'd', 00H, 00H, 00H	; `string'
CONST	ENDS
;	COMDAT ??_C@_1NG@FKHEBIAG@?$AAC?$AA?3?$AA?2?$AAP?$AAr?$AAo?$AAg?$AAr?$AAa?$AAm?$AA?5?$AAF?$AAi?$AAl?$AAe@
CONST	SEGMENT
??_C@_1NG@FKHEBIAG@?$AAC?$AA?3?$AA?2?$AAP?$AAr?$AAo?$AAg?$AAr?$AAa?$AAm?$AA?5?$AAF?$AAi?$AAl?$AAe@ DB 'C'
	DB	00H, ':', 00H, '\', 00H, 'P', 00H, 'r', 00H, 'o', 00H, 'g', 00H
	DB	'r', 00H, 'a', 00H, 'm', 00H, ' ', 00H, 'F', 00H, 'i', 00H, 'l'
	DB	00H, 'e', 00H, 's', 00H, ' ', 00H, '(', 00H, 'x', 00H, '8', 00H
	DB	'6', 00H, ')', 00H, '\', 00H, 'M', 00H, 'i', 00H, 'c', 00H, 'r'
	DB	00H, 'o', 00H, 's', 00H, 'o', 00H, 'f', 00H, 't', 00H, ' ', 00H
	DB	'V', 00H, 'i', 00H, 's', 00H, 'u', 00H, 'a', 00H, 'l', 00H, ' '
	DB	00H, 'S', 00H, 't', 00H, 'u', 00H, 'd', 00H, 'i', 00H, 'o', 00H
	DB	'\', 00H, '2', 00H, '0', 00H, '1', 00H, '9', 00H, '\', 00H, 'P'
	DB	00H, 'r', 00H, 'o', 00H, 'f', 00H, 'e', 00H, 's', 00H, 's', 00H
	DB	'i', 00H, 'o', 00H, 'n', 00H, 'a', 00H, 'l', 00H, '\', 00H, 'V'
	DB	00H, 'C', 00H, '\', 00H, 'T', 00H, 'o', 00H, 'o', 00H, 'l', 00H
	DB	's', 00H, '\', 00H, 'M', 00H, 'S', 00H, 'V', 00H, 'C', 00H, '\'
	DB	00H, '1', 00H, '4', 00H, '.', 00H, '2', 00H, '8', 00H, '.', 00H
	DB	'2', 00H, '9', 00H, '3', 00H, '3', 00H, '3', 00H, '\', 00H, 'i'
	DB	00H, 'n', 00H, 'c', 00H, 'l', 00H, 'u', 00H, 'd', 00H, 'e', 00H
	DB	'\', 00H, 'x', 00H, 'm', 00H, 'e', 00H, 'm', 00H, 'o', 00H, 'r'
	DB	00H, 'y', 00H, 00H, 00H			; `string'
CONST	ENDS
;	COMDAT ??_C@_0GL@KFPMFPIC@C?3?2Program?5Files?5?$CIx86?$CJ?2Microsof@
CONST	SEGMENT
??_C@_0GL@KFPMFPIC@C?3?2Program?5Files?5?$CIx86?$CJ?2Microsof@ DB 'C:\Pro'
	DB	'gram Files (x86)\Microsoft Visual Studio\2019\Professional\VC'
	DB	'\Tools\MSVC\14.28.29333\include\xmemory', 00H ; `string'
CONST	ENDS
;	COMDAT ??_C@_0BB@FCMFBGOM@invalid?5argument@
CONST	SEGMENT
??_C@_0BB@FCMFBGOM@invalid?5argument@ DB 'invalid argument', 00H ; `string'
CONST	ENDS
;	COMDAT ?__LINE__Var@?0??_Adjust_manually_vector_aligned@std@@YAXAAPAXAAI@Z@4JA
_DATA	SEGMENT
?__LINE__Var@?0??_Adjust_manually_vector_aligned@std@@YAXAAPAXAAI@Z@4JA DD 084H ; `std::_Adjust_manually_vector_aligned'::`1'::__LINE__Var
_DATA	ENDS
;	COMDAT __CT??_R0?AVexception@std@@@8??0exception@std@@QAE@ABV01@@Z12
xdata$x	SEGMENT
__CT??_R0?AVexception@std@@@8??0exception@std@@QAE@ABV01@@Z12 DD 00H
	DD	FLAT:??_R0?AVexception@std@@@8
	DD	00H
	DD	0ffffffffH
	ORG $+4
	DD	0cH
	DD	FLAT:??0exception@std@@QAE@ABV01@@Z
xdata$x	ENDS
;	COMDAT ??_R0?AVexception@std@@@8
data$r	SEGMENT
??_R0?AVexception@std@@@8 DD FLAT:??_7type_info@@6B@	; std::exception `RTTI Type Descriptor'
	DD	00H
	DB	'.?AVexception@std@@', 00H
data$r	ENDS
;	COMDAT __CT??_R0?AVbad_alloc@std@@@8??0bad_alloc@std@@QAE@ABV01@@Z12
xdata$x	SEGMENT
__CT??_R0?AVbad_alloc@std@@@8??0bad_alloc@std@@QAE@ABV01@@Z12 DD 010H
	DD	FLAT:??_R0?AVbad_alloc@std@@@8
	DD	00H
	DD	0ffffffffH
	ORG $+4
	DD	0cH
	DD	FLAT:??0bad_alloc@std@@QAE@ABV01@@Z
xdata$x	ENDS
;	COMDAT ??_R0?AVbad_alloc@std@@@8
data$r	SEGMENT
??_R0?AVbad_alloc@std@@@8 DD FLAT:??_7type_info@@6B@	; std::bad_alloc `RTTI Type Descriptor'
	DD	00H
	DB	'.?AVbad_alloc@std@@', 00H
data$r	ENDS
;	COMDAT __CT??_R0?AVbad_array_new_length@std@@@8??0bad_array_new_length@std@@QAE@ABV01@@Z12
xdata$x	SEGMENT
__CT??_R0?AVbad_array_new_length@std@@@8??0bad_array_new_length@std@@QAE@ABV01@@Z12 DD 00H
	DD	FLAT:??_R0?AVbad_array_new_length@std@@@8
	DD	00H
	DD	0ffffffffH
	ORG $+4
	DD	0cH
	DD	FLAT:??0bad_array_new_length@std@@QAE@ABV01@@Z
xdata$x	ENDS
;	COMDAT ??_R0?AVbad_array_new_length@std@@@8
data$r	SEGMENT
??_R0?AVbad_array_new_length@std@@@8 DD FLAT:??_7type_info@@6B@ ; std::bad_array_new_length `RTTI Type Descriptor'
	DD	00H
	DB	'.?AVbad_array_new_length@std@@', 00H
data$r	ENDS
;	COMDAT __CTA3?AVbad_array_new_length@std@@
xdata$x	SEGMENT
__CTA3?AVbad_array_new_length@std@@ DD 03H
	DD	FLAT:__CT??_R0?AVbad_array_new_length@std@@@8??0bad_array_new_length@std@@QAE@ABV01@@Z12
	DD	FLAT:__CT??_R0?AVbad_alloc@std@@@8??0bad_alloc@std@@QAE@ABV01@@Z12
	DD	FLAT:__CT??_R0?AVexception@std@@@8??0exception@std@@QAE@ABV01@@Z12
xdata$x	ENDS
;	COMDAT __TI3?AVbad_array_new_length@std@@
xdata$x	SEGMENT
__TI3?AVbad_array_new_length@std@@ DD 00H
	DD	FLAT:??1bad_array_new_length@std@@UAE@XZ
	DD	00H
	DD	FLAT:__CTA3?AVbad_array_new_length@std@@
xdata$x	ENDS
;	COMDAT ??_C@_0BF@KINCDENJ@bad?5array?5new?5length@
CONST	SEGMENT
??_C@_0BF@KINCDENJ@bad?5array?5new?5length@ DB 'bad array new length', 00H ; `string'
CONST	ENDS
;	COMDAT ??_7bad_array_new_length@std@@6B@
CONST	SEGMENT
??_7bad_array_new_length@std@@6B@ DD FLAT:??_R4bad_array_new_length@std@@6B@ ; std::bad_array_new_length::`vftable'
	DD	FLAT:??_Ebad_array_new_length@std@@UAEPAXI@Z
	DD	FLAT:?what@exception@std@@UBEPBDXZ
CONST	ENDS
;	COMDAT ??_7bad_alloc@std@@6B@
CONST	SEGMENT
??_7bad_alloc@std@@6B@ DD FLAT:??_R4bad_alloc@std@@6B@	; std::bad_alloc::`vftable'
	DD	FLAT:??_Ebad_alloc@std@@UAEPAXI@Z
	DD	FLAT:?what@exception@std@@UBEPBDXZ
CONST	ENDS
;	COMDAT ??_C@_0BC@EOODALEL@Unknown?5exception@
CONST	SEGMENT
??_C@_0BC@EOODALEL@Unknown?5exception@ DB 'Unknown exception', 00H ; `string'
CONST	ENDS
;	COMDAT ??_7exception@std@@6B@
CONST	SEGMENT
??_7exception@std@@6B@ DD FLAT:??_R4exception@std@@6B@	; std::exception::`vftable'
	DD	FLAT:??_Eexception@std@@UAEPAXI@Z
	DD	FLAT:?what@exception@std@@UBEPBDXZ
CONST	ENDS
;	COMDAT ??_C@_02DKCKIIND@?$CFs@
CONST	SEGMENT
??_C@_02DKCKIIND@?$CFs@ DB '%s', 00H			; `string'
CONST	ENDS
;	COMDAT ??_C@_00CNPNBAHC@@
CONST	SEGMENT
??_C@_00CNPNBAHC@@ DB 00H				; `string'
CONST	ENDS
;	COMDAT xdata$x
xdata$x	SEGMENT
__unwindtable$??$?0U?$pair@IVResourceHandler@@@std@@@?$_List_node_emplace_op2@V?$allocator@U?$_List_node@U?$pair@$$CBIVResourceHandler@@@std@@PAX@std@@@std@@@std@@QAE@AAV?$allocator@U?$_List_node@U?$pair@$$CBIVResourceHandler@@@std@@PAX@std@@@1@$$QAU?$pair@IVResourceHandler@@@1@@Z DD 0ffffffffH
	DD	FLAT:__unwindfunclet$??$?0U?$pair@IVResourceHandler@@@std@@@?$_List_node_emplace_op2@V?$allocator@U?$_List_node@U?$pair@$$CBIVResourceHandler@@@std@@PAX@std@@@std@@@std@@QAE@AAV?$allocator@U?$_List_node@U?$pair@$$CBIVResourceHandler@@@std@@PAX@std@@@1@$$QAU?$pair@IVResourceHandler@@@1@@Z$0
__ehfuncinfo$??$?0U?$pair@IVResourceHandler@@@std@@@?$_List_node_emplace_op2@V?$allocator@U?$_List_node@U?$pair@$$CBIVResourceHandler@@@std@@PAX@std@@@std@@@std@@QAE@AAV?$allocator@U?$_List_node@U?$pair@$$CBIVResourceHandler@@@std@@PAX@std@@@1@$$QAU?$pair@IVResourceHandler@@@1@@Z DD 019930522H
	DD	01H
	DD	FLAT:__unwindtable$??$?0U?$pair@IVResourceHandler@@@std@@@?$_List_node_emplace_op2@V?$allocator@U?$_List_node@U?$pair@$$CBIVResourceHandler@@@std@@PAX@std@@@std@@@std@@QAE@AAV?$allocator@U?$_List_node@U?$pair@$$CBIVResourceHandler@@@std@@PAX@std@@@1@$$QAU?$pair@IVResourceHandler@@@1@@Z
	DD	2 DUP(00H)
	DD	2 DUP(00H)
	DD	00H
	DD	01H
xdata$x	ENDS
;	COMDAT xdata$x
xdata$x	SEGMENT
__ehfuncinfo$??1?$_List_node_emplace_op2@V?$allocator@U?$_List_node@U?$pair@$$CBIVResourceHandler@@@std@@PAX@std@@@std@@@std@@QAE@XZ DD 019930522H
	DD	00H
	DD	00H
	DD	2 DUP(00H)
	DD	2 DUP(00H)
	DD	00H
	DD	05H
xdata$x	ENDS
;	COMDAT xdata$x
xdata$x	SEGMENT
__ehfuncinfo$??1?$_Alloc_construct_ptr@V?$allocator@U?$_List_node@U?$pair@$$CBIVResourceHandler@@@std@@PAX@std@@@std@@@std@@QAE@XZ DD 019930522H
	DD	00H
	DD	00H
	DD	2 DUP(00H)
	DD	2 DUP(00H)
	DD	00H
	DD	05H
xdata$x	ENDS
;	COMDAT xdata$x
xdata$x	SEGMENT
__ehfuncinfo$??$_Freenode@V?$allocator@U?$_List_node@U?$pair@$$CBIVResourceHandler@@@std@@PAX@std@@@std@@@?$_List_node@U?$pair@$$CBIVResourceHandler@@@std@@PAX@std@@SAXAAV?$allocator@U?$_List_node@U?$pair@$$CBIVResourceHandler@@@std@@PAX@std@@@1@PAU01@@Z DD 019930522H
	DD	00H
	DD	00H
	DD	2 DUP(00H)
	DD	2 DUP(00H)
	DD	00H
	DD	05H
xdata$x	ENDS
;	COMDAT xdata$x
xdata$x	SEGMENT
__ehfuncinfo$??$_Freenode@V?$allocator@U?$_List_node@U?$pair@$$CBII@std@@PAX@std@@@std@@@?$_List_node@U?$pair@$$CBII@std@@PAX@std@@SAXAAV?$allocator@U?$_List_node@U?$pair@$$CBII@std@@PAX@std@@@1@PAU01@@Z DD 019930522H
	DD	00H
	DD	00H
	DD	2 DUP(00H)
	DD	2 DUP(00H)
	DD	00H
	DD	05H
xdata$x	ENDS
;	COMDAT xdata$x
xdata$x	SEGMENT
