; Listing generated by Microsoft (R) Optimizing Compiler Version 19.28.29335.0 

	TITLE	C:\Users\tim23\Documents\Visual Studio 2019\Projects\Project2D\Project2D\ResourceManager\ResourceName.cpp
	.686P
	.XMM
	include listing.inc
	.model	flat

INCLUDELIB MSVCRTD
INCLUDELIB OLDNAMES

msvcjmc	SEGMENT
__8B404B8B_vcruntime_new@h DB 01H
__3C2D1DF9_Resource@h DB 01H
__2A0FE41E_ResourceName@h DB 01H
__A2143F22_corecrt_stdio_config@h DB 01H
__829E1958_corecrt_wstdio@h DB 01H
__6DFAE8B8_stdio@h DB 01H
__1FEB9909_corecrt_memcpy_s@h DB 01H
__A751F051_corecrt_memory@h DB 01H
__9200769A_corecrt_wstring@h DB 01H
__32E5F013_string@h DB 01H
__C6E16F6F_corecrt_wconio@h DB 01H
__6D390390_corecrt_wio@h DB 01H
__1157D6BA_corecrt_wtime@h DB 01H
__1DC1E279_stat@h DB 01H
__93DC0B45_wchar@h DB 01H
__4C8DB69C_cstddef DB 01H
__741AE07E_corecrt_math@h DB 01H
__B49664B7_stdlib@h DB 01H
__E9466C31_cstdlib DB 01H
__A47FD3F7_limits DB 01H
__77E6CA79_type_traits DB 01H
__20BB4341_malloc@h DB 01H
__604808BE_vcruntime_exception@h DB 01H
__8655F6A9_exception DB 01H
__DEE7E6EF_xutility DB 01H
__B4DE8A79_xmemory DB 01H
__E7714AE5_tuple DB 01H
__EA01D114_xpolymorphic_allocator@h DB 01H
__C00D0CE5_xstring DB 01H
__B2D2BA86_ctype@h DB 01H
__6C0259E5_string DB 01H
__0049D49A_ResourceName@cpp DB 01H
__DE4BE9BA_utility DB 01H
__29547EA8_xstddef DB 01H
msvcjmc	ENDS
PUBLIC	?assign@ResourceName@@AAEXPBD@Z			; ResourceName::assign
PUBLIC	??0ResourceName@@QAE@PBD@Z			; ResourceName::ResourceName
PUBLIC	??0ResourceName@@QAE@ABV0@@Z			; ResourceName::ResourceName
PUBLIC	??4ResourceName@@QAEAAV0@PBD@Z			; ResourceName::operator=
PUBLIC	??4ResourceName@@QAEAAV0@ABV0@@Z		; ResourceName::operator=
PUBLIC	?length@ResourceName@@QBEIXZ			; ResourceName::length
PUBLIC	?hash@ResourceName@@QBEIXZ			; ResourceName::hash
PUBLIC	__JustMyCode_Default
EXTRN	?Crc32@@YAIPBDI@Z:PROC				; Crc32
EXTRN	__imp__strcpy_s:PROC
EXTRN	_strlen:PROC
EXTRN	__imp__tolower:PROC
EXTRN	@__CheckForDebuggerJustMyCode@4:PROC
EXTRN	__RTC_CheckEsp:PROC
EXTRN	__RTC_InitBase:PROC
EXTRN	__RTC_Shutdown:PROC
;	COMDAT rtc$TMZ
rtc$TMZ	SEGMENT
__RTC_Shutdown.rtc$TMZ DD FLAT:__RTC_Shutdown
rtc$TMZ	ENDS
;	COMDAT rtc$IMZ
rtc$IMZ	SEGMENT
__RTC_InitBase.rtc$IMZ DD FLAT:__RTC_InitBase
rtc$IMZ	ENDS
; Function compile flags: /Odt
;	COMDAT __JustMyCode_Default
_TEXT	SEGMENT
__JustMyCode_Default PROC				; COMDAT
	push	ebp
	mov	ebp, esp
	pop	ebp
	ret	0
__JustMyCode_Default ENDP
_TEXT	ENDS
; Function compile flags: /Odtp /RTCsu /ZI
; File C:\Users\tim23\Documents\Visual Studio 2019\Projects\Project2D\Project2D\ResourceManager\ResourceName.cpp
;	COMDAT ?hash@ResourceName@@QBEIXZ
_TEXT	SEGMENT
_this$ = -8						; size = 4
?hash@ResourceName@@QBEIXZ PROC				; ResourceName::hash, COMDAT
; _this$ = ecx

; 37   : ResourceID ResourceName::hash() const {

	push	ebp
	mov	ebp, esp
	sub	esp, 204				; 000000ccH
	push	ebx
	push	esi
	push	edi
	push	ecx
	lea	edi, DWORD PTR [ebp-204]
	mov	ecx, 51					; 00000033H
	mov	eax, -858993460				; ccccccccH
	rep stosd
	pop	ecx
	mov	DWORD PTR _this$[ebp], ecx
	mov	ecx, OFFSET __0049D49A_ResourceName@cpp
	call	@__CheckForDebuggerJustMyCode@4

; 38   :     return Crc32(name, length());

	mov	ecx, DWORD PTR _this$[ebp]
	call	?length@ResourceName@@QBEIXZ		; ResourceName::length
	push	eax
	mov	eax, DWORD PTR _this$[ebp]
	push	eax
	call	?Crc32@@YAIPBDI@Z			; Crc32
	add	esp, 8

; 39   : }

	pop	edi
	pop	esi
	pop	ebx
	add	esp, 204				; 000000ccH
	cmp	ebp, esp
	call	__RTC_CheckEsp
	mov	esp, ebp
	pop	ebp
	ret	0
?hash@ResourceName@@QBEIXZ ENDP				; ResourceName::hash
_TEXT	ENDS
; Function compile flags: /Odtp /RTCsu /ZI
; File C:\Users\tim23\Documents\Visual Studio 2019\Projects\Project2D\Project2D\ResourceManager\ResourceName.cpp
;	COMDAT ?length@ResourceName@@QBEIXZ
_TEXT	SEGMENT
_this$ = -8						; size = 4
?length@ResourceName@@QBEIXZ PROC			; ResourceName::length, COMDAT
; _this$ = ecx

; 33   : size_t ResourceName::length() const {

	push	ebp
	mov	ebp, esp
	sub	esp, 204				; 000000ccH
	push	ebx
	push	esi
	push	edi
	push	ecx
	lea	edi, DWORD PTR [ebp-204]
	mov	ecx, 51					; 00000033H
	mov	eax, -858993460				; ccccccccH
	rep stosd
	pop	ecx
	mov	DWORD PTR _this$[ebp], ecx
	mov	ecx, OFFSET __0049D49A_ResourceName@cpp
	call	@__CheckForDebuggerJustMyCode@4

; 34   :     return strlen(name);

	mov	eax, DWORD PTR _this$[ebp]
	push	eax
	call	_strlen
	add	esp, 4

; 35   : }

	pop	edi
	pop	esi
	pop	ebx
	add	esp, 204				; 000000ccH
	cmp	ebp, esp
	call	__RTC_CheckEsp
	mov	esp, ebp
	pop	ebp
	ret	0
?length@ResourceName@@QBEIXZ ENDP			; ResourceName::length
_TEXT	ENDS
; Function compile flags: /Odtp /RTCsu /ZI
; File C:\Users\tim23\Documents\Visual Studio 2019\Projects\Project2D\Project2D\ResourceManager\ResourceName.cpp
;	COMDAT ??4ResourceName@@QAEAAV0@ABV0@@Z
_TEXT	SEGMENT
_this$ = -8						; size = 4
_newName$ = 8						; size = 4
??4ResourceName@@QAEAAV0@ABV0@@Z PROC			; ResourceName::operator=, COMDAT
; _this$ = ecx

; 28   : ResourceName& ResourceName::operator=(const ResourceName& newName) {

	push	ebp
	mov	ebp, esp
	sub	esp, 204				; 000000ccH
	push	ebx
	push	esi
	push	edi
	push	ecx
	lea	edi, DWORD PTR [ebp-204]
	mov	ecx, 51					; 00000033H
	mov	eax, -858993460				; ccccccccH
	rep stosd
	pop	ecx
	mov	DWORD PTR _this$[ebp], ecx
	mov	ecx, OFFSET __0049D49A_ResourceName@cpp
	call	@__CheckForDebuggerJustMyCode@4

; 29   :     strcpy_s(name, MAX_RESOURCE_NAME_PATH, newName.name);

	mov	eax, DWORD PTR _newName$[ebp]
	mov	esi, esp
	push	eax
	push	256					; 00000100H
	mov	ecx, DWORD PTR _this$[ebp]
	push	ecx
	call	DWORD PTR __imp__strcpy_s
	add	esp, 12					; 0000000cH
	cmp	esi, esp
	call	__RTC_CheckEsp

; 30   :     return *this;

	mov	eax, DWORD PTR _this$[ebp]

; 31   : }

	pop	edi
	pop	esi
	pop	ebx
	add	esp, 204				; 000000ccH
	cmp	ebp, esp
	call	__RTC_CheckEsp
	mov	esp, ebp
	pop	ebp
	ret	4
??4ResourceName@@QAEAAV0@ABV0@@Z ENDP			; ResourceName::operator=
_TEXT	ENDS
; Function compile flags: /Odtp /RTCsu /ZI
; File C:\Users\tim23\Documents\Visual Studio 2019\Projects\Project2D\Project2D\ResourceManager\ResourceName.cpp
;	COMDAT ??4ResourceName@@QAEAAV0@PBD@Z
_TEXT	SEGMENT
_this$ = -8						; size = 4
_newName$ = 8						; size = 4
??4ResourceName@@QAEAAV0@PBD@Z PROC			; ResourceName::operator=, COMDAT
; _this$ = ecx

; 23   : ResourceName& ResourceName::operator=(const char* newName) {

	push	ebp
	mov	ebp, esp
	sub	esp, 204				; 000000ccH
	push	ebx
	push	esi
	push	edi
	push	ecx
	lea	edi, DWORD PTR [ebp-204]
	mov	ecx, 51					; 00000033H
	mov	eax, -858993460				; ccccccccH
	rep stosd
	pop	ecx
	mov	DWORD PTR _this$[ebp], ecx
	mov	ecx, OFFSET __0049D49A_ResourceName@cpp
	call	@__CheckForDebuggerJustMyCode@4

; 24   :     assign(newName);

	mov	eax, DWORD PTR _newName$[ebp]
	push	eax
	mov	ecx, DWORD PTR _this$[ebp]
	call	?assign@ResourceName@@AAEXPBD@Z		; ResourceName::assign

; 25   :     return *this;

	mov	eax, DWORD PTR _this$[ebp]

; 26   : }

	pop	edi
	pop	esi
	pop	ebx
	add	esp, 204				; 000000ccH
	cmp	ebp, esp
	call	__RTC_CheckEsp
	mov	esp, ebp
	pop	ebp
	ret	4
??4ResourceName@@QAEAAV0@PBD@Z ENDP			; ResourceName::operator=
_TEXT	ENDS
; Function compile flags: /Odtp /RTCsu /ZI
; File C:\Users\tim23\Documents\Visual Studio 2019\Projects\Project2D\Project2D\ResourceManager\ResourceName.cpp
;	COMDAT ??0ResourceName@@QAE@ABV0@@Z
_TEXT	SEGMENT
_this$ = -8						; size = 4
_newName$ = 8						; size = 4
??0ResourceName@@QAE@ABV0@@Z PROC			; ResourceName::ResourceName, COMDAT
; _this$ = ecx

; 19   : ResourceName::ResourceName(const ResourceName& newName) {

	push	ebp
	mov	ebp, esp
	sub	esp, 204				; 000000ccH
	push	ebx
	push	esi
	push	edi
	push	ecx
	lea	edi, DWORD PTR [ebp-204]
	mov	ecx, 51					; 00000033H
	mov	eax, -858993460				; ccccccccH
	rep stosd
	pop	ecx
	mov	DWORD PTR _this$[ebp], ecx
	mov	ecx, OFFSET __0049D49A_ResourceName@cpp
	call	@__CheckForDebuggerJustMyCode@4

; 20   :     strcpy_s(name, MAX_RESOURCE_NAME_PATH, newName.name);

	mov	eax, DWORD PTR _newName$[ebp]
	mov	esi, esp
	push	eax
	push	256					; 00000100H
	mov	ecx, DWORD PTR _this$[ebp]
	push	ecx
	call	DWORD PTR __imp__strcpy_s
	add	esp, 12					; 0000000cH
	cmp	esi, esp
	call	__RTC_CheckEsp

; 21   : }

	mov	eax, DWORD PTR _this$[ebp]
	pop	edi
	pop	esi
	pop	ebx
	add	esp, 204				; 000000ccH
	cmp	ebp, esp
	call	__RTC_CheckEsp
	mov	esp, ebp
	pop	ebp
	ret	4
??0ResourceName@@QAE@ABV0@@Z ENDP			; ResourceName::ResourceName
_TEXT	ENDS
; Function compile flags: /Odtp /RTCsu /ZI
; File C:\Users\tim23\Documents\Visual Studio 2019\Projects\Project2D\Project2D\ResourceManager\ResourceName.cpp
;	COMDAT ??0ResourceName@@QAE@PBD@Z
_TEXT	SEGMENT
_this$ = -8						; size = 4
_newName$ = 8						; size = 4
??0ResourceName@@QAE@PBD@Z PROC				; ResourceName::ResourceName, COMDAT
; _this$ = ecx

; 15   : ResourceName::ResourceName(const char* newName) {

	push	ebp
	mov	ebp, esp
	sub	esp, 204				; 000000ccH
	push	ebx
	push	esi
	push	edi
	push	ecx
	lea	edi, DWORD PTR [ebp-204]
	mov	ecx, 51					; 00000033H
	mov	eax, -858993460				; ccccccccH
	rep stosd
	pop	ecx
	mov	DWORD PTR _this$[ebp], ecx
	mov	ecx, OFFSET __0049D49A_ResourceName@cpp
	call	@__CheckForDebuggerJustMyCode@4

; 16   :     assign(newName);

	mov	eax, DWORD PTR _newName$[ebp]
	push	eax
	mov	ecx, DWORD PTR _this$[ebp]
	call	?assign@ResourceName@@AAEXPBD@Z		; ResourceName::assign

; 17   : }

	mov	eax, DWORD PTR _this$[ebp]
	pop	edi
	pop	esi
	pop	ebx
	add	esp, 204				; 000000ccH
	cmp	ebp, esp
	call	__RTC_CheckEsp
	mov	esp, ebp
	pop	ebp
	ret	4
??0ResourceName@@QAE@PBD@Z ENDP				; ResourceName::ResourceName
_TEXT	ENDS
; Function compile flags: /Odtp /RTCsu /ZI
; File C:\Users\tim23\Documents\Visual Studio 2019\Projects\Project2D\Project2D\ResourceManager\ResourceName.cpp
;	COMDAT ?assign@ResourceName@@AAEXPBD@Z
_TEXT	SEGMENT
_i$ = -20						; size = 4
_this$ = -8						; size = 4
_newName$ = 8						; size = 4
?assign@ResourceName@@AAEXPBD@Z PROC			; ResourceName::assign, COMDAT
; _this$ = ecx

; 7    : void ResourceName::assign(const char* newName) {

	push	ebp
	mov	ebp, esp
	sub	esp, 216				; 000000d8H
	push	ebx
	push	esi
	push	edi
	push	ecx
	lea	edi, DWORD PTR [ebp-216]
	mov	ecx, 54					; 00000036H
	mov	eax, -858993460				; ccccccccH
	rep stosd
	pop	ecx
	mov	DWORD PTR _this$[ebp], ecx
	mov	ecx, OFFSET __0049D49A_ResourceName@cpp
	call	@__CheckForDebuggerJustMyCode@4

; 8    :     size_t i;
; 9    :     for (i = 0; newName[i]; ++i) {

	mov	DWORD PTR _i$[ebp], 0
	jmp	SHORT $LN4@assign
$LN2@assign:
	mov	eax, DWORD PTR _i$[ebp]
	add	eax, 1
	mov	DWORD PTR _i$[ebp], eax
$LN4@assign:
	mov	eax, DWORD PTR _newName$[ebp]
	add	eax, DWORD PTR _i$[ebp]
	movsx	ecx, BYTE PTR [eax]
	test	ecx, ecx
	je	SHORT $LN3@assign

; 10   :         name[i] = tolower(newName[i]);

	mov	eax, DWORD PTR _newName$[ebp]
	add	eax, DWORD PTR _i$[ebp]
	movsx	ecx, BYTE PTR [eax]
	mov	esi, esp
	push	ecx
	call	DWORD PTR __imp__tolower
	add	esp, 4
	cmp	esi, esp
	call	__RTC_CheckEsp
	mov	edx, DWORD PTR _this$[ebp]
	add	edx, DWORD PTR _i$[ebp]
	mov	BYTE PTR [edx], al

; 11   :     }

	jmp	SHORT $LN2@assign
$LN3@assign:

; 12   :     name[i] = '\0';

	mov	eax, DWORD PTR _this$[ebp]
	add	eax, DWORD PTR _i$[ebp]
	mov	BYTE PTR [eax], 0

; 13   : }

	pop	edi
	pop	esi
	pop	ebx
	add	esp, 216				; 000000d8H
	cmp	ebp, esp
	call	__RTC_CheckEsp
	mov	esp, ebp
	pop	ebp
	ret	4
?assign@ResourceName@@AAEXPBD@Z ENDP			; ResourceName::assign
_TEXT	ENDS
END
