; Listing generated by Microsoft (R) Optimizing Compiler Version 19.28.29335.0 

	TITLE	C:\Users\tim23\Documents\Visual Studio 2019\Projects\Project2D\Project2D\ResourceManager\Zip\ZipFileSystem.cpp
	.686P
	.XMM
	include listing.inc
	.model	flat

INCLUDELIB MSVCRTD
INCLUDELIB OLDNAMES

msvcjmc	SEGMENT
__8B404B8B_vcruntime_new@h DB 01H
__3C2D1DF9_Resource@h DB 01H
__810F60AC_FileSystem@h DB 01H
__2A0FE41E_ResourceName@h DB 01H
__A2143F22_corecrt_stdio_config@h DB 01H
__829E1958_corecrt_wstdio@h DB 01H
__6DFAE8B8_stdio@h DB 01H
__741AE07E_corecrt_math@h DB 01H
__B49664B7_stdlib@h DB 01H
__E9466C31_cstdlib DB 01H
__415253A4_cmath DB 01H
__1FEB9909_corecrt_memcpy_s@h DB 01H
__A751F051_corecrt_memory@h DB 01H
__9200769A_corecrt_wstring@h DB 01H
__32E5F013_string@h DB 01H
__C6E16F6F_corecrt_wconio@h DB 01H
__6D390390_corecrt_wio@h DB 01H
__1157D6BA_corecrt_wtime@h DB 01H
__1DC1E279_stat@h DB 01H
__93DC0B45_wchar@h DB 01H
__4C8DB69C_cstddef DB 01H
__A47FD3F7_limits DB 01H
__77E6CA79_type_traits DB 01H
__20BB4341_malloc@h DB 01H
__604808BE_vcruntime_exception@h DB 01H
__8655F6A9_exception DB 01H
__DEE7E6EF_xutility DB 01H
__B4DE8A79_xmemory DB 01H
__E7714AE5_tuple DB 01H
__EA01D114_xpolymorphic_allocator@h DB 01H
__7EACF2A1_xbit_ops@h DB 01H
__C00D0CE5_xstring DB 01H
__2EFD93C2_xhash DB 01H
__8DDDD29B_ZipFile@h DB 01H
__CAC6B671_ZipFileSystem@h DB 01H
__674973E3_ZipFileSystem@cpp DB 01H
__EA3A8D1F_unordered_map DB 01H
__71B70C9A_list DB 01H
__DE4BE9BA_utility DB 01H
__29547EA8_xstddef DB 01H
__E9D2A317_vector DB 01H
msvcjmc	ENDS
PUBLIC	?init@ZipFileSystem@@UAE_NABVResourceName@@@Z	; ZipFileSystem::init
PUBLIC	?release@ZipFileSystem@@UAEXXZ			; ZipFileSystem::release
PUBLIC	?getResourceSize@ZipFileSystem@@UAE_NABVResourceName@@AAI@Z ; ZipFileSystem::getResourceSize
PUBLIC	?getResourceSize@ZipFileSystem@@UAE_NIAAI@Z	; ZipFileSystem::getResourceSize
PUBLIC	?getResourceData@ZipFileSystem@@UAE_NABVResourceName@@PAXI@Z ; ZipFileSystem::getResourceData
PUBLIC	?getResourceData@ZipFileSystem@@UAE_NIPAXI@Z	; ZipFileSystem::getResourceData
PUBLIC	?getResourceBinaryData@ZipFileSystem@@UAE_NABVResourceName@@PAXI@Z ; ZipFileSystem::getResourceBinaryData
PUBLIC	?getResourceBinaryData@ZipFileSystem@@UAE_NIPAXI@Z ; ZipFileSystem::getResourceBinaryData
PUBLIC	?getResourceName@ZipFileSystem@@QAE?AVResourceName@@I@Z ; ZipFileSystem::getResourceName
PUBLIC	__JustMyCode_Default
EXTRN	?hash@ResourceName@@QBEIXZ:PROC			; ResourceName::hash
EXTRN	?init@ZipFile@@QAE_NABVResourceName@@@Z:PROC	; ZipFile::init
EXTRN	?release@ZipFile@@QAEXXZ:PROC			; ZipFile::release
EXTRN	?readFileData@ZipFile@@QAE_NIPAXI@Z:PROC	; ZipFile::readFileData
EXTRN	?getFileDataSize@ZipFile@@QAE_NIAAI@Z:PROC	; ZipFile::getFileDataSize
EXTRN	?getFileName@ZipFile@@QAE?AVResourceName@@I@Z:PROC ; ZipFile::getFileName
EXTRN	@__CheckForDebuggerJustMyCode@4:PROC
EXTRN	__RTC_CheckEsp:PROC
EXTRN	__RTC_InitBase:PROC
EXTRN	__RTC_Shutdown:PROC
;	COMDAT rtc$TMZ
rtc$TMZ	SEGMENT
__RTC_Shutdown.rtc$TMZ DD FLAT:__RTC_Shutdown
rtc$TMZ	ENDS
;	COMDAT rtc$IMZ
rtc$IMZ	SEGMENT
__RTC_InitBase.rtc$IMZ DD FLAT:__RTC_InitBase
rtc$IMZ	ENDS
; Function compile flags: /Odt
;	COMDAT __JustMyCode_Default
_TEXT	SEGMENT
__JustMyCode_Default PROC				; COMDAT
	push	ebp
	mov	ebp, esp
	pop	ebp
	ret	0
__JustMyCode_Default ENDP
_TEXT	ENDS
; Function compile flags: /Odtp /RTCsu /ZI
; File C:\Users\tim23\Documents\Visual Studio 2019\Projects\Project2D\Project2D\ResourceManager\Zip\ZipFileSystem.cpp
;	COMDAT ?getResourceName@ZipFileSystem@@QAE?AVResourceName@@I@Z
_TEXT	SEGMENT
tv70 = -208						; size = 4
_this$ = -8						; size = 4
___$ReturnUdt$ = 8					; size = 4
_resourceID$ = 12					; size = 4
?getResourceName@ZipFileSystem@@QAE?AVResourceName@@I@Z PROC ; ZipFileSystem::getResourceName, COMDAT
; _this$ = ecx

; 35   : ResourceName ZipFileSystem::getResourceName(ResourceID resourceID) {

	push	ebp
	mov	ebp, esp
	sub	esp, 208				; 000000d0H
	push	ebx
	push	esi
	push	edi
	push	ecx
	lea	edi, DWORD PTR [ebp-208]
	mov	ecx, 52					; 00000034H
	mov	eax, -858993460				; ccccccccH
	rep stosd
	pop	ecx
	mov	DWORD PTR _this$[ebp], ecx
	mov	ecx, OFFSET __674973E3_ZipFileSystem@cpp
	call	@__CheckForDebuggerJustMyCode@4

; 36   :     return zipFile.getFileName(resourceID);

	mov	eax, DWORD PTR _this$[ebp]
	add	eax, 4
	mov	DWORD PTR tv70[ebp], eax
	mov	ecx, DWORD PTR _resourceID$[ebp]
	push	ecx
	mov	edx, DWORD PTR ___$ReturnUdt$[ebp]
	push	edx
	mov	ecx, DWORD PTR tv70[ebp]
	call	?getFileName@ZipFile@@QAE?AVResourceName@@I@Z ; ZipFile::getFileName
	mov	eax, DWORD PTR ___$ReturnUdt$[ebp]

; 37   : }

	pop	edi
	pop	esi
	pop	ebx
	add	esp, 208				; 000000d0H
	cmp	ebp, esp
	call	__RTC_CheckEsp
	mov	esp, ebp
	pop	ebp
	ret	8
?getResourceName@ZipFileSystem@@QAE?AVResourceName@@I@Z ENDP ; ZipFileSystem::getResourceName
_TEXT	ENDS
; Function compile flags: /Odtp /RTCsu /ZI
; File C:\Users\tim23\Documents\Visual Studio 2019\Projects\Project2D\Project2D\ResourceManager\Zip\ZipFileSystem.cpp
;	COMDAT ?getResourceBinaryData@ZipFileSystem@@UAE_NIPAXI@Z
_TEXT	SEGMENT
tv71 = -208						; size = 4
_this$ = -8						; size = 4
_resourceID$ = 8					; size = 4
_data$ = 12						; size = 4
_resourceSize$ = 16					; size = 4
?getResourceBinaryData@ZipFileSystem@@UAE_NIPAXI@Z PROC	; ZipFileSystem::getResourceBinaryData, COMDAT
; _this$ = ecx

; 31   : bool ZipFileSystem::getResourceBinaryData(ResourceID resourceID, void* data, size_t resourceSize) {

	push	ebp
	mov	ebp, esp
	sub	esp, 208				; 000000d0H
	push	ebx
	push	esi
	push	edi
	push	ecx
	lea	edi, DWORD PTR [ebp-208]
	mov	ecx, 52					; 00000034H
	mov	eax, -858993460				; ccccccccH
	rep stosd
	pop	ecx
	mov	DWORD PTR _this$[ebp], ecx
	mov	ecx, OFFSET __674973E3_ZipFileSystem@cpp
	call	@__CheckForDebuggerJustMyCode@4

; 32   :     return zipFile.readFileData(resourceID, data, resourceSize);;

	mov	eax, DWORD PTR _this$[ebp]
	add	eax, 4
	mov	DWORD PTR tv71[ebp], eax
	mov	ecx, DWORD PTR _resourceSize$[ebp]
	push	ecx
	mov	edx, DWORD PTR _data$[ebp]
	push	edx
	mov	eax, DWORD PTR _resourceID$[ebp]
	push	eax
	mov	ecx, DWORD PTR tv71[ebp]
	call	?readFileData@ZipFile@@QAE_NIPAXI@Z	; ZipFile::readFileData

; 33   : }

	pop	edi
	pop	esi
	pop	ebx
	add	esp, 208				; 000000d0H
	cmp	ebp, esp
	call	__RTC_CheckEsp
	mov	esp, ebp
	pop	ebp
	ret	12					; 0000000cH
?getResourceBinaryData@ZipFileSystem@@UAE_NIPAXI@Z ENDP	; ZipFileSystem::getResourceBinaryData
_TEXT	ENDS
; Function compile flags: /Odtp /RTCsu /ZI
; File C:\Users\tim23\Documents\Visual Studio 2019\Projects\Project2D\Project2D\ResourceManager\Zip\ZipFileSystem.cpp
;	COMDAT ?getResourceBinaryData@ZipFileSystem@@UAE_NABVResourceName@@PAXI@Z
_TEXT	SEGMENT
_this$ = -8						; size = 4
_resourceName$ = 8					; size = 4
_data$ = 12						; size = 4
_resourceSize$ = 16					; size = 4
?getResourceBinaryData@ZipFileSystem@@UAE_NABVResourceName@@PAXI@Z PROC ; ZipFileSystem::getResourceBinaryData, COMDAT
; _this$ = ecx

; 27   : bool ZipFileSystem::getResourceBinaryData(const ResourceName& resourceName, void* data, size_t resourceSize) {

	push	ebp
	mov	ebp, esp
	sub	esp, 204				; 000000ccH
	push	ebx
	push	esi
	push	edi
	push	ecx
	lea	edi, DWORD PTR [ebp-204]
	mov	ecx, 51					; 00000033H
	mov	eax, -858993460				; ccccccccH
	rep stosd
	pop	ecx
	mov	DWORD PTR _this$[ebp], ecx
	mov	ecx, OFFSET __674973E3_ZipFileSystem@cpp
	call	@__CheckForDebuggerJustMyCode@4

; 28   :     return getResourceBinaryData(resourceName.hash(), data, resourceSize);;

	mov	eax, DWORD PTR _resourceSize$[ebp]
	push	eax
	mov	ecx, DWORD PTR _data$[ebp]
	push	ecx
	mov	ecx, DWORD PTR _resourceName$[ebp]
	call	?hash@ResourceName@@QBEIXZ		; ResourceName::hash
	push	eax
	mov	ecx, DWORD PTR _this$[ebp]
	call	?getResourceBinaryData@ZipFileSystem@@UAE_NIPAXI@Z ; ZipFileSystem::getResourceBinaryData

; 29   : }

	pop	edi
	pop	esi
	pop	ebx
	add	esp, 204				; 000000ccH
	cmp	ebp, esp
	call	__RTC_CheckEsp
	mov	esp, ebp
	pop	ebp
	ret	12					; 0000000cH
?getResourceBinaryData@ZipFileSystem@@UAE_NABVResourceName@@PAXI@Z ENDP ; ZipFileSystem::getResourceBinaryData
_TEXT	ENDS
; Function compile flags: /Odtp /RTCsu /ZI
; File C:\Users\tim23\Documents\Visual Studio 2019\Projects\Project2D\Project2D\ResourceManager\Zip\ZipFileSystem.cpp
;	COMDAT ?getResourceData@ZipFileSystem@@UAE_NIPAXI@Z
_TEXT	SEGMENT
tv71 = -208						; size = 4
_this$ = -8						; size = 4
_resourceID$ = 8					; size = 4
_data$ = 12						; size = 4
_resourceSize$ = 16					; size = 4
?getResourceData@ZipFileSystem@@UAE_NIPAXI@Z PROC	; ZipFileSystem::getResourceData, COMDAT
; _this$ = ecx

; 23   : bool ZipFileSystem::getResourceData(ResourceID resourceID, void* data, size_t resourceSize) {

	push	ebp
	mov	ebp, esp
	sub	esp, 208				; 000000d0H
	push	ebx
	push	esi
	push	edi
	push	ecx
	lea	edi, DWORD PTR [ebp-208]
	mov	ecx, 52					; 00000034H
	mov	eax, -858993460				; ccccccccH
	rep stosd
	pop	ecx
	mov	DWORD PTR _this$[ebp], ecx
	mov	ecx, OFFSET __674973E3_ZipFileSystem@cpp
	call	@__CheckForDebuggerJustMyCode@4

; 24   :     return zipFile.readFileData(resourceID, data, resourceSize);

	mov	eax, DWORD PTR _this$[ebp]
	add	eax, 4
	mov	DWORD PTR tv71[ebp], eax
	mov	ecx, DWORD PTR _resourceSize$[ebp]
	push	ecx
	mov	edx, DWORD PTR _data$[ebp]
	push	edx
	mov	eax, DWORD PTR _resourceID$[ebp]
	push	eax
	mov	ecx, DWORD PTR tv71[ebp]
	call	?readFileData@ZipFile@@QAE_NIPAXI@Z	; ZipFile::readFileData

; 25   : }

	pop	edi
	pop	esi
	pop	ebx
	add	esp, 208				; 000000d0H
	cmp	ebp, esp
	call	__RTC_CheckEsp
	mov	esp, ebp
	pop	ebp
	ret	12					; 0000000cH
?getResourceData@ZipFileSystem@@UAE_NIPAXI@Z ENDP	; ZipFileSystem::getResourceData
_TEXT	ENDS
; Function compile flags: /Odtp /RTCsu /ZI
; File C:\Users\tim23\Documents\Visual Studio 2019\Projects\Project2D\Project2D\ResourceManager\Zip\ZipFileSystem.cpp
;	COMDAT ?getResourceData@ZipFileSystem@@UAE_NABVResourceName@@PAXI@Z
_TEXT	SEGMENT
_this$ = -8						; size = 4
_resourceName$ = 8					; size = 4
_data$ = 12						; size = 4
_resourceSize$ = 16					; size = 4
?getResourceData@ZipFileSystem@@UAE_NABVResourceName@@PAXI@Z PROC ; ZipFileSystem::getResourceData, COMDAT
; _this$ = ecx

; 19   : bool ZipFileSystem::getResourceData(const ResourceName& resourceName, void* data, size_t resourceSize) {

	push	ebp
	mov	ebp, esp
	sub	esp, 204				; 000000ccH
	push	ebx
	push	esi
	push	edi
	push	ecx
	lea	edi, DWORD PTR [ebp-204]
	mov	ecx, 51					; 00000033H
	mov	eax, -858993460				; ccccccccH
	rep stosd
	pop	ecx
	mov	DWORD PTR _this$[ebp], ecx
	mov	ecx, OFFSET __674973E3_ZipFileSystem@cpp
	call	@__CheckForDebuggerJustMyCode@4

; 20   :     return getResourceData(resourceName.hash(), data, resourceSize);

	mov	eax, DWORD PTR _resourceSize$[ebp]
	push	eax
	mov	ecx, DWORD PTR _data$[ebp]
	push	ecx
	mov	ecx, DWORD PTR _resourceName$[ebp]
	call	?hash@ResourceName@@QBEIXZ		; ResourceName::hash
	push	eax
	mov	ecx, DWORD PTR _this$[ebp]
	call	?getResourceData@ZipFileSystem@@UAE_NIPAXI@Z ; ZipFileSystem::getResourceData

; 21   : }

	pop	edi
	pop	esi
	pop	ebx
	add	esp, 204				; 000000ccH
	cmp	ebp, esp
	call	__RTC_CheckEsp
	mov	esp, ebp
	pop	ebp
	ret	12					; 0000000cH
?getResourceData@ZipFileSystem@@UAE_NABVResourceName@@PAXI@Z ENDP ; ZipFileSystem::getResourceData
_TEXT	ENDS
; Function compile flags: /Odtp /RTCsu /ZI
; File C:\Users\tim23\Documents\Visual Studio 2019\Projects\Project2D\Project2D\ResourceManager\Zip\ZipFileSystem.cpp
;	COMDAT ?getResourceSize@ZipFileSystem@@UAE_NIAAI@Z
_TEXT	SEGMENT
tv70 = -208						; size = 4
_this$ = -8						; size = 4
_resourceID$ = 8					; size = 4
_resourceSize$ = 12					; size = 4
?getResourceSize@ZipFileSystem@@UAE_NIAAI@Z PROC	; ZipFileSystem::getResourceSize, COMDAT
; _this$ = ecx

; 15   : bool ZipFileSystem::getResourceSize(ResourceID resourceID, size_t& resourceSize) {

	push	ebp
	mov	ebp, esp
	sub	esp, 208				; 000000d0H
	push	ebx
	push	esi
	push	edi
	push	ecx
	lea	edi, DWORD PTR [ebp-208]
	mov	ecx, 52					; 00000034H
	mov	eax, -858993460				; ccccccccH
	rep stosd
	pop	ecx
	mov	DWORD PTR _this$[ebp], ecx
	mov	ecx, OFFSET __674973E3_ZipFileSystem@cpp
	call	@__CheckForDebuggerJustMyCode@4

; 16   :     return zipFile.getFileDataSize(resourceID, resourceSize);

	mov	eax, DWORD PTR _this$[ebp]
	add	eax, 4
	mov	DWORD PTR tv70[ebp], eax
	mov	ecx, DWORD PTR _resourceSize$[ebp]
	push	ecx
	mov	edx, DWORD PTR _resourceID$[ebp]
	push	edx
	mov	ecx, DWORD PTR tv70[ebp]
	call	?getFileDataSize@ZipFile@@QAE_NIAAI@Z	; ZipFile::getFileDataSize

; 17   : }

	pop	edi
	pop	esi
	pop	ebx
	add	esp, 208				; 000000d0H
	cmp	ebp, esp
	call	__RTC_CheckEsp
	mov	esp, ebp
	pop	ebp
	ret	8
?getResourceSize@ZipFileSystem@@UAE_NIAAI@Z ENDP	; ZipFileSystem::getResourceSize
_TEXT	ENDS
; Function compile flags: /Odtp /RTCsu /ZI
; File C:\Users\tim23\Documents\Visual Studio 2019\Projects\Project2D\Project2D\ResourceManager\Zip\ZipFileSystem.cpp
;	COMDAT ?getResourceSize@ZipFileSystem@@UAE_NABVResourceName@@AAI@Z
_TEXT	SEGMENT
_this$ = -8						; size = 4
_resourceName$ = 8					; size = 4
_resourceSize$ = 12					; size = 4
?getResourceSize@ZipFileSystem@@UAE_NABVResourceName@@AAI@Z PROC ; ZipFileSystem::getResourceSize, COMDAT
; _this$ = ecx

; 11   : bool ZipFileSystem::getResourceSize(const ResourceName& resourceName, size_t& resourceSize) {

	push	ebp
	mov	ebp, esp
	sub	esp, 204				; 000000ccH
	push	ebx
	push	esi
	push	edi
	push	ecx
	lea	edi, DWORD PTR [ebp-204]
	mov	ecx, 51					; 00000033H
	mov	eax, -858993460				; ccccccccH
	rep stosd
	pop	ecx
	mov	DWORD PTR _this$[ebp], ecx
	mov	ecx, OFFSET __674973E3_ZipFileSystem@cpp
	call	@__CheckForDebuggerJustMyCode@4

; 12   :     return getResourceSize(resourceName.hash(), resourceSize);

	mov	eax, DWORD PTR _resourceSize$[ebp]
	push	eax
	mov	ecx, DWORD PTR _resourceName$[ebp]
	call	?hash@ResourceName@@QBEIXZ		; ResourceName::hash
	push	eax
	mov	ecx, DWORD PTR _this$[ebp]
	call	?getResourceSize@ZipFileSystem@@UAE_NIAAI@Z ; ZipFileSystem::getResourceSize

; 13   : }

	pop	edi
	pop	esi
	pop	ebx
	add	esp, 204				; 000000ccH
	cmp	ebp, esp
	call	__RTC_CheckEsp
	mov	esp, ebp
	pop	ebp
	ret	8
?getResourceSize@ZipFileSystem@@UAE_NABVResourceName@@AAI@Z ENDP ; ZipFileSystem::getResourceSize
_TEXT	ENDS
; Function compile flags: /Odtp /RTCsu /ZI
; File C:\Users\tim23\Documents\Visual Studio 2019\Projects\Project2D\Project2D\ResourceManager\Zip\ZipFileSystem.cpp
;	COMDAT ?release@ZipFileSystem@@UAEXXZ
_TEXT	SEGMENT
_this$ = -8						; size = 4
?release@ZipFileSystem@@UAEXXZ PROC			; ZipFileSystem::release, COMDAT
; _this$ = ecx

; 7    : void ZipFileSystem::release() {

	push	ebp
	mov	ebp, esp
	sub	esp, 204				; 000000ccH
	push	ebx
	push	esi
	push	edi
	push	ecx
	lea	edi, DWORD PTR [ebp-204]
	mov	ecx, 51					; 00000033H
	mov	eax, -858993460				; ccccccccH
	rep stosd
	pop	ecx
	mov	DWORD PTR _this$[ebp], ecx
	mov	ecx, OFFSET __674973E3_ZipFileSystem@cpp
	call	@__CheckForDebuggerJustMyCode@4

; 8    :     zipFile.release();

	mov	ecx, DWORD PTR _this$[ebp]
	add	ecx, 4
	call	?release@ZipFile@@QAEXXZ		; ZipFile::release

; 9    : }

	pop	edi
	pop	esi
	pop	ebx
	add	esp, 204				; 000000ccH
	cmp	ebp, esp
	call	__RTC_CheckEsp
	mov	esp, ebp
	pop	ebp
	ret	0
?release@ZipFileSystem@@UAEXXZ ENDP			; ZipFileSystem::release
_TEXT	ENDS
; Function compile flags: /Odtp /RTCsu /ZI
; File C:\Users\tim23\Documents\Visual Studio 2019\Projects\Project2D\Project2D\ResourceManager\Zip\ZipFileSystem.cpp
;	COMDAT ?init@ZipFileSystem@@UAE_NABVResourceName@@@Z
_TEXT	SEGMENT
tv69 = -208						; size = 4
_this$ = -8						; size = 4
_path$ = 8						; size = 4
?init@ZipFileSystem@@UAE_NABVResourceName@@@Z PROC	; ZipFileSystem::init, COMDAT
; _this$ = ecx

; 3    : bool ZipFileSystem::init(const ResourceName& path) {

	push	ebp
	mov	ebp, esp
	sub	esp, 208				; 000000d0H
	push	ebx
	push	esi
	push	edi
	push	ecx
	lea	edi, DWORD PTR [ebp-208]
	mov	ecx, 52					; 00000034H
	mov	eax, -858993460				; ccccccccH
	rep stosd
	pop	ecx
	mov	DWORD PTR _this$[ebp], ecx
	mov	ecx, OFFSET __674973E3_ZipFileSystem@cpp
	call	@__CheckForDebuggerJustMyCode@4

; 4    :     return zipFile.init(path);

	mov	eax, DWORD PTR _this$[ebp]
	add	eax, 4
	mov	DWORD PTR tv69[ebp], eax
	mov	ecx, DWORD PTR _path$[ebp]
	push	ecx
	mov	ecx, DWORD PTR tv69[ebp]
	call	?init@ZipFile@@QAE_NABVResourceName@@@Z	; ZipFile::init

; 5    : }

	pop	edi
	pop	esi
	pop	ebx
	add	esp, 208				; 000000d0H
	cmp	ebp, esp
	call	__RTC_CheckEsp
	mov	esp, ebp
	pop	ebp
	ret	4
?init@ZipFileSystem@@UAE_NABVResourceName@@@Z ENDP	; ZipFileSystem::init
_TEXT	ENDS
END
